 win_32.xpl

 Timestamp is 53e74e53 (Sun Aug 10 12:49:55 2014)

 Preferred load address is 10000000

 Start         Length     Name                   Class
 0001:00000000 00001509H .text$di                CODE
 0001:00001510 0003f5b4H .text$mn                CODE
 0001:00040ad0 000009ebH .text$x                 CODE
 0001:000414c0 00000489H .text$yd                CODE
 0002:00000000 00000308H .idata$5                DATA
 0002:00000308 00000004H .CRT$XCA                DATA
 0002:0000030c 00000004H .CRT$XCL                DATA
 0002:00000310 00000194H .CRT$XCU                DATA
 0002:000004a4 00000004H .CRT$XCZ                DATA
 0002:000004a8 00000004H .CRT$XIA                DATA
 0002:000004ac 00000004H .CRT$XIAA               DATA
 0002:000004b0 00000008H .CRT$XIC                DATA
 0002:000004b8 00000004H .CRT$XIZ                DATA
 0002:000004c0 00005160H .rdata                  DATA
 0002:00005620 00000068H .rdata$debug            DATA
 0002:00005688 00000ab8H .rdata$r                DATA
 0002:00006140 00000140H .rdata$sxdata           DATA
 0002:00006280 00000004H .rtc$IAA                DATA
 0002:00006284 00000004H .rtc$IZZ                DATA
 0002:00006288 00000004H .rtc$TAA                DATA
 0002:0000628c 00000004H .rtc$TZZ                DATA
 0002:00006290 00001d44H .xdata$x                DATA
 0002:00007fe0 000000b5H .edata                  DATA
 0002:00008098 00000078H .idata$2                DATA
 0002:00008110 00000014H .idata$3                DATA
 0002:00008124 00000308H .idata$4                DATA
 0002:0000842c 000017a6H .idata$6                DATA
 0003:00000000 00000018H .data                   DATA
 0003:00000018 000005ccH .data$r                 DATA
 0003:000005e8 00000468H .bss                    DATA

  Address         Publics by Value              Rva+Base       Lib:Object

 0000:00000000       __except_list              00000000     <absolute>
 0000:00000000       ___guard_fids_count        00000000     <absolute>
 0000:00000000       ___guard_fids_table        00000000     <absolute>
 0000:00000000       ___guard_flags             00000000     <absolute>
 0000:00000050       ___safe_se_handler_count   00000050     <absolute>
 0000:00009876       __ldused                   00009876     <absolute>
 0000:00009876       __fltused                  00009876     <absolute>
 0000:00000000       ___ImageBase               10000000     <linker-defined>
 0001:00001510       _XPluginStart              10002510 f   main.obj
 0001:00001650       _XPluginEnable             10002650 f   main.obj
 0001:00001680       _XPluginDisable            10002680 f   main.obj
 0001:000016a0       _XPluginStop               100026a0 f   main.obj
 0001:000016e0       _XPluginReceiveMessage     100026e0 f   main.obj
 0001:000016f0       _DllMain@12                100026f0 f   main.obj
 0001:00001710       ??$_Allocate@D@std@@YAPADIPAD@Z 10002710 f i main.obj
 0001:00001750       ??$addressof@D@std@@YAPADAAD@Z 10002750 f i main.obj
 0001:00001760       ??$construct@PADAAPAD@?$_Wrap_alloc@V?$allocator@D@std@@@std@@QAEXPAPADAAPAD@Z 10002760 f i main.obj
 0001:00001790       ??$construct@PADAAPAD@?$allocator@D@std@@QAEXPAPADAAPAD@Z 10002790 f i main.obj
 0001:000017e0       ??$construct@PADAAPAD@?$allocator_traits@V?$allocator@D@std@@@std@@SAXAAV?$allocator@D@1@PAPADAAPAD@Z 100027e0 f i main.obj
 0001:00001800       ??$destroy@PAD@?$_Wrap_alloc@V?$allocator@D@std@@@std@@QAEXPAPAD@Z 10002800 f i main.obj
 0001:00001820       ??$destroy@PAD@?$allocator@D@std@@QAEXPAPAD@Z 10002820 f i main.obj
 0001:00001830       ??$destroy@PAD@?$allocator_traits@V?$allocator@D@std@@@std@@SAXAAV?$allocator@D@1@PAPAD@Z 10002830 f i main.obj
 0001:00001850       ??$forward@AAPAD@std@@YAAAPADAAPAD@Z 10002850 f i main.obj
 0001:00001860       ??0?$_String_alloc@$0A@U?$_String_base_types@DV?$allocator@D@std@@@std@@@std@@QAE@ABV?$allocator@D@1@@Z 10002860 f i main.obj
 0001:00001880       ??0?$_String_val@U?$_Simple_types@D@std@@@std@@QAE@XZ 10002880 f i main.obj
 0001:000018b0       ??0?$_Wrap_alloc@V?$allocator@D@std@@@std@@QAE@XZ 100028b0 f i main.obj
 0001:000018d0       ??0?$allocator@D@std@@QAE@XZ 100028d0 f i main.obj
 0001:000018e0       ??0?$basic_string@DU?$char_traits@D@std@@V?$allocator@D@2@@std@@QAE@PBD@Z 100028e0 f i main.obj
 0001:00001920       ??0_Generic_error_category@std@@QAE@XZ 10002920 f i main.obj
 0001:00001940       ??0_Ignore@std@@QAE@XZ     10002940 f i main.obj
 0001:00001950       ??0_Iostream_error_category@std@@QAE@XZ 10002950 f i main.obj
 0001:00001970       ??0_System_error_category@std@@QAE@XZ 10002970 f i main.obj
 0001:00001990       ??0error_category@std@@QAE@XZ 10002990 f i main.obj
 0001:000019b0       ??0error_condition@std@@QAE@HABVerror_category@1@@Z 100029b0 f i main.obj
 0001:000019e0       ??1_Generic_error_category@std@@UAE@XZ 100029e0 f i main.obj
 0001:00001a00       ??1_Iostream_error_category@std@@UAE@XZ 10002a00 f i main.obj
 0001:00001a20       ??1_System_error_category@std@@UAE@XZ 10002a20 f i main.obj
 0001:00001a40       ??1error_category@std@@UAE@XZ 10002a40 f i main.obj
 0001:00001a60       ??2@YAPAXIPAX@Z            10002a60 f i main.obj
 0001:00001a70       ??8error_category@std@@QBE_NABV01@@Z 10002a70 f i main.obj
 0001:00001aa0       ??8error_condition@std@@QBE_NABV01@@Z 10002aa0 f i main.obj
 0001:00001b00       ??_E_Generic_error_category@std@@UAEPAXI@Z 10002b00 f i main.obj
 0001:00001b00       ??_G_Generic_error_category@std@@UAEPAXI@Z 10002b00 f i main.obj
 0001:00001b30       ??_G_Iostream_error_category@std@@UAEPAXI@Z 10002b30 f i main.obj
 0001:00001b30       ??_E_Iostream_error_category@std@@UAEPAXI@Z 10002b30 f i main.obj
 0001:00001b60       ??_E_System_error_category@std@@UAEPAXI@Z 10002b60 f i main.obj
 0001:00001b60       ??_G_System_error_category@std@@UAEPAXI@Z 10002b60 f i main.obj
 0001:00001b90       ??_Gerror_category@std@@UAEPAXI@Z 10002b90 f i main.obj
 0001:00001b90       ??_Eerror_category@std@@UAEPAXI@Z 10002b90 f i main.obj
 0001:00001bc0       ??_Gsession_t@@QAEPAXI@Z   10002bc0 f i main.obj
 0001:00001bf0       ?_Copy@?$basic_string@DU?$char_traits@D@std@@V?$allocator@D@2@@std@@QAEXII@Z 10002bf0 f i main.obj
 0001:00001da0       ?_Eos@?$basic_string@DU?$char_traits@D@std@@V?$allocator@D@2@@std@@QAEXI@Z 10002da0 f i main.obj
 0001:00001de0       ?_Getal@?$_String_alloc@$0A@U?$_String_base_types@DV?$allocator@D@std@@@std@@@std@@QBE?AU?$_Wrap_alloc@V?$allocator@D@std@@@2@XZ 10002de0 f i main.obj
 0001:00001e00       ?_Grow@?$basic_string@DU?$char_traits@D@std@@V?$allocator@D@2@@std@@QAE_NI_N@Z 10002e00 f i main.obj
 0001:00001eb0       ?_Inside@?$basic_string@DU?$char_traits@D@std@@V?$allocator@D@2@@std@@QAE_NPBD@Z 10002eb0 f i main.obj
 0001:00001ef0       ?_Myptr@?$_String_val@U?$_Simple_types@D@std@@@std@@QAEPADXZ 10002ef0 f i main.obj
 0001:00001f30       ?_Myptr@?$_String_val@U?$_Simple_types@D@std@@@std@@QBEPBDXZ 10002f30 f i main.obj
 0001:00001f70       ?_Tidy@?$basic_string@DU?$char_traits@D@std@@V?$allocator@D@2@@std@@QAEX_NI@Z 10002f70 f i main.obj
 0001:00002010       ?_Xlen@?$basic_string@DU?$char_traits@D@std@@V?$allocator@D@2@@std@@QBEXXZ 10003010 f i main.obj
 0001:00002030       ?_Xran@?$basic_string@DU?$char_traits@D@std@@V?$allocator@D@2@@std@@QBEXXZ 10003030 f i main.obj
 0001:00002050       ?allocate@?$_Wrap_alloc@V?$allocator@D@std@@@std@@QAEPADI@Z 10003050 f i main.obj
 0001:00002070       ?allocate@?$allocator@D@std@@QAEPADI@Z 10003070 f i main.obj
 0001:00002090       ?assign@?$basic_string@DU?$char_traits@D@std@@V?$allocator@D@2@@std@@QAEAAV12@ABV12@II@Z 10003090 f i main.obj
 0001:00002140       ?assign@?$basic_string@DU?$char_traits@D@std@@V?$allocator@D@2@@std@@QAEAAV12@PBD@Z 10003140 f i main.obj
 0001:00002170       ?assign@?$basic_string@DU?$char_traits@D@std@@V?$allocator@D@2@@std@@QAEAAV12@PBDI@Z 10003170 f i main.obj
 0001:000021f0       ?assign@?$char_traits@D@std@@SAXAADABD@Z 100031f0 f i main.obj
 0001:00002200       ?category@error_code@std@@QBEABVerror_category@2@XZ 10003200 f i main.obj
 0001:00002220       ?category@error_condition@std@@QBEABVerror_category@2@XZ 10003220 f i main.obj
 0001:00002240       ?copy@?$char_traits@D@std@@SAPADPADPBDI@Z 10003240 f i main.obj
 0001:00002270       ?deallocate@?$_Wrap_alloc@V?$allocator@D@std@@@std@@QAEXPADI@Z 10003270 f i main.obj
 0001:00002290       ?deallocate@?$allocator@D@std@@QAEXPADI@Z 10003290 f i main.obj
 0001:000022b0       ?default_error_condition@_System_error_category@std@@UBE?AVerror_condition@2@H@Z 100032b0 f i main.obj
 0001:00002300       ?default_error_condition@error_category@std@@UBE?AVerror_condition@2@H@Z 10003300 f i main.obj
 0001:00002320       ?equivalent@error_category@std@@UBE_NABVerror_code@2@H@Z 10003320 f i main.obj
 0001:00002370       ?equivalent@error_category@std@@UBE_NHABVerror_condition@2@@Z 10003370 f i main.obj
 0001:000023a0       ?erase@?$basic_string@DU?$char_traits@D@std@@V?$allocator@D@2@@std@@QAEAAV12@I@Z 100033a0 f i main.obj
 0001:000023d0       ?erase@?$basic_string@DU?$char_traits@D@std@@V?$allocator@D@2@@std@@QAEAAV12@II@Z 100033d0 f i main.obj
 0001:00002460       ?generic_category@std@@YAABVerror_category@1@XZ 10003460 f i main.obj
 0001:00002470       ?length@?$char_traits@D@std@@SAIPBD@Z 10003470 f i main.obj
 0001:000024a0       ?max_size@?$_Wrap_alloc@V?$allocator@D@std@@@std@@QBEIXZ 100034a0 f i main.obj
 0001:000024c0       ?max_size@?$allocator@D@std@@QBEIXZ 100034c0 f i main.obj
 0001:000024d0       ?max_size@?$allocator_traits@V?$allocator@D@std@@@std@@SAIABV?$allocator@D@2@@Z 100034d0 f i main.obj
 0001:000024e0       ?max_size@?$basic_string@DU?$char_traits@D@std@@V?$allocator@D@2@@std@@QBEIXZ 100034e0 f i main.obj
 0001:00002520       ?message@_Generic_error_category@std@@UBE?AV?$basic_string@DU?$char_traits@D@std@@V?$allocator@D@2@@2@H@Z 10003520 f i main.obj
 0001:00002570       ?message@_Iostream_error_category@std@@UBE?AV?$basic_string@DU?$char_traits@D@std@@V?$allocator@D@2@@2@H@Z 10003570 f i main.obj
 0001:000025b0       ?message@_System_error_category@std@@UBE?AV?$basic_string@DU?$char_traits@D@std@@V?$allocator@D@2@@2@H@Z 100035b0 f i main.obj
 0001:00002600       ?move@?$char_traits@D@std@@SAPADPADPBDI@Z 10003600 f i main.obj
 0001:00002640       ?name@_Generic_error_category@std@@UBEPBDXZ 10003640 f i main.obj
 0001:00002650       ?name@_Iostream_error_category@std@@UBEPBDXZ 10003650 f i main.obj
 0001:00002660       ?name@_System_error_category@std@@UBEPBDXZ 10003660 f i main.obj
 0001:00002670       ?size@?$basic_string@DU?$char_traits@D@std@@V?$allocator@D@2@@std@@QBEIXZ 10003670 f i main.obj
 0001:00002690       ?system_category@std@@YAABVerror_category@1@XZ 10003690 f i main.obj
 0001:000026a0       ?value@error_code@std@@QBEHXZ 100036a0 f i main.obj
 0001:000026b0       ?value@error_condition@std@@QBEHXZ 100036b0 f i main.obj
 0001:000026c0       _hypot                     100036c0 f i main.obj
 0001:000026f0       ??0session_t@@QAE@XZ       100036f0 f   session.obj
 0001:00002900       ??1session_t@@QAE@XZ       10003900 f   session.obj
 0001:00002a40       ?enable@session_t@@QAEHXZ  10003a40 f   session.obj
 0001:00002a70       ?disable@session_t@@QAEXXZ 10003a70 f   session.obj
 0001:00002a90       ??_Gfms_t@@QAEPAXI@Z       10003a90 f i session.obj
 0001:00002ac0       ??_Ggui_t@@QAEPAXI@Z       10003ac0 f i session.obj
 0001:00002af0       ??_Gin_t@@QAEPAXI@Z        10003af0 f i session.obj
 0001:00002b20       ??_Gmfdpages_t@@QAEPAXI@Z  10003b20 f i session.obj
 0001:00002b50       ??_Gout_t@@QAEPAXI@Z       10003b50 f i session.obj
 0001:00002bc0       ??0tools_t@@QAE@XZ         10003bc0 f   tools.obj
 0001:00002bd0       ?debug_out@tools_t@@QAAXHPBDZZ 10003bd0 f   tools.obj
 0001:00002e00       ?debug_out@tools_t@@SAXPBDZZ 10003e00 f   tools.obj
 0001:00002e80       ??$?0$$QAV?$basic_string@DU?$char_traits@D@std@@V?$allocator@D@2@@std@@$$$V@?$pair@$$CBV?$basic_string@DU?$char_traits@D@std@@V?$allocator@D@2@@std@@V12@@std@@QAE@Upiecewise_construct_t@1@V?$tuple@$$QAV?$basic_string@DU?$char_traits@D@std@@V?$allocator@D@2@@std@@@1@V?$tuple@$$$V@1@@Z 10003e80 f i tools.obj
 0001:00002ec0       ??$?0$$QAV?$basic_string@DU?$char_traits@D@std@@V?$allocator@D@2@@std@@PAPAX@?$tuple@$$QAV?$basic_string@DU?$char_traits@D@std@@V?$allocator@D@2@@std@@@std@@QAE@$$QAV01@@Z 10003ec0 f i tools.obj
 0001:00002f10       ??$?0AAV?$_Tree_iterator@V?$_Tree_val@U?$_Tree_simple_types@U?$pair@$$CBV?$basic_string@DU?$char_traits@D@std@@V?$allocator@D@2@@std@@V12@@std@@@std@@@std@@@std@@_NX@?$pair@V?$_Tree_iterator@V?$_Tree_val@U?$_Tree_simple_types@U?$pair@$$CBV?$basic_string@DU?$char_traits@D@std@@V?$allocator@D@2@@std@@V12@@std@@@std@@@std@@@std@@_N@std@@QAE@AAV?$_Tree_iterator@V?$_Tree_val@U?$_Tree_simple_types@U?$pair@$$CBV?$basic_string@DU?$char_traits@D@std@@V?$allocator@D@2@@std@@V12@@std@@@std@@@std@@@1@$$QA_N@Z 10003f10 f i tools.obj
 0001:00002f50       ??$?0V?$_Tree_iterator@V?$_Tree_val@U?$_Tree_simple_types@U?$pair@$$CBV?$basic_string@DU?$char_traits@D@std@@V?$allocator@D@2@@std@@V12@@std@@@std@@@std@@@std@@_NX@?$pair@V?$_Tree_iterator@V?$_Tree_val@U?$_Tree_simple_types@U?$pair@$$CBV?$basic_string@DU?$char_traits@D@std@@V?$allocator@D@2@@std@@V12@@std@@@std@@@std@@@std@@_N@std@@QAE@$$QAV?$_Tree_iterator@V?$_Tree_val@U?$_Tree_simple_types@U?$pair@$$CBV?$basic_string@DU?$char_traits@D@std@@V?$allocator@D@2@@std@@V12@@std@@@std@@@std@@@1@$$QA_N@Z 10003f50 f i tools.obj
 0001:00002f90       ??$?0V?$basic_string@DU?$char_traits@D@std@@V?$allocator@D@2@@std@@$$$VPAPAX@?$tuple@$$QAV?$basic_string@DU?$char_traits@D@std@@V?$allocator@D@2@@std@@@std@@QAE@$$QAV?$basic_string@DU?$char_traits@D@std@@V?$allocator@D@2@@1@@Z 10003f90 f i tools.obj
 0001:00002fc0       ??$?0V?$basic_string@DU?$char_traits@D@std@@V?$allocator@D@2@@std@@@?$_Tuple_val@$$QAV?$basic_string@DU?$char_traits@D@std@@V?$allocator@D@2@@std@@@std@@QAE@$$QAV?$basic_string@DU?$char_traits@D@std@@V?$allocator@D@2@@1@@Z 10003fc0 f i tools.obj
 0001:00002ff0       ??$?0V?$tuple@$$QAV?$basic_string@DU?$char_traits@D@std@@V?$allocator@D@2@@std@@@std@@V?$tuple@$$$V@1@$0A@$S@?$pair@$$CBV?$basic_string@DU?$char_traits@D@std@@V?$allocator@D@2@@std@@V12@@std@@QAE@AAV?$tuple@$$QAV?$basic_string@DU?$char_traits@D@std@@V?$allocator@D@2@@std@@@1@AAV?$tuple@$$$V@1@U?$_Arg_idx@$0A@@1@U?$_Arg_idx@$S@1@@Z 10003ff0 f i tools.obj
 0001:00003030       ??$?MDU?$char_traits@D@std@@V?$allocator@D@1@@std@@YA_NABV?$basic_string@DU?$char_traits@D@std@@V?$allocator@D@2@@0@0@Z 10004030 f i tools.obj
 0001:00003060       ??$_Allocate@U?$_Tree_node@U?$pair@$$CBV?$basic_string@DU?$char_traits@D@std@@V?$allocator@D@2@@std@@V12@@std@@PAX@std@@@std@@YAPAU?$_Tree_node@U?$pair@$$CBV?$basic_string@DU?$char_traits@D@std@@V?$allocator@D@2@@std@@V12@@std@@PAX@0@IPAU10@@Z 10004060 f i tools.obj
 0001:000030b0       ??$_Buynode@ABUpiecewise_construct_t@std@@V?$tuple@$$QAV?$basic_string@DU?$char_traits@D@std@@V?$allocator@D@2@@std@@@2@V?$tuple@$$$V@2@@?$_Tree_buy@U?$pair@$$CBV?$basic_string@DU?$char_traits@D@std@@V?$allocator@D@2@@std@@V12@@std@@V?$allocator@U?$pair@$$CBV?$basic_string@DU?$char_traits@D@std@@V?$allocator@D@2@@std@@V12@@std@@@2@@std@@QAEPAU?$_Tree_node@U?$pair@$$CBV?$basic_string@DU?$char_traits@D@std@@V?$allocator@D@2@@std@@V12@@std@@PAX@1@ABUpiecewise_construct_t@1@$$QAV?$tuple@$$QAV?$basic_string@DU?$char_traits@D@std@@V?$allocator@D@2@@std@@@1@$$QAV?$tuple@$$$V@1@@Z 100040b0 f i tools.obj
 0001:000031b0       ??$_Buynode_if_nil@AAU?$pair@$$CBV?$basic_string@DU?$char_traits@D@std@@V?$allocator@D@2@@std@@V12@@std@@@?$_Tree@V?$_Tmap_traits@V?$basic_string@DU?$char_traits@D@std@@V?$allocator@D@2@@std@@V12@U?$less@V?$basic_string@DU?$char_traits@D@std@@V?$allocator@D@2@@std@@@2@V?$allocator@U?$pair@$$CBV?$basic_string@DU?$char_traits@D@std@@V?$allocator@D@2@@std@@V12@@std@@@2@$0A@@std@@@std@@IAEPAU?$_Tree_node@U?$pair@$$CBV?$basic_string@DU?$char_traits@D@std@@V?$allocator@D@2@@std@@V12@@std@@PAX@1@PAU21@AAU?$pair@$$CBV?$basic_string@DU?$char_traits@D@std@@V?$allocator@D@2@@std@@V12@@1@@Z 100041b0 f i tools.obj
 0001:000031c0       ??$_Insert_at@AAU?$pair@$$CBV?$basic_string@DU?$char_traits@D@std@@V?$allocator@D@2@@std@@V12@@std@@PAU?$_Tree_node@U?$pair@$$CBV?$basic_string@DU?$char_traits@D@std@@V?$allocator@D@2@@std@@V12@@std@@PAX@2@@?$_Tree@V?$_Tmap_traits@V?$basic_string@DU?$char_traits@D@std@@V?$allocator@D@2@@std@@V12@U?$less@V?$basic_string@DU?$char_traits@D@std@@V?$allocator@D@2@@std@@@2@V?$allocator@U?$pair@$$CBV?$basic_string@DU?$char_traits@D@std@@V?$allocator@D@2@@std@@V12@@std@@@2@$0A@@std@@@std@@IAE?AV?$_Tree_iterator@V?$_Tree_val@U?$_Tree_simple_types@U?$pair@$$CBV?$basic_string@DU?$char_traits@D@std@@V?$allocator@D@2@@std@@V12@@std@@@std@@@std@@@1@_NPAU?$_Tree_node@U?$pair@$$CBV?$basic_string@DU?$char_traits@D@std@@V?$allocator@D@2@@std@@V12@@std@@PAX@1@AAU?$pair@$$CBV?$basic_string@DU?$char_traits@D@std@@V?$allocator@D@2@@std@@V12@@1@1@Z 100041c0 f i tools.obj
 0001:000035f0       ??$_Insert_hint@AAU?$pair@$$CBV?$basic_string@DU?$char_traits@D@std@@V?$allocator@D@2@@std@@V12@@std@@PAU?$_Tree_node@U?$pair@$$CBV?$basic_string@DU?$char_traits@D@std@@V?$allocator@D@2@@std@@V12@@std@@PAX@2@@?$_Tree@V?$_Tmap_traits@V?$basic_string@DU?$char_traits@D@std@@V?$allocator@D@2@@std@@V12@U?$less@V?$basic_string@DU?$char_traits@D@std@@V?$allocator@D@2@@std@@@2@V?$allocator@U?$pair@$$CBV?$basic_string@DU?$char_traits@D@std@@V?$allocator@D@2@@std@@V12@@std@@@2@$0A@@std@@@std@@IAE?AV?$_Tree_iterator@V?$_Tree_val@U?$_Tree_simple_types@U?$pair@$$CBV?$basic_string@DU?$char_traits@D@std@@V?$allocator@D@2@@std@@V12@@std@@@std@@@std@@@1@V?$_Tree_const_iterator@V?$_Tree_val@U?$_Tree_simple_types@U?$pair@$$CBV?$basic_string@DU?$char_traits@D@std@@V?$allocator@D@2@@std@@V12@@std@@@std@@@std@@@1@AAU?$pair@$$CBV?$basic_string@DU?$char_traits@D@std@@V?$allocator@D@2@@std@@V12@@1@PAU?$_Tree_node@U?$pair@$$CBV?$basic_string@DU?$char_traits@D@std@@V?$allocator@D@2@@std@@V12@@std@@PAX@1@@Z 100045f0 f i tools.obj
 0001:00003da0       ??$_Insert_nohint@AAU?$pair@$$CBV?$basic_string@DU?$char_traits@D@std@@V?$allocator@D@2@@std@@V12@@std@@PAU?$_Tree_node@U?$pair@$$CBV?$basic_string@DU?$char_traits@D@std@@V?$allocator@D@2@@std@@V12@@std@@PAX@2@@?$_Tree@V?$_Tmap_traits@V?$basic_string@DU?$char_traits@D@std@@V?$allocator@D@2@@std@@V12@U?$less@V?$basic_string@DU?$char_traits@D@std@@V?$allocator@D@2@@std@@@2@V?$allocator@U?$pair@$$CBV?$basic_string@DU?$char_traits@D@std@@V?$allocator@D@2@@std@@V12@@std@@@2@$0A@@std@@@std@@IAE?AU?$pair@V?$_Tree_iterator@V?$_Tree_val@U?$_Tree_simple_types@U?$pair@$$CBV?$basic_string@DU?$char_traits@D@std@@V?$allocator@D@2@@std@@V12@@std@@@std@@@std@@@std@@_N@1@_NAAU?$pair@$$CBV?$basic_string@DU?$char_traits@D@std@@V?$allocator@D@2@@std@@V12@@1@PAU?$_Tree_node@U?$pair@$$CBV?$basic_string@DU?$char_traits@D@std@@V?$allocator@D@2@@std@@V12@@std@@PAX@1@@Z 10004da0 f i tools.obj
 0001:00004070       ??$_Kfn@$$CBV?$basic_string@DU?$char_traits@D@std@@V?$allocator@D@2@@std@@V12@@?$_Tmap_traits@V?$basic_string@DU?$char_traits@D@std@@V?$allocator@D@2@@std@@V12@U?$less@V?$basic_string@DU?$char_traits@D@std@@V?$allocator@D@2@@std@@@2@V?$allocator@U?$pair@$$CBV?$basic_string@DU?$char_traits@D@std@@V?$allocator@D@2@@std@@V12@@std@@@2@$0A@@std@@SAABV?$basic_string@DU?$char_traits@D@std@@V?$allocator@D@2@@1@ABU?$pair@$$CBV?$basic_string@DU?$char_traits@D@std@@V?$allocator@D@2@@std@@V12@@1@@Z 10005070 f i tools.obj
 0001:00004080       ??$_Move@AAD@std@@YA$$QADAAD@Z 10005080 f i tools.obj
 0001:00004090       ??$addressof@PAU?$_Tree_node@U?$pair@$$CBV?$basic_string@DU?$char_traits@D@std@@V?$allocator@D@2@@std@@V12@@std@@PAX@std@@@std@@YAPAPAU?$_Tree_node@U?$pair@$$CBV?$basic_string@DU?$char_traits@D@std@@V?$allocator@D@2@@std@@V12@@std@@PAX@0@AAPAU10@@Z 10005090 f i tools.obj
 0001:000040a0       ??$addressof@U?$pair@$$CBV?$basic_string@DU?$char_traits@D@std@@V?$allocator@D@2@@std@@V12@@std@@@std@@YAPAU?$pair@$$CBV?$basic_string@DU?$char_traits@D@std@@V?$allocator@D@2@@std@@V12@@0@AAU10@@Z 100050a0 f i tools.obj
 0001:000040b0       ??$construct@PAU?$_Tree_node@U?$pair@$$CBV?$basic_string@DU?$char_traits@D@std@@V?$allocator@D@2@@std@@V12@@std@@PAX@std@@AAPAU12@@?$_Wrap_alloc@V?$allocator@U?$_Tree_node@U?$pair@$$CBV?$basic_string@DU?$char_traits@D@std@@V?$allocator@D@2@@std@@V12@@std@@PAX@std@@@std@@@std@@QAEXPAPAU?$_Tree_node@U?$pair@$$CBV?$basic_string@DU?$char_traits@D@std@@V?$allocator@D@2@@std@@V12@@std@@PAX@1@AAPAU21@@Z 100050b0 f i tools.obj
 0001:000040e0       ??$construct@PAU?$_Tree_node@U?$pair@$$CBV?$basic_string@DU?$char_traits@D@std@@V?$allocator@D@2@@std@@V12@@std@@PAX@std@@AAPAU12@@?$allocator@U?$_Tree_node@U?$pair@$$CBV?$basic_string@DU?$char_traits@D@std@@V?$allocator@D@2@@std@@V12@@std@@PAX@std@@@std@@QAEXPAPAU?$_Tree_node@U?$pair@$$CBV?$basic_string@DU?$char_traits@D@std@@V?$allocator@D@2@@std@@V12@@std@@PAX@1@AAPAU21@@Z 100050e0 f i tools.obj
 0001:00004130       ??$construct@PAU?$_Tree_node@U?$pair@$$CBV?$basic_string@DU?$char_traits@D@std@@V?$allocator@D@2@@std@@V12@@std@@PAX@std@@AAPAU12@@?$allocator_traits@V?$allocator@U?$_Tree_node@U?$pair@$$CBV?$basic_string@DU?$char_traits@D@std@@V?$allocator@D@2@@std@@V12@@std@@PAX@std@@@std@@@std@@SAXAAV?$allocator@U?$_Tree_node@U?$pair@$$CBV?$basic_string@DU?$char_traits@D@std@@V?$allocator@D@2@@std@@V12@@std@@PAX@std@@@1@PAPAU?$_Tree_node@U?$pair@$$CBV?$basic_string@DU?$char_traits@D@std@@V?$allocator@D@2@@std@@V12@@std@@PAX@1@AAPAU31@@Z 10005130 f i tools.obj
 0001:00004150       ??$construct@U?$pair@$$CBV?$basic_string@DU?$char_traits@D@std@@V?$allocator@D@2@@std@@V12@@std@@ABUpiecewise_construct_t@2@V?$tuple@$$QAV?$basic_string@DU?$char_traits@D@std@@V?$allocator@D@2@@std@@@2@V?$tuple@$$$V@2@@?$_Wrap_alloc@V?$allocator@U?$_Tree_node@U?$pair@$$CBV?$basic_string@DU?$char_traits@D@std@@V?$allocator@D@2@@std@@V12@@std@@PAX@std@@@std@@@std@@QAEXPAU?$pair@$$CBV?$basic_string@DU?$char_traits@D@std@@V?$allocator@D@2@@std@@V12@@1@ABUpiecewise_construct_t@1@$$QAV?$tuple@$$QAV?$basic_string@DU?$char_traits@D@std@@V?$allocator@D@2@@std@@@1@$$QAV?$tuple@$$$V@1@@Z 10005150 f i tools.obj
 0001:000041a0       ??$construct@U?$pair@$$CBV?$basic_string@DU?$char_traits@D@std@@V?$allocator@D@2@@std@@V12@@std@@ABUpiecewise_construct_t@2@V?$tuple@$$QAV?$basic_string@DU?$char_traits@D@std@@V?$allocator@D@2@@std@@@2@V?$tuple@$$$V@2@@?$allocator@U?$_Tree_node@U?$pair@$$CBV?$basic_string@DU?$char_traits@D@std@@V?$allocator@D@2@@std@@V12@@std@@PAX@std@@@std@@QAEXPAU?$pair@$$CBV?$basic_string@DU?$char_traits@D@std@@V?$allocator@D@2@@std@@V12@@1@ABUpiecewise_construct_t@1@$$QAV?$tuple@$$QAV?$basic_string@DU?$char_traits@D@std@@V?$allocator@D@2@@std@@@1@$$QAV?$tuple@$$$V@1@@Z 100051a0 f i tools.obj
 0001:00004210       ??$construct@U?$pair@$$CBV?$basic_string@DU?$char_traits@D@std@@V?$allocator@D@2@@std@@V12@@std@@ABUpiecewise_construct_t@2@V?$tuple@$$QAV?$basic_string@DU?$char_traits@D@std@@V?$allocator@D@2@@std@@@2@V?$tuple@$$$V@2@@?$allocator_traits@V?$allocator@U?$_Tree_node@U?$pair@$$CBV?$basic_string@DU?$char_traits@D@std@@V?$allocator@D@2@@std@@V12@@std@@PAX@std@@@std@@@std@@SAXAAV?$allocator@U?$_Tree_node@U?$pair@$$CBV?$basic_string@DU?$char_traits@D@std@@V?$allocator@D@2@@std@@V12@@std@@PAX@std@@@1@PAU?$pair@$$CBV?$basic_string@DU?$char_traits@D@std@@V?$allocator@D@2@@std@@V12@@1@ABUpiecewise_construct_t@1@$$QAV?$tuple@$$QAV?$basic_string@DU?$char_traits@D@std@@V?$allocator@D@2@@std@@@1@$$QAV?$tuple@$$$V@1@@Z 10005210 f i tools.obj
 0001:00004250       ??$destroy@PAU?$_Tree_node@U?$pair@$$CBV?$basic_string@DU?$char_traits@D@std@@V?$allocator@D@2@@std@@V12@@std@@PAX@std@@@?$_Wrap_alloc@V?$allocator@U?$_Tree_node@U?$pair@$$CBV?$basic_string@DU?$char_traits@D@std@@V?$allocator@D@2@@std@@V12@@std@@PAX@std@@@std@@@std@@QAEXPAPAU?$_Tree_node@U?$pair@$$CBV?$basic_string@DU?$char_traits@D@std@@V?$allocator@D@2@@std@@V12@@std@@PAX@1@@Z 10005250 f i tools.obj
 0001:00004270       ??$destroy@PAU?$_Tree_node@U?$pair@$$CBV?$basic_string@DU?$char_traits@D@std@@V?$allocator@D@2@@std@@V12@@std@@PAX@std@@@?$allocator@U?$_Tree_node@U?$pair@$$CBV?$basic_string@DU?$char_traits@D@std@@V?$allocator@D@2@@std@@V12@@std@@PAX@std@@@std@@QAEXPAPAU?$_Tree_node@U?$pair@$$CBV?$basic_string@DU?$char_traits@D@std@@V?$allocator@D@2@@std@@V12@@std@@PAX@1@@Z 10005270 f i tools.obj
 0001:00004280       ??$destroy@PAU?$_Tree_node@U?$pair@$$CBV?$basic_string@DU?$char_traits@D@std@@V?$allocator@D@2@@std@@V12@@std@@PAX@std@@@?$allocator_traits@V?$allocator@U?$_Tree_node@U?$pair@$$CBV?$basic_string@DU?$char_traits@D@std@@V?$allocator@D@2@@std@@V12@@std@@PAX@std@@@std@@@std@@SAXAAV?$allocator@U?$_Tree_node@U?$pair@$$CBV?$basic_string@DU?$char_traits@D@std@@V?$allocator@D@2@@std@@V12@@std@@PAX@std@@@1@PAPAU?$_Tree_node@U?$pair@$$CBV?$basic_string@DU?$char_traits@D@std@@V?$allocator@D@2@@std@@V12@@std@@PAX@1@@Z 10005280 f i tools.obj
 0001:000042a0       ??$destroy@U?$pair@$$CBV?$basic_string@DU?$char_traits@D@std@@V?$allocator@D@2@@std@@V12@@std@@@?$_Wrap_alloc@V?$allocator@U?$_Tree_node@U?$pair@$$CBV?$basic_string@DU?$char_traits@D@std@@V?$allocator@D@2@@std@@V12@@std@@PAX@std@@@std@@@std@@QAEXPAU?$pair@$$CBV?$basic_string@DU?$char_traits@D@std@@V?$allocator@D@2@@std@@V12@@1@@Z 100052a0 f i tools.obj
 0001:000042c0       ??$destroy@U?$pair@$$CBV?$basic_string@DU?$char_traits@D@std@@V?$allocator@D@2@@std@@V12@@std@@@?$allocator@U?$_Tree_node@U?$pair@$$CBV?$basic_string@DU?$char_traits@D@std@@V?$allocator@D@2@@std@@V12@@std@@PAX@std@@@std@@QAEXPAU?$pair@$$CBV?$basic_string@DU?$char_traits@D@std@@V?$allocator@D@2@@std@@V12@@1@@Z 100052c0 f i tools.obj
 0001:000042e0       ??$destroy@U?$pair@$$CBV?$basic_string@DU?$char_traits@D@std@@V?$allocator@D@2@@std@@V12@@std@@@?$allocator_traits@V?$allocator@U?$_Tree_node@U?$pair@$$CBV?$basic_string@DU?$char_traits@D@std@@V?$allocator@D@2@@std@@V12@@std@@PAX@std@@@std@@@std@@SAXAAV?$allocator@U?$_Tree_node@U?$pair@$$CBV?$basic_string@DU?$char_traits@D@std@@V?$allocator@D@2@@std@@V12@@std@@PAX@std@@@1@PAU?$pair@$$CBV?$basic_string@DU?$char_traits@D@std@@V?$allocator@D@2@@std@@V12@@1@@Z 100052e0 f i tools.obj
 0001:00004300       ??$emplace_hint@ABUpiecewise_construct_t@std@@V?$tuple@$$QAV?$basic_string@DU?$char_traits@D@std@@V?$allocator@D@2@@std@@@2@V?$tuple@$$$V@2@@?$_Tree@V?$_Tmap_traits@V?$basic_string@DU?$char_traits@D@std@@V?$allocator@D@2@@std@@V12@U?$less@V?$basic_string@DU?$char_traits@D@std@@V?$allocator@D@2@@std@@@2@V?$allocator@U?$pair@$$CBV?$basic_string@DU?$char_traits@D@std@@V?$allocator@D@2@@std@@V12@@std@@@2@$0A@@std@@@std@@QAE?AV?$_Tree_iterator@V?$_Tree_val@U?$_Tree_simple_types@U?$pair@$$CBV?$basic_string@DU?$char_traits@D@std@@V?$allocator@D@2@@std@@V12@@std@@@std@@@std@@@1@V?$_Tree_const_iterator@V?$_Tree_val@U?$_Tree_simple_types@U?$pair@$$CBV?$basic_string@DU?$char_traits@D@std@@V?$allocator@D@2@@std@@V12@@std@@@std@@@std@@@1@ABUpiecewise_construct_t@1@$$QAV?$tuple@$$QAV?$basic_string@DU?$char_traits@D@std@@V?$allocator@D@2@@std@@@1@$$QAV?$tuple@$$$V@1@@Z 10005300 f i tools.obj
 0001:00004370       ??$forward@$$QAV?$basic_string@DU?$char_traits@D@std@@V?$allocator@D@2@@std@@@std@@YA$$QAV?$basic_string@DU?$char_traits@D@std@@V?$allocator@D@2@@0@AAV10@@Z 10005370 f i tools.obj
 0001:00004380       ??$forward@AAPAU?$_Tree_node@U?$pair@$$CBV?$basic_string@DU?$char_traits@D@std@@V?$allocator@D@2@@std@@V12@@std@@PAX@std@@@std@@YAAAPAU?$_Tree_node@U?$pair@$$CBV?$basic_string@DU?$char_traits@D@std@@V?$allocator@D@2@@std@@V12@@std@@PAX@0@AAPAU10@@Z 10005380 f i tools.obj
 0001:00004390       ??$forward@AAU?$pair@$$CBV?$basic_string@DU?$char_traits@D@std@@V?$allocator@D@2@@std@@V12@@std@@@std@@YAAAU?$pair@$$CBV?$basic_string@DU?$char_traits@D@std@@V?$allocator@D@2@@std@@V12@@0@AAU10@@Z 10005390 f i tools.obj
 0001:000043a0       ??$forward@AAV?$_Tree_iterator@V?$_Tree_val@U?$_Tree_simple_types@U?$pair@$$CBV?$basic_string@DU?$char_traits@D@std@@V?$allocator@D@2@@std@@V12@@std@@@std@@@std@@@std@@@std@@YAAAV?$_Tree_iterator@V?$_Tree_val@U?$_Tree_simple_types@U?$pair@$$CBV?$basic_string@DU?$char_traits@D@std@@V?$allocator@D@2@@std@@V12@@std@@@std@@@std@@@0@AAV10@@Z 100053a0 f i tools.obj
 0001:000043b0       ??$forward@ABUpiecewise_construct_t@std@@@std@@YAABUpiecewise_construct_t@0@ABU10@@Z 100053b0 f i tools.obj
 0001:000043c0       ??$forward@V?$_Tree_iterator@V?$_Tree_val@U?$_Tree_simple_types@U?$pair@$$CBV?$basic_string@DU?$char_traits@D@std@@V?$allocator@D@2@@std@@V12@@std@@@std@@@std@@@std@@@std@@YA$$QAV?$_Tree_iterator@V?$_Tree_val@U?$_Tree_simple_types@U?$pair@$$CBV?$basic_string@DU?$char_traits@D@std@@V?$allocator@D@2@@std@@V12@@std@@@std@@@std@@@0@AAV10@@Z 100053c0 f i tools.obj
 0001:000043d0       ??$forward@V?$basic_string@DU?$char_traits@D@std@@V?$allocator@D@2@@std@@@std@@YA$$QAV?$basic_string@DU?$char_traits@D@std@@V?$allocator@D@2@@0@AAV10@@Z 100053d0 f i tools.obj
 0001:000043e0       ??$forward@V?$tuple@$$$V@std@@@std@@YA$$QAV?$tuple@$$$V@0@AAV10@@Z 100053e0 f i tools.obj
 0001:000043f0       ??$forward@V?$tuple@$$QAV?$basic_string@DU?$char_traits@D@std@@V?$allocator@D@2@@std@@@std@@@std@@YA$$QAV?$tuple@$$QAV?$basic_string@DU?$char_traits@D@std@@V?$allocator@D@2@@std@@@0@AAV10@@Z 100053f0 f i tools.obj
 0001:00004400       ??$forward@_N@std@@YA$$QA_NAA_N@Z 10005400 f i tools.obj
 0001:00004410       ??$forward_as_tuple@V?$basic_string@DU?$char_traits@D@std@@V?$allocator@D@2@@std@@@std@@YA?AV?$tuple@$$QAV?$basic_string@DU?$char_traits@D@std@@V?$allocator@D@2@@std@@@0@$$QAV?$basic_string@DU?$char_traits@D@std@@V?$allocator@D@2@@0@@Z 10005410 f i tools.obj
 0001:00004430       ??$get@$0A@$$QAV?$basic_string@DU?$char_traits@D@std@@V?$allocator@D@2@@std@@@std@@YA$$QAV?$basic_string@DU?$char_traits@D@std@@V?$allocator@D@2@@0@$$QAV?$tuple@$$QAV?$basic_string@DU?$char_traits@D@std@@V?$allocator@D@2@@std@@@0@@Z 10005430 f i tools.obj
 0001:00004450       ??$move@AAV?$basic_string@DU?$char_traits@D@std@@V?$allocator@D@2@@std@@@std@@YA$$QAV?$basic_string@DU?$char_traits@D@std@@V?$allocator@D@2@@0@AAV10@@Z 10005450 f i tools.obj
 0001:00004460       ??$move@AAV?$tuple@$$QAV?$basic_string@DU?$char_traits@D@std@@V?$allocator@D@2@@std@@@std@@@std@@YA$$QAV?$tuple@$$QAV?$basic_string@DU?$char_traits@D@std@@V?$allocator@D@2@@std@@@0@AAV10@@Z 10005460 f i tools.obj
 0001:00004470       ??$swap@D@std@@YAXAAD0@Z   10005470 f i tools.obj
 0001:000044b0       ??0?$_Tree_const_iterator@V?$_Tree_val@U?$_Tree_simple_types@U?$pair@$$CBV?$basic_string@DU?$char_traits@D@std@@V?$allocator@D@2@@std@@V12@@std@@@std@@@std@@@std@@QAE@PAU?$_Tree_node@U?$pair@$$CBV?$basic_string@DU?$char_traits@D@std@@V?$allocator@D@2@@std@@V12@@std@@PAX@1@PBV?$_Tree_val@U?$_Tree_simple_types@U?$pair@$$CBV?$basic_string@DU?$char_traits@D@std@@V?$allocator@D@2@@std@@V12@@std@@@std@@@1@@Z 100054b0 f i tools.obj
 0001:000044d0       ??0?$_Tree_const_iterator@V?$_Tree_val@U?$_Tree_simple_types@U?$pair@$$CBV?$basic_string@DU?$char_traits@D@std@@V?$allocator@D@2@@std@@V12@@std@@@std@@@std@@@std@@QAE@XZ 100054d0 f i tools.obj
 0001:000044f0       ??0?$_Tree_iterator@V?$_Tree_val@U?$_Tree_simple_types@U?$pair@$$CBV?$basic_string@DU?$char_traits@D@std@@V?$allocator@D@2@@std@@V12@@std@@@std@@@std@@@std@@QAE@PAU?$_Tree_node@U?$pair@$$CBV?$basic_string@DU?$char_traits@D@std@@V?$allocator@D@2@@std@@V12@@std@@PAX@1@PBV?$_Tree_val@U?$_Tree_simple_types@U?$pair@$$CBV?$basic_string@DU?$char_traits@D@std@@V?$allocator@D@2@@std@@V12@@std@@@std@@@1@@Z 100054f0 f i tools.obj
 0001:00004510       ??0?$_Tree_unchecked_const_iterator@V?$_Tree_val@U?$_Tree_simple_types@U?$pair@$$CBV?$basic_string@DU?$char_traits@D@std@@V?$allocator@D@2@@std@@V12@@std@@@std@@@std@@U_Iterator_base0@2@@std@@QAE@PAU?$_Tree_node@U?$pair@$$CBV?$basic_string@DU?$char_traits@D@std@@V?$allocator@D@2@@std@@V12@@std@@PAX@1@PBV?$_Tree_val@U?$_Tree_simple_types@U?$pair@$$CBV?$basic_string@DU?$char_traits@D@std@@V?$allocator@D@2@@std@@V12@@std@@@std@@@1@@Z 10005510 f i tools.obj
 0001:00004540       ??0?$_Tree_unchecked_const_iterator@V?$_Tree_val@U?$_Tree_simple_types@U?$pair@$$CBV?$basic_string@DU?$char_traits@D@std@@V?$allocator@D@2@@std@@V12@@std@@@std@@@std@@U_Iterator_base0@2@@std@@QAE@XZ 10005540 f i tools.obj
 0001:00004560       ??0?$_Wrap_alloc@V?$allocator@U?$_Tree_node@U?$pair@$$CBV?$basic_string@DU?$char_traits@D@std@@V?$allocator@D@2@@std@@V12@@std@@PAX@std@@@std@@@std@@QAE@XZ 10005560 f i tools.obj
 0001:00004580       ??0?$allocator@U?$_Tree_node@U?$pair@$$CBV?$basic_string@DU?$char_traits@D@std@@V?$allocator@D@2@@std@@V12@@std@@PAX@std@@@std@@QAE@XZ 10005580 f i tools.obj
 0001:00004590       ??0?$basic_string@DU?$char_traits@D@std@@V?$allocator@D@2@@std@@QAE@$$QAV01@@Z 10005590 f i tools.obj
 0001:000045e0       ??0?$basic_string@DU?$char_traits@D@std@@V?$allocator@D@2@@std@@QAE@XZ 100055e0 f i tools.obj
 0001:00004610       ??0?$tuple@$$$V@std@@QAE@ABV01@@Z 10005610 f i tools.obj
 0001:00004620       ??0?$tuple@$$$V@std@@QAE@XZ 10005620 f i tools.obj
 0001:00004630       ??1?$_Tree@V?$_Tmap_traits@V?$basic_string@DU?$char_traits@D@std@@V?$allocator@D@2@@std@@V12@U?$less@V?$basic_string@DU?$char_traits@D@std@@V?$allocator@D@2@@std@@@2@V?$allocator@U?$pair@$$CBV?$basic_string@DU?$char_traits@D@std@@V?$allocator@D@2@@std@@V12@@std@@@2@$0A@@std@@@std@@QAE@XZ 10005630 f i tools.obj
 0001:00004650       ??1?$_Tree_alloc@$0A@U?$_Tree_base_types@U?$pair@$$CBV?$basic_string@DU?$char_traits@D@std@@V?$allocator@D@2@@std@@V12@@std@@V?$allocator@U?$pair@$$CBV?$basic_string@DU?$char_traits@D@std@@V?$allocator@D@2@@std@@V12@@std@@@2@@std@@@std@@QAE@XZ 10005650 f i tools.obj
 0001:00004670       ??1?$_Tree_buy@U?$pair@$$CBV?$basic_string@DU?$char_traits@D@std@@V?$allocator@D@2@@std@@V12@@std@@V?$allocator@U?$pair@$$CBV?$basic_string@DU?$char_traits@D@std@@V?$allocator@D@2@@std@@V12@@std@@@2@@std@@QAE@XZ 10005670 f i tools.obj
 0001:00004690       ??1?$_Tree_comp@$0A@V?$_Tmap_traits@V?$basic_string@DU?$char_traits@D@std@@V?$allocator@D@2@@std@@V12@U?$less@V?$basic_string@DU?$char_traits@D@std@@V?$allocator@D@2@@std@@@2@V?$allocator@U?$pair@$$CBV?$basic_string@DU?$char_traits@D@std@@V?$allocator@D@2@@std@@V12@@std@@@2@$0A@@std@@@std@@QAE@XZ 10005690 f i tools.obj
 0001:000046b0       ??1?$basic_string@DU?$char_traits@D@std@@V?$allocator@D@2@@std@@QAE@XZ 100056b0 f i tools.obj
 0001:000046d0       ??1?$map@V?$basic_string@DU?$char_traits@D@std@@V?$allocator@D@2@@std@@V12@U?$less@V?$basic_string@DU?$char_traits@D@std@@V?$allocator@D@2@@std@@@2@V?$allocator@U?$pair@$$CBV?$basic_string@DU?$char_traits@D@std@@V?$allocator@D@2@@std@@V12@@std@@@2@@std@@QAE@XZ 100056d0 f i tools.obj
 0001:000046f0       ??1?$pair@$$CBV?$basic_string@DU?$char_traits@D@std@@V?$allocator@D@2@@std@@V12@@std@@QAE@XZ 100056f0 f i tools.obj
 0001:00004710       ??8?$_Tree_const_iterator@V?$_Tree_val@U?$_Tree_simple_types@U?$pair@$$CBV?$basic_string@DU?$char_traits@D@std@@V?$allocator@D@2@@std@@V12@@std@@@std@@@std@@@std@@QBE_NABV01@@Z 10005710 f i tools.obj
 0001:00004740       ??9?$_Tree_const_iterator@V?$_Tree_val@U?$_Tree_simple_types@U?$pair@$$CBV?$basic_string@DU?$char_traits@D@std@@V?$allocator@D@2@@std@@V12@@std@@@std@@@std@@@std@@QBE_NABV01@@Z 10005740 f i tools.obj
 0001:00004780       ??A?$map@V?$basic_string@DU?$char_traits@D@std@@V?$allocator@D@2@@std@@V12@U?$less@V?$basic_string@DU?$char_traits@D@std@@V?$allocator@D@2@@std@@@2@V?$allocator@U?$pair@$$CBV?$basic_string@DU?$char_traits@D@std@@V?$allocator@D@2@@std@@V12@@std@@@2@@std@@QAEAAV?$basic_string@DU?$char_traits@D@std@@V?$allocator@D@2@@1@$$QAV21@@Z 10005780 f i tools.obj
 0001:00004840       ??C?$_Tree_iterator@V?$_Tree_val@U?$_Tree_simple_types@U?$pair@$$CBV?$basic_string@DU?$char_traits@D@std@@V?$allocator@D@2@@std@@V12@@std@@@std@@@std@@@std@@QBEPAU?$pair@$$CBV?$basic_string@DU?$char_traits@D@std@@V?$allocator@D@2@@std@@V12@@1@XZ 10005840 f i tools.obj
 0001:00004860       ??D?$_Tree_const_iterator@V?$_Tree_val@U?$_Tree_simple_types@U?$pair@$$CBV?$basic_string@DU?$char_traits@D@std@@V?$allocator@D@2@@std@@V12@@std@@@std@@@std@@@std@@QBEABU?$pair@$$CBV?$basic_string@DU?$char_traits@D@std@@V?$allocator@D@2@@std@@V12@@1@XZ 10005860 f i tools.obj
 0001:00004880       ??D?$_Tree_iterator@V?$_Tree_val@U?$_Tree_simple_types@U?$pair@$$CBV?$basic_string@DU?$char_traits@D@std@@V?$allocator@D@2@@std@@V12@@std@@@std@@@std@@@std@@QBEAAU?$pair@$$CBV?$basic_string@DU?$char_traits@D@std@@V?$allocator@D@2@@std@@V12@@1@XZ 10005880 f i tools.obj
 0001:000048a0       ??E?$_Tree_const_iterator@V?$_Tree_val@U?$_Tree_simple_types@U?$pair@$$CBV?$basic_string@DU?$char_traits@D@std@@V?$allocator@D@2@@std@@V12@@std@@@std@@@std@@@std@@QAE?AV01@H@Z 100058a0 f i tools.obj
 0001:000048d0       ??E?$_Tree_const_iterator@V?$_Tree_val@U?$_Tree_simple_types@U?$pair@$$CBV?$basic_string@DU?$char_traits@D@std@@V?$allocator@D@2@@std@@V12@@std@@@std@@@std@@@std@@QAEAAV01@XZ 100058d0 f i tools.obj
 0001:000048f0       ??E?$_Tree_unchecked_const_iterator@V?$_Tree_val@U?$_Tree_simple_types@U?$pair@$$CBV?$basic_string@DU?$char_traits@D@std@@V?$allocator@D@2@@std@@V12@@std@@@std@@@std@@U_Iterator_base0@2@@std@@QAEAAV01@XZ 100058f0 f i tools.obj
 0001:000049b0       ??F?$_Tree_const_iterator@V?$_Tree_val@U?$_Tree_simple_types@U?$pair@$$CBV?$basic_string@DU?$char_traits@D@std@@V?$allocator@D@2@@std@@V12@@std@@@std@@@std@@@std@@QAEAAV01@XZ 100059b0 f i tools.obj
 0001:000049d0       ??F?$_Tree_iterator@V?$_Tree_val@U?$_Tree_simple_types@U?$pair@$$CBV?$basic_string@DU?$char_traits@D@std@@V?$allocator@D@2@@std@@V12@@std@@@std@@@std@@@std@@QAEAAV01@XZ 100059d0 f i tools.obj
 0001:000049f0       ??F?$_Tree_unchecked_const_iterator@V?$_Tree_val@U?$_Tree_simple_types@U?$pair@$$CBV?$basic_string@DU?$char_traits@D@std@@V?$allocator@D@2@@std@@V12@@std@@@std@@@std@@U_Iterator_base0@2@@std@@QAEAAV01@XZ 100059f0 f i tools.obj
 0001:00004ae0       ??R?$less@V?$basic_string@DU?$char_traits@D@std@@V?$allocator@D@2@@std@@@std@@QBE_NABV?$basic_string@DU?$char_traits@D@std@@V?$allocator@D@2@@1@0@Z 10005ae0 f i tools.obj
 0001:00004b00       ??_G?$pair@$$CBV?$basic_string@DU?$char_traits@D@std@@V?$allocator@D@2@@std@@V12@@std@@QAEPAXI@Z 10005b00 f i tools.obj
 0001:00004b30       ?_Adopt@_Iterator_base0@std@@QAEXPBX@Z 10005b30 f i tools.obj
 0001:00004b40       ?_Assign_rv@?$basic_string@DU?$char_traits@D@std@@V?$allocator@D@2@@std@@QAEX$$QAV12@@Z 10005b40 f i tools.obj
 0001:00004bc0       ?_Buynode0@?$_Tree_buy@U?$pair@$$CBV?$basic_string@DU?$char_traits@D@std@@V?$allocator@D@2@@std@@V12@@std@@V?$allocator@U?$pair@$$CBV?$basic_string@DU?$char_traits@D@std@@V?$allocator@D@2@@std@@V12@@std@@@2@@std@@QAEPAU?$_Tree_node@U?$pair@$$CBV?$basic_string@DU?$char_traits@D@std@@V?$allocator@D@2@@std@@V12@@std@@PAX@2@XZ 10005bc0 f i tools.obj
 0001:00004cf0       ?_Color@?$_Tree_val@U?$_Tree_simple_types@U?$pair@$$CBV?$basic_string@DU?$char_traits@D@std@@V?$allocator@D@2@@std@@V12@@std@@@std@@@std@@SAAADPAU?$_Tree_node@U?$pair@$$CBV?$basic_string@DU?$char_traits@D@std@@V?$allocator@D@2@@std@@V12@@std@@PAX@2@@Z 10005cf0 f i tools.obj
 0001:00004d00       ?_Destroy_if_not_nil@?$_Tree@V?$_Tmap_traits@V?$basic_string@DU?$char_traits@D@std@@V?$allocator@D@2@@std@@V12@U?$less@V?$basic_string@DU?$char_traits@D@std@@V?$allocator@D@2@@std@@@2@V?$allocator@U?$pair@$$CBV?$basic_string@DU?$char_traits@D@std@@V?$allocator@D@2@@std@@V12@@std@@@2@$0A@@std@@@std@@IAEXPAU?$_Tree_node@U?$pair@$$CBV?$basic_string@DU?$char_traits@D@std@@V?$allocator@D@2@@std@@V12@@std@@PAX@2@@Z 10005d00 f i tools.obj
 0001:00004d60       ?_Erase@?$_Tree@V?$_Tmap_traits@V?$basic_string@DU?$char_traits@D@std@@V?$allocator@D@2@@std@@V12@U?$less@V?$basic_string@DU?$char_traits@D@std@@V?$allocator@D@2@@std@@@2@V?$allocator@U?$pair@$$CBV?$basic_string@DU?$char_traits@D@std@@V?$allocator@D@2@@std@@V12@@std@@@2@$0A@@std@@@std@@IAEXPAU?$_Tree_node@U?$pair@$$CBV?$basic_string@DU?$char_traits@D@std@@V?$allocator@D@2@@std@@V12@@std@@PAX@2@@Z 10005d60 f i tools.obj
 0001:00004e00       ?_Freeheadnode@?$_Tree_alloc@$0A@U?$_Tree_base_types@U?$pair@$$CBV?$basic_string@DU?$char_traits@D@std@@V?$allocator@D@2@@std@@V12@@std@@V?$allocator@U?$pair@$$CBV?$basic_string@DU?$char_traits@D@std@@V?$allocator@D@2@@std@@V12@@std@@@2@@std@@@std@@QAEXPAU?$_Tree_node@U?$pair@$$CBV?$basic_string@DU?$char_traits@D@std@@V?$allocator@D@2@@std@@V12@@std@@PAX@2@@Z 10005e00 f i tools.obj
 0001:00004eb0       ?_Freenode0@?$_Tree_buy@U?$pair@$$CBV?$basic_string@DU?$char_traits@D@std@@V?$allocator@D@2@@std@@V12@@std@@V?$allocator@U?$pair@$$CBV?$basic_string@DU?$char_traits@D@std@@V?$allocator@D@2@@std@@V12@@std@@@2@@std@@QAEXPAU?$_Tree_node@U?$pair@$$CBV?$basic_string@DU?$char_traits@D@std@@V?$allocator@D@2@@std@@V12@@std@@PAX@2@@Z 10005eb0 f i tools.obj
 0001:00004f60       ?_Get_rest@?$tuple@$$QAV?$basic_string@DU?$char_traits@D@std@@V?$allocator@D@2@@std@@@std@@QAEAAV?$tuple@$$$V@2@XZ 10005f60 f i tools.obj
 0001:00004f70       ?_Getal@?$_Tree_alloc@$0A@U?$_Tree_base_types@U?$pair@$$CBV?$basic_string@DU?$char_traits@D@std@@V?$allocator@D@2@@std@@V12@@std@@V?$allocator@U?$pair@$$CBV?$basic_string@DU?$char_traits@D@std@@V?$allocator@D@2@@std@@V12@@std@@@2@@std@@@std@@QBE?AU?$_Wrap_alloc@V?$allocator@U?$_Tree_node@U?$pair@$$CBV?$basic_string@DU?$char_traits@D@std@@V?$allocator@D@2@@std@@V12@@std@@PAX@std@@@std@@@2@XZ 10005f70 f i tools.obj
 0001:00004f90       ?_Getcomp@?$_Tree_comp@$0A@V?$_Tmap_traits@V?$basic_string@DU?$char_traits@D@std@@V?$allocator@D@2@@std@@V12@U?$less@V?$basic_string@DU?$char_traits@D@std@@V?$allocator@D@2@@std@@@2@V?$allocator@U?$pair@$$CBV?$basic_string@DU?$char_traits@D@std@@V?$allocator@D@2@@std@@V12@@std@@@2@$0A@@std@@@std@@QBE?AU?$less@V?$basic_string@DU?$char_traits@D@std@@V?$allocator@D@2@@std@@@2@XZ 10005f90 f i tools.obj
 0001:00004fa0       ?_Isnil@?$_Tree_val@U?$_Tree_simple_types@U?$pair@$$CBV?$basic_string@DU?$char_traits@D@std@@V?$allocator@D@2@@std@@V12@@std@@@std@@@std@@SAAADPAU?$_Tree_node@U?$pair@$$CBV?$basic_string@DU?$char_traits@D@std@@V?$allocator@D@2@@std@@V12@@std@@PAX@2@@Z 10005fa0 f i tools.obj
 0001:00004fb0       ?_Key@?$_Tree@V?$_Tmap_traits@V?$basic_string@DU?$char_traits@D@std@@V?$allocator@D@2@@std@@V12@U?$less@V?$basic_string@DU?$char_traits@D@std@@V?$allocator@D@2@@std@@@2@V?$allocator@U?$pair@$$CBV?$basic_string@DU?$char_traits@D@std@@V?$allocator@D@2@@std@@V12@@std@@@2@$0A@@std@@@std@@IBEABV?$basic_string@DU?$char_traits@D@std@@V?$allocator@D@2@@2@PAU?$_Tree_node@U?$pair@$$CBV?$basic_string@DU?$char_traits@D@std@@V?$allocator@D@2@@std@@V12@@std@@PAX@2@@Z 10005fb0 f i tools.obj
 0001:00004fe0       ?_Kfn@?$_Tree@V?$_Tmap_traits@V?$basic_string@DU?$char_traits@D@std@@V?$allocator@D@2@@std@@V12@U?$less@V?$basic_string@DU?$char_traits@D@std@@V?$allocator@D@2@@std@@@2@V?$allocator@U?$pair@$$CBV?$basic_string@DU?$char_traits@D@std@@V?$allocator@D@2@@std@@V12@@std@@@2@$0A@@std@@@std@@IBEABV?$basic_string@DU?$char_traits@D@std@@V?$allocator@D@2@@2@ABU?$pair@$$CBV?$basic_string@DU?$char_traits@D@std@@V?$allocator@D@2@@std@@V12@@2@@Z 10005fe0 f i tools.obj
 0001:00005000       ?_Lbound@?$_Tree@V?$_Tmap_traits@V?$basic_string@DU?$char_traits@D@std@@V?$allocator@D@2@@std@@V12@U?$less@V?$basic_string@DU?$char_traits@D@std@@V?$allocator@D@2@@std@@@2@V?$allocator@U?$pair@$$CBV?$basic_string@DU?$char_traits@D@std@@V?$allocator@D@2@@std@@V12@@std@@@2@$0A@@std@@@std@@IAEPAU?$_Tree_node@U?$pair@$$CBV?$basic_string@DU?$char_traits@D@std@@V?$allocator@D@2@@std@@V12@@std@@PAX@2@ABV?$basic_string@DU?$char_traits@D@std@@V?$allocator@D@2@@2@@Z 10006000 f i tools.obj
 0001:000050a0       ?_Left@?$_Tree_val@U?$_Tree_simple_types@U?$pair@$$CBV?$basic_string@DU?$char_traits@D@std@@V?$allocator@D@2@@std@@V12@@std@@@std@@@std@@SAAAPAU?$_Tree_node@U?$pair@$$CBV?$basic_string@DU?$char_traits@D@std@@V?$allocator@D@2@@std@@V12@@std@@PAX@2@PAU32@@Z 100060a0 f i tools.obj
 0001:000050b0       ?_Lmost@?$_Tree@V?$_Tmap_traits@V?$basic_string@DU?$char_traits@D@std@@V?$allocator@D@2@@std@@V12@U?$less@V?$basic_string@DU?$char_traits@D@std@@V?$allocator@D@2@@std@@@2@V?$allocator@U?$pair@$$CBV?$basic_string@DU?$char_traits@D@std@@V?$allocator@D@2@@std@@V12@@std@@@2@$0A@@std@@@std@@IBEAAPAU?$_Tree_node@U?$pair@$$CBV?$basic_string@DU?$char_traits@D@std@@V?$allocator@D@2@@std@@V12@@std@@PAX@2@XZ 100060b0 f i tools.obj
 0001:000050d0       ?_Lrotate@?$_Tree@V?$_Tmap_traits@V?$basic_string@DU?$char_traits@D@std@@V?$allocator@D@2@@std@@V12@U?$less@V?$basic_string@DU?$char_traits@D@std@@V?$allocator@D@2@@std@@@2@V?$allocator@U?$pair@$$CBV?$basic_string@DU?$char_traits@D@std@@V?$allocator@D@2@@std@@V12@@std@@@2@$0A@@std@@@std@@IAEXPAU?$_Tree_node@U?$pair@$$CBV?$basic_string@DU?$char_traits@D@std@@V?$allocator@D@2@@std@@V12@@std@@PAX@2@@Z 100060d0 f i tools.obj
 0001:00005200       ?_Max@?$_Tree_val@U?$_Tree_simple_types@U?$pair@$$CBV?$basic_string@DU?$char_traits@D@std@@V?$allocator@D@2@@std@@V12@@std@@@std@@@std@@SAPAU?$_Tree_node@U?$pair@$$CBV?$basic_string@DU?$char_traits@D@std@@V?$allocator@D@2@@std@@V12@@std@@PAX@2@PAU32@@Z 10006200 f i tools.obj
 0001:00005240       ?_Min@?$_Tree_val@U?$_Tree_simple_types@U?$pair@$$CBV?$basic_string@DU?$char_traits@D@std@@V?$allocator@D@2@@std@@V12@@std@@@std@@@std@@SAPAU?$_Tree_node@U?$pair@$$CBV?$basic_string@DU?$char_traits@D@std@@V?$allocator@D@2@@std@@V12@@std@@PAX@2@PAU32@@Z 10006240 f i tools.obj
 0001:00005280       ?_Mynode@?$_Tree_unchecked_const_iterator@V?$_Tree_val@U?$_Tree_simple_types@U?$pair@$$CBV?$basic_string@DU?$char_traits@D@std@@V?$allocator@D@2@@std@@V12@@std@@@std@@@std@@U_Iterator_base0@2@@std@@QBEPAU?$_Tree_node@U?$pair@$$CBV?$basic_string@DU?$char_traits@D@std@@V?$allocator@D@2@@std@@V12@@std@@PAX@2@XZ 10006280 f i tools.obj
 0001:00005290       ?_Myval@?$_Tree_val@U?$_Tree_simple_types@U?$pair@$$CBV?$basic_string@DU?$char_traits@D@std@@V?$allocator@D@2@@std@@V12@@std@@@std@@@std@@SAAAU?$pair@$$CBV?$basic_string@DU?$char_traits@D@std@@V?$allocator@D@2@@std@@V12@@2@PAU?$_Tree_node@U?$pair@$$CBV?$basic_string@DU?$char_traits@D@std@@V?$allocator@D@2@@std@@V12@@std@@PAX@2@@Z 10006290 f i tools.obj
 0001:000052a0       ?_Parent@?$_Tree_val@U?$_Tree_simple_types@U?$pair@$$CBV?$basic_string@DU?$char_traits@D@std@@V?$allocator@D@2@@std@@V12@@std@@@std@@@std@@SAAAPAU?$_Tree_node@U?$pair@$$CBV?$basic_string@DU?$char_traits@D@std@@V?$allocator@D@2@@std@@V12@@std@@PAX@2@PAU32@@Z 100062a0 f i tools.obj
 0001:000052b0       ?_Right@?$_Tree_val@U?$_Tree_simple_types@U?$pair@$$CBV?$basic_string@DU?$char_traits@D@std@@V?$allocator@D@2@@std@@V12@@std@@@std@@@std@@SAAAPAU?$_Tree_node@U?$pair@$$CBV?$basic_string@DU?$char_traits@D@std@@V?$allocator@D@2@@std@@V12@@std@@PAX@2@PAU32@@Z 100062b0 f i tools.obj
 0001:000052c0       ?_Rmost@?$_Tree@V?$_Tmap_traits@V?$basic_string@DU?$char_traits@D@std@@V?$allocator@D@2@@std@@V12@U?$less@V?$basic_string@DU?$char_traits@D@std@@V?$allocator@D@2@@std@@@2@V?$allocator@U?$pair@$$CBV?$basic_string@DU?$char_traits@D@std@@V?$allocator@D@2@@std@@V12@@std@@@2@$0A@@std@@@std@@IBEAAPAU?$_Tree_node@U?$pair@$$CBV?$basic_string@DU?$char_traits@D@std@@V?$allocator@D@2@@std@@V12@@std@@PAX@2@XZ 100062c0 f i tools.obj
 0001:000052e0       ?_Root@?$_Tree@V?$_Tmap_traits@V?$basic_string@DU?$char_traits@D@std@@V?$allocator@D@2@@std@@V12@U?$less@V?$basic_string@DU?$char_traits@D@std@@V?$allocator@D@2@@std@@@2@V?$allocator@U?$pair@$$CBV?$basic_string@DU?$char_traits@D@std@@V?$allocator@D@2@@std@@V12@@std@@@2@$0A@@std@@@std@@IBEAAPAU?$_Tree_node@U?$pair@$$CBV?$basic_string@DU?$char_traits@D@std@@V?$allocator@D@2@@std@@V12@@std@@PAX@2@XZ 100062e0 f i tools.obj
 0001:00005300       ?_Rrotate@?$_Tree@V?$_Tmap_traits@V?$basic_string@DU?$char_traits@D@std@@V?$allocator@D@2@@std@@V12@U?$less@V?$basic_string@DU?$char_traits@D@std@@V?$allocator@D@2@@std@@@2@V?$allocator@U?$pair@$$CBV?$basic_string@DU?$char_traits@D@std@@V?$allocator@D@2@@std@@V12@@std@@@2@$0A@@std@@@std@@IAEXPAU?$_Tree_node@U?$pair@$$CBV?$basic_string@DU?$char_traits@D@std@@V?$allocator@D@2@@std@@V12@@std@@PAX@2@@Z 10006300 f i tools.obj
 0001:00005430       ?_Tidy@?$_Tree@V?$_Tmap_traits@V?$basic_string@DU?$char_traits@D@std@@V?$allocator@D@2@@std@@V12@U?$less@V?$basic_string@DU?$char_traits@D@std@@V?$allocator@D@2@@std@@@2@V?$allocator@U?$pair@$$CBV?$basic_string@DU?$char_traits@D@std@@V?$allocator@D@2@@std@@V12@@std@@@2@$0A@@std@@@std@@IAEXXZ 10006430 f i tools.obj
 0001:00005480       ?allocate@?$_Wrap_alloc@V?$allocator@U?$_Tree_node@U?$pair@$$CBV?$basic_string@DU?$char_traits@D@std@@V?$allocator@D@2@@std@@V12@@std@@PAX@std@@@std@@@std@@QAEPAU?$_Tree_node@U?$pair@$$CBV?$basic_string@DU?$char_traits@D@std@@V?$allocator@D@2@@std@@V12@@std@@PAX@2@I@Z 10006480 f i tools.obj
 0001:000054a0       ?allocate@?$allocator@U?$_Tree_node@U?$pair@$$CBV?$basic_string@DU?$char_traits@D@std@@V?$allocator@D@2@@std@@V12@@std@@PAX@std@@@std@@QAEPAU?$_Tree_node@U?$pair@$$CBV?$basic_string@DU?$char_traits@D@std@@V?$allocator@D@2@@std@@V12@@std@@PAX@2@I@Z 100064a0 f i tools.obj
 0001:000054c0       ?begin@?$_Tree@V?$_Tmap_traits@V?$basic_string@DU?$char_traits@D@std@@V?$allocator@D@2@@std@@V12@U?$less@V?$basic_string@DU?$char_traits@D@std@@V?$allocator@D@2@@std@@@2@V?$allocator@U?$pair@$$CBV?$basic_string@DU?$char_traits@D@std@@V?$allocator@D@2@@std@@V12@@std@@@2@$0A@@std@@@std@@QAE?AV?$_Tree_iterator@V?$_Tree_val@U?$_Tree_simple_types@U?$pair@$$CBV?$basic_string@DU?$char_traits@D@std@@V?$allocator@D@2@@std@@V12@@std@@@std@@@std@@@2@XZ 100064c0 f i tools.obj
 0001:000054f0       ?c_str@?$basic_string@DU?$char_traits@D@std@@V?$allocator@D@2@@std@@QBEPBDXZ 100064f0 f i tools.obj
 0001:00005510       ?clear@?$_Tree@V?$_Tmap_traits@V?$basic_string@DU?$char_traits@D@std@@V?$allocator@D@2@@std@@V12@U?$less@V?$basic_string@DU?$char_traits@D@std@@V?$allocator@D@2@@std@@@2@V?$allocator@U?$pair@$$CBV?$basic_string@DU?$char_traits@D@std@@V?$allocator@D@2@@std@@V12@@std@@@2@$0A@@std@@@std@@QAEXXZ 10006510 f i tools.obj
 0001:00005570       ?compare@?$basic_string@DU?$char_traits@D@std@@V?$allocator@D@2@@std@@QBEHABV12@@Z 10006570 f i tools.obj
 0001:000055a0       ?compare@?$basic_string@DU?$char_traits@D@std@@V?$allocator@D@2@@std@@QBEHIIPBDI@Z 100065a0 f i tools.obj
 0001:00005660       ?compare@?$char_traits@D@std@@SAHPBD0I@Z 10006660 f i tools.obj
 0001:000056a0       ?deallocate@?$_Wrap_alloc@V?$allocator@U?$_Tree_node@U?$pair@$$CBV?$basic_string@DU?$char_traits@D@std@@V?$allocator@D@2@@std@@V12@@std@@PAX@std@@@std@@@std@@QAEXPAU?$_Tree_node@U?$pair@$$CBV?$basic_string@DU?$char_traits@D@std@@V?$allocator@D@2@@std@@V12@@std@@PAX@2@I@Z 100066a0 f i tools.obj
 0001:000056c0       ?deallocate@?$allocator@U?$_Tree_node@U?$pair@$$CBV?$basic_string@DU?$char_traits@D@std@@V?$allocator@D@2@@std@@V12@@std@@PAX@std@@@std@@QAEXPAU?$_Tree_node@U?$pair@$$CBV?$basic_string@DU?$char_traits@D@std@@V?$allocator@D@2@@std@@V12@@std@@PAX@2@I@Z 100066c0 f i tools.obj
 0001:000056e0       ?end@?$_Tree@V?$_Tmap_traits@V?$basic_string@DU?$char_traits@D@std@@V?$allocator@D@2@@std@@V12@U?$less@V?$basic_string@DU?$char_traits@D@std@@V?$allocator@D@2@@std@@@2@V?$allocator@U?$pair@$$CBV?$basic_string@DU?$char_traits@D@std@@V?$allocator@D@2@@std@@V12@@std@@@2@$0A@@std@@@std@@QAE?AV?$_Tree_iterator@V?$_Tree_val@U?$_Tree_simple_types@U?$pair@$$CBV?$basic_string@DU?$char_traits@D@std@@V?$allocator@D@2@@std@@V12@@std@@@std@@@std@@@2@XZ 100066e0 f i tools.obj
 0001:00005710       ?erase@?$_Tree@V?$_Tmap_traits@V?$basic_string@DU?$char_traits@D@std@@V?$allocator@D@2@@std@@V12@U?$less@V?$basic_string@DU?$char_traits@D@std@@V?$allocator@D@2@@std@@@2@V?$allocator@U?$pair@$$CBV?$basic_string@DU?$char_traits@D@std@@V?$allocator@D@2@@std@@V12@@std@@@2@$0A@@std@@@std@@QAE?AV?$_Tree_iterator@V?$_Tree_val@U?$_Tree_simple_types@U?$pair@$$CBV?$basic_string@DU?$char_traits@D@std@@V?$allocator@D@2@@std@@V12@@std@@@std@@@std@@@2@V?$_Tree_const_iterator@V?$_Tree_val@U?$_Tree_simple_types@U?$pair@$$CBV?$basic_string@DU?$char_traits@D@std@@V?$allocator@D@2@@std@@V12@@std@@@std@@@std@@@2@0@Z 10006710 f i tools.obj
 0001:000057c0       ?erase@?$_Tree@V?$_Tmap_traits@V?$basic_string@DU?$char_traits@D@std@@V?$allocator@D@2@@std@@V12@U?$less@V?$basic_string@DU?$char_traits@D@std@@V?$allocator@D@2@@std@@@2@V?$allocator@U?$pair@$$CBV?$basic_string@DU?$char_traits@D@std@@V?$allocator@D@2@@std@@V12@@std@@@2@$0A@@std@@@std@@QAE?AV?$_Tree_iterator@V?$_Tree_val@U?$_Tree_simple_types@U?$pair@$$CBV?$basic_string@DU?$char_traits@D@std@@V?$allocator@D@2@@std@@V12@@std@@@std@@@std@@@2@V?$_Tree_const_iterator@V?$_Tree_val@U?$_Tree_simple_types@U?$pair@$$CBV?$basic_string@DU?$char_traits@D@std@@V?$allocator@D@2@@std@@V12@@std@@@std@@@std@@@2@@Z 100067c0 f i tools.obj
 0001:00005f40       ?lower_bound@?$_Tree@V?$_Tmap_traits@V?$basic_string@DU?$char_traits@D@std@@V?$allocator@D@2@@std@@V12@U?$less@V?$basic_string@DU?$char_traits@D@std@@V?$allocator@D@2@@std@@@2@V?$allocator@U?$pair@$$CBV?$basic_string@DU?$char_traits@D@std@@V?$allocator@D@2@@std@@V12@@std@@@2@$0A@@std@@@std@@QAE?AV?$_Tree_iterator@V?$_Tree_val@U?$_Tree_simple_types@U?$pair@$$CBV?$basic_string@DU?$char_traits@D@std@@V?$allocator@D@2@@std@@V12@@std@@@std@@@std@@@2@ABV?$basic_string@DU?$char_traits@D@std@@V?$allocator@D@2@@2@@Z 10006f40 f i tools.obj
 0001:00005f70       ?max_size@?$_Tree@V?$_Tmap_traits@V?$basic_string@DU?$char_traits@D@std@@V?$allocator@D@2@@std@@V12@U?$less@V?$basic_string@DU?$char_traits@D@std@@V?$allocator@D@2@@std@@@2@V?$allocator@U?$pair@$$CBV?$basic_string@DU?$char_traits@D@std@@V?$allocator@D@2@@std@@V12@@std@@@2@$0A@@std@@@std@@QBEIXZ 10006f70 f i tools.obj
 0001:00005f90       ?max_size@?$_Wrap_alloc@V?$allocator@U?$_Tree_node@U?$pair@$$CBV?$basic_string@DU?$char_traits@D@std@@V?$allocator@D@2@@std@@V12@@std@@PAX@std@@@std@@@std@@QBEIXZ 10006f90 f i tools.obj
 0001:00005fb0       ?max_size@?$allocator@U?$_Tree_node@U?$pair@$$CBV?$basic_string@DU?$char_traits@D@std@@V?$allocator@D@2@@std@@V12@@std@@PAX@std@@@std@@QBEIXZ 10006fb0 f i tools.obj
 0001:00005fc0       ?max_size@?$allocator_traits@V?$allocator@U?$_Tree_node@U?$pair@$$CBV?$basic_string@DU?$char_traits@D@std@@V?$allocator@D@2@@std@@V12@@std@@PAX@std@@@std@@@std@@SAIABV?$allocator@U?$_Tree_node@U?$pair@$$CBV?$basic_string@DU?$char_traits@D@std@@V?$allocator@D@2@@std@@V12@@std@@PAX@std@@@2@@Z 10006fc0 f i tools.obj
 0001:00005fd0       ?pointer_to@?$pointer_traits@PAU?$pair@$$CBV?$basic_string@DU?$char_traits@D@std@@V?$allocator@D@2@@std@@V12@@std@@@std@@SAPAU?$pair@$$CBV?$basic_string@DU?$char_traits@D@std@@V?$allocator@D@2@@std@@V12@@2@AAU32@@Z 10006fd0 f i tools.obj
 0001:00005ff0       ?size@?$_Tree@V?$_Tmap_traits@V?$basic_string@DU?$char_traits@D@std@@V?$allocator@D@2@@std@@V12@U?$less@V?$basic_string@DU?$char_traits@D@std@@V?$allocator@D@2@@std@@@2@V?$allocator@U?$pair@$$CBV?$basic_string@DU?$char_traits@D@std@@V?$allocator@D@2@@std@@V12@@std@@@2@$0A@@std@@@std@@QBEIXZ 10006ff0 f i tools.obj
 0001:00006010       ??0datasource_t@@QAE@PBD@Z 10007010 f   data.obj
 0001:00006100       ??1datasource_t@@UAE@XZ    10007100 f   data.obj
 0001:00006160       ?name@datasource_t@@UAEABV?$basic_string@DU?$char_traits@D@std@@V?$allocator@D@2@@std@@XZ 10007160 f   data.obj
 0001:00006180       ?newdata_available@datasource_t@@QAE_NXZ 10007180 f   data.obj
 0001:000061a0       ?mark_dirty@datasource_t@@UAEXXZ 100071a0 f   data.obj
 0001:000061c0       ??Bdatasource_t@@UAEHXZ    100071c0 f   data.obj
 0001:00006210       ??Bdatasource_t@@UAEMXZ    10007210 f   data.obj
 0001:00006270       ??Bdatasource_t@@UAENXZ    10007270 f   data.obj
 0001:000062c0       ??Bdatasource_t@@UAEABV?$basic_string@DU?$char_traits@D@std@@V?$allocator@D@2@@std@@XZ 100072c0 f   data.obj
 0001:00006400       ??Bdatasource_t@@UAEPBDXZ  10007400 f   data.obj
 0001:00006540       ?refresh@datasource_t@@UAE_NXZ 10007540 f   data.obj
 0001:000069f0       ?getType@datasource_t@@UAEHXZ 100079f0 f   data.obj
 0001:00006a10       ??0data_t@@QAE@XZ          10007a10 f   data.obj
 0001:00006a60       ??1data_t@@UAE@XZ          10007a60 f   data.obj
 0001:00006b30       ?add_listener@data_t@@QAEXPAVlistener_t@@@Z 10007b30 f   data.obj
 0001:00006ba0       ?remove_listener@data_t@@QAEXPAVlistener_t@@@Z 10007ba0 f   data.obj
 0001:00006c00       ?add_datasource@data_t@@QAEPAVobject_t@@PBD@Z 10007c00 f   data.obj
 0001:00006d60       ?remove_datasource@data_t@@QAEXPAVobject_t@@@Z 10007d60 f   data.obj
 0001:00006df0       ?remove_datasource@data_t@@QAEXPBD@Z 10007df0 f   data.obj
 0001:00006e90       ?connect@data_t@@QAEXM@Z   10007e90 f   data.obj
 0001:00006ef0       ?disconnect@data_t@@QAEXXZ 10007ef0 f   data.obj
 0001:00006f30       ?upd_interval@data_t@@QAEABMXZ 10007f30 f   data.obj
 0001:00006f50       ?update@data_t@@CAMMMHPAX@Z 10007f50 f   data.obj
 0001:00006f80       ?refresh_datasources@data_t@@EAEXXZ 10007f80 f   data.obj
 0001:000070e0       ?refresh_listeners@data_t@@EAEXPAVobject_t@@@Z 100080e0 f   data.obj
 0001:000071b0       ??$?0AAV?$_Tree_const_iterator@V?$_Tree_val@U?$_Tree_simple_types@PAVlistener_t@@@std@@@std@@@std@@AAV01@X@?$pair@V?$_Tree_const_iterator@V?$_Tree_val@U?$_Tree_simple_types@PAVlistener_t@@@std@@@std@@@std@@V12@@std@@QAE@AAV?$_Tree_const_iterator@V?$_Tree_val@U?$_Tree_simple_types@PAVlistener_t@@@std@@@std@@@1@0@Z 100081b0 f i data.obj
 0001:000071f0       ??$?0AAV?$_Tree_const_iterator@V?$_Tree_val@U?$_Tree_simple_types@PAVlistener_t@@@std@@@std@@@std@@_NX@?$pair@V?$_Tree_const_iterator@V?$_Tree_val@U?$_Tree_simple_types@PAVlistener_t@@@std@@@std@@@std@@_N@std@@QAE@AAV?$_Tree_const_iterator@V?$_Tree_val@U?$_Tree_simple_types@PAVlistener_t@@@std@@@std@@@1@$$QA_N@Z 100081f0 f i data.obj
 0001:00007230       ??$?0AAV?$_Tree_const_iterator@V?$_Tree_val@U?$_Tree_simple_types@PAVobject_t@@@std@@@std@@@std@@AAV01@X@?$pair@V?$_Tree_const_iterator@V?$_Tree_val@U?$_Tree_simple_types@PAVobject_t@@@std@@@std@@@std@@V12@@std@@QAE@AAV?$_Tree_const_iterator@V?$_Tree_val@U?$_Tree_simple_types@PAVobject_t@@@std@@@std@@@1@0@Z 10008230 f i data.obj
 0001:00007270       ??$?0AAV?$_Tree_const_iterator@V?$_Tree_val@U?$_Tree_simple_types@PAVobject_t@@@std@@@std@@@std@@_NX@?$pair@V?$_Tree_const_iterator@V?$_Tree_val@U?$_Tree_simple_types@PAVobject_t@@@std@@@std@@@std@@_N@std@@QAE@AAV?$_Tree_const_iterator@V?$_Tree_val@U?$_Tree_simple_types@PAVobject_t@@@std@@@std@@@1@$$QA_N@Z 10008270 f i data.obj
 0001:000072b0       ??$?0V?$_Tree_const_iterator@V?$_Tree_val@U?$_Tree_simple_types@PAVlistener_t@@@std@@@std@@@std@@_NX@?$pair@V?$_Tree_const_iterator@V?$_Tree_val@U?$_Tree_simple_types@PAVlistener_t@@@std@@@std@@@std@@_N@std@@QAE@$$QAV?$_Tree_const_iterator@V?$_Tree_val@U?$_Tree_simple_types@PAVlistener_t@@@std@@@std@@@1@$$QA_N@Z 100082b0 f i data.obj
 0001:000072f0       ??$?0V?$_Tree_const_iterator@V?$_Tree_val@U?$_Tree_simple_types@PAVobject_t@@@std@@@std@@@std@@_NX@?$pair@V?$_Tree_const_iterator@V?$_Tree_val@U?$_Tree_simple_types@PAVobject_t@@@std@@@std@@@std@@_N@std@@QAE@$$QAV?$_Tree_const_iterator@V?$_Tree_val@U?$_Tree_simple_types@PAVobject_t@@@std@@@std@@@1@$$QA_N@Z 100082f0 f i data.obj
 0001:00007330       ??$?8DD@std@@YA_NABV?$allocator@D@0@0@Z 10008330 f i data.obj
 0001:00007340       ??$?8DU?$char_traits@D@std@@V?$allocator@D@1@@std@@YA_NABV?$basic_string@DU?$char_traits@D@std@@V?$allocator@D@2@@0@0@Z 10008340 f i data.obj
 0001:00007370       ??$?8DU?$char_traits@D@std@@V?$allocator@D@1@@std@@YA_NABV?$basic_string@DU?$char_traits@D@std@@V?$allocator@D@2@@0@PBD@Z 10008370 f i data.obj
 0001:000073a0       ??$?8DU?$char_traits@D@std@@V?$allocator@D@1@@std@@YA_NPBDABV?$basic_string@DU?$char_traits@D@std@@V?$allocator@D@2@@0@@Z 100083a0 f i data.obj
 0001:000073d0       ??$?8V?$allocator@D@std@@V01@@std@@YA_NABU?$_Wrap_alloc@V?$allocator@D@std@@@0@0@Z 100083d0 f i data.obj
 0001:00007400       ??$?9DD@std@@YA_NABV?$allocator@D@0@0@Z 10008400 f i data.obj
 0001:00007440       ??$?9DU?$char_traits@D@std@@V?$allocator@D@1@@std@@YA_NABV?$basic_string@DU?$char_traits@D@std@@V?$allocator@D@2@@0@0@Z 10008440 f i data.obj
 0001:00007480       ??$?9V?$allocator@D@std@@V01@@std@@YA_NABU?$_Wrap_alloc@V?$allocator@D@std@@@0@0@Z 10008480 f i data.obj
 0001:000074c0       ??$_Allocate@U?$_Tree_node@PAVlistener_t@@PAX@std@@@std@@YAPAU?$_Tree_node@PAVlistener_t@@PAX@0@IPAU10@@Z 100084c0 f i data.obj
 0001:00007500       ??$_Allocate@U?$_Tree_node@PAVobject_t@@PAX@std@@@std@@YAPAU?$_Tree_node@PAVobject_t@@PAX@0@IPAU10@@Z 10008500 f i data.obj
 0001:00007540       ??$_Buynode@ABQAVlistener_t@@@?$_Tree_buy@PAVlistener_t@@V?$allocator@PAVlistener_t@@@std@@@std@@QAEPAU?$_Tree_node@PAVlistener_t@@PAX@1@ABQAVlistener_t@@@Z 10008540 f i data.obj
 0001:00007620       ??$_Buynode@ABQAVobject_t@@@?$_Tree_buy@PAVobject_t@@V?$allocator@PAVobject_t@@@std@@@std@@QAEPAU?$_Tree_node@PAVobject_t@@PAX@1@ABQAVobject_t@@@Z 10008620 f i data.obj
 0001:00007700       ??$_Buynode_if_nil@ABQAVlistener_t@@@?$_Tree@V?$_Tset_traits@PAVlistener_t@@U?$less@PAVlistener_t@@@std@@V?$allocator@PAVlistener_t@@@3@$0A@@std@@@std@@IAEPAU?$_Tree_node@PAVlistener_t@@PAX@1@U_Nil@1@ABQAVlistener_t@@@Z 10008700 f i data.obj
 0001:00007730       ??$_Buynode_if_nil@ABQAVobject_t@@@?$_Tree@V?$_Tset_traits@PAVobject_t@@U?$less@PAVobject_t@@@std@@V?$allocator@PAVobject_t@@@3@$0A@@std@@@std@@IAEPAU?$_Tree_node@PAVobject_t@@PAX@1@U_Nil@1@ABQAVobject_t@@@Z 10008730 f i data.obj
 0001:00007760       ??$_Distance2@V?$_Tree_const_iterator@V?$_Tree_val@U?$_Tree_simple_types@PAVlistener_t@@@std@@@std@@@std@@I@std@@YAXV?$_Tree_const_iterator@V?$_Tree_val@U?$_Tree_simple_types@PAVlistener_t@@@std@@@std@@@0@0AAIUbidirectional_iterator_tag@0@@Z 10008760 f i data.obj
 0001:000077a0       ??$_Distance2@V?$_Tree_const_iterator@V?$_Tree_val@U?$_Tree_simple_types@PAVobject_t@@@std@@@std@@@std@@I@std@@YAXV?$_Tree_const_iterator@V?$_Tree_val@U?$_Tree_simple_types@PAVobject_t@@@std@@@std@@@0@0AAIUbidirectional_iterator_tag@0@@Z 100087a0 f i data.obj
 0001:000077e0       ??$_Distance@V?$_Tree_const_iterator@V?$_Tree_val@U?$_Tree_simple_types@PAVlistener_t@@@std@@@std@@@std@@I@std@@YAXV?$_Tree_const_iterator@V?$_Tree_val@U?$_Tree_simple_types@PAVlistener_t@@@std@@@std@@@0@0AAI@Z 100087e0 f i data.obj
 0001:00007820       ??$_Distance@V?$_Tree_const_iterator@V?$_Tree_val@U?$_Tree_simple_types@PAVobject_t@@@std@@@std@@@std@@I@std@@YAXV?$_Tree_const_iterator@V?$_Tree_val@U?$_Tree_simple_types@PAVobject_t@@@std@@@std@@@0@0AAI@Z 10008820 f i data.obj
 0001:00007860       ??$_Insert_at@ABQAVlistener_t@@U_Nil@std@@@?$_Tree@V?$_Tset_traits@PAVlistener_t@@U?$less@PAVlistener_t@@@std@@V?$allocator@PAVlistener_t@@@3@$0A@@std@@@std@@IAE?AV?$_Tree_const_iterator@V?$_Tree_val@U?$_Tree_simple_types@PAVlistener_t@@@std@@@std@@@1@_NPAU?$_Tree_node@PAVlistener_t@@PAX@1@ABQAVlistener_t@@U_Nil@1@@Z 10008860 f i data.obj
 0001:00007c90       ??$_Insert_at@ABQAVobject_t@@U_Nil@std@@@?$_Tree@V?$_Tset_traits@PAVobject_t@@U?$less@PAVobject_t@@@std@@V?$allocator@PAVobject_t@@@3@$0A@@std@@@std@@IAE?AV?$_Tree_const_iterator@V?$_Tree_val@U?$_Tree_simple_types@PAVobject_t@@@std@@@std@@@1@_NPAU?$_Tree_node@PAVobject_t@@PAX@1@ABQAVobject_t@@U_Nil@1@@Z 10008c90 f i data.obj
 0001:000080c0       ??$_Insert_nohint@ABQAVlistener_t@@U_Nil@std@@@?$_Tree@V?$_Tset_traits@PAVlistener_t@@U?$less@PAVlistener_t@@@std@@V?$allocator@PAVlistener_t@@@3@$0A@@std@@@std@@IAE?AU?$pair@V?$_Tree_const_iterator@V?$_Tree_val@U?$_Tree_simple_types@PAVlistener_t@@@std@@@std@@@std@@_N@1@_NABQAVlistener_t@@U_Nil@1@@Z 100090c0 f i data.obj
 0001:00008390       ??$_Insert_nohint@ABQAVobject_t@@U_Nil@std@@@?$_Tree@V?$_Tset_traits@PAVobject_t@@U?$less@PAVobject_t@@@std@@V?$allocator@PAVobject_t@@@3@$0A@@std@@@std@@IAE?AU?$pair@V?$_Tree_const_iterator@V?$_Tree_val@U?$_Tree_simple_types@PAVobject_t@@@std@@@std@@@std@@_N@1@_NABQAVobject_t@@U_Nil@1@@Z 10009390 f i data.obj
 0001:00008660       ??$_Iter_cat@V?$_Tree_const_iterator@V?$_Tree_val@U?$_Tree_simple_types@PAVlistener_t@@@std@@@std@@@std@@@std@@YA?AUbidirectional_iterator_tag@0@ABV?$_Tree_const_iterator@V?$_Tree_val@U?$_Tree_simple_types@PAVlistener_t@@@std@@@std@@@0@@Z 10009660 f i data.obj
 0001:00008680       ??$_Iter_cat@V?$_Tree_const_iterator@V?$_Tree_val@U?$_Tree_simple_types@PAVobject_t@@@std@@@std@@@std@@@std@@YA?AUbidirectional_iterator_tag@0@ABV?$_Tree_const_iterator@V?$_Tree_val@U?$_Tree_simple_types@PAVobject_t@@@std@@@std@@@0@@Z 10009680 f i data.obj
 0001:000086a0       ??$addressof@PAU?$_Tree_node@PAVlistener_t@@PAX@std@@@std@@YAPAPAU?$_Tree_node@PAVlistener_t@@PAX@0@AAPAU10@@Z 100096a0 f i data.obj
 0001:000086b0       ??$addressof@PAU?$_Tree_node@PAVobject_t@@PAX@std@@@std@@YAPAPAU?$_Tree_node@PAVobject_t@@PAX@0@AAPAU10@@Z 100096b0 f i data.obj
 0001:000086c0       ??$addressof@PAVlistener_t@@@std@@YAPAPAVlistener_t@@AAPAV1@@Z 100096c0 f i data.obj
 0001:000086d0       ??$addressof@PAVobject_t@@@std@@YAPAPAVobject_t@@AAPAV1@@Z 100096d0 f i data.obj
 0001:000086e0       ??$construct@PAU?$_Tree_node@PAVlistener_t@@PAX@std@@AAPAU12@@?$_Wrap_alloc@V?$allocator@U?$_Tree_node@PAVlistener_t@@PAX@std@@@std@@@std@@QAEXPAPAU?$_Tree_node@PAVlistener_t@@PAX@1@AAPAU21@@Z 100096e0 f i data.obj
 0001:00008710       ??$construct@PAU?$_Tree_node@PAVlistener_t@@PAX@std@@AAPAU12@@?$allocator@U?$_Tree_node@PAVlistener_t@@PAX@std@@@std@@QAEXPAPAU?$_Tree_node@PAVlistener_t@@PAX@1@AAPAU21@@Z 10009710 f i data.obj
 0001:00008760       ??$construct@PAU?$_Tree_node@PAVlistener_t@@PAX@std@@AAPAU12@@?$allocator_traits@V?$allocator@U?$_Tree_node@PAVlistener_t@@PAX@std@@@std@@@std@@SAXAAV?$allocator@U?$_Tree_node@PAVlistener_t@@PAX@std@@@1@PAPAU?$_Tree_node@PAVlistener_t@@PAX@1@AAPAU31@@Z 10009760 f i data.obj
 0001:00008780       ??$construct@PAU?$_Tree_node@PAVobject_t@@PAX@std@@AAPAU12@@?$_Wrap_alloc@V?$allocator@U?$_Tree_node@PAVobject_t@@PAX@std@@@std@@@std@@QAEXPAPAU?$_Tree_node@PAVobject_t@@PAX@1@AAPAU21@@Z 10009780 f i data.obj
 0001:000087b0       ??$construct@PAU?$_Tree_node@PAVobject_t@@PAX@std@@AAPAU12@@?$allocator@U?$_Tree_node@PAVobject_t@@PAX@std@@@std@@QAEXPAPAU?$_Tree_node@PAVobject_t@@PAX@1@AAPAU21@@Z 100097b0 f i data.obj
 0001:00008800       ??$construct@PAU?$_Tree_node@PAVobject_t@@PAX@std@@AAPAU12@@?$allocator_traits@V?$allocator@U?$_Tree_node@PAVobject_t@@PAX@std@@@std@@@std@@SAXAAV?$allocator@U?$_Tree_node@PAVobject_t@@PAX@std@@@1@PAPAU?$_Tree_node@PAVobject_t@@PAX@1@AAPAU31@@Z 10009800 f i data.obj
 0001:00008820       ??$construct@PAVlistener_t@@ABQAV1@@?$_Wrap_alloc@V?$allocator@U?$_Tree_node@PAVlistener_t@@PAX@std@@@std@@@std@@QAEXPAPAVlistener_t@@ABQAV2@@Z 10009820 f i data.obj
 0001:00008850       ??$construct@PAVlistener_t@@ABQAV1@@?$allocator@U?$_Tree_node@PAVlistener_t@@PAX@std@@@std@@QAEXPAPAVlistener_t@@ABQAV2@@Z 10009850 f i data.obj
 0001:000088a0       ??$construct@PAVlistener_t@@ABQAV1@@?$allocator_traits@V?$allocator@U?$_Tree_node@PAVlistener_t@@PAX@std@@@std@@@std@@SAXAAV?$allocator@U?$_Tree_node@PAVlistener_t@@PAX@std@@@1@PAPAVlistener_t@@ABQAV3@@Z 100098a0 f i data.obj
 0001:000088c0       ??$construct@PAVobject_t@@ABQAV1@@?$_Wrap_alloc@V?$allocator@U?$_Tree_node@PAVobject_t@@PAX@std@@@std@@@std@@QAEXPAPAVobject_t@@ABQAV2@@Z 100098c0 f i data.obj
 0001:000088f0       ??$construct@PAVobject_t@@ABQAV1@@?$allocator@U?$_Tree_node@PAVobject_t@@PAX@std@@@std@@QAEXPAPAVobject_t@@ABQAV2@@Z 100098f0 f i data.obj
 0001:00008940       ??$construct@PAVobject_t@@ABQAV1@@?$allocator_traits@V?$allocator@U?$_Tree_node@PAVobject_t@@PAX@std@@@std@@@std@@SAXAAV?$allocator@U?$_Tree_node@PAVobject_t@@PAX@std@@@1@PAPAVobject_t@@ABQAV3@@Z 10009940 f i data.obj
 0001:00008960       ??$destroy@PAU?$_Tree_node@PAVlistener_t@@PAX@std@@@?$_Wrap_alloc@V?$allocator@U?$_Tree_node@PAVlistener_t@@PAX@std@@@std@@@std@@QAEXPAPAU?$_Tree_node@PAVlistener_t@@PAX@1@@Z 10009960 f i data.obj
 0001:00008980       ??$destroy@PAU?$_Tree_node@PAVlistener_t@@PAX@std@@@?$allocator@U?$_Tree_node@PAVlistener_t@@PAX@std@@@std@@QAEXPAPAU?$_Tree_node@PAVlistener_t@@PAX@1@@Z 10009980 f i data.obj
 0001:00008990       ??$destroy@PAU?$_Tree_node@PAVlistener_t@@PAX@std@@@?$allocator_traits@V?$allocator@U?$_Tree_node@PAVlistener_t@@PAX@std@@@std@@@std@@SAXAAV?$allocator@U?$_Tree_node@PAVlistener_t@@PAX@std@@@1@PAPAU?$_Tree_node@PAVlistener_t@@PAX@1@@Z 10009990 f i data.obj
 0001:000089b0       ??$destroy@PAU?$_Tree_node@PAVobject_t@@PAX@std@@@?$_Wrap_alloc@V?$allocator@U?$_Tree_node@PAVobject_t@@PAX@std@@@std@@@std@@QAEXPAPAU?$_Tree_node@PAVobject_t@@PAX@1@@Z 100099b0 f i data.obj
 0001:000089d0       ??$destroy@PAU?$_Tree_node@PAVobject_t@@PAX@std@@@?$allocator@U?$_Tree_node@PAVobject_t@@PAX@std@@@std@@QAEXPAPAU?$_Tree_node@PAVobject_t@@PAX@1@@Z 100099d0 f i data.obj
 0001:000089e0       ??$destroy@PAU?$_Tree_node@PAVobject_t@@PAX@std@@@?$allocator_traits@V?$allocator@U?$_Tree_node@PAVobject_t@@PAX@std@@@std@@@std@@SAXAAV?$allocator@U?$_Tree_node@PAVobject_t@@PAX@std@@@1@PAPAU?$_Tree_node@PAVobject_t@@PAX@1@@Z 100099e0 f i data.obj
 0001:00008a00       ??$destroy@PAVlistener_t@@@?$_Wrap_alloc@V?$allocator@U?$_Tree_node@PAVlistener_t@@PAX@std@@@std@@@std@@QAEXPAPAVlistener_t@@@Z 10009a00 f i data.obj
 0001:00008a20       ??$destroy@PAVlistener_t@@@?$allocator@U?$_Tree_node@PAVlistener_t@@PAX@std@@@std@@QAEXPAPAVlistener_t@@@Z 10009a20 f i data.obj
 0001:00008a30       ??$destroy@PAVlistener_t@@@?$allocator_traits@V?$allocator@U?$_Tree_node@PAVlistener_t@@PAX@std@@@std@@@std@@SAXAAV?$allocator@U?$_Tree_node@PAVlistener_t@@PAX@std@@@1@PAPAVlistener_t@@@Z 10009a30 f i data.obj
 0001:00008a50       ??$destroy@PAVobject_t@@@?$_Wrap_alloc@V?$allocator@U?$_Tree_node@PAVobject_t@@PAX@std@@@std@@@std@@QAEXPAPAVobject_t@@@Z 10009a50 f i data.obj
 0001:00008a70       ??$destroy@PAVobject_t@@@?$allocator@U?$_Tree_node@PAVobject_t@@PAX@std@@@std@@QAEXPAPAVobject_t@@@Z 10009a70 f i data.obj
 0001:00008a80       ??$destroy@PAVobject_t@@@?$allocator_traits@V?$allocator@U?$_Tree_node@PAVobject_t@@PAX@std@@@std@@@std@@SAXAAV?$allocator@U?$_Tree_node@PAVobject_t@@PAX@std@@@1@PAPAVobject_t@@@Z 10009a80 f i data.obj
 0001:00008aa0       ??$forward@AAPAU?$_Tree_node@PAVlistener_t@@PAX@std@@@std@@YAAAPAU?$_Tree_node@PAVlistener_t@@PAX@0@AAPAU10@@Z 10009aa0 f i data.obj
 0001:00008ab0       ??$forward@AAPAU?$_Tree_node@PAVobject_t@@PAX@std@@@std@@YAAAPAU?$_Tree_node@PAVobject_t@@PAX@0@AAPAU10@@Z 10009ab0 f i data.obj
 0001:00008ac0       ??$forward@AAV?$_Tree_const_iterator@V?$_Tree_val@U?$_Tree_simple_types@PAVlistener_t@@@std@@@std@@@std@@@std@@YAAAV?$_Tree_const_iterator@V?$_Tree_val@U?$_Tree_simple_types@PAVlistener_t@@@std@@@std@@@0@AAV10@@Z 10009ac0 f i data.obj
 0001:00008ad0       ??$forward@AAV?$_Tree_const_iterator@V?$_Tree_val@U?$_Tree_simple_types@PAVobject_t@@@std@@@std@@@std@@@std@@YAAAV?$_Tree_const_iterator@V?$_Tree_val@U?$_Tree_simple_types@PAVobject_t@@@std@@@std@@@0@AAV10@@Z 10009ad0 f i data.obj
 0001:00008ae0       ??$forward@ABQAVlistener_t@@@std@@YAABQAVlistener_t@@ABQAV1@@Z 10009ae0 f i data.obj
 0001:00008af0       ??$forward@ABQAVobject_t@@@std@@YAABQAVobject_t@@ABQAV1@@Z 10009af0 f i data.obj
 0001:00008b00       ??$forward@V?$_Tree_const_iterator@V?$_Tree_val@U?$_Tree_simple_types@PAVlistener_t@@@std@@@std@@@std@@@std@@YA$$QAV?$_Tree_const_iterator@V?$_Tree_val@U?$_Tree_simple_types@PAVlistener_t@@@std@@@std@@@0@AAV10@@Z 10009b00 f i data.obj
 0001:00008b10       ??$forward@V?$_Tree_const_iterator@V?$_Tree_val@U?$_Tree_simple_types@PAVobject_t@@@std@@@std@@@std@@@std@@YA$$QAV?$_Tree_const_iterator@V?$_Tree_val@U?$_Tree_simple_types@PAVobject_t@@@std@@@std@@@0@AAV10@@Z 10009b10 f i data.obj
 0001:00008b20       ??0?$_Tree@V?$_Tset_traits@PAVlistener_t@@U?$less@PAVlistener_t@@@std@@V?$allocator@PAVlistener_t@@@3@$0A@@std@@@std@@QAE@ABU?$less@PAVlistener_t@@@1@ABV?$allocator@PAVlistener_t@@@1@@Z 10009b20 f i data.obj
 0001:00008b40       ??0?$_Tree@V?$_Tset_traits@PAVobject_t@@U?$less@PAVobject_t@@@std@@V?$allocator@PAVobject_t@@@3@$0A@@std@@@std@@QAE@ABU?$less@PAVobject_t@@@1@ABV?$allocator@PAVobject_t@@@1@@Z 10009b40 f i data.obj
 0001:00008b60       ??0?$_Tree_alloc@$0A@U?$_Tree_base_types@PAVlistener_t@@V?$allocator@PAVlistener_t@@@std@@@std@@@std@@QAE@ABV?$allocator@PAVlistener_t@@@1@@Z 10009b60 f i data.obj
 0001:00008b90       ??0?$_Tree_alloc@$0A@U?$_Tree_base_types@PAVobject_t@@V?$allocator@PAVobject_t@@@std@@@std@@@std@@QAE@ABV?$allocator@PAVobject_t@@@1@@Z 10009b90 f i data.obj
 0001:00008bc0       ??0?$_Tree_buy@PAVlistener_t@@V?$allocator@PAVlistener_t@@@std@@@std@@QAE@ABV?$allocator@PAVlistener_t@@@1@@Z 10009bc0 f i data.obj
 0001:00008be0       ??0?$_Tree_buy@PAVobject_t@@V?$allocator@PAVobject_t@@@std@@@std@@QAE@ABV?$allocator@PAVobject_t@@@1@@Z 10009be0 f i data.obj
 0001:00008c00       ??0?$_Tree_comp@$0A@V?$_Tset_traits@PAVlistener_t@@U?$less@PAVlistener_t@@@std@@V?$allocator@PAVlistener_t@@@3@$0A@@std@@@std@@QAE@ABU?$less@PAVlistener_t@@@1@ABV?$allocator@PAVlistener_t@@@1@@Z 10009c00 f i data.obj
 0001:00008c20       ??0?$_Tree_comp@$0A@V?$_Tset_traits@PAVobject_t@@U?$less@PAVobject_t@@@std@@V?$allocator@PAVobject_t@@@3@$0A@@std@@@std@@QAE@ABU?$less@PAVobject_t@@@1@ABV?$allocator@PAVobject_t@@@1@@Z 10009c20 f i data.obj
 0001:00008c40       ??0?$_Tree_const_iterator@V?$_Tree_val@U?$_Tree_simple_types@PAVlistener_t@@@std@@@std@@@std@@QAE@PAU?$_Tree_node@PAVlistener_t@@PAX@1@PBV?$_Tree_val@U?$_Tree_simple_types@PAVlistener_t@@@std@@@1@@Z 10009c40 f i data.obj
 0001:00008c60       ??0?$_Tree_const_iterator@V?$_Tree_val@U?$_Tree_simple_types@PAVobject_t@@@std@@@std@@@std@@QAE@PAU?$_Tree_node@PAVobject_t@@PAX@1@PBV?$_Tree_val@U?$_Tree_simple_types@PAVobject_t@@@std@@@1@@Z 10009c60 f i data.obj
 0001:00008c80       ??0?$_Tree_unchecked_const_iterator@V?$_Tree_val@U?$_Tree_simple_types@PAVlistener_t@@@std@@@std@@U_Iterator_base0@2@@std@@QAE@PAU?$_Tree_node@PAVlistener_t@@PAX@1@PBV?$_Tree_val@U?$_Tree_simple_types@PAVlistener_t@@@std@@@1@@Z 10009c80 f i data.obj
 0001:00008cb0       ??0?$_Tree_unchecked_const_iterator@V?$_Tree_val@U?$_Tree_simple_types@PAVobject_t@@@std@@@std@@U_Iterator_base0@2@@std@@QAE@PAU?$_Tree_node@PAVobject_t@@PAX@1@PBV?$_Tree_val@U?$_Tree_simple_types@PAVobject_t@@@std@@@1@@Z 10009cb0 f i data.obj
 0001:00008ce0       ??0?$_Tree_val@U?$_Tree_simple_types@PAVlistener_t@@@std@@@std@@QAE@XZ 10009ce0 f i data.obj
 0001:00008d10       ??0?$_Tree_val@U?$_Tree_simple_types@PAVobject_t@@@std@@@std@@QAE@XZ 10009d10 f i data.obj
 0001:00008d40       ??0?$_Wrap_alloc@V?$allocator@U?$_Tree_node@PAVlistener_t@@PAX@std@@@std@@@std@@QAE@XZ 10009d40 f i data.obj
 0001:00008d60       ??0?$_Wrap_alloc@V?$allocator@U?$_Tree_node@PAVobject_t@@PAX@std@@@std@@@std@@QAE@XZ 10009d60 f i data.obj
 0001:00008d80       ??0?$allocator@D@std@@QAE@ABV01@@Z 10009d80 f i data.obj
 0001:00008d90       ??0?$allocator@PAVlistener_t@@@std@@QAE@XZ 10009d90 f i data.obj
 0001:00008da0       ??0?$allocator@PAVobject_t@@@std@@QAE@XZ 10009da0 f i data.obj
 0001:00008db0       ??0?$allocator@U?$_Tree_node@PAVlistener_t@@PAX@std@@@std@@QAE@XZ 10009db0 f i data.obj
 0001:00008dc0       ??0?$allocator@U?$_Tree_node@PAVobject_t@@PAX@std@@@std@@QAE@XZ 10009dc0 f i data.obj
 0001:00008dd0       ??0?$basic_ostringstream@DU?$char_traits@D@std@@V?$allocator@D@2@@std@@QAE@H@Z 10009dd0 f i data.obj
 0001:00008e60       ??0?$basic_string@DU?$char_traits@D@std@@V?$allocator@D@2@@std@@QAE@PBDI@Z 10009e60 f i data.obj
 0001:00008ea0       ??0?$basic_stringbuf@DU?$char_traits@D@std@@V?$allocator@D@2@@std@@QAE@H@Z 10009ea0 f i data.obj
 0001:00008ef0       ??0?$fpos@H@std@@QAE@_J@Z  10009ef0 f i data.obj
 0001:00008f30       ??0?$set@PAVlistener_t@@U?$less@PAVlistener_t@@@std@@V?$allocator@PAVlistener_t@@@3@@std@@QAE@XZ 10009f30 f i data.obj
 0001:00008f60       ??0?$set@PAVobject_t@@U?$less@PAVobject_t@@@std@@V?$allocator@PAVobject_t@@@3@@std@@QAE@XZ 10009f60 f i data.obj
 0001:00008f90       ??0object_t@@QAE@XZ        10009f90 f i data.obj
 0001:00008fb0       ??0provider_t@@QAE@XZ      10009fb0 f i data.obj
 0001:00008fd0       ??1?$_Tree@V?$_Tset_traits@PAVlistener_t@@U?$less@PAVlistener_t@@@std@@V?$allocator@PAVlistener_t@@@3@$0A@@std@@@std@@QAE@XZ 10009fd0 f i data.obj
 0001:00008ff0       ??1?$_Tree@V?$_Tset_traits@PAVobject_t@@U?$less@PAVobject_t@@@std@@V?$allocator@PAVobject_t@@@3@$0A@@std@@@std@@QAE@XZ 10009ff0 f i data.obj
 0001:00009010       ??1?$_Tree_alloc@$0A@U?$_Tree_base_types@PAVlistener_t@@V?$allocator@PAVlistener_t@@@std@@@std@@@std@@QAE@XZ 1000a010 f i data.obj
 0001:00009030       ??1?$_Tree_alloc@$0A@U?$_Tree_base_types@PAVobject_t@@V?$allocator@PAVobject_t@@@std@@@std@@@std@@QAE@XZ 1000a030 f i data.obj
 0001:00009050       ??1?$_Tree_buy@PAVlistener_t@@V?$allocator@PAVlistener_t@@@std@@@std@@QAE@XZ 1000a050 f i data.obj
 0001:00009070       ??1?$_Tree_buy@PAVobject_t@@V?$allocator@PAVobject_t@@@std@@@std@@QAE@XZ 1000a070 f i data.obj
 0001:00009090       ??1?$_Tree_comp@$0A@V?$_Tset_traits@PAVlistener_t@@U?$less@PAVlistener_t@@@std@@V?$allocator@PAVlistener_t@@@3@$0A@@std@@@std@@QAE@XZ 1000a090 f i data.obj
 0001:000090b0       ??1?$_Tree_comp@$0A@V?$_Tset_traits@PAVobject_t@@U?$less@PAVobject_t@@@std@@V?$allocator@PAVobject_t@@@3@$0A@@std@@@std@@QAE@XZ 1000a0b0 f i data.obj
 0001:000090d0       ??1?$basic_ostringstream@DU?$char_traits@D@std@@V?$allocator@D@2@@std@@UAE@XZ 1000a0d0 f i data.obj
 0001:00009130       ??1?$basic_stringbuf@DU?$char_traits@D@std@@V?$allocator@D@2@@std@@UAE@XZ 1000a130 f i data.obj
 0001:00009160       ??1?$set@PAVlistener_t@@U?$less@PAVlistener_t@@@std@@V?$allocator@PAVlistener_t@@@3@@std@@QAE@XZ 1000a160 f i data.obj
 0001:00009180       ??1?$set@PAVobject_t@@U?$less@PAVobject_t@@@std@@V?$allocator@PAVobject_t@@@3@@std@@QAE@XZ 1000a180 f i data.obj
 0001:000091a0       ??1object_t@@UAE@XZ        1000a1a0 f i data.obj
 0001:000091c0       ??1provider_t@@UAE@XZ      1000a1c0 f i data.obj
 0001:000091e0       ??4?$basic_string@DU?$char_traits@D@std@@V?$allocator@D@2@@std@@QAEAAV01@ABV01@@Z 1000a1e0 f i data.obj
 0001:00009260       ??8?$_Tree_const_iterator@V?$_Tree_val@U?$_Tree_simple_types@PAVlistener_t@@@std@@@std@@@std@@QBE_NABV01@@Z 1000a260 f i data.obj
 0001:00009290       ??8?$_Tree_const_iterator@V?$_Tree_val@U?$_Tree_simple_types@PAVobject_t@@@std@@@std@@@std@@QBE_NABV01@@Z 1000a290 f i data.obj
 0001:000092c0       ??9?$_Tree_const_iterator@V?$_Tree_val@U?$_Tree_simple_types@PAVlistener_t@@@std@@@std@@@std@@QBE_NABV01@@Z 1000a2c0 f i data.obj
 0001:00009300       ??9?$_Tree_const_iterator@V?$_Tree_val@U?$_Tree_simple_types@PAVobject_t@@@std@@@std@@@std@@QBE_NABV01@@Z 1000a300 f i data.obj
 0001:00009340       ??B?$fpos@H@std@@QBE_JXZ   1000a340 f i data.obj
 0001:00009370       ??D?$_Tree_const_iterator@V?$_Tree_val@U?$_Tree_simple_types@PAVlistener_t@@@std@@@std@@@std@@QBEABQAVlistener_t@@XZ 1000a370 f i data.obj
 0001:00009390       ??D?$_Tree_const_iterator@V?$_Tree_val@U?$_Tree_simple_types@PAVobject_t@@@std@@@std@@@std@@QBEABQAVobject_t@@XZ 1000a390 f i data.obj
 0001:000093b0       ??E?$_Tree_const_iterator@V?$_Tree_val@U?$_Tree_simple_types@PAVlistener_t@@@std@@@std@@@std@@QAE?AV01@H@Z 1000a3b0 f i data.obj
 0001:000093e0       ??E?$_Tree_const_iterator@V?$_Tree_val@U?$_Tree_simple_types@PAVlistener_t@@@std@@@std@@@std@@QAEAAV01@XZ 1000a3e0 f i data.obj
 0001:00009400       ??E?$_Tree_const_iterator@V?$_Tree_val@U?$_Tree_simple_types@PAVobject_t@@@std@@@std@@@std@@QAE?AV01@H@Z 1000a400 f i data.obj
 0001:00009430       ??E?$_Tree_const_iterator@V?$_Tree_val@U?$_Tree_simple_types@PAVobject_t@@@std@@@std@@@std@@QAEAAV01@XZ 1000a430 f i data.obj
 0001:00009450       ??E?$_Tree_unchecked_const_iterator@V?$_Tree_val@U?$_Tree_simple_types@PAVlistener_t@@@std@@@std@@U_Iterator_base0@2@@std@@QAEAAV01@XZ 1000a450 f i data.obj
 0001:00009510       ??E?$_Tree_unchecked_const_iterator@V?$_Tree_val@U?$_Tree_simple_types@PAVobject_t@@@std@@@std@@U_Iterator_base0@2@@std@@QAEAAV01@XZ 1000a510 f i data.obj
 0001:000095d0       ??F?$_Tree_const_iterator@V?$_Tree_val@U?$_Tree_simple_types@PAVlistener_t@@@std@@@std@@@std@@QAEAAV01@XZ 1000a5d0 f i data.obj
 0001:000095f0       ??F?$_Tree_const_iterator@V?$_Tree_val@U?$_Tree_simple_types@PAVobject_t@@@std@@@std@@@std@@QAEAAV01@XZ 1000a5f0 f i data.obj
 0001:00009610       ??F?$_Tree_unchecked_const_iterator@V?$_Tree_val@U?$_Tree_simple_types@PAVlistener_t@@@std@@@std@@U_Iterator_base0@2@@std@@QAEAAV01@XZ 1000a610 f i data.obj
 0001:00009700       ??F?$_Tree_unchecked_const_iterator@V?$_Tree_val@U?$_Tree_simple_types@PAVobject_t@@@std@@@std@@U_Iterator_base0@2@@std@@QAEAAV01@XZ 1000a700 f i data.obj
 0001:000097f0       ??R?$less@PAVlistener_t@@@std@@QBE_NABQAVlistener_t@@0@Z 1000a7f0 f i data.obj
 0001:00009820       ??R?$less@PAVobject_t@@@std@@QBE_NABQAVobject_t@@0@Z 1000a820 f i data.obj
 0001:00009850       ??_D?$basic_ostringstream@DU?$char_traits@D@std@@V?$allocator@D@2@@std@@QAEXXZ 1000a850 f i data.obj
 0001:00009872       ??_E?$basic_ostringstream@DU?$char_traits@D@std@@V?$allocator@D@2@@std@@$4PPPPPPPM@A@AEPAXI@Z 1000a872 f i data.obj
 0001:00009880       ??_E?$basic_ostringstream@DU?$char_traits@D@std@@V?$allocator@D@2@@std@@UAEPAXI@Z 1000a880 f i data.obj
 0001:00009880       ??_G?$basic_ostringstream@DU?$char_traits@D@std@@V?$allocator@D@2@@std@@UAEPAXI@Z 1000a880 f i data.obj
 0001:000098c0       ??_E?$basic_stringbuf@DU?$char_traits@D@std@@V?$allocator@D@2@@std@@UAEPAXI@Z 1000a8c0 f i data.obj
 0001:000098c0       ??_G?$basic_stringbuf@DU?$char_traits@D@std@@V?$allocator@D@2@@std@@UAEPAXI@Z 1000a8c0 f i data.obj
 0001:000098f0       ??_Gdata_t@@UAEPAXI@Z      1000a8f0 f i data.obj
 0001:000098f0       ??_Edata_t@@UAEPAXI@Z      1000a8f0 f i data.obj
 0001:00009920       ??_Gdatasource_t@@UAEPAXI@Z 1000a920 f i data.obj
 0001:00009920       ??_Edatasource_t@@UAEPAXI@Z 1000a920 f i data.obj
 0001:00009950       ??_Gobject_t@@UAEPAXI@Z    1000a950 f i data.obj
 0001:00009950       ??_Eobject_t@@UAEPAXI@Z    1000a950 f i data.obj
 0001:00009980       ??_Gprovider_t@@UAEPAXI@Z  1000a980 f i data.obj
 0001:00009980       ??_Eprovider_t@@UAEPAXI@Z  1000a980 f i data.obj
 0001:000099b0       ?_Buyheadnode@?$_Tree_alloc@$0A@U?$_Tree_base_types@PAVlistener_t@@V?$allocator@PAVlistener_t@@@std@@@std@@@std@@QAEPAU?$_Tree_node@PAVlistener_t@@PAX@2@XZ 1000a9b0 f i data.obj
 0001:00009b00       ?_Buyheadnode@?$_Tree_alloc@$0A@U?$_Tree_base_types@PAVobject_t@@V?$allocator@PAVobject_t@@@std@@@std@@@std@@QAEPAU?$_Tree_node@PAVobject_t@@PAX@2@XZ 1000ab00 f i data.obj
 0001:00009c50       ?_Buynode0@?$_Tree_buy@PAVlistener_t@@V?$allocator@PAVlistener_t@@@std@@@std@@QAEPAU?$_Tree_node@PAVlistener_t@@PAX@2@XZ 1000ac50 f i data.obj
 0001:00009d80       ?_Buynode0@?$_Tree_buy@PAVobject_t@@V?$allocator@PAVobject_t@@@std@@@std@@QAEPAU?$_Tree_node@PAVobject_t@@PAX@2@XZ 1000ad80 f i data.obj
 0001:00009eb0       ?_Change_alloc@?$_String_alloc@$0A@U?$_String_base_types@DV?$allocator@D@std@@@std@@@std@@QAEXABU?$_Wrap_alloc@V?$allocator@D@std@@@2@@Z 1000aeb0 f i data.obj
 0001:00009ec0       ?_Color@?$_Tree_val@U?$_Tree_simple_types@PAVlistener_t@@@std@@@std@@SAAADPAU?$_Tree_node@PAVlistener_t@@PAX@2@@Z 1000aec0 f i data.obj
 0001:00009ed0       ?_Color@?$_Tree_val@U?$_Tree_simple_types@PAVobject_t@@@std@@@std@@SAAADPAU?$_Tree_node@PAVobject_t@@PAX@2@@Z 1000aed0 f i data.obj
 0001:00009ee0       ?_Destroy_if_not_nil@?$_Tree@V?$_Tset_traits@PAVlistener_t@@U?$less@PAVlistener_t@@@std@@V?$allocator@PAVlistener_t@@@3@$0A@@std@@@std@@IAEXU_Nil@2@@Z 1000aee0 f i data.obj
 0001:00009ef0       ?_Destroy_if_not_nil@?$_Tree@V?$_Tset_traits@PAVobject_t@@U?$less@PAVobject_t@@@std@@V?$allocator@PAVobject_t@@@3@$0A@@std@@@std@@IAEXU_Nil@2@@Z 1000aef0 f i data.obj
 0001:00009f00       ?_Eqrange@?$_Tree@V?$_Tset_traits@PAVlistener_t@@U?$less@PAVlistener_t@@@std@@V?$allocator@PAVlistener_t@@@3@$0A@@std@@@std@@IAE?AU?$pair@V?$_Tree_const_iterator@V?$_Tree_val@U?$_Tree_simple_types@PAVlistener_t@@@std@@@std@@@std@@V12@@2@ABQAVlistener_t@@@Z 1000af00 f i data.obj
 0001:0000a0c0       ?_Eqrange@?$_Tree@V?$_Tset_traits@PAVobject_t@@U?$less@PAVobject_t@@@std@@V?$allocator@PAVobject_t@@@3@$0A@@std@@@std@@IAE?AU?$pair@V?$_Tree_const_iterator@V?$_Tree_val@U?$_Tree_simple_types@PAVobject_t@@@std@@@std@@@std@@V12@@2@ABQAVobject_t@@@Z 1000b0c0 f i data.obj
 0001:0000a280       ?_Erase@?$_Tree@V?$_Tset_traits@PAVlistener_t@@U?$less@PAVlistener_t@@@std@@V?$allocator@PAVlistener_t@@@3@$0A@@std@@@std@@IAEXPAU?$_Tree_node@PAVlistener_t@@PAX@2@@Z 1000b280 f i data.obj
 0001:0000a320       ?_Erase@?$_Tree@V?$_Tset_traits@PAVobject_t@@U?$less@PAVobject_t@@@std@@V?$allocator@PAVobject_t@@@3@$0A@@std@@@std@@IAEXPAU?$_Tree_node@PAVobject_t@@PAX@2@@Z 1000b320 f i data.obj
 0001:0000a3c0       ?_Freeheadnode@?$_Tree_alloc@$0A@U?$_Tree_base_types@PAVlistener_t@@V?$allocator@PAVlistener_t@@@std@@@std@@@std@@QAEXPAU?$_Tree_node@PAVlistener_t@@PAX@2@@Z 1000b3c0 f i data.obj
 0001:0000a470       ?_Freeheadnode@?$_Tree_alloc@$0A@U?$_Tree_base_types@PAVobject_t@@V?$allocator@PAVobject_t@@@std@@@std@@@std@@QAEXPAU?$_Tree_node@PAVobject_t@@PAX@2@@Z 1000b470 f i data.obj
 0001:0000a520       ?_Freenode0@?$_Tree_buy@PAVlistener_t@@V?$allocator@PAVlistener_t@@@std@@@std@@QAEXPAU?$_Tree_node@PAVlistener_t@@PAX@2@@Z 1000b520 f i data.obj
 0001:0000a5d0       ?_Freenode0@?$_Tree_buy@PAVobject_t@@V?$allocator@PAVobject_t@@@std@@@std@@QAEXPAU?$_Tree_node@PAVobject_t@@PAX@2@@Z 1000b5d0 f i data.obj
 0001:0000a680       ?_Getal@?$_Tree_alloc@$0A@U?$_Tree_base_types@PAVlistener_t@@V?$allocator@PAVlistener_t@@@std@@@std@@@std@@QBE?AU?$_Wrap_alloc@V?$allocator@U?$_Tree_node@PAVlistener_t@@PAX@std@@@std@@@2@XZ 1000b680 f i data.obj
 0001:0000a6a0       ?_Getal@?$_Tree_alloc@$0A@U?$_Tree_base_types@PAVobject_t@@V?$allocator@PAVobject_t@@@std@@@std@@@std@@QBE?AU?$_Wrap_alloc@V?$allocator@U?$_Tree_node@PAVobject_t@@PAX@std@@@std@@@2@XZ 1000b6a0 f i data.obj
 0001:0000a6c0       ?_Getcomp@?$_Tree_comp@$0A@V?$_Tset_traits@PAVlistener_t@@U?$less@PAVlistener_t@@@std@@V?$allocator@PAVlistener_t@@@3@$0A@@std@@@std@@QBE?AU?$less@PAVlistener_t@@@2@XZ 1000b6c0 f i data.obj
 0001:0000a6d0       ?_Getcomp@?$_Tree_comp@$0A@V?$_Tset_traits@PAVobject_t@@U?$less@PAVobject_t@@@std@@V?$allocator@PAVobject_t@@@3@$0A@@std@@@std@@QBE?AU?$less@PAVobject_t@@@2@XZ 1000b6d0 f i data.obj
 0001:0000a6e0       ?_Getstate@?$basic_stringbuf@DU?$char_traits@D@std@@V?$allocator@D@2@@std@@AAEHH@Z 1000b6e0 f i data.obj
 0001:0000a740       ?_Init@?$basic_stringbuf@DU?$char_traits@D@std@@V?$allocator@D@2@@std@@IAEXPBDIH@Z 1000b740 f i data.obj
 0001:0000a850       ?_Isnil@?$_Tree_val@U?$_Tree_simple_types@PAVlistener_t@@@std@@@std@@SAAADPAU?$_Tree_node@PAVlistener_t@@PAX@2@@Z 1000b850 f i data.obj
 0001:0000a860       ?_Isnil@?$_Tree_val@U?$_Tree_simple_types@PAVobject_t@@@std@@@std@@SAAADPAU?$_Tree_node@PAVobject_t@@PAX@2@@Z 1000b860 f i data.obj
 0001:0000a870       ?_Key@?$_Tree@V?$_Tset_traits@PAVlistener_t@@U?$less@PAVlistener_t@@@std@@V?$allocator@PAVlistener_t@@@3@$0A@@std@@@std@@IBEABQAVlistener_t@@PAU?$_Tree_node@PAVlistener_t@@PAX@2@@Z 1000b870 f i data.obj
 0001:0000a8a0       ?_Key@?$_Tree@V?$_Tset_traits@PAVobject_t@@U?$less@PAVobject_t@@@std@@V?$allocator@PAVobject_t@@@3@$0A@@std@@@std@@IBEABQAVobject_t@@PAU?$_Tree_node@PAVobject_t@@PAX@2@@Z 1000b8a0 f i data.obj
 0001:0000a8d0       ?_Kfn@?$_Tree@V?$_Tset_traits@PAVlistener_t@@U?$less@PAVlistener_t@@@std@@V?$allocator@PAVlistener_t@@@3@$0A@@std@@@std@@IBEABQAVlistener_t@@ABQAV3@@Z 1000b8d0 f i data.obj
 0001:0000a8f0       ?_Kfn@?$_Tree@V?$_Tset_traits@PAVobject_t@@U?$less@PAVobject_t@@@std@@V?$allocator@PAVobject_t@@@3@$0A@@std@@@std@@IBEABQAVobject_t@@ABQAV3@@Z 1000b8f0 f i data.obj
 0001:0000a910       ?_Kfn@?$_Tset_traits@PAVlistener_t@@U?$less@PAVlistener_t@@@std@@V?$allocator@PAVlistener_t@@@3@$0A@@std@@SAABQAVlistener_t@@ABQAV3@@Z 1000b910 f i data.obj
 0001:0000a920       ?_Kfn@?$_Tset_traits@PAVobject_t@@U?$less@PAVobject_t@@@std@@V?$allocator@PAVobject_t@@@3@$0A@@std@@SAABQAVobject_t@@ABQAV3@@Z 1000b920 f i data.obj
 0001:0000a930       ?_Left@?$_Tree_val@U?$_Tree_simple_types@PAVlistener_t@@@std@@@std@@SAAAPAU?$_Tree_node@PAVlistener_t@@PAX@2@PAU32@@Z 1000b930 f i data.obj
 0001:0000a940       ?_Left@?$_Tree_val@U?$_Tree_simple_types@PAVobject_t@@@std@@@std@@SAAAPAU?$_Tree_node@PAVobject_t@@PAX@2@PAU32@@Z 1000b940 f i data.obj
 0001:0000a950       ?_Lmost@?$_Tree@V?$_Tset_traits@PAVlistener_t@@U?$less@PAVlistener_t@@@std@@V?$allocator@PAVlistener_t@@@3@$0A@@std@@@std@@IBEAAPAU?$_Tree_node@PAVlistener_t@@PAX@2@XZ 1000b950 f i data.obj
 0001:0000a970       ?_Lmost@?$_Tree@V?$_Tset_traits@PAVobject_t@@U?$less@PAVobject_t@@@std@@V?$allocator@PAVobject_t@@@3@$0A@@std@@@std@@IBEAAPAU?$_Tree_node@PAVobject_t@@PAX@2@XZ 1000b970 f i data.obj
 0001:0000a990       ?_Lrotate@?$_Tree@V?$_Tset_traits@PAVlistener_t@@U?$less@PAVlistener_t@@@std@@V?$allocator@PAVlistener_t@@@3@$0A@@std@@@std@@IAEXPAU?$_Tree_node@PAVlistener_t@@PAX@2@@Z 1000b990 f i data.obj
 0001:0000aac0       ?_Lrotate@?$_Tree@V?$_Tset_traits@PAVobject_t@@U?$less@PAVobject_t@@@std@@V?$allocator@PAVobject_t@@@3@$0A@@std@@@std@@IAEXPAU?$_Tree_node@PAVobject_t@@PAX@2@@Z 1000bac0 f i data.obj
 0001:0000abf0       ?_Max@?$_Tree_val@U?$_Tree_simple_types@PAVlistener_t@@@std@@@std@@SAPAU?$_Tree_node@PAVlistener_t@@PAX@2@PAU32@@Z 1000bbf0 f i data.obj
 0001:0000ac30       ?_Max@?$_Tree_val@U?$_Tree_simple_types@PAVobject_t@@@std@@@std@@SAPAU?$_Tree_node@PAVobject_t@@PAX@2@PAU32@@Z 1000bc30 f i data.obj
 0001:0000ac70       ?_Min@?$_Tree_val@U?$_Tree_simple_types@PAVlistener_t@@@std@@@std@@SAPAU?$_Tree_node@PAVlistener_t@@PAX@2@PAU32@@Z 1000bc70 f i data.obj
 0001:0000acb0       ?_Min@?$_Tree_val@U?$_Tree_simple_types@PAVobject_t@@@std@@@std@@SAPAU?$_Tree_node@PAVobject_t@@PAX@2@PAU32@@Z 1000bcb0 f i data.obj
 0001:0000acf0       ?_Mynode@?$_Tree_unchecked_const_iterator@V?$_Tree_val@U?$_Tree_simple_types@PAVlistener_t@@@std@@@std@@U_Iterator_base0@2@@std@@QBEPAU?$_Tree_node@PAVlistener_t@@PAX@2@XZ 1000bcf0 f i data.obj
 0001:0000ad00       ?_Mynode@?$_Tree_unchecked_const_iterator@V?$_Tree_val@U?$_Tree_simple_types@PAVobject_t@@@std@@@std@@U_Iterator_base0@2@@std@@QBEPAU?$_Tree_node@PAVobject_t@@PAX@2@XZ 1000bd00 f i data.obj
 0001:0000ad10       ?_Myval@?$_Tree_val@U?$_Tree_simple_types@PAVlistener_t@@@std@@@std@@SAAAPAVlistener_t@@PAU?$_Tree_node@PAVlistener_t@@PAX@2@@Z 1000bd10 f i data.obj
 0001:0000ad20       ?_Myval@?$_Tree_val@U?$_Tree_simple_types@PAVobject_t@@@std@@@std@@SAAAPAVobject_t@@PAU?$_Tree_node@PAVobject_t@@PAX@2@@Z 1000bd20 f i data.obj
 0001:0000ad30       ?_Parent@?$_Tree_val@U?$_Tree_simple_types@PAVlistener_t@@@std@@@std@@SAAAPAU?$_Tree_node@PAVlistener_t@@PAX@2@PAU32@@Z 1000bd30 f i data.obj
 0001:0000ad40       ?_Parent@?$_Tree_val@U?$_Tree_simple_types@PAVobject_t@@@std@@@std@@SAAAPAU?$_Tree_node@PAVobject_t@@PAX@2@PAU32@@Z 1000bd40 f i data.obj
 0001:0000ad50       ?_Right@?$_Tree_val@U?$_Tree_simple_types@PAVlistener_t@@@std@@@std@@SAAAPAU?$_Tree_node@PAVlistener_t@@PAX@2@PAU32@@Z 1000bd50 f i data.obj
 0001:0000ad60       ?_Right@?$_Tree_val@U?$_Tree_simple_types@PAVobject_t@@@std@@@std@@SAAAPAU?$_Tree_node@PAVobject_t@@PAX@2@PAU32@@Z 1000bd60 f i data.obj
 0001:0000ad70       ?_Rmost@?$_Tree@V?$_Tset_traits@PAVlistener_t@@U?$less@PAVlistener_t@@@std@@V?$allocator@PAVlistener_t@@@3@$0A@@std@@@std@@IBEAAPAU?$_Tree_node@PAVlistener_t@@PAX@2@XZ 1000bd70 f i data.obj
 0001:0000ad90       ?_Rmost@?$_Tree@V?$_Tset_traits@PAVobject_t@@U?$less@PAVobject_t@@@std@@V?$allocator@PAVobject_t@@@3@$0A@@std@@@std@@IBEAAPAU?$_Tree_node@PAVobject_t@@PAX@2@XZ 1000bd90 f i data.obj
 0001:0000adb0       ?_Root@?$_Tree@V?$_Tset_traits@PAVlistener_t@@U?$less@PAVlistener_t@@@std@@V?$allocator@PAVlistener_t@@@3@$0A@@std@@@std@@IBEAAPAU?$_Tree_node@PAVlistener_t@@PAX@2@XZ 1000bdb0 f i data.obj
 0001:0000add0       ?_Root@?$_Tree@V?$_Tset_traits@PAVobject_t@@U?$less@PAVobject_t@@@std@@V?$allocator@PAVobject_t@@@3@$0A@@std@@@std@@IBEAAPAU?$_Tree_node@PAVobject_t@@PAX@2@XZ 1000bdd0 f i data.obj
 0001:0000adf0       ?_Rrotate@?$_Tree@V?$_Tset_traits@PAVlistener_t@@U?$less@PAVlistener_t@@@std@@V?$allocator@PAVlistener_t@@@3@$0A@@std@@@std@@IAEXPAU?$_Tree_node@PAVlistener_t@@PAX@2@@Z 1000bdf0 f i data.obj
 0001:0000af20       ?_Rrotate@?$_Tree@V?$_Tset_traits@PAVobject_t@@U?$less@PAVobject_t@@@std@@V?$allocator@PAVobject_t@@@3@$0A@@std@@@std@@IAEXPAU?$_Tree_node@PAVobject_t@@PAX@2@@Z 1000bf20 f i data.obj
 0001:0000b050       ?_Tidy@?$_Tree@V?$_Tset_traits@PAVlistener_t@@U?$less@PAVlistener_t@@@std@@V?$allocator@PAVlistener_t@@@3@$0A@@std@@@std@@IAEXXZ 1000c050 f i data.obj
 0001:0000b090       ?_Tidy@?$_Tree@V?$_Tset_traits@PAVobject_t@@U?$less@PAVobject_t@@@std@@V?$allocator@PAVobject_t@@@3@$0A@@std@@@std@@IAEXXZ 1000c090 f i data.obj
 0001:0000b0d0       ?_Tidy@?$basic_stringbuf@DU?$char_traits@D@std@@V?$allocator@D@2@@std@@IAEXXZ 1000c0d0 f i data.obj
 0001:0000b170       ?allocate@?$_Wrap_alloc@V?$allocator@U?$_Tree_node@PAVlistener_t@@PAX@std@@@std@@@std@@QAEPAU?$_Tree_node@PAVlistener_t@@PAX@2@I@Z 1000c170 f i data.obj
 0001:0000b190       ?allocate@?$_Wrap_alloc@V?$allocator@U?$_Tree_node@PAVobject_t@@PAX@std@@@std@@@std@@QAEPAU?$_Tree_node@PAVobject_t@@PAX@2@I@Z 1000c190 f i data.obj
 0001:0000b1b0       ?allocate@?$allocator@U?$_Tree_node@PAVlistener_t@@PAX@std@@@std@@QAEPAU?$_Tree_node@PAVlistener_t@@PAX@2@I@Z 1000c1b0 f i data.obj
 0001:0000b1d0       ?allocate@?$allocator@U?$_Tree_node@PAVobject_t@@PAX@std@@@std@@QAEPAU?$_Tree_node@PAVobject_t@@PAX@2@I@Z 1000c1d0 f i data.obj
 0001:0000b1f0       ?assign@?$basic_string@DU?$char_traits@D@std@@V?$allocator@D@2@@std@@QAEAAV12@$$QAV12@@Z 1000c1f0 f i data.obj
 0001:0000b270       ?assign@?$basic_string@DU?$char_traits@D@std@@V?$allocator@D@2@@std@@QAEAAV12@ABV12@@Z 1000c270 f i data.obj
 0001:0000b2a0       ?begin@?$_Tree@V?$_Tset_traits@PAVlistener_t@@U?$less@PAVlistener_t@@@std@@V?$allocator@PAVlistener_t@@@3@$0A@@std@@@std@@QAE?AV?$_Tree_const_iterator@V?$_Tree_val@U?$_Tree_simple_types@PAVlistener_t@@@std@@@std@@@2@XZ 1000c2a0 f i data.obj
 0001:0000b2d0       ?begin@?$_Tree@V?$_Tset_traits@PAVobject_t@@U?$less@PAVobject_t@@@std@@V?$allocator@PAVobject_t@@@3@$0A@@std@@@std@@QAE?AV?$_Tree_const_iterator@V?$_Tree_val@U?$_Tree_simple_types@PAVobject_t@@@std@@@std@@@2@XZ 1000c2d0 f i data.obj
 0001:0000b300       ?clear@?$_Tree@V?$_Tset_traits@PAVlistener_t@@U?$less@PAVlistener_t@@@std@@V?$allocator@PAVlistener_t@@@3@$0A@@std@@@std@@QAEXXZ 1000c300 f i data.obj
 0001:0000b360       ?clear@?$_Tree@V?$_Tset_traits@PAVobject_t@@U?$less@PAVobject_t@@@std@@V?$allocator@PAVobject_t@@@3@$0A@@std@@@std@@QAEXXZ 1000c360 f i data.obj
 0001:0000b3c0       ?clear@?$basic_string@DU?$char_traits@D@std@@V?$allocator@D@2@@std@@QAEXXZ 1000c3c0 f i data.obj
 0001:0000b3e0       ?compare@?$basic_string@DU?$char_traits@D@std@@V?$allocator@D@2@@std@@QBEHPBD@Z 1000c3e0 f i data.obj
 0001:0000b410       ?deallocate@?$_Wrap_alloc@V?$allocator@U?$_Tree_node@PAVlistener_t@@PAX@std@@@std@@@std@@QAEXPAU?$_Tree_node@PAVlistener_t@@PAX@2@I@Z 1000c410 f i data.obj
 0001:0000b430       ?deallocate@?$_Wrap_alloc@V?$allocator@U?$_Tree_node@PAVobject_t@@PAX@std@@@std@@@std@@QAEXPAU?$_Tree_node@PAVobject_t@@PAX@2@I@Z 1000c430 f i data.obj
 0001:0000b450       ?deallocate@?$allocator@U?$_Tree_node@PAVlistener_t@@PAX@std@@@std@@QAEXPAU?$_Tree_node@PAVlistener_t@@PAX@2@I@Z 1000c450 f i data.obj
 0001:0000b470       ?deallocate@?$allocator@U?$_Tree_node@PAVobject_t@@PAX@std@@@std@@QAEXPAU?$_Tree_node@PAVobject_t@@PAX@2@I@Z 1000c470 f i data.obj
 0001:0000b490       ?end@?$_Tree@V?$_Tset_traits@PAVlistener_t@@U?$less@PAVlistener_t@@@std@@V?$allocator@PAVlistener_t@@@3@$0A@@std@@@std@@QAE?AV?$_Tree_const_iterator@V?$_Tree_val@U?$_Tree_simple_types@PAVlistener_t@@@std@@@std@@@2@XZ 1000c490 f i data.obj
 0001:0000b4c0       ?end@?$_Tree@V?$_Tset_traits@PAVobject_t@@U?$less@PAVobject_t@@@std@@V?$allocator@PAVobject_t@@@3@$0A@@std@@@std@@QAE?AV?$_Tree_const_iterator@V?$_Tree_val@U?$_Tree_simple_types@PAVobject_t@@@std@@@std@@@2@XZ 1000c4c0 f i data.obj
 0001:0000b4f0       ?eof@?$char_traits@D@std@@SAHXZ 1000c4f0 f i data.obj
 0001:0000b500       ?eq@?$char_traits@D@std@@SA_NABD0@Z 1000c500 f i data.obj
 0001:0000b530       ?eq_int_type@?$char_traits@D@std@@SA_NABH0@Z 1000c530 f i data.obj
 0001:0000b560       ?equal_range@?$_Tree@V?$_Tset_traits@PAVlistener_t@@U?$less@PAVlistener_t@@@std@@V?$allocator@PAVlistener_t@@@3@$0A@@std@@@std@@QAE?AU?$pair@V?$_Tree_const_iterator@V?$_Tree_val@U?$_Tree_simple_types@PAVlistener_t@@@std@@@std@@@std@@V12@@2@ABQAVlistener_t@@@Z 1000c560 f i data.obj
 0001:0000b580       ?equal_range@?$_Tree@V?$_Tset_traits@PAVobject_t@@U?$less@PAVobject_t@@@std@@V?$allocator@PAVobject_t@@@3@$0A@@std@@@std@@QAE?AU?$pair@V?$_Tree_const_iterator@V?$_Tree_val@U?$_Tree_simple_types@PAVobject_t@@@std@@@std@@@std@@V12@@2@ABQAVobject_t@@@Z 1000c580 f i data.obj
 0001:0000b5a0       ?erase@?$_Tree@V?$_Tset_traits@PAVlistener_t@@U?$less@PAVlistener_t@@@std@@V?$allocator@PAVlistener_t@@@3@$0A@@std@@@std@@QAE?AV?$_Tree_const_iterator@V?$_Tree_val@U?$_Tree_simple_types@PAVlistener_t@@@std@@@std@@@2@V32@0@Z 1000c5a0 f i data.obj
 0001:0000b650       ?erase@?$_Tree@V?$_Tset_traits@PAVlistener_t@@U?$less@PAVlistener_t@@@std@@V?$allocator@PAVlistener_t@@@3@$0A@@std@@@std@@QAE?AV?$_Tree_const_iterator@V?$_Tree_val@U?$_Tree_simple_types@PAVlistener_t@@@std@@@std@@@2@V32@@Z 1000c650 f i data.obj
 0001:0000bdd0       ?erase@?$_Tree@V?$_Tset_traits@PAVlistener_t@@U?$less@PAVlistener_t@@@std@@V?$allocator@PAVlistener_t@@@3@$0A@@std@@@std@@QAEIABQAVlistener_t@@@Z 1000cdd0 f i data.obj
 0001:0000be30       ?erase@?$_Tree@V?$_Tset_traits@PAVobject_t@@U?$less@PAVobject_t@@@std@@V?$allocator@PAVobject_t@@@3@$0A@@std@@@std@@QAE?AV?$_Tree_const_iterator@V?$_Tree_val@U?$_Tree_simple_types@PAVobject_t@@@std@@@std@@@2@V32@0@Z 1000ce30 f i data.obj
 0001:0000bee0       ?erase@?$_Tree@V?$_Tset_traits@PAVobject_t@@U?$less@PAVobject_t@@@std@@V?$allocator@PAVobject_t@@@3@$0A@@std@@@std@@QAE?AV?$_Tree_const_iterator@V?$_Tree_val@U?$_Tree_simple_types@PAVobject_t@@@std@@@std@@@2@V32@@Z 1000cee0 f i data.obj
 0001:0000c660       ?erase@?$_Tree@V?$_Tset_traits@PAVobject_t@@U?$less@PAVobject_t@@@std@@V?$allocator@PAVobject_t@@@3@$0A@@std@@@std@@QAEIABQAVobject_t@@@Z 1000d660 f i data.obj
 0001:0000c6c0       ?get_allocator@?$basic_string@DU?$char_traits@D@std@@V?$allocator@D@2@@std@@QBE?AV?$allocator@D@2@XZ 1000d6c0 f i data.obj
 0001:0000c6f0       ?insert@?$_Tree@V?$_Tset_traits@PAVlistener_t@@U?$less@PAVlistener_t@@@std@@V?$allocator@PAVlistener_t@@@3@$0A@@std@@@std@@QAE?AU?$pair@V?$_Tree_const_iterator@V?$_Tree_val@U?$_Tree_simple_types@PAVlistener_t@@@std@@@std@@@std@@_N@2@ABQAVlistener_t@@@Z 1000d6f0 f i data.obj
 0001:0000c720       ?insert@?$_Tree@V?$_Tset_traits@PAVobject_t@@U?$less@PAVobject_t@@@std@@V?$allocator@PAVobject_t@@@3@$0A@@std@@@std@@QAE?AU?$pair@V?$_Tree_const_iterator@V?$_Tree_val@U?$_Tree_simple_types@PAVobject_t@@@std@@@std@@@std@@_N@2@ABQAVobject_t@@@Z 1000d720 f i data.obj
 0001:0000c750       ?insert@?$set@PAVlistener_t@@U?$less@PAVlistener_t@@@std@@V?$allocator@PAVlistener_t@@@3@@std@@QAE?AU?$pair@V?$_Tree_const_iterator@V?$_Tree_val@U?$_Tree_simple_types@PAVlistener_t@@@std@@@std@@@std@@_N@2@ABQAVlistener_t@@@Z 1000d750 f i data.obj
 0001:0000c770       ?insert@?$set@PAVobject_t@@U?$less@PAVobject_t@@@std@@V?$allocator@PAVobject_t@@@3@@std@@QAE?AU?$pair@V?$_Tree_const_iterator@V?$_Tree_val@U?$_Tree_simple_types@PAVobject_t@@@std@@@std@@@std@@_N@2@ABQAVobject_t@@@Z 1000d770 f i data.obj
 0001:0000c790       ?max_size@?$_Tree@V?$_Tset_traits@PAVlistener_t@@U?$less@PAVlistener_t@@@std@@V?$allocator@PAVlistener_t@@@3@$0A@@std@@@std@@QBEIXZ 1000d790 f i data.obj
 0001:0000c7b0       ?max_size@?$_Tree@V?$_Tset_traits@PAVobject_t@@U?$less@PAVobject_t@@@std@@V?$allocator@PAVobject_t@@@3@$0A@@std@@@std@@QBEIXZ 1000d7b0 f i data.obj
 0001:0000c7d0       ?max_size@?$_Wrap_alloc@V?$allocator@U?$_Tree_node@PAVlistener_t@@PAX@std@@@std@@@std@@QBEIXZ 1000d7d0 f i data.obj
 0001:0000c7f0       ?max_size@?$_Wrap_alloc@V?$allocator@U?$_Tree_node@PAVobject_t@@PAX@std@@@std@@@std@@QBEIXZ 1000d7f0 f i data.obj
 0001:0000c810       ?max_size@?$allocator@U?$_Tree_node@PAVlistener_t@@PAX@std@@@std@@QBEIXZ 1000d810 f i data.obj
 0001:0000c820       ?max_size@?$allocator@U?$_Tree_node@PAVobject_t@@PAX@std@@@std@@QBEIXZ 1000d820 f i data.obj
 0001:0000c830       ?max_size@?$allocator_traits@V?$allocator@U?$_Tree_node@PAVlistener_t@@PAX@std@@@std@@@std@@SAIABV?$allocator@U?$_Tree_node@PAVlistener_t@@PAX@std@@@2@@Z 1000d830 f i data.obj
 0001:0000c840       ?max_size@?$allocator_traits@V?$allocator@U?$_Tree_node@PAVobject_t@@PAX@std@@@std@@@std@@SAIABV?$allocator@U?$_Tree_node@PAVobject_t@@PAX@std@@@2@@Z 1000d840 f i data.obj
 0001:0000c850       ?not_eof@?$char_traits@D@std@@SAHABH@Z 1000d850 f i data.obj
 0001:0000c8a0       ?overflow@?$basic_stringbuf@DU?$char_traits@D@std@@V?$allocator@D@2@@std@@MAEHH@Z 1000d8a0 f i data.obj
 0001:0000cba0       ?pbackfail@?$basic_stringbuf@DU?$char_traits@D@std@@V?$allocator@D@2@@std@@MAEHH@Z 1000dba0 f i data.obj
 0001:0000cc90       ?seekoff@?$basic_stringbuf@DU?$char_traits@D@std@@V?$allocator@D@2@@std@@MAE?AV?$fpos@H@2@_JHH@Z 1000dc90 f i data.obj
 0001:0000cf50       ?seekpos@?$basic_stringbuf@DU?$char_traits@D@std@@V?$allocator@D@2@@std@@MAE?AV?$fpos@H@2@V32@H@Z 1000df50 f i data.obj
 0001:0000d150       ?str@?$basic_ostringstream@DU?$char_traits@D@std@@V?$allocator@D@2@@std@@QBE?AV?$basic_string@DU?$char_traits@D@std@@V?$allocator@D@2@@2@XZ 1000e150 f i data.obj
 0001:0000d170       ?str@?$basic_stringbuf@DU?$char_traits@D@std@@V?$allocator@D@2@@std@@QBE?AV?$basic_string@DU?$char_traits@D@std@@V?$allocator@D@2@@2@XZ 1000e170 f i data.obj
 0001:0000d290       ?to_char_type@?$char_traits@D@std@@SADABH@Z 1000e290 f i data.obj
 0001:0000d2a0       ?to_int_type@?$char_traits@D@std@@SAHABD@Z 1000e2a0 f i data.obj
 0001:0000d2b0       ?underflow@?$basic_stringbuf@DU?$char_traits@D@std@@V?$allocator@D@2@@std@@MAEHXZ 1000e2b0 f i data.obj
 0001:0000d3b0       ??0out_t@@QAE@XZ           1000e3b0 f   out.obj
 0001:0000d410       ??1out_t@@QAE@XZ           1000e410 f   out.obj
 0001:0000d430       ??0out_saitek_t@@QAE@XZ    1000e430 f   out_saitek.obj
 0001:0000d490       ?init@out_saitek_t@@UAEXXZ 1000e490 f   out_saitek.obj
 0001:0000d530       ?deinit@out_saitek_t@@UAEXXZ 1000e530 f   out_saitek.obj
 0001:0000d560       ?set_display_brightness@out_saitek_t@@UAEXD@Z 1000e560 f   out_saitek.obj
 0001:0000d5f0       ?set_led_brightness@out_saitek_t@@UAEXD@Z 1000e5f0 f   out_saitek.obj
 0001:0000d680       ?set_textdata@out_saitek_t@@UAEXPBD@Z 1000e680 f   out_saitek.obj
 0001:0000d6a0       ?get_text@out_saitek_t@@UAE?AV?$basic_string@DU?$char_traits@D@std@@V?$allocator@D@2@@std@@H@Z 1000e6a0 f   out_saitek.obj
 0001:0000d6d0       ?set_led@out_saitek_t@@UAEXHH@Z 1000e6d0 f   out_saitek.obj
 0001:0000d740       ?set_time@out_saitek_t@@UAEX_NHH@Z 1000e740 f   out_saitek.obj
 0001:0000d7d0       ?set_date@out_saitek_t@@UAEXHHH@Z 1000e7d0 f   out_saitek.obj
 0001:0000d8a0       ?print@out_saitek_t@@UAEXXZ 1000e8a0 f   out_saitek.obj
 0001:0000d8d0       ?search@out_saitek_t@@AAE_NXZ 1000e8d0 f   out_saitek.obj
 0001:0000dab0       ?attach@out_saitek_t@@AAE_NXZ 1000eab0 f   out_saitek.obj
 0001:0000db00       ?detach@out_saitek_t@@AAE_NXZ 1000eb00 f   out_saitek.obj
 0001:0000dbe0       ?print@out_saitek_t@@AAAXPBDZZ 1000ebe0 f   out_saitek.obj
 0001:0000dd50       ?print_line@out_saitek_t@@AAEXHPBDH@Z 1000ed50 f   out_saitek.obj
 0001:0000de30       ?clear_line@out_saitek_t@@AAEXH@Z 1000ee30 f   out_saitek.obj
 0001:0000de90       ?send_usb@out_saitek_t@@AAEHHH@Z 1000ee90 f   out_saitek.obj
 0001:0000df10       ?usb_error@out_saitek_t@@AAEPADH@Z 1000ef10 f   out_saitek.obj
 0001:0000df30       ??$?0AAV?$_Tree_iterator@V?$_Tree_val@U?$_Tree_simple_types@U?$pair@$$CBHV?$basic_string@DU?$char_traits@D@std@@V?$allocator@D@2@@std@@@std@@@std@@@std@@@std@@_NX@?$pair@V?$_Tree_iterator@V?$_Tree_val@U?$_Tree_simple_types@U?$pair@$$CBHV?$basic_string@DU?$char_traits@D@std@@V?$allocator@D@2@@std@@@std@@@std@@@std@@@std@@_N@std@@QAE@AAV?$_Tree_iterator@V?$_Tree_val@U?$_Tree_simple_types@U?$pair@$$CBHV?$basic_string@DU?$char_traits@D@std@@V?$allocator@D@2@@std@@@std@@@std@@@std@@@1@$$QA_N@Z 1000ef30 f i out_saitek.obj
 0001:0000df70       ??$?0ABH$$$V@?$pair@$$CBHV?$basic_string@DU?$char_traits@D@std@@V?$allocator@D@2@@std@@@std@@QAE@Upiecewise_construct_t@1@V?$tuple@ABH@1@V?$tuple@$$$V@1@@Z 1000ef70 f i out_saitek.obj
 0001:0000dfb0       ??$?0ABH@?$_Tuple_val@ABH@std@@QAE@ABH@Z 1000efb0 f i out_saitek.obj
 0001:0000dfe0       ??$?0ABHPAPAX@?$tuple@ABH@std@@QAE@$$QAV01@@Z 1000efe0 f i out_saitek.obj
 0001:0000e030       ??$?0V?$_Tree_iterator@V?$_Tree_val@U?$_Tree_simple_types@U?$pair@$$CBHV?$basic_string@DU?$char_traits@D@std@@V?$allocator@D@2@@std@@@std@@@std@@@std@@@std@@_NX@?$pair@V?$_Tree_iterator@V?$_Tree_val@U?$_Tree_simple_types@U?$pair@$$CBHV?$basic_string@DU?$char_traits@D@std@@V?$allocator@D@2@@std@@@std@@@std@@@std@@@std@@_N@std@@QAE@$$QAV?$_Tree_iterator@V?$_Tree_val@U?$_Tree_simple_types@U?$pair@$$CBHV?$basic_string@DU?$char_traits@D@std@@V?$allocator@D@2@@std@@@std@@@std@@@std@@@1@$$QA_N@Z 1000f030 f i out_saitek.obj
 0001:0000e070       ??$?0V?$tuple@ABH@std@@V?$tuple@$$$V@1@$0A@$S@?$pair@$$CBHV?$basic_string@DU?$char_traits@D@std@@V?$allocator@D@2@@std@@@std@@QAE@AAV?$tuple@ABH@1@AAV?$tuple@$$$V@1@U?$_Arg_idx@$0A@@1@U?$_Arg_idx@$S@1@@Z 1000f070 f i out_saitek.obj
 0001:0000e0b0       ??$_Allocate@U?$_Tree_node@U?$pair@$$CBHV?$basic_string@DU?$char_traits@D@std@@V?$allocator@D@2@@std@@@std@@PAX@std@@@std@@YAPAU?$_Tree_node@U?$pair@$$CBHV?$basic_string@DU?$char_traits@D@std@@V?$allocator@D@2@@std@@@std@@PAX@0@IPAU10@@Z 1000f0b0 f i out_saitek.obj
 0001:0000e0f0       ??$_Buynode@ABUpiecewise_construct_t@std@@V?$tuple@ABH@2@V?$tuple@$$$V@2@@?$_Tree_buy@U?$pair@$$CBHV?$basic_string@DU?$char_traits@D@std@@V?$allocator@D@2@@std@@@std@@V?$allocator@U?$pair@$$CBHV?$basic_string@DU?$char_traits@D@std@@V?$allocator@D@2@@std@@@std@@@2@@std@@QAEPAU?$_Tree_node@U?$pair@$$CBHV?$basic_string@DU?$char_traits@D@std@@V?$allocator@D@2@@std@@@std@@PAX@1@ABUpiecewise_construct_t@1@$$QAV?$tuple@ABH@1@$$QAV?$tuple@$$$V@1@@Z 1000f0f0 f i out_saitek.obj
 0001:0000e1f0       ??$_Buynode_if_nil@AAU?$pair@$$CBHV?$basic_string@DU?$char_traits@D@std@@V?$allocator@D@2@@std@@@std@@@?$_Tree@V?$_Tmap_traits@HV?$basic_string@DU?$char_traits@D@std@@V?$allocator@D@2@@std@@U?$less@H@2@V?$allocator@U?$pair@$$CBHV?$basic_string@DU?$char_traits@D@std@@V?$allocator@D@2@@std@@@std@@@2@$0A@@std@@@std@@IAEPAU?$_Tree_node@U?$pair@$$CBHV?$basic_string@DU?$char_traits@D@std@@V?$allocator@D@2@@std@@@std@@PAX@1@PAU21@AAU?$pair@$$CBHV?$basic_string@DU?$char_traits@D@std@@V?$allocator@D@2@@std@@@1@@Z 1000f1f0 f i out_saitek.obj
 0001:0000e200       ??$_Insert_at@AAU?$pair@$$CBHV?$basic_string@DU?$char_traits@D@std@@V?$allocator@D@2@@std@@@std@@PAU?$_Tree_node@U?$pair@$$CBHV?$basic_string@DU?$char_traits@D@std@@V?$allocator@D@2@@std@@@std@@PAX@2@@?$_Tree@V?$_Tmap_traits@HV?$basic_string@DU?$char_traits@D@std@@V?$allocator@D@2@@std@@U?$less@H@2@V?$allocator@U?$pair@$$CBHV?$basic_string@DU?$char_traits@D@std@@V?$allocator@D@2@@std@@@std@@@2@$0A@@std@@@std@@IAE?AV?$_Tree_iterator@V?$_Tree_val@U?$_Tree_simple_types@U?$pair@$$CBHV?$basic_string@DU?$char_traits@D@std@@V?$allocator@D@2@@std@@@std@@@std@@@std@@@1@_NPAU?$_Tree_node@U?$pair@$$CBHV?$basic_string@DU?$char_traits@D@std@@V?$allocator@D@2@@std@@@std@@PAX@1@AAU?$pair@$$CBHV?$basic_string@DU?$char_traits@D@std@@V?$allocator@D@2@@std@@@1@1@Z 1000f200 f i out_saitek.obj
 0001:0000e630       ??$_Insert_hint@AAU?$pair@$$CBHV?$basic_string@DU?$char_traits@D@std@@V?$allocator@D@2@@std@@@std@@PAU?$_Tree_node@U?$pair@$$CBHV?$basic_string@DU?$char_traits@D@std@@V?$allocator@D@2@@std@@@std@@PAX@2@@?$_Tree@V?$_Tmap_traits@HV?$basic_string@DU?$char_traits@D@std@@V?$allocator@D@2@@std@@U?$less@H@2@V?$allocator@U?$pair@$$CBHV?$basic_string@DU?$char_traits@D@std@@V?$allocator@D@2@@std@@@std@@@2@$0A@@std@@@std@@IAE?AV?$_Tree_iterator@V?$_Tree_val@U?$_Tree_simple_types@U?$pair@$$CBHV?$basic_string@DU?$char_traits@D@std@@V?$allocator@D@2@@std@@@std@@@std@@@std@@@1@V?$_Tree_const_iterator@V?$_Tree_val@U?$_Tree_simple_types@U?$pair@$$CBHV?$basic_string@DU?$char_traits@D@std@@V?$allocator@D@2@@std@@@std@@@std@@@std@@@1@AAU?$pair@$$CBHV?$basic_string@DU?$char_traits@D@std@@V?$allocator@D@2@@std@@@1@PAU?$_Tree_node@U?$pair@$$CBHV?$basic_string@DU?$char_traits@D@std@@V?$allocator@D@2@@std@@@std@@PAX@1@@Z 1000f630 f i out_saitek.obj
 0001:0000ede0       ??$_Insert_nohint@AAU?$pair@$$CBHV?$basic_string@DU?$char_traits@D@std@@V?$allocator@D@2@@std@@@std@@PAU?$_Tree_node@U?$pair@$$CBHV?$basic_string@DU?$char_traits@D@std@@V?$allocator@D@2@@std@@@std@@PAX@2@@?$_Tree@V?$_Tmap_traits@HV?$basic_string@DU?$char_traits@D@std@@V?$allocator@D@2@@std@@U?$less@H@2@V?$allocator@U?$pair@$$CBHV?$basic_string@DU?$char_traits@D@std@@V?$allocator@D@2@@std@@@std@@@2@$0A@@std@@@std@@IAE?AU?$pair@V?$_Tree_iterator@V?$_Tree_val@U?$_Tree_simple_types@U?$pair@$$CBHV?$basic_string@DU?$char_traits@D@std@@V?$allocator@D@2@@std@@@std@@@std@@@std@@@std@@_N@1@_NAAU?$pair@$$CBHV?$basic_string@DU?$char_traits@D@std@@V?$allocator@D@2@@std@@@1@PAU?$_Tree_node@U?$pair@$$CBHV?$basic_string@DU?$char_traits@D@std@@V?$allocator@D@2@@std@@@std@@PAX@1@@Z 1000fde0 f i out_saitek.obj
 0001:0000f0b0       ??$_Kfn@$$CBHV?$basic_string@DU?$char_traits@D@std@@V?$allocator@D@2@@std@@@?$_Tmap_traits@HV?$basic_string@DU?$char_traits@D@std@@V?$allocator@D@2@@std@@U?$less@H@2@V?$allocator@U?$pair@$$CBHV?$basic_string@DU?$char_traits@D@std@@V?$allocator@D@2@@std@@@std@@@2@$0A@@std@@SAABHABU?$pair@$$CBHV?$basic_string@DU?$char_traits@D@std@@V?$allocator@D@2@@std@@@1@@Z 100100b0 f i out_saitek.obj
 0001:0000f0c0       ??$addressof@PAU?$_Tree_node@U?$pair@$$CBHV?$basic_string@DU?$char_traits@D@std@@V?$allocator@D@2@@std@@@std@@PAX@std@@@std@@YAPAPAU?$_Tree_node@U?$pair@$$CBHV?$basic_string@DU?$char_traits@D@std@@V?$allocator@D@2@@std@@@std@@PAX@0@AAPAU10@@Z 100100c0 f i out_saitek.obj
 0001:0000f0d0       ??$addressof@U?$pair@$$CBHV?$basic_string@DU?$char_traits@D@std@@V?$allocator@D@2@@std@@@std@@@std@@YAPAU?$pair@$$CBHV?$basic_string@DU?$char_traits@D@std@@V?$allocator@D@2@@std@@@0@AAU10@@Z 100100d0 f i out_saitek.obj
 0001:0000f0e0       ??$construct@PAU?$_Tree_node@U?$pair@$$CBHV?$basic_string@DU?$char_traits@D@std@@V?$allocator@D@2@@std@@@std@@PAX@std@@AAPAU12@@?$_Wrap_alloc@V?$allocator@U?$_Tree_node@U?$pair@$$CBHV?$basic_string@DU?$char_traits@D@std@@V?$allocator@D@2@@std@@@std@@PAX@std@@@std@@@std@@QAEXPAPAU?$_Tree_node@U?$pair@$$CBHV?$basic_string@DU?$char_traits@D@std@@V?$allocator@D@2@@std@@@std@@PAX@1@AAPAU21@@Z 100100e0 f i out_saitek.obj
 0001:0000f110       ??$construct@PAU?$_Tree_node@U?$pair@$$CBHV?$basic_string@DU?$char_traits@D@std@@V?$allocator@D@2@@std@@@std@@PAX@std@@AAPAU12@@?$allocator@U?$_Tree_node@U?$pair@$$CBHV?$basic_string@DU?$char_traits@D@std@@V?$allocator@D@2@@std@@@std@@PAX@std@@@std@@QAEXPAPAU?$_Tree_node@U?$pair@$$CBHV?$basic_string@DU?$char_traits@D@std@@V?$allocator@D@2@@std@@@std@@PAX@1@AAPAU21@@Z 10010110 f i out_saitek.obj
 0001:0000f160       ??$construct@PAU?$_Tree_node@U?$pair@$$CBHV?$basic_string@DU?$char_traits@D@std@@V?$allocator@D@2@@std@@@std@@PAX@std@@AAPAU12@@?$allocator_traits@V?$allocator@U?$_Tree_node@U?$pair@$$CBHV?$basic_string@DU?$char_traits@D@std@@V?$allocator@D@2@@std@@@std@@PAX@std@@@std@@@std@@SAXAAV?$allocator@U?$_Tree_node@U?$pair@$$CBHV?$basic_string@DU?$char_traits@D@std@@V?$allocator@D@2@@std@@@std@@PAX@std@@@1@PAPAU?$_Tree_node@U?$pair@$$CBHV?$basic_string@DU?$char_traits@D@std@@V?$allocator@D@2@@std@@@std@@PAX@1@AAPAU31@@Z 10010160 f i out_saitek.obj
 0001:0000f180       ??$construct@U?$pair@$$CBHV?$basic_string@DU?$char_traits@D@std@@V?$allocator@D@2@@std@@@std@@ABUpiecewise_construct_t@2@V?$tuple@ABH@2@V?$tuple@$$$V@2@@?$_Wrap_alloc@V?$allocator@U?$_Tree_node@U?$pair@$$CBHV?$basic_string@DU?$char_traits@D@std@@V?$allocator@D@2@@std@@@std@@PAX@std@@@std@@@std@@QAEXPAU?$pair@$$CBHV?$basic_string@DU?$char_traits@D@std@@V?$allocator@D@2@@std@@@1@ABUpiecewise_construct_t@1@$$QAV?$tuple@ABH@1@$$QAV?$tuple@$$$V@1@@Z 10010180 f i out_saitek.obj
 0001:0000f1d0       ??$construct@U?$pair@$$CBHV?$basic_string@DU?$char_traits@D@std@@V?$allocator@D@2@@std@@@std@@ABUpiecewise_construct_t@2@V?$tuple@ABH@2@V?$tuple@$$$V@2@@?$allocator@U?$_Tree_node@U?$pair@$$CBHV?$basic_string@DU?$char_traits@D@std@@V?$allocator@D@2@@std@@@std@@PAX@std@@@std@@QAEXPAU?$pair@$$CBHV?$basic_string@DU?$char_traits@D@std@@V?$allocator@D@2@@std@@@1@ABUpiecewise_construct_t@1@$$QAV?$tuple@ABH@1@$$QAV?$tuple@$$$V@1@@Z 100101d0 f i out_saitek.obj
 0001:0000f240       ??$construct@U?$pair@$$CBHV?$basic_string@DU?$char_traits@D@std@@V?$allocator@D@2@@std@@@std@@ABUpiecewise_construct_t@2@V?$tuple@ABH@2@V?$tuple@$$$V@2@@?$allocator_traits@V?$allocator@U?$_Tree_node@U?$pair@$$CBHV?$basic_string@DU?$char_traits@D@std@@V?$allocator@D@2@@std@@@std@@PAX@std@@@std@@@std@@SAXAAV?$allocator@U?$_Tree_node@U?$pair@$$CBHV?$basic_string@DU?$char_traits@D@std@@V?$allocator@D@2@@std@@@std@@PAX@std@@@1@PAU?$pair@$$CBHV?$basic_string@DU?$char_traits@D@std@@V?$allocator@D@2@@std@@@1@ABUpiecewise_construct_t@1@$$QAV?$tuple@ABH@1@$$QAV?$tuple@$$$V@1@@Z 10010240 f i out_saitek.obj
 0001:0000f280       ??$destroy@PAU?$_Tree_node@U?$pair@$$CBHV?$basic_string@DU?$char_traits@D@std@@V?$allocator@D@2@@std@@@std@@PAX@std@@@?$_Wrap_alloc@V?$allocator@U?$_Tree_node@U?$pair@$$CBHV?$basic_string@DU?$char_traits@D@std@@V?$allocator@D@2@@std@@@std@@PAX@std@@@std@@@std@@QAEXPAPAU?$_Tree_node@U?$pair@$$CBHV?$basic_string@DU?$char_traits@D@std@@V?$allocator@D@2@@std@@@std@@PAX@1@@Z 10010280 f i out_saitek.obj
 0001:0000f2a0       ??$destroy@PAU?$_Tree_node@U?$pair@$$CBHV?$basic_string@DU?$char_traits@D@std@@V?$allocator@D@2@@std@@@std@@PAX@std@@@?$allocator@U?$_Tree_node@U?$pair@$$CBHV?$basic_string@DU?$char_traits@D@std@@V?$allocator@D@2@@std@@@std@@PAX@std@@@std@@QAEXPAPAU?$_Tree_node@U?$pair@$$CBHV?$basic_string@DU?$char_traits@D@std@@V?$allocator@D@2@@std@@@std@@PAX@1@@Z 100102a0 f i out_saitek.obj
 0001:0000f2b0       ??$destroy@PAU?$_Tree_node@U?$pair@$$CBHV?$basic_string@DU?$char_traits@D@std@@V?$allocator@D@2@@std@@@std@@PAX@std@@@?$allocator_traits@V?$allocator@U?$_Tree_node@U?$pair@$$CBHV?$basic_string@DU?$char_traits@D@std@@V?$allocator@D@2@@std@@@std@@PAX@std@@@std@@@std@@SAXAAV?$allocator@U?$_Tree_node@U?$pair@$$CBHV?$basic_string@DU?$char_traits@D@std@@V?$allocator@D@2@@std@@@std@@PAX@std@@@1@PAPAU?$_Tree_node@U?$pair@$$CBHV?$basic_string@DU?$char_traits@D@std@@V?$allocator@D@2@@std@@@std@@PAX@1@@Z 100102b0 f i out_saitek.obj
 0001:0000f2d0       ??$destroy@U?$pair@$$CBHV?$basic_string@DU?$char_traits@D@std@@V?$allocator@D@2@@std@@@std@@@?$_Wrap_alloc@V?$allocator@U?$_Tree_node@U?$pair@$$CBHV?$basic_string@DU?$char_traits@D@std@@V?$allocator@D@2@@std@@@std@@PAX@std@@@std@@@std@@QAEXPAU?$pair@$$CBHV?$basic_string@DU?$char_traits@D@std@@V?$allocator@D@2@@std@@@1@@Z 100102d0 f i out_saitek.obj
 0001:0000f2f0       ??$destroy@U?$pair@$$CBHV?$basic_string@DU?$char_traits@D@std@@V?$allocator@D@2@@std@@@std@@@?$allocator@U?$_Tree_node@U?$pair@$$CBHV?$basic_string@DU?$char_traits@D@std@@V?$allocator@D@2@@std@@@std@@PAX@std@@@std@@QAEXPAU?$pair@$$CBHV?$basic_string@DU?$char_traits@D@std@@V?$allocator@D@2@@std@@@1@@Z 100102f0 f i out_saitek.obj
 0001:0000f310       ??$destroy@U?$pair@$$CBHV?$basic_string@DU?$char_traits@D@std@@V?$allocator@D@2@@std@@@std@@@?$allocator_traits@V?$allocator@U?$_Tree_node@U?$pair@$$CBHV?$basic_string@DU?$char_traits@D@std@@V?$allocator@D@2@@std@@@std@@PAX@std@@@std@@@std@@SAXAAV?$allocator@U?$_Tree_node@U?$pair@$$CBHV?$basic_string@DU?$char_traits@D@std@@V?$allocator@D@2@@std@@@std@@PAX@std@@@1@PAU?$pair@$$CBHV?$basic_string@DU?$char_traits@D@std@@V?$allocator@D@2@@std@@@1@@Z 10010310 f i out_saitek.obj
 0001:0000f330       ??$emplace_hint@ABUpiecewise_construct_t@std@@V?$tuple@ABH@2@V?$tuple@$$$V@2@@?$_Tree@V?$_Tmap_traits@HV?$basic_string@DU?$char_traits@D@std@@V?$allocator@D@2@@std@@U?$less@H@2@V?$allocator@U?$pair@$$CBHV?$basic_string@DU?$char_traits@D@std@@V?$allocator@D@2@@std@@@std@@@2@$0A@@std@@@std@@QAE?AV?$_Tree_iterator@V?$_Tree_val@U?$_Tree_simple_types@U?$pair@$$CBHV?$basic_string@DU?$char_traits@D@std@@V?$allocator@D@2@@std@@@std@@@std@@@std@@@1@V?$_Tree_const_iterator@V?$_Tree_val@U?$_Tree_simple_types@U?$pair@$$CBHV?$basic_string@DU?$char_traits@D@std@@V?$allocator@D@2@@std@@@std@@@std@@@std@@@1@ABUpiecewise_construct_t@1@$$QAV?$tuple@ABH@1@$$QAV?$tuple@$$$V@1@@Z 10010330 f i out_saitek.obj
 0001:0000f3a0       ??$forward@AAPAU?$_Tree_node@U?$pair@$$CBHV?$basic_string@DU?$char_traits@D@std@@V?$allocator@D@2@@std@@@std@@PAX@std@@@std@@YAAAPAU?$_Tree_node@U?$pair@$$CBHV?$basic_string@DU?$char_traits@D@std@@V?$allocator@D@2@@std@@@std@@PAX@0@AAPAU10@@Z 100103a0 f i out_saitek.obj
 0001:0000f3b0       ??$forward@AAU?$pair@$$CBHV?$basic_string@DU?$char_traits@D@std@@V?$allocator@D@2@@std@@@std@@@std@@YAAAU?$pair@$$CBHV?$basic_string@DU?$char_traits@D@std@@V?$allocator@D@2@@std@@@0@AAU10@@Z 100103b0 f i out_saitek.obj
 0001:0000f3c0       ??$forward@AAV?$_Tree_iterator@V?$_Tree_val@U?$_Tree_simple_types@U?$pair@$$CBHV?$basic_string@DU?$char_traits@D@std@@V?$allocator@D@2@@std@@@std@@@std@@@std@@@std@@@std@@YAAAV?$_Tree_iterator@V?$_Tree_val@U?$_Tree_simple_types@U?$pair@$$CBHV?$basic_string@DU?$char_traits@D@std@@V?$allocator@D@2@@std@@@std@@@std@@@std@@@0@AAV10@@Z 100103c0 f i out_saitek.obj
 0001:0000f3d0       ??$forward@ABH@std@@YAABHABH@Z 100103d0 f i out_saitek.obj
 0001:0000f3e0       ??$forward@V?$_Tree_iterator@V?$_Tree_val@U?$_Tree_simple_types@U?$pair@$$CBHV?$basic_string@DU?$char_traits@D@std@@V?$allocator@D@2@@std@@@std@@@std@@@std@@@std@@@std@@YA$$QAV?$_Tree_iterator@V?$_Tree_val@U?$_Tree_simple_types@U?$pair@$$CBHV?$basic_string@DU?$char_traits@D@std@@V?$allocator@D@2@@std@@@std@@@std@@@std@@@0@AAV10@@Z 100103e0 f i out_saitek.obj
 0001:0000f3f0       ??$forward@V?$tuple@ABH@std@@@std@@YA$$QAV?$tuple@ABH@0@AAV10@@Z 100103f0 f i out_saitek.obj
 0001:0000f400       ??$forward_as_tuple@ABH@std@@YA?AV?$tuple@ABH@0@ABH@Z 10010400 f i out_saitek.obj
 0001:0000f420       ??$get@$0A@ABH@std@@YAABH$$QAV?$tuple@ABH@0@@Z 10010420 f i out_saitek.obj
 0001:0000f440       ??$move@AAV?$tuple@ABH@std@@@std@@YA$$QAV?$tuple@ABH@0@AAV10@@Z 10010440 f i out_saitek.obj
 0001:0000f450       ??0?$_Tree@V?$_Tmap_traits@HV?$basic_string@DU?$char_traits@D@std@@V?$allocator@D@2@@std@@U?$less@H@2@V?$allocator@U?$pair@$$CBHV?$basic_string@DU?$char_traits@D@std@@V?$allocator@D@2@@std@@@std@@@2@$0A@@std@@@std@@QAE@ABU?$less@H@1@ABV?$allocator@U?$pair@$$CBHV?$basic_string@DU?$char_traits@D@std@@V?$allocator@D@2@@std@@@std@@@1@@Z 10010450 f i out_saitek.obj
 0001:0000f470       ??0?$_Tree_alloc@$0A@U?$_Tree_base_types@U?$pair@$$CBHV?$basic_string@DU?$char_traits@D@std@@V?$allocator@D@2@@std@@@std@@V?$allocator@U?$pair@$$CBHV?$basic_string@DU?$char_traits@D@std@@V?$allocator@D@2@@std@@@std@@@2@@std@@@std@@QAE@ABV?$allocator@U?$pair@$$CBHV?$basic_string@DU?$char_traits@D@std@@V?$allocator@D@2@@std@@@std@@@1@@Z 10010470 f i out_saitek.obj
 0001:0000f4a0       ??0?$_Tree_buy@U?$pair@$$CBHV?$basic_string@DU?$char_traits@D@std@@V?$allocator@D@2@@std@@@std@@V?$allocator@U?$pair@$$CBHV?$basic_string@DU?$char_traits@D@std@@V?$allocator@D@2@@std@@@std@@@2@@std@@QAE@ABV?$allocator@U?$pair@$$CBHV?$basic_string@DU?$char_traits@D@std@@V?$allocator@D@2@@std@@@std@@@1@@Z 100104a0 f i out_saitek.obj
 0001:0000f4c0       ??0?$_Tree_comp@$0A@V?$_Tmap_traits@HV?$basic_string@DU?$char_traits@D@std@@V?$allocator@D@2@@std@@U?$less@H@2@V?$allocator@U?$pair@$$CBHV?$basic_string@DU?$char_traits@D@std@@V?$allocator@D@2@@std@@@std@@@2@$0A@@std@@@std@@QAE@ABU?$less@H@1@ABV?$allocator@U?$pair@$$CBHV?$basic_string@DU?$char_traits@D@std@@V?$allocator@D@2@@std@@@std@@@1@@Z 100104c0 f i out_saitek.obj
 0001:0000f4e0       ??0?$_Tree_const_iterator@V?$_Tree_val@U?$_Tree_simple_types@U?$pair@$$CBHV?$basic_string@DU?$char_traits@D@std@@V?$allocator@D@2@@std@@@std@@@std@@@std@@@std@@QAE@PAU?$_Tree_node@U?$pair@$$CBHV?$basic_string@DU?$char_traits@D@std@@V?$allocator@D@2@@std@@@std@@PAX@1@PBV?$_Tree_val@U?$_Tree_simple_types@U?$pair@$$CBHV?$basic_string@DU?$char_traits@D@std@@V?$allocator@D@2@@std@@@std@@@std@@@1@@Z 100104e0 f i out_saitek.obj
 0001:0000f500       ??0?$_Tree_const_iterator@V?$_Tree_val@U?$_Tree_simple_types@U?$pair@$$CBHV?$basic_string@DU?$char_traits@D@std@@V?$allocator@D@2@@std@@@std@@@std@@@std@@@std@@QAE@XZ 10010500 f i out_saitek.obj
 0001:0000f520       ??0?$_Tree_iterator@V?$_Tree_val@U?$_Tree_simple_types@U?$pair@$$CBHV?$basic_string@DU?$char_traits@D@std@@V?$allocator@D@2@@std@@@std@@@std@@@std@@@std@@QAE@PAU?$_Tree_node@U?$pair@$$CBHV?$basic_string@DU?$char_traits@D@std@@V?$allocator@D@2@@std@@@std@@PAX@1@PBV?$_Tree_val@U?$_Tree_simple_types@U?$pair@$$CBHV?$basic_string@DU?$char_traits@D@std@@V?$allocator@D@2@@std@@@std@@@std@@@1@@Z 10010520 f i out_saitek.obj
 0001:0000f540       ??0?$_Tree_unchecked_const_iterator@V?$_Tree_val@U?$_Tree_simple_types@U?$pair@$$CBHV?$basic_string@DU?$char_traits@D@std@@V?$allocator@D@2@@std@@@std@@@std@@@std@@U_Iterator_base0@2@@std@@QAE@PAU?$_Tree_node@U?$pair@$$CBHV?$basic_string@DU?$char_traits@D@std@@V?$allocator@D@2@@std@@@std@@PAX@1@PBV?$_Tree_val@U?$_Tree_simple_types@U?$pair@$$CBHV?$basic_string@DU?$char_traits@D@std@@V?$allocator@D@2@@std@@@std@@@std@@@1@@Z 10010540 f i out_saitek.obj
 0001:0000f570       ??0?$_Tree_unchecked_const_iterator@V?$_Tree_val@U?$_Tree_simple_types@U?$pair@$$CBHV?$basic_string@DU?$char_traits@D@std@@V?$allocator@D@2@@std@@@std@@@std@@@std@@U_Iterator_base0@2@@std@@QAE@XZ 10010570 f i out_saitek.obj
 0001:0000f590       ??0?$_Tree_val@U?$_Tree_simple_types@U?$pair@$$CBHV?$basic_string@DU?$char_traits@D@std@@V?$allocator@D@2@@std@@@std@@@std@@@std@@QAE@XZ 10010590 f i out_saitek.obj
 0001:0000f5c0       ??0?$_Wrap_alloc@V?$allocator@D@std@@@std@@QAE@ABV?$allocator@D@1@@Z 100105c0 f i out_saitek.obj
 0001:0000f5e0       ??0?$_Wrap_alloc@V?$allocator@U?$_Tree_node@U?$pair@$$CBHV?$basic_string@DU?$char_traits@D@std@@V?$allocator@D@2@@std@@@std@@PAX@std@@@std@@@std@@QAE@XZ 100105e0 f i out_saitek.obj
 0001:0000f600       ??0?$allocator@U?$_Tree_node@U?$pair@$$CBHV?$basic_string@DU?$char_traits@D@std@@V?$allocator@D@2@@std@@@std@@PAX@std@@@std@@QAE@XZ 10010600 f i out_saitek.obj
 0001:0000f610       ??0?$allocator@U?$pair@$$CBHV?$basic_string@DU?$char_traits@D@std@@V?$allocator@D@2@@std@@@std@@@std@@QAE@XZ 10010610 f i out_saitek.obj
 0001:0000f620       ??0?$basic_string@DU?$char_traits@D@std@@V?$allocator@D@2@@std@@QAE@ABV01@@Z 10010620 f i out_saitek.obj
 0001:0000f680       ??0?$map@HV?$basic_string@DU?$char_traits@D@std@@V?$allocator@D@2@@std@@U?$less@H@2@V?$allocator@U?$pair@$$CBHV?$basic_string@DU?$char_traits@D@std@@V?$allocator@D@2@@std@@@std@@@2@@std@@QAE@XZ 10010680 f i out_saitek.obj
 0001:0000f6b0       ??0?$tuple@ABH@std@@QAE@ABH@Z 100106b0 f i out_saitek.obj
 0001:0000f6e0       ??0out_joystick_t@@QAE@XZ  100106e0 f i out_saitek.obj
 0001:0000f700       ??1?$pair@$$CBHV?$basic_string@DU?$char_traits@D@std@@V?$allocator@D@2@@std@@@std@@QAE@XZ 10010700 f i out_saitek.obj
 0001:0000f720       ??8?$_Tree_const_iterator@V?$_Tree_val@U?$_Tree_simple_types@U?$pair@$$CBHV?$basic_string@DU?$char_traits@D@std@@V?$allocator@D@2@@std@@@std@@@std@@@std@@@std@@QBE_NABV01@@Z 10010720 f i out_saitek.obj
 0001:0000f750       ??A?$map@HV?$basic_string@DU?$char_traits@D@std@@V?$allocator@D@2@@std@@U?$less@H@2@V?$allocator@U?$pair@$$CBHV?$basic_string@DU?$char_traits@D@std@@V?$allocator@D@2@@std@@@std@@@2@@std@@QAEAAV?$basic_string@DU?$char_traits@D@std@@V?$allocator@D@2@@1@ABH@Z 10010750 f i out_saitek.obj
 0001:0000f800       ??C?$_Tree_iterator@V?$_Tree_val@U?$_Tree_simple_types@U?$pair@$$CBHV?$basic_string@DU?$char_traits@D@std@@V?$allocator@D@2@@std@@@std@@@std@@@std@@@std@@QBEPAU?$pair@$$CBHV?$basic_string@DU?$char_traits@D@std@@V?$allocator@D@2@@std@@@1@XZ 10010800 f i out_saitek.obj
 0001:0000f820       ??D?$_Tree_const_iterator@V?$_Tree_val@U?$_Tree_simple_types@U?$pair@$$CBHV?$basic_string@DU?$char_traits@D@std@@V?$allocator@D@2@@std@@@std@@@std@@@std@@@std@@QBEABU?$pair@$$CBHV?$basic_string@DU?$char_traits@D@std@@V?$allocator@D@2@@std@@@1@XZ 10010820 f i out_saitek.obj
 0001:0000f840       ??D?$_Tree_iterator@V?$_Tree_val@U?$_Tree_simple_types@U?$pair@$$CBHV?$basic_string@DU?$char_traits@D@std@@V?$allocator@D@2@@std@@@std@@@std@@@std@@@std@@QBEAAU?$pair@$$CBHV?$basic_string@DU?$char_traits@D@std@@V?$allocator@D@2@@std@@@1@XZ 10010840 f i out_saitek.obj
 0001:0000f860       ??E?$_Tree_const_iterator@V?$_Tree_val@U?$_Tree_simple_types@U?$pair@$$CBHV?$basic_string@DU?$char_traits@D@std@@V?$allocator@D@2@@std@@@std@@@std@@@std@@@std@@QAEAAV01@XZ 10010860 f i out_saitek.obj
 0001:0000f880       ??E?$_Tree_unchecked_const_iterator@V?$_Tree_val@U?$_Tree_simple_types@U?$pair@$$CBHV?$basic_string@DU?$char_traits@D@std@@V?$allocator@D@2@@std@@@std@@@std@@@std@@U_Iterator_base0@2@@std@@QAEAAV01@XZ 10010880 f i out_saitek.obj
 0001:0000f940       ??F?$_Tree_const_iterator@V?$_Tree_val@U?$_Tree_simple_types@U?$pair@$$CBHV?$basic_string@DU?$char_traits@D@std@@V?$allocator@D@2@@std@@@std@@@std@@@std@@@std@@QAEAAV01@XZ 10010940 f i out_saitek.obj
 0001:0000f960       ??F?$_Tree_iterator@V?$_Tree_val@U?$_Tree_simple_types@U?$pair@$$CBHV?$basic_string@DU?$char_traits@D@std@@V?$allocator@D@2@@std@@@std@@@std@@@std@@@std@@QAEAAV01@XZ 10010960 f i out_saitek.obj
 0001:0000f980       ??F?$_Tree_unchecked_const_iterator@V?$_Tree_val@U?$_Tree_simple_types@U?$pair@$$CBHV?$basic_string@DU?$char_traits@D@std@@V?$allocator@D@2@@std@@@std@@@std@@@std@@U_Iterator_base0@2@@std@@QAEAAV01@XZ 10010980 f i out_saitek.obj
 0001:0000fa70       ??R?$less@H@std@@QBE_NABH0@Z 10010a70 f i out_saitek.obj
 0001:0000faa0       ??_G?$pair@$$CBHV?$basic_string@DU?$char_traits@D@std@@V?$allocator@D@2@@std@@@std@@QAEPAXI@Z 10010aa0 f i out_saitek.obj
 0001:0000fad0       ?_Buyheadnode@?$_Tree_alloc@$0A@U?$_Tree_base_types@U?$pair@$$CBHV?$basic_string@DU?$char_traits@D@std@@V?$allocator@D@2@@std@@@std@@V?$allocator@U?$pair@$$CBHV?$basic_string@DU?$char_traits@D@std@@V?$allocator@D@2@@std@@@std@@@2@@std@@@std@@QAEPAU?$_Tree_node@U?$pair@$$CBHV?$basic_string@DU?$char_traits@D@std@@V?$allocator@D@2@@std@@@std@@PAX@2@XZ 10010ad0 f i out_saitek.obj
 0001:0000fc20       ?_Buynode0@?$_Tree_buy@U?$pair@$$CBHV?$basic_string@DU?$char_traits@D@std@@V?$allocator@D@2@@std@@@std@@V?$allocator@U?$pair@$$CBHV?$basic_string@DU?$char_traits@D@std@@V?$allocator@D@2@@std@@@std@@@2@@std@@QAEPAU?$_Tree_node@U?$pair@$$CBHV?$basic_string@DU?$char_traits@D@std@@V?$allocator@D@2@@std@@@std@@PAX@2@XZ 10010c20 f i out_saitek.obj
 0001:0000fd50       ?_Color@?$_Tree_val@U?$_Tree_simple_types@U?$pair@$$CBHV?$basic_string@DU?$char_traits@D@std@@V?$allocator@D@2@@std@@@std@@@std@@@std@@SAAADPAU?$_Tree_node@U?$pair@$$CBHV?$basic_string@DU?$char_traits@D@std@@V?$allocator@D@2@@std@@@std@@PAX@2@@Z 10010d50 f i out_saitek.obj
 0001:0000fd60       ?_Destroy_if_not_nil@?$_Tree@V?$_Tmap_traits@HV?$basic_string@DU?$char_traits@D@std@@V?$allocator@D@2@@std@@U?$less@H@2@V?$allocator@U?$pair@$$CBHV?$basic_string@DU?$char_traits@D@std@@V?$allocator@D@2@@std@@@std@@@2@$0A@@std@@@std@@IAEXPAU?$_Tree_node@U?$pair@$$CBHV?$basic_string@DU?$char_traits@D@std@@V?$allocator@D@2@@std@@@std@@PAX@2@@Z 10010d60 f i out_saitek.obj
 0001:0000fdc0       ?_Freenode0@?$_Tree_buy@U?$pair@$$CBHV?$basic_string@DU?$char_traits@D@std@@V?$allocator@D@2@@std@@@std@@V?$allocator@U?$pair@$$CBHV?$basic_string@DU?$char_traits@D@std@@V?$allocator@D@2@@std@@@std@@@2@@std@@QAEXPAU?$_Tree_node@U?$pair@$$CBHV?$basic_string@DU?$char_traits@D@std@@V?$allocator@D@2@@std@@@std@@PAX@2@@Z 10010dc0 f i out_saitek.obj
 0001:0000fe70       ?_Get_rest@?$tuple@ABH@std@@QAEAAV?$tuple@$$$V@2@XZ 10010e70 f i out_saitek.obj
 0001:0000fe80       ?_Getal@?$_Tree_alloc@$0A@U?$_Tree_base_types@U?$pair@$$CBHV?$basic_string@DU?$char_traits@D@std@@V?$allocator@D@2@@std@@@std@@V?$allocator@U?$pair@$$CBHV?$basic_string@DU?$char_traits@D@std@@V?$allocator@D@2@@std@@@std@@@2@@std@@@std@@QBE?AU?$_Wrap_alloc@V?$allocator@U?$_Tree_node@U?$pair@$$CBHV?$basic_string@DU?$char_traits@D@std@@V?$allocator@D@2@@std@@@std@@PAX@std@@@std@@@2@XZ 10010e80 f i out_saitek.obj
 0001:0000fea0       ?_Getcomp@?$_Tree_comp@$0A@V?$_Tmap_traits@HV?$basic_string@DU?$char_traits@D@std@@V?$allocator@D@2@@std@@U?$less@H@2@V?$allocator@U?$pair@$$CBHV?$basic_string@DU?$char_traits@D@std@@V?$allocator@D@2@@std@@@std@@@2@$0A@@std@@@std@@QBE?AU?$less@H@2@XZ 10010ea0 f i out_saitek.obj
 0001:0000feb0       ?_Isnil@?$_Tree_val@U?$_Tree_simple_types@U?$pair@$$CBHV?$basic_string@DU?$char_traits@D@std@@V?$allocator@D@2@@std@@@std@@@std@@@std@@SAAADPAU?$_Tree_node@U?$pair@$$CBHV?$basic_string@DU?$char_traits@D@std@@V?$allocator@D@2@@std@@@std@@PAX@2@@Z 10010eb0 f i out_saitek.obj
 0001:0000fec0       ?_Key@?$_Tree@V?$_Tmap_traits@HV?$basic_string@DU?$char_traits@D@std@@V?$allocator@D@2@@std@@U?$less@H@2@V?$allocator@U?$pair@$$CBHV?$basic_string@DU?$char_traits@D@std@@V?$allocator@D@2@@std@@@std@@@2@$0A@@std@@@std@@IBEABHPAU?$_Tree_node@U?$pair@$$CBHV?$basic_string@DU?$char_traits@D@std@@V?$allocator@D@2@@std@@@std@@PAX@2@@Z 10010ec0 f i out_saitek.obj
 0001:0000fef0       ?_Kfn@?$_Tree@V?$_Tmap_traits@HV?$basic_string@DU?$char_traits@D@std@@V?$allocator@D@2@@std@@U?$less@H@2@V?$allocator@U?$pair@$$CBHV?$basic_string@DU?$char_traits@D@std@@V?$allocator@D@2@@std@@@std@@@2@$0A@@std@@@std@@IBEABHABU?$pair@$$CBHV?$basic_string@DU?$char_traits@D@std@@V?$allocator@D@2@@std@@@2@@Z 10010ef0 f i out_saitek.obj
 0001:0000ff10       ?_Lbound@?$_Tree@V?$_Tmap_traits@HV?$basic_string@DU?$char_traits@D@std@@V?$allocator@D@2@@std@@U?$less@H@2@V?$allocator@U?$pair@$$CBHV?$basic_string@DU?$char_traits@D@std@@V?$allocator@D@2@@std@@@std@@@2@$0A@@std@@@std@@IAEPAU?$_Tree_node@U?$pair@$$CBHV?$basic_string@DU?$char_traits@D@std@@V?$allocator@D@2@@std@@@std@@PAX@2@ABH@Z 10010f10 f i out_saitek.obj
 0001:0000ffb0       ?_Left@?$_Tree_val@U?$_Tree_simple_types@U?$pair@$$CBHV?$basic_string@DU?$char_traits@D@std@@V?$allocator@D@2@@std@@@std@@@std@@@std@@SAAAPAU?$_Tree_node@U?$pair@$$CBHV?$basic_string@DU?$char_traits@D@std@@V?$allocator@D@2@@std@@@std@@PAX@2@PAU32@@Z 10010fb0 f i out_saitek.obj
 0001:0000ffc0       ?_Lmost@?$_Tree@V?$_Tmap_traits@HV?$basic_string@DU?$char_traits@D@std@@V?$allocator@D@2@@std@@U?$less@H@2@V?$allocator@U?$pair@$$CBHV?$basic_string@DU?$char_traits@D@std@@V?$allocator@D@2@@std@@@std@@@2@$0A@@std@@@std@@IBEAAPAU?$_Tree_node@U?$pair@$$CBHV?$basic_string@DU?$char_traits@D@std@@V?$allocator@D@2@@std@@@std@@PAX@2@XZ 10010fc0 f i out_saitek.obj
 0001:0000ffe0       ?_Lrotate@?$_Tree@V?$_Tmap_traits@HV?$basic_string@DU?$char_traits@D@std@@V?$allocator@D@2@@std@@U?$less@H@2@V?$allocator@U?$pair@$$CBHV?$basic_string@DU?$char_traits@D@std@@V?$allocator@D@2@@std@@@std@@@2@$0A@@std@@@std@@IAEXPAU?$_Tree_node@U?$pair@$$CBHV?$basic_string@DU?$char_traits@D@std@@V?$allocator@D@2@@std@@@std@@PAX@2@@Z 10010fe0 f i out_saitek.obj
 0001:00010110       ?_Max@?$_Tree_val@U?$_Tree_simple_types@U?$pair@$$CBHV?$basic_string@DU?$char_traits@D@std@@V?$allocator@D@2@@std@@@std@@@std@@@std@@SAPAU?$_Tree_node@U?$pair@$$CBHV?$basic_string@DU?$char_traits@D@std@@V?$allocator@D@2@@std@@@std@@PAX@2@PAU32@@Z 10011110 f i out_saitek.obj
 0001:00010150       ?_Min@?$_Tree_val@U?$_Tree_simple_types@U?$pair@$$CBHV?$basic_string@DU?$char_traits@D@std@@V?$allocator@D@2@@std@@@std@@@std@@@std@@SAPAU?$_Tree_node@U?$pair@$$CBHV?$basic_string@DU?$char_traits@D@std@@V?$allocator@D@2@@std@@@std@@PAX@2@PAU32@@Z 10011150 f i out_saitek.obj
 0001:00010190       ?_Mynode@?$_Tree_unchecked_const_iterator@V?$_Tree_val@U?$_Tree_simple_types@U?$pair@$$CBHV?$basic_string@DU?$char_traits@D@std@@V?$allocator@D@2@@std@@@std@@@std@@@std@@U_Iterator_base0@2@@std@@QBEPAU?$_Tree_node@U?$pair@$$CBHV?$basic_string@DU?$char_traits@D@std@@V?$allocator@D@2@@std@@@std@@PAX@2@XZ 10011190 f i out_saitek.obj
 0001:000101a0       ?_Myval@?$_Tree_val@U?$_Tree_simple_types@U?$pair@$$CBHV?$basic_string@DU?$char_traits@D@std@@V?$allocator@D@2@@std@@@std@@@std@@@std@@SAAAU?$pair@$$CBHV?$basic_string@DU?$char_traits@D@std@@V?$allocator@D@2@@std@@@2@PAU?$_Tree_node@U?$pair@$$CBHV?$basic_string@DU?$char_traits@D@std@@V?$allocator@D@2@@std@@@std@@PAX@2@@Z 100111a0 f i out_saitek.obj
 0001:000101b0       ?_Parent@?$_Tree_val@U?$_Tree_simple_types@U?$pair@$$CBHV?$basic_string@DU?$char_traits@D@std@@V?$allocator@D@2@@std@@@std@@@std@@@std@@SAAAPAU?$_Tree_node@U?$pair@$$CBHV?$basic_string@DU?$char_traits@D@std@@V?$allocator@D@2@@std@@@std@@PAX@2@PAU32@@Z 100111b0 f i out_saitek.obj
 0001:000101c0       ?_Right@?$_Tree_val@U?$_Tree_simple_types@U?$pair@$$CBHV?$basic_string@DU?$char_traits@D@std@@V?$allocator@D@2@@std@@@std@@@std@@@std@@SAAAPAU?$_Tree_node@U?$pair@$$CBHV?$basic_string@DU?$char_traits@D@std@@V?$allocator@D@2@@std@@@std@@PAX@2@PAU32@@Z 100111c0 f i out_saitek.obj
 0001:000101d0       ?_Rmost@?$_Tree@V?$_Tmap_traits@HV?$basic_string@DU?$char_traits@D@std@@V?$allocator@D@2@@std@@U?$less@H@2@V?$allocator@U?$pair@$$CBHV?$basic_string@DU?$char_traits@D@std@@V?$allocator@D@2@@std@@@std@@@2@$0A@@std@@@std@@IBEAAPAU?$_Tree_node@U?$pair@$$CBHV?$basic_string@DU?$char_traits@D@std@@V?$allocator@D@2@@std@@@std@@PAX@2@XZ 100111d0 f i out_saitek.obj
 0001:000101f0       ?_Root@?$_Tree@V?$_Tmap_traits@HV?$basic_string@DU?$char_traits@D@std@@V?$allocator@D@2@@std@@U?$less@H@2@V?$allocator@U?$pair@$$CBHV?$basic_string@DU?$char_traits@D@std@@V?$allocator@D@2@@std@@@std@@@2@$0A@@std@@@std@@IBEAAPAU?$_Tree_node@U?$pair@$$CBHV?$basic_string@DU?$char_traits@D@std@@V?$allocator@D@2@@std@@@std@@PAX@2@XZ 100111f0 f i out_saitek.obj
 0001:00010210       ?_Rrotate@?$_Tree@V?$_Tmap_traits@HV?$basic_string@DU?$char_traits@D@std@@V?$allocator@D@2@@std@@U?$less@H@2@V?$allocator@U?$pair@$$CBHV?$basic_string@DU?$char_traits@D@std@@V?$allocator@D@2@@std@@@std@@@2@$0A@@std@@@std@@IAEXPAU?$_Tree_node@U?$pair@$$CBHV?$basic_string@DU?$char_traits@D@std@@V?$allocator@D@2@@std@@@std@@PAX@2@@Z 10011210 f i out_saitek.obj
 0001:00010340       ?allocate@?$_Wrap_alloc@V?$allocator@U?$_Tree_node@U?$pair@$$CBHV?$basic_string@DU?$char_traits@D@std@@V?$allocator@D@2@@std@@@std@@PAX@std@@@std@@@std@@QAEPAU?$_Tree_node@U?$pair@$$CBHV?$basic_string@DU?$char_traits@D@std@@V?$allocator@D@2@@std@@@std@@PAX@2@I@Z 10011340 f i out_saitek.obj
 0001:00010360       ?allocate@?$allocator@U?$_Tree_node@U?$pair@$$CBHV?$basic_string@DU?$char_traits@D@std@@V?$allocator@D@2@@std@@@std@@PAX@std@@@std@@QAEPAU?$_Tree_node@U?$pair@$$CBHV?$basic_string@DU?$char_traits@D@std@@V?$allocator@D@2@@std@@@std@@PAX@2@I@Z 10011360 f i out_saitek.obj
 0001:00010380       ?begin@?$_Tree@V?$_Tmap_traits@HV?$basic_string@DU?$char_traits@D@std@@V?$allocator@D@2@@std@@U?$less@H@2@V?$allocator@U?$pair@$$CBHV?$basic_string@DU?$char_traits@D@std@@V?$allocator@D@2@@std@@@std@@@2@$0A@@std@@@std@@QAE?AV?$_Tree_iterator@V?$_Tree_val@U?$_Tree_simple_types@U?$pair@$$CBHV?$basic_string@DU?$char_traits@D@std@@V?$allocator@D@2@@std@@@std@@@std@@@std@@@2@XZ 10011380 f i out_saitek.obj
 0001:000103b0       ?deallocate@?$_Wrap_alloc@V?$allocator@U?$_Tree_node@U?$pair@$$CBHV?$basic_string@DU?$char_traits@D@std@@V?$allocator@D@2@@std@@@std@@PAX@std@@@std@@@std@@QAEXPAU?$_Tree_node@U?$pair@$$CBHV?$basic_string@DU?$char_traits@D@std@@V?$allocator@D@2@@std@@@std@@PAX@2@I@Z 100113b0 f i out_saitek.obj
 0001:000103d0       ?deallocate@?$allocator@U?$_Tree_node@U?$pair@$$CBHV?$basic_string@DU?$char_traits@D@std@@V?$allocator@D@2@@std@@@std@@PAX@std@@@std@@QAEXPAU?$_Tree_node@U?$pair@$$CBHV?$basic_string@DU?$char_traits@D@std@@V?$allocator@D@2@@std@@@std@@PAX@2@I@Z 100113d0 f i out_saitek.obj
 0001:000103f0       ?end@?$_Tree@V?$_Tmap_traits@HV?$basic_string@DU?$char_traits@D@std@@V?$allocator@D@2@@std@@U?$less@H@2@V?$allocator@U?$pair@$$CBHV?$basic_string@DU?$char_traits@D@std@@V?$allocator@D@2@@std@@@std@@@2@$0A@@std@@@std@@QAE?AV?$_Tree_iterator@V?$_Tree_val@U?$_Tree_simple_types@U?$pair@$$CBHV?$basic_string@DU?$char_traits@D@std@@V?$allocator@D@2@@std@@@std@@@std@@@std@@@2@XZ 100113f0 f i out_saitek.obj
 0001:00010420       ?lower_bound@?$_Tree@V?$_Tmap_traits@HV?$basic_string@DU?$char_traits@D@std@@V?$allocator@D@2@@std@@U?$less@H@2@V?$allocator@U?$pair@$$CBHV?$basic_string@DU?$char_traits@D@std@@V?$allocator@D@2@@std@@@std@@@2@$0A@@std@@@std@@QAE?AV?$_Tree_iterator@V?$_Tree_val@U?$_Tree_simple_types@U?$pair@$$CBHV?$basic_string@DU?$char_traits@D@std@@V?$allocator@D@2@@std@@@std@@@std@@@std@@@2@ABH@Z 10011420 f i out_saitek.obj
 0001:00010450       ?max_size@?$_Tree@V?$_Tmap_traits@HV?$basic_string@DU?$char_traits@D@std@@V?$allocator@D@2@@std@@U?$less@H@2@V?$allocator@U?$pair@$$CBHV?$basic_string@DU?$char_traits@D@std@@V?$allocator@D@2@@std@@@std@@@2@$0A@@std@@@std@@QBEIXZ 10011450 f i out_saitek.obj
 0001:00010470       ?max_size@?$_Wrap_alloc@V?$allocator@U?$_Tree_node@U?$pair@$$CBHV?$basic_string@DU?$char_traits@D@std@@V?$allocator@D@2@@std@@@std@@PAX@std@@@std@@@std@@QBEIXZ 10011470 f i out_saitek.obj
 0001:00010490       ?max_size@?$allocator@U?$_Tree_node@U?$pair@$$CBHV?$basic_string@DU?$char_traits@D@std@@V?$allocator@D@2@@std@@@std@@PAX@std@@@std@@QBEIXZ 10011490 f i out_saitek.obj
 0001:000104a0       ?max_size@?$allocator_traits@V?$allocator@U?$_Tree_node@U?$pair@$$CBHV?$basic_string@DU?$char_traits@D@std@@V?$allocator@D@2@@std@@@std@@PAX@std@@@std@@@std@@SAIABV?$allocator@U?$_Tree_node@U?$pair@$$CBHV?$basic_string@DU?$char_traits@D@std@@V?$allocator@D@2@@std@@@std@@PAX@std@@@2@@Z 100114a0 f i out_saitek.obj
 0001:000104b0       ?pointer_to@?$pointer_traits@PAU?$pair@$$CBHV?$basic_string@DU?$char_traits@D@std@@V?$allocator@D@2@@std@@@std@@@std@@SAPAU?$pair@$$CBHV?$basic_string@DU?$char_traits@D@std@@V?$allocator@D@2@@std@@@2@AAU32@@Z 100114b0 f i out_saitek.obj
 0001:000104d0       ?select_on_container_copy_construction@?$_Wrap_alloc@V?$allocator@D@std@@@std@@QBE?AU12@XZ 100114d0 f i out_saitek.obj
 0001:00010500       ?select_on_container_copy_construction@?$allocator@D@std@@QBE?AV12@XZ 10011500 f i out_saitek.obj
 0001:00010520       ?select_on_container_copy_construction@?$allocator_traits@V?$allocator@D@std@@@std@@SA?AV?$allocator@D@2@ABV32@@Z 10011520 f i out_saitek.obj
 0001:00010540       ?size@?$_Tree@V?$_Tmap_traits@HV?$basic_string@DU?$char_traits@D@std@@V?$allocator@D@2@@std@@U?$less@H@2@V?$allocator@U?$pair@$$CBHV?$basic_string@DU?$char_traits@D@std@@V?$allocator@D@2@@std@@@std@@@2@$0A@@std@@@std@@QBEIXZ 10011540 f i out_saitek.obj
 0001:00010560       ??0in_t@@QAE@XZ            10011560 f   in.obj
 0001:000106d0       ??1in_t@@QAE@XZ            100116d0 f   in.obj
 0001:000106f0       ?handle_pagecycle@in_t@@QAEXH@Z 100116f0 f   in.obj
 0001:00010900       ?add_page@in_t@@QAEXPAVmfdpage_t@@@Z 10011900 f   in.obj
 0001:000109d0       ?delete_all_pages@in_t@@QAEXXZ 100119d0 f   in.obj
 0001:00010a90       ?dispatch_command@in_t@@SAHPAXH0@Z 10011a90 f   in.obj
 0001:00010b10       ??$?0AAV?$_Tree_const_iterator@V?$_Tree_val@U?$_Tree_simple_types@PAVmfdpage_t@@@std@@@std@@@std@@_NX@?$pair@V?$_Tree_const_iterator@V?$_Tree_val@U?$_Tree_simple_types@PAVmfdpage_t@@@std@@@std@@@std@@_N@std@@QAE@AAV?$_Tree_const_iterator@V?$_Tree_val@U?$_Tree_simple_types@PAVmfdpage_t@@@std@@@std@@@1@$$QA_N@Z 10011b10 f i in.obj
 0001:00010b50       ??$?0V?$_Tree_const_iterator@V?$_Tree_val@U?$_Tree_simple_types@PAVmfdpage_t@@@std@@@std@@@std@@_NX@?$pair@V?$_Tree_const_iterator@V?$_Tree_val@U?$_Tree_simple_types@PAVmfdpage_t@@@std@@@std@@@std@@_N@std@@QAE@$$QAV?$_Tree_const_iterator@V?$_Tree_val@U?$_Tree_simple_types@PAVmfdpage_t@@@std@@@std@@@1@$$QA_N@Z 10011b50 f i in.obj
 0001:00010b90       ??$_Allocate@U?$_Tree_node@PAVmfdpage_t@@PAX@std@@@std@@YAPAU?$_Tree_node@PAVmfdpage_t@@PAX@0@IPAU10@@Z 10011b90 f i in.obj
 0001:00010bd0       ??$_Buynode@ABQAVmfdpage_t@@@?$_Tree_buy@PAVmfdpage_t@@V?$allocator@PAVmfdpage_t@@@std@@@std@@QAEPAU?$_Tree_node@PAVmfdpage_t@@PAX@1@ABQAVmfdpage_t@@@Z 10011bd0 f i in.obj
 0001:00010cb0       ??$_Buynode_if_nil@ABQAVmfdpage_t@@@?$_Tree@V?$_Tset_traits@PAVmfdpage_t@@U?$less@PAVmfdpage_t@@@std@@V?$allocator@PAVmfdpage_t@@@3@$0A@@std@@@std@@IAEPAU?$_Tree_node@PAVmfdpage_t@@PAX@1@U_Nil@1@ABQAVmfdpage_t@@@Z 10011cb0 f i in.obj
 0001:00010ce0       ??$_Insert_at@ABQAVmfdpage_t@@U_Nil@std@@@?$_Tree@V?$_Tset_traits@PAVmfdpage_t@@U?$less@PAVmfdpage_t@@@std@@V?$allocator@PAVmfdpage_t@@@3@$0A@@std@@@std@@IAE?AV?$_Tree_const_iterator@V?$_Tree_val@U?$_Tree_simple_types@PAVmfdpage_t@@@std@@@std@@@1@_NPAU?$_Tree_node@PAVmfdpage_t@@PAX@1@ABQAVmfdpage_t@@U_Nil@1@@Z 10011ce0 f i in.obj
 0001:00011110       ??$_Insert_nohint@ABQAVmfdpage_t@@U_Nil@std@@@?$_Tree@V?$_Tset_traits@PAVmfdpage_t@@U?$less@PAVmfdpage_t@@@std@@V?$allocator@PAVmfdpage_t@@@3@$0A@@std@@@std@@IAE?AU?$pair@V?$_Tree_const_iterator@V?$_Tree_val@U?$_Tree_simple_types@PAVmfdpage_t@@@std@@@std@@@std@@_N@1@_NABQAVmfdpage_t@@U_Nil@1@@Z 10012110 f i in.obj
 0001:000113e0       ??$addressof@PAU?$_Tree_node@PAVmfdpage_t@@PAX@std@@@std@@YAPAPAU?$_Tree_node@PAVmfdpage_t@@PAX@0@AAPAU10@@Z 100123e0 f i in.obj
 0001:000113f0       ??$addressof@PAVmfdpage_t@@@std@@YAPAPAVmfdpage_t@@AAPAV1@@Z 100123f0 f i in.obj
 0001:00011400       ??$construct@PAU?$_Tree_node@PAVmfdpage_t@@PAX@std@@AAPAU12@@?$_Wrap_alloc@V?$allocator@U?$_Tree_node@PAVmfdpage_t@@PAX@std@@@std@@@std@@QAEXPAPAU?$_Tree_node@PAVmfdpage_t@@PAX@1@AAPAU21@@Z 10012400 f i in.obj
 0001:00011430       ??$construct@PAU?$_Tree_node@PAVmfdpage_t@@PAX@std@@AAPAU12@@?$allocator@U?$_Tree_node@PAVmfdpage_t@@PAX@std@@@std@@QAEXPAPAU?$_Tree_node@PAVmfdpage_t@@PAX@1@AAPAU21@@Z 10012430 f i in.obj
 0001:00011480       ??$construct@PAU?$_Tree_node@PAVmfdpage_t@@PAX@std@@AAPAU12@@?$allocator_traits@V?$allocator@U?$_Tree_node@PAVmfdpage_t@@PAX@std@@@std@@@std@@SAXAAV?$allocator@U?$_Tree_node@PAVmfdpage_t@@PAX@std@@@1@PAPAU?$_Tree_node@PAVmfdpage_t@@PAX@1@AAPAU31@@Z 10012480 f i in.obj
 0001:000114a0       ??$construct@PAVmfdpage_t@@ABQAV1@@?$_Wrap_alloc@V?$allocator@U?$_Tree_node@PAVmfdpage_t@@PAX@std@@@std@@@std@@QAEXPAPAVmfdpage_t@@ABQAV2@@Z 100124a0 f i in.obj
 0001:000114d0       ??$construct@PAVmfdpage_t@@ABQAV1@@?$allocator@U?$_Tree_node@PAVmfdpage_t@@PAX@std@@@std@@QAEXPAPAVmfdpage_t@@ABQAV2@@Z 100124d0 f i in.obj
 0001:00011520       ??$construct@PAVmfdpage_t@@ABQAV1@@?$allocator_traits@V?$allocator@U?$_Tree_node@PAVmfdpage_t@@PAX@std@@@std@@@std@@SAXAAV?$allocator@U?$_Tree_node@PAVmfdpage_t@@PAX@std@@@1@PAPAVmfdpage_t@@ABQAV3@@Z 10012520 f i in.obj
 0001:00011540       ??$destroy@PAU?$_Tree_node@PAVmfdpage_t@@PAX@std@@@?$_Wrap_alloc@V?$allocator@U?$_Tree_node@PAVmfdpage_t@@PAX@std@@@std@@@std@@QAEXPAPAU?$_Tree_node@PAVmfdpage_t@@PAX@1@@Z 10012540 f i in.obj
 0001:00011560       ??$destroy@PAU?$_Tree_node@PAVmfdpage_t@@PAX@std@@@?$allocator@U?$_Tree_node@PAVmfdpage_t@@PAX@std@@@std@@QAEXPAPAU?$_Tree_node@PAVmfdpage_t@@PAX@1@@Z 10012560 f i in.obj
 0001:00011570       ??$destroy@PAU?$_Tree_node@PAVmfdpage_t@@PAX@std@@@?$allocator_traits@V?$allocator@U?$_Tree_node@PAVmfdpage_t@@PAX@std@@@std@@@std@@SAXAAV?$allocator@U?$_Tree_node@PAVmfdpage_t@@PAX@std@@@1@PAPAU?$_Tree_node@PAVmfdpage_t@@PAX@1@@Z 10012570 f i in.obj
 0001:00011590       ??$destroy@PAVmfdpage_t@@@?$_Wrap_alloc@V?$allocator@U?$_Tree_node@PAVmfdpage_t@@PAX@std@@@std@@@std@@QAEXPAPAVmfdpage_t@@@Z 10012590 f i in.obj
 0001:000115b0       ??$destroy@PAVmfdpage_t@@@?$allocator@U?$_Tree_node@PAVmfdpage_t@@PAX@std@@@std@@QAEXPAPAVmfdpage_t@@@Z 100125b0 f i in.obj
 0001:000115c0       ??$destroy@PAVmfdpage_t@@@?$allocator_traits@V?$allocator@U?$_Tree_node@PAVmfdpage_t@@PAX@std@@@std@@@std@@SAXAAV?$allocator@U?$_Tree_node@PAVmfdpage_t@@PAX@std@@@1@PAPAVmfdpage_t@@@Z 100125c0 f i in.obj
 0001:000115e0       ??$forward@AAPAU?$_Tree_node@PAVmfdpage_t@@PAX@std@@@std@@YAAAPAU?$_Tree_node@PAVmfdpage_t@@PAX@0@AAPAU10@@Z 100125e0 f i in.obj
 0001:000115f0       ??$forward@AAV?$_Tree_const_iterator@V?$_Tree_val@U?$_Tree_simple_types@PAVmfdpage_t@@@std@@@std@@@std@@@std@@YAAAV?$_Tree_const_iterator@V?$_Tree_val@U?$_Tree_simple_types@PAVmfdpage_t@@@std@@@std@@@0@AAV10@@Z 100125f0 f i in.obj
 0001:00011600       ??$forward@ABQAVmfdpage_t@@@std@@YAABQAVmfdpage_t@@ABQAV1@@Z 10012600 f i in.obj
 0001:00011610       ??$forward@V?$_Tree_const_iterator@V?$_Tree_val@U?$_Tree_simple_types@PAVmfdpage_t@@@std@@@std@@@std@@@std@@YA$$QAV?$_Tree_const_iterator@V?$_Tree_val@U?$_Tree_simple_types@PAVmfdpage_t@@@std@@@std@@@0@AAV10@@Z 10012610 f i in.obj
 0001:00011620       ??0?$_Tree@V?$_Tset_traits@PAVmfdpage_t@@U?$less@PAVmfdpage_t@@@std@@V?$allocator@PAVmfdpage_t@@@3@$0A@@std@@@std@@QAE@ABU?$less@PAVmfdpage_t@@@1@ABV?$allocator@PAVmfdpage_t@@@1@@Z 10012620 f i in.obj
 0001:00011640       ??0?$_Tree_alloc@$0A@U?$_Tree_base_types@PAVmfdpage_t@@V?$allocator@PAVmfdpage_t@@@std@@@std@@@std@@QAE@ABV?$allocator@PAVmfdpage_t@@@1@@Z 10012640 f i in.obj
 0001:00011670       ??0?$_Tree_buy@PAVmfdpage_t@@V?$allocator@PAVmfdpage_t@@@std@@@std@@QAE@ABV?$allocator@PAVmfdpage_t@@@1@@Z 10012670 f i in.obj
 0001:00011690       ??0?$_Tree_comp@$0A@V?$_Tset_traits@PAVmfdpage_t@@U?$less@PAVmfdpage_t@@@std@@V?$allocator@PAVmfdpage_t@@@3@$0A@@std@@@std@@QAE@ABU?$less@PAVmfdpage_t@@@1@ABV?$allocator@PAVmfdpage_t@@@1@@Z 10012690 f i in.obj
 0001:000116b0       ??0?$_Tree_const_iterator@V?$_Tree_val@U?$_Tree_simple_types@PAVmfdpage_t@@@std@@@std@@@std@@QAE@PAU?$_Tree_node@PAVmfdpage_t@@PAX@1@PBV?$_Tree_val@U?$_Tree_simple_types@PAVmfdpage_t@@@std@@@1@@Z 100126b0 f i in.obj
 0001:000116d0       ??0?$_Tree_unchecked_const_iterator@V?$_Tree_val@U?$_Tree_simple_types@PAVmfdpage_t@@@std@@@std@@U_Iterator_base0@2@@std@@QAE@PAU?$_Tree_node@PAVmfdpage_t@@PAX@1@PBV?$_Tree_val@U?$_Tree_simple_types@PAVmfdpage_t@@@std@@@1@@Z 100126d0 f i in.obj
 0001:00011700       ??0?$_Tree_val@U?$_Tree_simple_types@PAVmfdpage_t@@@std@@@std@@QAE@XZ 10012700 f i in.obj
 0001:00011730       ??0?$_Wrap_alloc@V?$allocator@U?$_Tree_node@PAVmfdpage_t@@PAX@std@@@std@@@std@@QAE@XZ 10012730 f i in.obj
 0001:00011750       ??0?$allocator@PAVmfdpage_t@@@std@@QAE@XZ 10012750 f i in.obj
 0001:00011760       ??0?$allocator@U?$_Tree_node@PAVmfdpage_t@@PAX@std@@@std@@QAE@XZ 10012760 f i in.obj
 0001:00011770       ??0?$set@PAVmfdpage_t@@U?$less@PAVmfdpage_t@@@std@@V?$allocator@PAVmfdpage_t@@@3@@std@@QAE@XZ 10012770 f i in.obj
 0001:000117a0       ??1?$_Tree@V?$_Tset_traits@PAVmfdpage_t@@U?$less@PAVmfdpage_t@@@std@@V?$allocator@PAVmfdpage_t@@@3@$0A@@std@@@std@@QAE@XZ 100127a0 f i in.obj
 0001:000117c0       ??1?$_Tree_alloc@$0A@U?$_Tree_base_types@PAVmfdpage_t@@V?$allocator@PAVmfdpage_t@@@std@@@std@@@std@@QAE@XZ 100127c0 f i in.obj
 0001:000117e0       ??1?$_Tree_buy@PAVmfdpage_t@@V?$allocator@PAVmfdpage_t@@@std@@@std@@QAE@XZ 100127e0 f i in.obj
 0001:00011800       ??1?$_Tree_comp@$0A@V?$_Tset_traits@PAVmfdpage_t@@U?$less@PAVmfdpage_t@@@std@@V?$allocator@PAVmfdpage_t@@@3@$0A@@std@@@std@@QAE@XZ 10012800 f i in.obj
 0001:00011820       ??1?$set@PAVmfdpage_t@@U?$less@PAVmfdpage_t@@@std@@V?$allocator@PAVmfdpage_t@@@3@@std@@QAE@XZ 10012820 f i in.obj
 0001:00011840       ??8?$_Tree_const_iterator@V?$_Tree_val@U?$_Tree_simple_types@PAVmfdpage_t@@@std@@@std@@@std@@QBE_NABV01@@Z 10012840 f i in.obj
 0001:00011870       ??9?$_Tree_const_iterator@V?$_Tree_val@U?$_Tree_simple_types@PAVmfdpage_t@@@std@@@std@@@std@@QBE_NABV01@@Z 10012870 f i in.obj
 0001:000118b0       ??D?$_Tree_const_iterator@V?$_Tree_val@U?$_Tree_simple_types@PAVmfdpage_t@@@std@@@std@@@std@@QBEABQAVmfdpage_t@@XZ 100128b0 f i in.obj
 0001:000118d0       ??E?$_Tree_const_iterator@V?$_Tree_val@U?$_Tree_simple_types@PAVmfdpage_t@@@std@@@std@@@std@@QAE?AV01@H@Z 100128d0 f i in.obj
 0001:00011900       ??E?$_Tree_const_iterator@V?$_Tree_val@U?$_Tree_simple_types@PAVmfdpage_t@@@std@@@std@@@std@@QAEAAV01@XZ 10012900 f i in.obj
 0001:00011920       ??E?$_Tree_unchecked_const_iterator@V?$_Tree_val@U?$_Tree_simple_types@PAVmfdpage_t@@@std@@@std@@U_Iterator_base0@2@@std@@QAEAAV01@XZ 10012920 f i in.obj
 0001:000119e0       ??F?$_Tree_const_iterator@V?$_Tree_val@U?$_Tree_simple_types@PAVmfdpage_t@@@std@@@std@@@std@@QAEAAV01@XZ 100129e0 f i in.obj
 0001:00011a00       ??F?$_Tree_unchecked_const_iterator@V?$_Tree_val@U?$_Tree_simple_types@PAVmfdpage_t@@@std@@@std@@U_Iterator_base0@2@@std@@QAEAAV01@XZ 10012a00 f i in.obj
 0001:00011af0       ??R?$less@PAVmfdpage_t@@@std@@QBE_NABQAVmfdpage_t@@0@Z 10012af0 f i in.obj
 0001:00011b20       ?_Buyheadnode@?$_Tree_alloc@$0A@U?$_Tree_base_types@PAVmfdpage_t@@V?$allocator@PAVmfdpage_t@@@std@@@std@@@std@@QAEPAU?$_Tree_node@PAVmfdpage_t@@PAX@2@XZ 10012b20 f i in.obj
 0001:00011c70       ?_Buynode0@?$_Tree_buy@PAVmfdpage_t@@V?$allocator@PAVmfdpage_t@@@std@@@std@@QAEPAU?$_Tree_node@PAVmfdpage_t@@PAX@2@XZ 10012c70 f i in.obj
 0001:00011da0       ?_Color@?$_Tree_val@U?$_Tree_simple_types@PAVmfdpage_t@@@std@@@std@@SAAADPAU?$_Tree_node@PAVmfdpage_t@@PAX@2@@Z 10012da0 f i in.obj
 0001:00011db0       ?_Destroy_if_not_nil@?$_Tree@V?$_Tset_traits@PAVmfdpage_t@@U?$less@PAVmfdpage_t@@@std@@V?$allocator@PAVmfdpage_t@@@3@$0A@@std@@@std@@IAEXU_Nil@2@@Z 10012db0 f i in.obj
 0001:00011dc0       ?_Erase@?$_Tree@V?$_Tset_traits@PAVmfdpage_t@@U?$less@PAVmfdpage_t@@@std@@V?$allocator@PAVmfdpage_t@@@3@$0A@@std@@@std@@IAEXPAU?$_Tree_node@PAVmfdpage_t@@PAX@2@@Z 10012dc0 f i in.obj
 0001:00011e60       ?_Freeheadnode@?$_Tree_alloc@$0A@U?$_Tree_base_types@PAVmfdpage_t@@V?$allocator@PAVmfdpage_t@@@std@@@std@@@std@@QAEXPAU?$_Tree_node@PAVmfdpage_t@@PAX@2@@Z 10012e60 f i in.obj
 0001:00011f10       ?_Freenode0@?$_Tree_buy@PAVmfdpage_t@@V?$allocator@PAVmfdpage_t@@@std@@@std@@QAEXPAU?$_Tree_node@PAVmfdpage_t@@PAX@2@@Z 10012f10 f i in.obj
 0001:00011fc0       ?_Getal@?$_Tree_alloc@$0A@U?$_Tree_base_types@PAVmfdpage_t@@V?$allocator@PAVmfdpage_t@@@std@@@std@@@std@@QBE?AU?$_Wrap_alloc@V?$allocator@U?$_Tree_node@PAVmfdpage_t@@PAX@std@@@std@@@2@XZ 10012fc0 f i in.obj
 0001:00011fe0       ?_Getcomp@?$_Tree_comp@$0A@V?$_Tset_traits@PAVmfdpage_t@@U?$less@PAVmfdpage_t@@@std@@V?$allocator@PAVmfdpage_t@@@3@$0A@@std@@@std@@QBE?AU?$less@PAVmfdpage_t@@@2@XZ 10012fe0 f i in.obj
 0001:00011ff0       ?_Isnil@?$_Tree_val@U?$_Tree_simple_types@PAVmfdpage_t@@@std@@@std@@SAAADPAU?$_Tree_node@PAVmfdpage_t@@PAX@2@@Z 10012ff0 f i in.obj
 0001:00012000       ?_Key@?$_Tree@V?$_Tset_traits@PAVmfdpage_t@@U?$less@PAVmfdpage_t@@@std@@V?$allocator@PAVmfdpage_t@@@3@$0A@@std@@@std@@IBEABQAVmfdpage_t@@PAU?$_Tree_node@PAVmfdpage_t@@PAX@2@@Z 10013000 f i in.obj
 0001:00012030       ?_Kfn@?$_Tree@V?$_Tset_traits@PAVmfdpage_t@@U?$less@PAVmfdpage_t@@@std@@V?$allocator@PAVmfdpage_t@@@3@$0A@@std@@@std@@IBEABQAVmfdpage_t@@ABQAV3@@Z 10013030 f i in.obj
 0001:00012050       ?_Kfn@?$_Tset_traits@PAVmfdpage_t@@U?$less@PAVmfdpage_t@@@std@@V?$allocator@PAVmfdpage_t@@@3@$0A@@std@@SAABQAVmfdpage_t@@ABQAV3@@Z 10013050 f i in.obj
 0001:00012060       ?_Lbound@?$_Tree@V?$_Tset_traits@PAVmfdpage_t@@U?$less@PAVmfdpage_t@@@std@@V?$allocator@PAVmfdpage_t@@@3@$0A@@std@@@std@@IAEPAU?$_Tree_node@PAVmfdpage_t@@PAX@2@ABQAVmfdpage_t@@@Z 10013060 f i in.obj
 0001:00012100       ?_Left@?$_Tree_val@U?$_Tree_simple_types@PAVmfdpage_t@@@std@@@std@@SAAAPAU?$_Tree_node@PAVmfdpage_t@@PAX@2@PAU32@@Z 10013100 f i in.obj
 0001:00012110       ?_Lmost@?$_Tree@V?$_Tset_traits@PAVmfdpage_t@@U?$less@PAVmfdpage_t@@@std@@V?$allocator@PAVmfdpage_t@@@3@$0A@@std@@@std@@IBEAAPAU?$_Tree_node@PAVmfdpage_t@@PAX@2@XZ 10013110 f i in.obj
 0001:00012130       ?_Lrotate@?$_Tree@V?$_Tset_traits@PAVmfdpage_t@@U?$less@PAVmfdpage_t@@@std@@V?$allocator@PAVmfdpage_t@@@3@$0A@@std@@@std@@IAEXPAU?$_Tree_node@PAVmfdpage_t@@PAX@2@@Z 10013130 f i in.obj
 0001:00012260       ?_Max@?$_Tree_val@U?$_Tree_simple_types@PAVmfdpage_t@@@std@@@std@@SAPAU?$_Tree_node@PAVmfdpage_t@@PAX@2@PAU32@@Z 10013260 f i in.obj
 0001:000122a0       ?_Min@?$_Tree_val@U?$_Tree_simple_types@PAVmfdpage_t@@@std@@@std@@SAPAU?$_Tree_node@PAVmfdpage_t@@PAX@2@PAU32@@Z 100132a0 f i in.obj
 0001:000122e0       ?_Mynode@?$_Tree_unchecked_const_iterator@V?$_Tree_val@U?$_Tree_simple_types@PAVmfdpage_t@@@std@@@std@@U_Iterator_base0@2@@std@@QBEPAU?$_Tree_node@PAVmfdpage_t@@PAX@2@XZ 100132e0 f i in.obj
 0001:000122f0       ?_Myval@?$_Tree_val@U?$_Tree_simple_types@PAVmfdpage_t@@@std@@@std@@SAAAPAVmfdpage_t@@PAU?$_Tree_node@PAVmfdpage_t@@PAX@2@@Z 100132f0 f i in.obj
 0001:00012300       ?_Parent@?$_Tree_val@U?$_Tree_simple_types@PAVmfdpage_t@@@std@@@std@@SAAAPAU?$_Tree_node@PAVmfdpage_t@@PAX@2@PAU32@@Z 10013300 f i in.obj
 0001:00012310       ?_Right@?$_Tree_val@U?$_Tree_simple_types@PAVmfdpage_t@@@std@@@std@@SAAAPAU?$_Tree_node@PAVmfdpage_t@@PAX@2@PAU32@@Z 10013310 f i in.obj
 0001:00012320       ?_Rmost@?$_Tree@V?$_Tset_traits@PAVmfdpage_t@@U?$less@PAVmfdpage_t@@@std@@V?$allocator@PAVmfdpage_t@@@3@$0A@@std@@@std@@IBEAAPAU?$_Tree_node@PAVmfdpage_t@@PAX@2@XZ 10013320 f i in.obj
 0001:00012340       ?_Root@?$_Tree@V?$_Tset_traits@PAVmfdpage_t@@U?$less@PAVmfdpage_t@@@std@@V?$allocator@PAVmfdpage_t@@@3@$0A@@std@@@std@@IBEAAPAU?$_Tree_node@PAVmfdpage_t@@PAX@2@XZ 10013340 f i in.obj
 0001:00012360       ?_Rrotate@?$_Tree@V?$_Tset_traits@PAVmfdpage_t@@U?$less@PAVmfdpage_t@@@std@@V?$allocator@PAVmfdpage_t@@@3@$0A@@std@@@std@@IAEXPAU?$_Tree_node@PAVmfdpage_t@@PAX@2@@Z 10013360 f i in.obj
 0001:00012490       ?_Tidy@?$_Tree@V?$_Tset_traits@PAVmfdpage_t@@U?$less@PAVmfdpage_t@@@std@@V?$allocator@PAVmfdpage_t@@@3@$0A@@std@@@std@@IAEXXZ 10013490 f i in.obj
 0001:000124d0       ?allocate@?$_Wrap_alloc@V?$allocator@U?$_Tree_node@PAVmfdpage_t@@PAX@std@@@std@@@std@@QAEPAU?$_Tree_node@PAVmfdpage_t@@PAX@2@I@Z 100134d0 f i in.obj
 0001:000124f0       ?allocate@?$allocator@U?$_Tree_node@PAVmfdpage_t@@PAX@std@@@std@@QAEPAU?$_Tree_node@PAVmfdpage_t@@PAX@2@I@Z 100134f0 f i in.obj
 0001:00012510       ?begin@?$_Tree@V?$_Tset_traits@PAVmfdpage_t@@U?$less@PAVmfdpage_t@@@std@@V?$allocator@PAVmfdpage_t@@@3@$0A@@std@@@std@@QAE?AV?$_Tree_const_iterator@V?$_Tree_val@U?$_Tree_simple_types@PAVmfdpage_t@@@std@@@std@@@2@XZ 10013510 f i in.obj
 0001:00012540       ?clear@?$_Tree@V?$_Tset_traits@PAVmfdpage_t@@U?$less@PAVmfdpage_t@@@std@@V?$allocator@PAVmfdpage_t@@@3@$0A@@std@@@std@@QAEXXZ 10013540 f i in.obj
 0001:000125a0       ?deallocate@?$_Wrap_alloc@V?$allocator@U?$_Tree_node@PAVmfdpage_t@@PAX@std@@@std@@@std@@QAEXPAU?$_Tree_node@PAVmfdpage_t@@PAX@2@I@Z 100135a0 f i in.obj
 0001:000125c0       ?deallocate@?$allocator@U?$_Tree_node@PAVmfdpage_t@@PAX@std@@@std@@QAEXPAU?$_Tree_node@PAVmfdpage_t@@PAX@2@I@Z 100135c0 f i in.obj
 0001:000125e0       ?empty@?$_Tree@V?$_Tset_traits@PAVmfdpage_t@@U?$less@PAVmfdpage_t@@@std@@V?$allocator@PAVmfdpage_t@@@3@$0A@@std@@@std@@QBE_NXZ 100135e0 f i in.obj
 0001:00012610       ?end@?$_Tree@V?$_Tset_traits@PAVmfdpage_t@@U?$less@PAVmfdpage_t@@@std@@V?$allocator@PAVmfdpage_t@@@3@$0A@@std@@@std@@QAE?AV?$_Tree_const_iterator@V?$_Tree_val@U?$_Tree_simple_types@PAVmfdpage_t@@@std@@@std@@@2@XZ 10013610 f i in.obj
 0001:00012640       ?erase@?$_Tree@V?$_Tset_traits@PAVmfdpage_t@@U?$less@PAVmfdpage_t@@@std@@V?$allocator@PAVmfdpage_t@@@3@$0A@@std@@@std@@QAE?AV?$_Tree_const_iterator@V?$_Tree_val@U?$_Tree_simple_types@PAVmfdpage_t@@@std@@@std@@@2@V32@0@Z 10013640 f i in.obj
 0001:000126f0       ?erase@?$_Tree@V?$_Tset_traits@PAVmfdpage_t@@U?$less@PAVmfdpage_t@@@std@@V?$allocator@PAVmfdpage_t@@@3@$0A@@std@@@std@@QAE?AV?$_Tree_const_iterator@V?$_Tree_val@U?$_Tree_simple_types@PAVmfdpage_t@@@std@@@std@@@2@V32@@Z 100136f0 f i in.obj
 0001:00012e70       ?find@?$_Tree@V?$_Tset_traits@PAVmfdpage_t@@U?$less@PAVmfdpage_t@@@std@@V?$allocator@PAVmfdpage_t@@@3@$0A@@std@@@std@@QAE?AV?$_Tree_const_iterator@V?$_Tree_val@U?$_Tree_simple_types@PAVmfdpage_t@@@std@@@std@@@2@ABQAVmfdpage_t@@@Z 10013e70 f i in.obj
 0001:00012f10       ?insert@?$_Tree@V?$_Tset_traits@PAVmfdpage_t@@U?$less@PAVmfdpage_t@@@std@@V?$allocator@PAVmfdpage_t@@@3@$0A@@std@@@std@@QAE?AU?$pair@V?$_Tree_const_iterator@V?$_Tree_val@U?$_Tree_simple_types@PAVmfdpage_t@@@std@@@std@@@std@@_N@2@ABQAVmfdpage_t@@@Z 10013f10 f i in.obj
 0001:00012f40       ?insert@?$set@PAVmfdpage_t@@U?$less@PAVmfdpage_t@@@std@@V?$allocator@PAVmfdpage_t@@@3@@std@@QAE?AU?$pair@V?$_Tree_const_iterator@V?$_Tree_val@U?$_Tree_simple_types@PAVmfdpage_t@@@std@@@std@@@std@@_N@2@ABQAVmfdpage_t@@@Z 10013f40 f i in.obj
 0001:00012f60       ?lower_bound@?$_Tree@V?$_Tset_traits@PAVmfdpage_t@@U?$less@PAVmfdpage_t@@@std@@V?$allocator@PAVmfdpage_t@@@3@$0A@@std@@@std@@QAE?AV?$_Tree_const_iterator@V?$_Tree_val@U?$_Tree_simple_types@PAVmfdpage_t@@@std@@@std@@@2@ABQAVmfdpage_t@@@Z 10013f60 f i in.obj
 0001:00012f90       ?max_size@?$_Tree@V?$_Tset_traits@PAVmfdpage_t@@U?$less@PAVmfdpage_t@@@std@@V?$allocator@PAVmfdpage_t@@@3@$0A@@std@@@std@@QBEIXZ 10013f90 f i in.obj
 0001:00012fb0       ?max_size@?$_Wrap_alloc@V?$allocator@U?$_Tree_node@PAVmfdpage_t@@PAX@std@@@std@@@std@@QBEIXZ 10013fb0 f i in.obj
 0001:00012fd0       ?max_size@?$allocator@U?$_Tree_node@PAVmfdpage_t@@PAX@std@@@std@@QBEIXZ 10013fd0 f i in.obj
 0001:00012fe0       ?max_size@?$allocator_traits@V?$allocator@U?$_Tree_node@PAVmfdpage_t@@PAX@std@@@std@@@std@@SAIABV?$allocator@U?$_Tree_node@PAVmfdpage_t@@PAX@std@@@2@@Z 10013fe0 f i in.obj
 0001:00012ff0       ?size@?$_Tree@V?$_Tset_traits@PAVmfdpage_t@@U?$less@PAVmfdpage_t@@@std@@V?$allocator@PAVmfdpage_t@@@3@$0A@@std@@@std@@QBEIXZ 10013ff0 f i in.obj
 0001:00013030       ??0mfdpages_t@@QAE@PAVout_t@@PAVin_t@@PAVdata_t@@PAVfms_t@@@Z 10014030 f   mfdpage.obj
 0001:00013070       ??1mfdpages_t@@QAE@XZ      10014070 f   mfdpage.obj
 0001:000130a0       ?load@mfdpages_t@@QAEXXZ   100140a0 f   mfdpage.obj
 0001:000137e0       ??0mfdpage_t@@QAE@PBDPAVout_t@@PAVdata_t@@HV?$basic_string@DU?$char_traits@D@std@@V?$allocator@D@2@@std@@PAVfms_t@@@Z 100147e0 f   mfdpage.obj
 0001:00013bf0       ??1mfdpage_t@@UAE@XZ       10014bf0 f   mfdpage.obj
 0001:00013c90       ?name@mfdpage_t@@UAEABV?$basic_string@DU?$char_traits@D@std@@V?$allocator@D@2@@std@@XZ 10014c90 f   mfdpage.obj
 0001:00013cb0       ?set_datasources@mfdpage_t@@QAEXPAV?$map@HV?$basic_string@DU?$char_traits@D@std@@V?$allocator@D@2@@std@@U?$less@H@2@V?$allocator@U?$pair@$$CBHV?$basic_string@DU?$char_traits@D@std@@V?$allocator@D@2@@std@@@std@@@2@@std@@@Z 10014cb0 f   mfdpage.obj
 0001:00013d50       ?remove_datasources@mfdpage_t@@QAEXXZ 10014d50 f   mfdpage.obj
 0001:00013dd0       ?set_active@mfdpage_t@@QAEX_N@Z 10014dd0 f   mfdpage.obj
 0001:00013e60       ?has_object@mfdpage_t@@UAE_NPAVobject_t@@@Z 10014e60 f   mfdpage.obj
 0001:00013f00       ?refresh@mfdpage_t@@UAE_NPAVobject_t@@@Z 10014f00 f   mfdpage.obj
 0001:00013fd0       ?final_refresh@mfdpage_t@@UAEXXZ 10014fd0 f   mfdpage.obj
 0001:00014450       ??$?0$$QAV?$basic_string@DU?$char_traits@D@std@@V?$allocator@D@2@@std@@$$$V@?$pair@$$CBV?$basic_string@DU?$char_traits@D@std@@V?$allocator@D@2@@std@@D@std@@QAE@Upiecewise_construct_t@1@V?$tuple@$$QAV?$basic_string@DU?$char_traits@D@std@@V?$allocator@D@2@@std@@@1@V?$tuple@$$$V@1@@Z 10015450 f i mfdpage.obj
 0001:00014490       ??$?0$$QAV?$basic_string@DU?$char_traits@D@std@@V?$allocator@D@2@@std@@$$$V@?$pair@$$CBV?$basic_string@DU?$char_traits@D@std@@V?$allocator@D@2@@std@@H@std@@QAE@Upiecewise_construct_t@1@V?$tuple@$$QAV?$basic_string@DU?$char_traits@D@std@@V?$allocator@D@2@@std@@@1@V?$tuple@$$$V@1@@Z 10015490 f i mfdpage.obj
 0001:000144d0       ??$?0AAV?$_Tree_iterator@V?$_Tree_val@U?$_Tree_simple_types@U?$pair@$$CBHPAVobject_t@@@std@@@std@@@std@@@std@@_NX@?$pair@V?$_Tree_iterator@V?$_Tree_val@U?$_Tree_simple_types@U?$pair@$$CBHPAVobject_t@@@std@@@std@@@std@@@std@@_N@std@@QAE@AAV?$_Tree_iterator@V?$_Tree_val@U?$_Tree_simple_types@U?$pair@$$CBHPAVobject_t@@@std@@@std@@@std@@@1@$$QA_N@Z 100154d0 f i mfdpage.obj
 0001:00014510       ??$?0AAV?$_Tree_iterator@V?$_Tree_val@U?$_Tree_simple_types@U?$pair@$$CBV?$basic_string@DU?$char_traits@D@std@@V?$allocator@D@2@@std@@D@std@@@std@@@std@@@std@@_NX@?$pair@V?$_Tree_iterator@V?$_Tree_val@U?$_Tree_simple_types@U?$pair@$$CBV?$basic_string@DU?$char_traits@D@std@@V?$allocator@D@2@@std@@D@std@@@std@@@std@@@std@@_N@std@@QAE@AAV?$_Tree_iterator@V?$_Tree_val@U?$_Tree_simple_types@U?$pair@$$CBV?$basic_string@DU?$char_traits@D@std@@V?$allocator@D@2@@std@@D@std@@@std@@@std@@@1@$$QA_N@Z 10015510 f i mfdpage.obj
 0001:00014550       ??$?0AAV?$_Tree_iterator@V?$_Tree_val@U?$_Tree_simple_types@U?$pair@$$CBV?$basic_string@DU?$char_traits@D@std@@V?$allocator@D@2@@std@@H@std@@@std@@@std@@@std@@_NX@?$pair@V?$_Tree_iterator@V?$_Tree_val@U?$_Tree_simple_types@U?$pair@$$CBV?$basic_string@DU?$char_traits@D@std@@V?$allocator@D@2@@std@@H@std@@@std@@@std@@@std@@_N@std@@QAE@AAV?$_Tree_iterator@V?$_Tree_val@U?$_Tree_simple_types@U?$pair@$$CBV?$basic_string@DU?$char_traits@D@std@@V?$allocator@D@2@@std@@H@std@@@std@@@std@@@1@$$QA_N@Z 10015550 f i mfdpage.obj
 0001:00014590       ??$?0ABH$$$V@?$pair@$$CBHPAVobject_t@@@std@@QAE@Upiecewise_construct_t@1@V?$tuple@ABH@1@V?$tuple@$$$V@1@@Z 10015590 f i mfdpage.obj
 0001:000145d0       ??$?0ABV?$basic_string@DU?$char_traits@D@std@@V?$allocator@D@2@@std@@$$$V@?$pair@$$CBV?$basic_string@DU?$char_traits@D@std@@V?$allocator@D@2@@std@@V12@@std@@QAE@Upiecewise_construct_t@1@V?$tuple@ABV?$basic_string@DU?$char_traits@D@std@@V?$allocator@D@2@@std@@@1@V?$tuple@$$$V@1@@Z 100155d0 f i mfdpage.obj
 0001:00014610       ??$?0ABV?$basic_string@DU?$char_traits@D@std@@V?$allocator@D@2@@std@@@?$_Tuple_val@ABV?$basic_string@DU?$char_traits@D@std@@V?$allocator@D@2@@std@@@std@@QAE@ABV?$basic_string@DU?$char_traits@D@std@@V?$allocator@D@2@@1@@Z 10015610 f i mfdpage.obj
 0001:00014640       ??$?0ABV?$basic_string@DU?$char_traits@D@std@@V?$allocator@D@2@@std@@PAPAX@?$tuple@ABV?$basic_string@DU?$char_traits@D@std@@V?$allocator@D@2@@std@@@std@@QAE@$$QAV01@@Z 10015640 f i mfdpage.obj
 0001:00014690       ??$?0U?$_Tree_node@U?$pair@$$CBHPAVobject_t@@@std@@PAX@std@@@?$allocator@U?$pair@$$CBHPAVobject_t@@@std@@@std@@QAE@ABV?$allocator@U?$_Tree_node@U?$pair@$$CBHPAVobject_t@@@std@@PAX@std@@@1@@Z 10015690 f i mfdpage.obj
 0001:000146a0       ??$?0V?$_Tree_iterator@V?$_Tree_val@U?$_Tree_simple_types@U?$pair@$$CBHPAVobject_t@@@std@@@std@@@std@@@std@@_NX@?$pair@V?$_Tree_iterator@V?$_Tree_val@U?$_Tree_simple_types@U?$pair@$$CBHPAVobject_t@@@std@@@std@@@std@@@std@@_N@std@@QAE@$$QAV?$_Tree_iterator@V?$_Tree_val@U?$_Tree_simple_types@U?$pair@$$CBHPAVobject_t@@@std@@@std@@@std@@@1@$$QA_N@Z 100156a0 f i mfdpage.obj
 0001:000146e0       ??$?0V?$_Tree_iterator@V?$_Tree_val@U?$_Tree_simple_types@U?$pair@$$CBV?$basic_string@DU?$char_traits@D@std@@V?$allocator@D@2@@std@@D@std@@@std@@@std@@@std@@_NX@?$pair@V?$_Tree_iterator@V?$_Tree_val@U?$_Tree_simple_types@U?$pair@$$CBV?$basic_string@DU?$char_traits@D@std@@V?$allocator@D@2@@std@@D@std@@@std@@@std@@@std@@_N@std@@QAE@$$QAV?$_Tree_iterator@V?$_Tree_val@U?$_Tree_simple_types@U?$pair@$$CBV?$basic_string@DU?$char_traits@D@std@@V?$allocator@D@2@@std@@D@std@@@std@@@std@@@1@$$QA_N@Z 100156e0 f i mfdpage.obj
 0001:00014720       ??$?0V?$_Tree_iterator@V?$_Tree_val@U?$_Tree_simple_types@U?$pair@$$CBV?$basic_string@DU?$char_traits@D@std@@V?$allocator@D@2@@std@@H@std@@@std@@@std@@@std@@_NX@?$pair@V?$_Tree_iterator@V?$_Tree_val@U?$_Tree_simple_types@U?$pair@$$CBV?$basic_string@DU?$char_traits@D@std@@V?$allocator@D@2@@std@@H@std@@@std@@@std@@@std@@_N@std@@QAE@$$QAV?$_Tree_iterator@V?$_Tree_val@U?$_Tree_simple_types@U?$pair@$$CBV?$basic_string@DU?$char_traits@D@std@@V?$allocator@D@2@@std@@H@std@@@std@@@std@@@1@$$QA_N@Z 10015720 f i mfdpage.obj
 0001:00014760       ??$?0V?$tuple@$$QAV?$basic_string@DU?$char_traits@D@std@@V?$allocator@D@2@@std@@@std@@V?$tuple@$$$V@1@$0A@$S@?$pair@$$CBV?$basic_string@DU?$char_traits@D@std@@V?$allocator@D@2@@std@@D@std@@QAE@AAV?$tuple@$$QAV?$basic_string@DU?$char_traits@D@std@@V?$allocator@D@2@@std@@@1@AAV?$tuple@$$$V@1@U?$_Arg_idx@$0A@@1@U?$_Arg_idx@$S@1@@Z 10015760 f i mfdpage.obj
 0001:000147a0       ??$?0V?$tuple@$$QAV?$basic_string@DU?$char_traits@D@std@@V?$allocator@D@2@@std@@@std@@V?$tuple@$$$V@1@$0A@$S@?$pair@$$CBV?$basic_string@DU?$char_traits@D@std@@V?$allocator@D@2@@std@@H@std@@QAE@AAV?$tuple@$$QAV?$basic_string@DU?$char_traits@D@std@@V?$allocator@D@2@@std@@@1@AAV?$tuple@$$$V@1@U?$_Arg_idx@$0A@@1@U?$_Arg_idx@$S@1@@Z 100157a0 f i mfdpage.obj
 0001:000147e0       ??$?0V?$tuple@ABH@std@@V?$tuple@$$$V@1@$0A@$S@?$pair@$$CBHPAVobject_t@@@std@@QAE@AAV?$tuple@ABH@1@AAV?$tuple@$$$V@1@U?$_Arg_idx@$0A@@1@U?$_Arg_idx@$S@1@@Z 100157e0 f i mfdpage.obj
 0001:00014820       ??$?0V?$tuple@ABV?$basic_string@DU?$char_traits@D@std@@V?$allocator@D@2@@std@@@std@@V?$tuple@$$$V@1@$0A@$S@?$pair@$$CBV?$basic_string@DU?$char_traits@D@std@@V?$allocator@D@2@@std@@V12@@std@@QAE@AAV?$tuple@ABV?$basic_string@DU?$char_traits@D@std@@V?$allocator@D@2@@std@@@1@AAV?$tuple@$$$V@1@U?$_Arg_idx@$0A@@1@U?$_Arg_idx@$S@1@@Z 10015820 f i mfdpage.obj
 0001:00014860       ??$_Allocate@U?$_Tree_node@U?$pair@$$CBHPAVobject_t@@@std@@PAX@std@@@std@@YAPAU?$_Tree_node@U?$pair@$$CBHPAVobject_t@@@std@@PAX@0@IPAU10@@Z 10015860 f i mfdpage.obj
 0001:000148a0       ??$_Allocate@U?$_Tree_node@U?$pair@$$CBV?$basic_string@DU?$char_traits@D@std@@V?$allocator@D@2@@std@@D@std@@PAX@std@@@std@@YAPAU?$_Tree_node@U?$pair@$$CBV?$basic_string@DU?$char_traits@D@std@@V?$allocator@D@2@@std@@D@std@@PAX@0@IPAU10@@Z 100158a0 f i mfdpage.obj
 0001:000148e0       ??$_Allocate@U?$_Tree_node@U?$pair@$$CBV?$basic_string@DU?$char_traits@D@std@@V?$allocator@D@2@@std@@H@std@@PAX@std@@@std@@YAPAU?$_Tree_node@U?$pair@$$CBV?$basic_string@DU?$char_traits@D@std@@V?$allocator@D@2@@std@@H@std@@PAX@0@IPAU10@@Z 100158e0 f i mfdpage.obj
 0001:00014920       ??$_Buynode@AAU?$pair@$$CBHPAVobject_t@@@std@@@?$_Tree_buy@U?$pair@$$CBHPAVobject_t@@@std@@V?$allocator@U?$pair@$$CBHPAVobject_t@@@std@@@2@@std@@QAEPAU?$_Tree_node@U?$pair@$$CBHPAVobject_t@@@std@@PAX@1@AAU?$pair@$$CBHPAVobject_t@@@1@@Z 10015920 f i mfdpage.obj
 0001:00014a00       ??$_Buynode@ABUpiecewise_construct_t@std@@V?$tuple@$$QAV?$basic_string@DU?$char_traits@D@std@@V?$allocator@D@2@@std@@@2@V?$tuple@$$$V@2@@?$_Tree_buy@U?$pair@$$CBV?$basic_string@DU?$char_traits@D@std@@V?$allocator@D@2@@std@@D@std@@V?$allocator@U?$pair@$$CBV?$basic_string@DU?$char_traits@D@std@@V?$allocator@D@2@@std@@D@std@@@2@@std@@QAEPAU?$_Tree_node@U?$pair@$$CBV?$basic_string@DU?$char_traits@D@std@@V?$allocator@D@2@@std@@D@std@@PAX@1@ABUpiecewise_construct_t@1@$$QAV?$tuple@$$QAV?$basic_string@DU?$char_traits@D@std@@V?$allocator@D@2@@std@@@1@$$QAV?$tuple@$$$V@1@@Z 10015a00 f i mfdpage.obj
 0001:00014b00       ??$_Buynode@ABUpiecewise_construct_t@std@@V?$tuple@$$QAV?$basic_string@DU?$char_traits@D@std@@V?$allocator@D@2@@std@@@2@V?$tuple@$$$V@2@@?$_Tree_buy@U?$pair@$$CBV?$basic_string@DU?$char_traits@D@std@@V?$allocator@D@2@@std@@H@std@@V?$allocator@U?$pair@$$CBV?$basic_string@DU?$char_traits@D@std@@V?$allocator@D@2@@std@@H@std@@@2@@std@@QAEPAU?$_Tree_node@U?$pair@$$CBV?$basic_string@DU?$char_traits@D@std@@V?$allocator@D@2@@std@@H@std@@PAX@1@ABUpiecewise_construct_t@1@$$QAV?$tuple@$$QAV?$basic_string@DU?$char_traits@D@std@@V?$allocator@D@2@@std@@@1@$$QAV?$tuple@$$$V@1@@Z 10015b00 f i mfdpage.obj
 0001:00014c00       ??$_Buynode@ABUpiecewise_construct_t@std@@V?$tuple@ABH@2@V?$tuple@$$$V@2@@?$_Tree_buy@U?$pair@$$CBHPAVobject_t@@@std@@V?$allocator@U?$pair@$$CBHPAVobject_t@@@std@@@2@@std@@QAEPAU?$_Tree_node@U?$pair@$$CBHPAVobject_t@@@std@@PAX@1@ABUpiecewise_construct_t@1@$$QAV?$tuple@ABH@1@$$QAV?$tuple@$$$V@1@@Z 10015c00 f i mfdpage.obj
 0001:00014d00       ??$_Buynode@ABUpiecewise_construct_t@std@@V?$tuple@ABV?$basic_string@DU?$char_traits@D@std@@V?$allocator@D@2@@std@@@2@V?$tuple@$$$V@2@@?$_Tree_buy@U?$pair@$$CBV?$basic_string@DU?$char_traits@D@std@@V?$allocator@D@2@@std@@V12@@std@@V?$allocator@U?$pair@$$CBV?$basic_string@DU?$char_traits@D@std@@V?$allocator@D@2@@std@@V12@@std@@@2@@std@@QAEPAU?$_Tree_node@U?$pair@$$CBV?$basic_string@DU?$char_traits@D@std@@V?$allocator@D@2@@std@@V12@@std@@PAX@1@ABUpiecewise_construct_t@1@$$QAV?$tuple@ABV?$basic_string@DU?$char_traits@D@std@@V?$allocator@D@2@@std@@@1@$$QAV?$tuple@$$$V@1@@Z 10015d00 f i mfdpage.obj
 0001:00014e00       ??$_Buynode_if_nil@AAU?$pair@$$CBHPAVobject_t@@@std@@@?$_Tree@V?$_Tmap_traits@HPAVobject_t@@U?$less@H@std@@V?$allocator@U?$pair@$$CBHPAVobject_t@@@std@@@3@$0A@@std@@@std@@IAEPAU?$_Tree_node@U?$pair@$$CBHPAVobject_t@@@std@@PAX@1@PAU21@AAU?$pair@$$CBHPAVobject_t@@@1@@Z 10015e00 f i mfdpage.obj
 0001:00014e10       ??$_Buynode_if_nil@AAU?$pair@$$CBV?$basic_string@DU?$char_traits@D@std@@V?$allocator@D@2@@std@@D@std@@@?$_Tree@V?$_Tmap_traits@V?$basic_string@DU?$char_traits@D@std@@V?$allocator@D@2@@std@@DU?$less@V?$basic_string@DU?$char_traits@D@std@@V?$allocator@D@2@@std@@@2@V?$allocator@U?$pair@$$CBV?$basic_string@DU?$char_traits@D@std@@V?$allocator@D@2@@std@@D@std@@@2@$0A@@std@@@std@@IAEPAU?$_Tree_node@U?$pair@$$CBV?$basic_string@DU?$char_traits@D@std@@V?$allocator@D@2@@std@@D@std@@PAX@1@PAU21@AAU?$pair@$$CBV?$basic_string@DU?$char_traits@D@std@@V?$allocator@D@2@@std@@D@1@@Z 10015e10 f i mfdpage.obj
 0001:00014e20       ??$_Buynode_if_nil@AAU?$pair@$$CBV?$basic_string@DU?$char_traits@D@std@@V?$allocator@D@2@@std@@H@std@@@?$_Tree@V?$_Tmap_traits@V?$basic_string@DU?$char_traits@D@std@@V?$allocator@D@2@@std@@HU?$less@V?$basic_string@DU?$char_traits@D@std@@V?$allocator@D@2@@std@@@2@V?$allocator@U?$pair@$$CBV?$basic_string@DU?$char_traits@D@std@@V?$allocator@D@2@@std@@H@std@@@2@$0A@@std@@@std@@IAEPAU?$_Tree_node@U?$pair@$$CBV?$basic_string@DU?$char_traits@D@std@@V?$allocator@D@2@@std@@H@std@@PAX@1@PAU21@AAU?$pair@$$CBV?$basic_string@DU?$char_traits@D@std@@V?$allocator@D@2@@std@@H@1@@Z 10015e20 f i mfdpage.obj
 0001:00014e30       ??$_Copy@U?$integral_constant@_N$0A@@std@@@?$_Tree@V?$_Tmap_traits@HPAVobject_t@@U?$less@H@std@@V?$allocator@U?$pair@$$CBHPAVobject_t@@@std@@@3@$0A@@std@@@std@@IAEXABV01@U?$integral_constant@_N$0A@@1@@Z 10015e30 f i mfdpage.obj
 0001:00014ef0       ??$_Copy_nodes@U?$integral_constant@_N$0A@@std@@@?$_Tree@V?$_Tmap_traits@HPAVobject_t@@U?$less@H@std@@V?$allocator@U?$pair@$$CBHPAVobject_t@@@std@@@3@$0A@@std@@@std@@IAEPAU?$_Tree_node@U?$pair@$$CBHPAVobject_t@@@std@@PAX@1@PAU21@0U?$integral_constant@_N$0A@@1@@Z 10015ef0 f i mfdpage.obj
 0001:00015050       ??$_Copy_or_move@U?$integral_constant@_N$0A@@std@@U?$integral_constant@_N$00@2@U12@H@?$_Tree@V?$_Tmap_traits@HPAVobject_t@@U?$less@H@std@@V?$allocator@U?$pair@$$CBHPAVobject_t@@@std@@@3@$0A@@std@@@std@@IAEPAU?$_Tree_node@U?$pair@$$CBHPAVobject_t@@@std@@PAX@1@PAU21@U?$integral_constant@_N$0A@@1@U?$integral_constant@_N$00@1@1H@Z 10016050 f i mfdpage.obj
 0001:00015080       ??$_Insert_at@AAU?$pair@$$CBHPAVobject_t@@@std@@PAU?$_Tree_node@U?$pair@$$CBHPAVobject_t@@@std@@PAX@2@@?$_Tree@V?$_Tmap_traits@HPAVobject_t@@U?$less@H@std@@V?$allocator@U?$pair@$$CBHPAVobject_t@@@std@@@3@$0A@@std@@@std@@IAE?AV?$_Tree_iterator@V?$_Tree_val@U?$_Tree_simple_types@U?$pair@$$CBHPAVobject_t@@@std@@@std@@@std@@@1@_NPAU?$_Tree_node@U?$pair@$$CBHPAVobject_t@@@std@@PAX@1@AAU?$pair@$$CBHPAVobject_t@@@1@1@Z 10016080 f i mfdpage.obj
 0001:000154b0       ??$_Insert_at@AAU?$pair@$$CBV?$basic_string@DU?$char_traits@D@std@@V?$allocator@D@2@@std@@D@std@@PAU?$_Tree_node@U?$pair@$$CBV?$basic_string@DU?$char_traits@D@std@@V?$allocator@D@2@@std@@D@std@@PAX@2@@?$_Tree@V?$_Tmap_traits@V?$basic_string@DU?$char_traits@D@std@@V?$allocator@D@2@@std@@DU?$less@V?$basic_string@DU?$char_traits@D@std@@V?$allocator@D@2@@std@@@2@V?$allocator@U?$pair@$$CBV?$basic_string@DU?$char_traits@D@std@@V?$allocator@D@2@@std@@D@std@@@2@$0A@@std@@@std@@IAE?AV?$_Tree_iterator@V?$_Tree_val@U?$_Tree_simple_types@U?$pair@$$CBV?$basic_string@DU?$char_traits@D@std@@V?$allocator@D@2@@std@@D@std@@@std@@@std@@@1@_NPAU?$_Tree_node@U?$pair@$$CBV?$basic_string@DU?$char_traits@D@std@@V?$allocator@D@2@@std@@D@std@@PAX@1@AAU?$pair@$$CBV?$basic_string@DU?$char_traits@D@std@@V?$allocator@D@2@@std@@D@1@1@Z 100164b0 f i mfdpage.obj
 0001:000158e0       ??$_Insert_at@AAU?$pair@$$CBV?$basic_string@DU?$char_traits@D@std@@V?$allocator@D@2@@std@@H@std@@PAU?$_Tree_node@U?$pair@$$CBV?$basic_string@DU?$char_traits@D@std@@V?$allocator@D@2@@std@@H@std@@PAX@2@@?$_Tree@V?$_Tmap_traits@V?$basic_string@DU?$char_traits@D@std@@V?$allocator@D@2@@std@@HU?$less@V?$basic_string@DU?$char_traits@D@std@@V?$allocator@D@2@@std@@@2@V?$allocator@U?$pair@$$CBV?$basic_string@DU?$char_traits@D@std@@V?$allocator@D@2@@std@@H@std@@@2@$0A@@std@@@std@@IAE?AV?$_Tree_iterator@V?$_Tree_val@U?$_Tree_simple_types@U?$pair@$$CBV?$basic_string@DU?$char_traits@D@std@@V?$allocator@D@2@@std@@H@std@@@std@@@std@@@1@_NPAU?$_Tree_node@U?$pair@$$CBV?$basic_string@DU?$char_traits@D@std@@V?$allocator@D@2@@std@@H@std@@PAX@1@AAU?$pair@$$CBV?$basic_string@DU?$char_traits@D@std@@V?$allocator@D@2@@std@@H@1@1@Z 100168e0 f i mfdpage.obj
 0001:00015d10       ??$_Insert_hint@AAU?$pair@$$CBHPAVobject_t@@@std@@PAU?$_Tree_node@U?$pair@$$CBHPAVobject_t@@@std@@PAX@2@@?$_Tree@V?$_Tmap_traits@HPAVobject_t@@U?$less@H@std@@V?$allocator@U?$pair@$$CBHPAVobject_t@@@std@@@3@$0A@@std@@@std@@IAE?AV?$_Tree_iterator@V?$_Tree_val@U?$_Tree_simple_types@U?$pair@$$CBHPAVobject_t@@@std@@@std@@@std@@@1@V?$_Tree_const_iterator@V?$_Tree_val@U?$_Tree_simple_types@U?$pair@$$CBHPAVobject_t@@@std@@@std@@@std@@@1@AAU?$pair@$$CBHPAVobject_t@@@1@PAU?$_Tree_node@U?$pair@$$CBHPAVobject_t@@@std@@PAX@1@@Z 10016d10 f i mfdpage.obj
 0001:000164c0       ??$_Insert_hint@AAU?$pair@$$CBV?$basic_string@DU?$char_traits@D@std@@V?$allocator@D@2@@std@@D@std@@PAU?$_Tree_node@U?$pair@$$CBV?$basic_string@DU?$char_traits@D@std@@V?$allocator@D@2@@std@@D@std@@PAX@2@@?$_Tree@V?$_Tmap_traits@V?$basic_string@DU?$char_traits@D@std@@V?$allocator@D@2@@std@@DU?$less@V?$basic_string@DU?$char_traits@D@std@@V?$allocator@D@2@@std@@@2@V?$allocator@U?$pair@$$CBV?$basic_string@DU?$char_traits@D@std@@V?$allocator@D@2@@std@@D@std@@@2@$0A@@std@@@std@@IAE?AV?$_Tree_iterator@V?$_Tree_val@U?$_Tree_simple_types@U?$pair@$$CBV?$basic_string@DU?$char_traits@D@std@@V?$allocator@D@2@@std@@D@std@@@std@@@std@@@1@V?$_Tree_const_iterator@V?$_Tree_val@U?$_Tree_simple_types@U?$pair@$$CBV?$basic_string@DU?$char_traits@D@std@@V?$allocator@D@2@@std@@D@std@@@std@@@std@@@1@AAU?$pair@$$CBV?$basic_string@DU?$char_traits@D@std@@V?$allocator@D@2@@std@@D@1@PAU?$_Tree_node@U?$pair@$$CBV?$basic_string@DU?$char_traits@D@std@@V?$allocator@D@2@@std@@D@std@@PAX@1@@Z 100174c0 f i mfdpage.obj
 0001:00016c70       ??$_Insert_hint@AAU?$pair@$$CBV?$basic_string@DU?$char_traits@D@std@@V?$allocator@D@2@@std@@H@std@@PAU?$_Tree_node@U?$pair@$$CBV?$basic_string@DU?$char_traits@D@std@@V?$allocator@D@2@@std@@H@std@@PAX@2@@?$_Tree@V?$_Tmap_traits@V?$basic_string@DU?$char_traits@D@std@@V?$allocator@D@2@@std@@HU?$less@V?$basic_string@DU?$char_traits@D@std@@V?$allocator@D@2@@std@@@2@V?$allocator@U?$pair@$$CBV?$basic_string@DU?$char_traits@D@std@@V?$allocator@D@2@@std@@H@std@@@2@$0A@@std@@@std@@IAE?AV?$_Tree_iterator@V?$_Tree_val@U?$_Tree_simple_types@U?$pair@$$CBV?$basic_string@DU?$char_traits@D@std@@V?$allocator@D@2@@std@@H@std@@@std@@@std@@@1@V?$_Tree_const_iterator@V?$_Tree_val@U?$_Tree_simple_types@U?$pair@$$CBV?$basic_string@DU?$char_traits@D@std@@V?$allocator@D@2@@std@@H@std@@@std@@@std@@@1@AAU?$pair@$$CBV?$basic_string@DU?$char_traits@D@std@@V?$allocator@D@2@@std@@H@1@PAU?$_Tree_node@U?$pair@$$CBV?$basic_string@DU?$char_traits@D@std@@V?$allocator@D@2@@std@@H@std@@PAX@1@@Z 10017c70 f i mfdpage.obj
 0001:00017420       ??$_Insert_nohint@AAU?$pair@$$CBHPAVobject_t@@@std@@PAU?$_Tree_node@U?$pair@$$CBHPAVobject_t@@@std@@PAX@2@@?$_Tree@V?$_Tmap_traits@HPAVobject_t@@U?$less@H@std@@V?$allocator@U?$pair@$$CBHPAVobject_t@@@std@@@3@$0A@@std@@@std@@IAE?AU?$pair@V?$_Tree_iterator@V?$_Tree_val@U?$_Tree_simple_types@U?$pair@$$CBHPAVobject_t@@@std@@@std@@@std@@@std@@_N@1@_NAAU?$pair@$$CBHPAVobject_t@@@1@PAU?$_Tree_node@U?$pair@$$CBHPAVobject_t@@@std@@PAX@1@@Z 10018420 f i mfdpage.obj
 0001:000176f0       ??$_Insert_nohint@AAU?$pair@$$CBV?$basic_string@DU?$char_traits@D@std@@V?$allocator@D@2@@std@@D@std@@PAU?$_Tree_node@U?$pair@$$CBV?$basic_string@DU?$char_traits@D@std@@V?$allocator@D@2@@std@@D@std@@PAX@2@@?$_Tree@V?$_Tmap_traits@V?$basic_string@DU?$char_traits@D@std@@V?$allocator@D@2@@std@@DU?$less@V?$basic_string@DU?$char_traits@D@std@@V?$allocator@D@2@@std@@@2@V?$allocator@U?$pair@$$CBV?$basic_string@DU?$char_traits@D@std@@V?$allocator@D@2@@std@@D@std@@@2@$0A@@std@@@std@@IAE?AU?$pair@V?$_Tree_iterator@V?$_Tree_val@U?$_Tree_simple_types@U?$pair@$$CBV?$basic_string@DU?$char_traits@D@std@@V?$allocator@D@2@@std@@D@std@@@std@@@std@@@std@@_N@1@_NAAU?$pair@$$CBV?$basic_string@DU?$char_traits@D@std@@V?$allocator@D@2@@std@@D@1@PAU?$_Tree_node@U?$pair@$$CBV?$basic_string@DU?$char_traits@D@std@@V?$allocator@D@2@@std@@D@std@@PAX@1@@Z 100186f0 f i mfdpage.obj
 0001:000179c0       ??$_Insert_nohint@AAU?$pair@$$CBV?$basic_string@DU?$char_traits@D@std@@V?$allocator@D@2@@std@@H@std@@PAU?$_Tree_node@U?$pair@$$CBV?$basic_string@DU?$char_traits@D@std@@V?$allocator@D@2@@std@@H@std@@PAX@2@@?$_Tree@V?$_Tmap_traits@V?$basic_string@DU?$char_traits@D@std@@V?$allocator@D@2@@std@@HU?$less@V?$basic_string@DU?$char_traits@D@std@@V?$allocator@D@2@@std@@@2@V?$allocator@U?$pair@$$CBV?$basic_string@DU?$char_traits@D@std@@V?$allocator@D@2@@std@@H@std@@@2@$0A@@std@@@std@@IAE?AU?$pair@V?$_Tree_iterator@V?$_Tree_val@U?$_Tree_simple_types@U?$pair@$$CBV?$basic_string@DU?$char_traits@D@std@@V?$allocator@D@2@@std@@H@std@@@std@@@std@@@std@@_N@1@_NAAU?$pair@$$CBV?$basic_string@DU?$char_traits@D@std@@V?$allocator@D@2@@std@@H@1@PAU?$_Tree_node@U?$pair@$$CBV?$basic_string@DU?$char_traits@D@std@@V?$allocator@D@2@@std@@H@std@@PAX@1@@Z 100189c0 f i mfdpage.obj
 0001:00017c90       ??$_Kfn@$$CBHPAVobject_t@@@?$_Tmap_traits@HPAVobject_t@@U?$less@H@std@@V?$allocator@U?$pair@$$CBHPAVobject_t@@@std@@@3@$0A@@std@@SAABHABU?$pair@$$CBHPAVobject_t@@@1@@Z 10018c90 f i mfdpage.obj
 0001:00017ca0       ??$_Kfn@$$CBV?$basic_string@DU?$char_traits@D@std@@V?$allocator@D@2@@std@@D@?$_Tmap_traits@V?$basic_string@DU?$char_traits@D@std@@V?$allocator@D@2@@std@@DU?$less@V?$basic_string@DU?$char_traits@D@std@@V?$allocator@D@2@@std@@@2@V?$allocator@U?$pair@$$CBV?$basic_string@DU?$char_traits@D@std@@V?$allocator@D@2@@std@@D@std@@@2@$0A@@std@@SAABV?$basic_string@DU?$char_traits@D@std@@V?$allocator@D@2@@1@ABU?$pair@$$CBV?$basic_string@DU?$char_traits@D@std@@V?$allocator@D@2@@std@@D@1@@Z 10018ca0 f i mfdpage.obj
 0001:00017cb0       ??$_Kfn@$$CBV?$basic_string@DU?$char_traits@D@std@@V?$allocator@D@2@@std@@H@?$_Tmap_traits@V?$basic_string@DU?$char_traits@D@std@@V?$allocator@D@2@@std@@HU?$less@V?$basic_string@DU?$char_traits@D@std@@V?$allocator@D@2@@std@@@2@V?$allocator@U?$pair@$$CBV?$basic_string@DU?$char_traits@D@std@@V?$allocator@D@2@@std@@H@std@@@2@$0A@@std@@SAABV?$basic_string@DU?$char_traits@D@std@@V?$allocator@D@2@@1@ABU?$pair@$$CBV?$basic_string@DU?$char_traits@D@std@@V?$allocator@D@2@@std@@H@1@@Z 10018cb0 f i mfdpage.obj
 0001:00017cc0       ??$addressof@PAU?$_Tree_node@U?$pair@$$CBHPAVobject_t@@@std@@PAX@std@@@std@@YAPAPAU?$_Tree_node@U?$pair@$$CBHPAVobject_t@@@std@@PAX@0@AAPAU10@@Z 10018cc0 f i mfdpage.obj
 0001:00017cd0       ??$addressof@PAU?$_Tree_node@U?$pair@$$CBV?$basic_string@DU?$char_traits@D@std@@V?$allocator@D@2@@std@@D@std@@PAX@std@@@std@@YAPAPAU?$_Tree_node@U?$pair@$$CBV?$basic_string@DU?$char_traits@D@std@@V?$allocator@D@2@@std@@D@std@@PAX@0@AAPAU10@@Z 10018cd0 f i mfdpage.obj
 0001:00017ce0       ??$addressof@PAU?$_Tree_node@U?$pair@$$CBV?$basic_string@DU?$char_traits@D@std@@V?$allocator@D@2@@std@@H@std@@PAX@std@@@std@@YAPAPAU?$_Tree_node@U?$pair@$$CBV?$basic_string@DU?$char_traits@D@std@@V?$allocator@D@2@@std@@H@std@@PAX@0@AAPAU10@@Z 10018ce0 f i mfdpage.obj
 0001:00017cf0       ??$addressof@U?$pair@$$CBHPAVobject_t@@@std@@@std@@YAPAU?$pair@$$CBHPAVobject_t@@@0@AAU10@@Z 10018cf0 f i mfdpage.obj
 0001:00017d00       ??$addressof@U?$pair@$$CBV?$basic_string@DU?$char_traits@D@std@@V?$allocator@D@2@@std@@D@std@@@std@@YAPAU?$pair@$$CBV?$basic_string@DU?$char_traits@D@std@@V?$allocator@D@2@@std@@D@0@AAU10@@Z 10018d00 f i mfdpage.obj
 0001:00017d10       ??$addressof@U?$pair@$$CBV?$basic_string@DU?$char_traits@D@std@@V?$allocator@D@2@@std@@H@std@@@std@@YAPAU?$pair@$$CBV?$basic_string@DU?$char_traits@D@std@@V?$allocator@D@2@@std@@H@0@AAU10@@Z 10018d10 f i mfdpage.obj
 0001:00017d20       ??$assign@V?$_String_iterator@V?$_String_val@U?$_Simple_types@D@std@@@std@@@std@@@?$basic_string@DU?$char_traits@D@std@@V?$allocator@D@2@@std@@QAEAAV01@V?$_String_iterator@V?$_String_val@U?$_Simple_types@D@std@@@std@@@1@0@Z 10018d20 f i mfdpage.obj
 0001:00017d70       ??$construct@PAU?$_Tree_node@U?$pair@$$CBHPAVobject_t@@@std@@PAX@std@@AAPAU12@@?$_Wrap_alloc@V?$allocator@U?$_Tree_node@U?$pair@$$CBHPAVobject_t@@@std@@PAX@std@@@std@@@std@@QAEXPAPAU?$_Tree_node@U?$pair@$$CBHPAVobject_t@@@std@@PAX@1@AAPAU21@@Z 10018d70 f i mfdpage.obj
 0001:00017da0       ??$construct@PAU?$_Tree_node@U?$pair@$$CBHPAVobject_t@@@std@@PAX@std@@AAPAU12@@?$allocator@U?$_Tree_node@U?$pair@$$CBHPAVobject_t@@@std@@PAX@std@@@std@@QAEXPAPAU?$_Tree_node@U?$pair@$$CBHPAVobject_t@@@std@@PAX@1@AAPAU21@@Z 10018da0 f i mfdpage.obj
 0001:00017df0       ??$construct@PAU?$_Tree_node@U?$pair@$$CBHPAVobject_t@@@std@@PAX@std@@AAPAU12@@?$allocator_traits@V?$allocator@U?$_Tree_node@U?$pair@$$CBHPAVobject_t@@@std@@PAX@std@@@std@@@std@@SAXAAV?$allocator@U?$_Tree_node@U?$pair@$$CBHPAVobject_t@@@std@@PAX@std@@@1@PAPAU?$_Tree_node@U?$pair@$$CBHPAVobject_t@@@std@@PAX@1@AAPAU31@@Z 10018df0 f i mfdpage.obj
 0001:00017e10       ??$construct@PAU?$_Tree_node@U?$pair@$$CBV?$basic_string@DU?$char_traits@D@std@@V?$allocator@D@2@@std@@D@std@@PAX@std@@AAPAU12@@?$_Wrap_alloc@V?$allocator@U?$_Tree_node@U?$pair@$$CBV?$basic_string@DU?$char_traits@D@std@@V?$allocator@D@2@@std@@D@std@@PAX@std@@@std@@@std@@QAEXPAPAU?$_Tree_node@U?$pair@$$CBV?$basic_string@DU?$char_traits@D@std@@V?$allocator@D@2@@std@@D@std@@PAX@1@AAPAU21@@Z 10018e10 f i mfdpage.obj
 0001:00017e40       ??$construct@PAU?$_Tree_node@U?$pair@$$CBV?$basic_string@DU?$char_traits@D@std@@V?$allocator@D@2@@std@@D@std@@PAX@std@@AAPAU12@@?$allocator@U?$_Tree_node@U?$pair@$$CBV?$basic_string@DU?$char_traits@D@std@@V?$allocator@D@2@@std@@D@std@@PAX@std@@@std@@QAEXPAPAU?$_Tree_node@U?$pair@$$CBV?$basic_string@DU?$char_traits@D@std@@V?$allocator@D@2@@std@@D@std@@PAX@1@AAPAU21@@Z 10018e40 f i mfdpage.obj
 0001:00017e90       ??$construct@PAU?$_Tree_node@U?$pair@$$CBV?$basic_string@DU?$char_traits@D@std@@V?$allocator@D@2@@std@@D@std@@PAX@std@@AAPAU12@@?$allocator_traits@V?$allocator@U?$_Tree_node@U?$pair@$$CBV?$basic_string@DU?$char_traits@D@std@@V?$allocator@D@2@@std@@D@std@@PAX@std@@@std@@@std@@SAXAAV?$allocator@U?$_Tree_node@U?$pair@$$CBV?$basic_string@DU?$char_traits@D@std@@V?$allocator@D@2@@std@@D@std@@PAX@std@@@1@PAPAU?$_Tree_node@U?$pair@$$CBV?$basic_string@DU?$char_traits@D@std@@V?$allocator@D@2@@std@@D@std@@PAX@1@AAPAU31@@Z 10018e90 f i mfdpage.obj
 0001:00017eb0       ??$construct@PAU?$_Tree_node@U?$pair@$$CBV?$basic_string@DU?$char_traits@D@std@@V?$allocator@D@2@@std@@H@std@@PAX@std@@AAPAU12@@?$_Wrap_alloc@V?$allocator@U?$_Tree_node@U?$pair@$$CBV?$basic_string@DU?$char_traits@D@std@@V?$allocator@D@2@@std@@H@std@@PAX@std@@@std@@@std@@QAEXPAPAU?$_Tree_node@U?$pair@$$CBV?$basic_string@DU?$char_traits@D@std@@V?$allocator@D@2@@std@@H@std@@PAX@1@AAPAU21@@Z 10018eb0 f i mfdpage.obj
 0001:00017ee0       ??$construct@PAU?$_Tree_node@U?$pair@$$CBV?$basic_string@DU?$char_traits@D@std@@V?$allocator@D@2@@std@@H@std@@PAX@std@@AAPAU12@@?$allocator@U?$_Tree_node@U?$pair@$$CBV?$basic_string@DU?$char_traits@D@std@@V?$allocator@D@2@@std@@H@std@@PAX@std@@@std@@QAEXPAPAU?$_Tree_node@U?$pair@$$CBV?$basic_string@DU?$char_traits@D@std@@V?$allocator@D@2@@std@@H@std@@PAX@1@AAPAU21@@Z 10018ee0 f i mfdpage.obj
 0001:00017f30       ??$construct@PAU?$_Tree_node@U?$pair@$$CBV?$basic_string@DU?$char_traits@D@std@@V?$allocator@D@2@@std@@H@std@@PAX@std@@AAPAU12@@?$allocator_traits@V?$allocator@U?$_Tree_node@U?$pair@$$CBV?$basic_string@DU?$char_traits@D@std@@V?$allocator@D@2@@std@@H@std@@PAX@std@@@std@@@std@@SAXAAV?$allocator@U?$_Tree_node@U?$pair@$$CBV?$basic_string@DU?$char_traits@D@std@@V?$allocator@D@2@@std@@H@std@@PAX@std@@@1@PAPAU?$_Tree_node@U?$pair@$$CBV?$basic_string@DU?$char_traits@D@std@@V?$allocator@D@2@@std@@H@std@@PAX@1@AAPAU31@@Z 10018f30 f i mfdpage.obj
 0001:00017f50       ??$construct@U?$pair@$$CBHPAVobject_t@@@std@@AAU12@@?$_Wrap_alloc@V?$allocator@U?$_Tree_node@U?$pair@$$CBHPAVobject_t@@@std@@PAX@std@@@std@@@std@@QAEXPAU?$pair@$$CBHPAVobject_t@@@1@AAU21@@Z 10018f50 f i mfdpage.obj
 0001:00017f80       ??$construct@U?$pair@$$CBHPAVobject_t@@@std@@AAU12@@?$allocator@U?$_Tree_node@U?$pair@$$CBHPAVobject_t@@@std@@PAX@std@@@std@@QAEXPAU?$pair@$$CBHPAVobject_t@@@1@AAU21@@Z 10018f80 f i mfdpage.obj
 0001:00017fd0       ??$construct@U?$pair@$$CBHPAVobject_t@@@std@@AAU12@@?$allocator_traits@V?$allocator@U?$_Tree_node@U?$pair@$$CBHPAVobject_t@@@std@@PAX@std@@@std@@@std@@SAXAAV?$allocator@U?$_Tree_node@U?$pair@$$CBHPAVobject_t@@@std@@PAX@std@@@1@PAU?$pair@$$CBHPAVobject_t@@@1@AAU31@@Z 10018fd0 f i mfdpage.obj
 0001:00017ff0       ??$construct@U?$pair@$$CBHPAVobject_t@@@std@@ABUpiecewise_construct_t@2@V?$tuple@ABH@2@V?$tuple@$$$V@2@@?$_Wrap_alloc@V?$allocator@U?$_Tree_node@U?$pair@$$CBHPAVobject_t@@@std@@PAX@std@@@std@@@std@@QAEXPAU?$pair@$$CBHPAVobject_t@@@1@ABUpiecewise_construct_t@1@$$QAV?$tuple@ABH@1@$$QAV?$tuple@$$$V@1@@Z 10018ff0 f i mfdpage.obj
 0001:00018040       ??$construct@U?$pair@$$CBHPAVobject_t@@@std@@ABUpiecewise_construct_t@2@V?$tuple@ABH@2@V?$tuple@$$$V@2@@?$allocator@U?$_Tree_node@U?$pair@$$CBHPAVobject_t@@@std@@PAX@std@@@std@@QAEXPAU?$pair@$$CBHPAVobject_t@@@1@ABUpiecewise_construct_t@1@$$QAV?$tuple@ABH@1@$$QAV?$tuple@$$$V@1@@Z 10019040 f i mfdpage.obj
 0001:000180b0       ??$construct@U?$pair@$$CBHPAVobject_t@@@std@@ABUpiecewise_construct_t@2@V?$tuple@ABH@2@V?$tuple@$$$V@2@@?$allocator_traits@V?$allocator@U?$_Tree_node@U?$pair@$$CBHPAVobject_t@@@std@@PAX@std@@@std@@@std@@SAXAAV?$allocator@U?$_Tree_node@U?$pair@$$CBHPAVobject_t@@@std@@PAX@std@@@1@PAU?$pair@$$CBHPAVobject_t@@@1@ABUpiecewise_construct_t@1@$$QAV?$tuple@ABH@1@$$QAV?$tuple@$$$V@1@@Z 100190b0 f i mfdpage.obj
 0001:000180f0       ??$construct@U?$pair@$$CBV?$basic_string@DU?$char_traits@D@std@@V?$allocator@D@2@@std@@D@std@@ABUpiecewise_construct_t@2@V?$tuple@$$QAV?$basic_string@DU?$char_traits@D@std@@V?$allocator@D@2@@std@@@2@V?$tuple@$$$V@2@@?$_Wrap_alloc@V?$allocator@U?$_Tree_node@U?$pair@$$CBV?$basic_string@DU?$char_traits@D@std@@V?$allocator@D@2@@std@@D@std@@PAX@std@@@std@@@std@@QAEXPAU?$pair@$$CBV?$basic_string@DU?$char_traits@D@std@@V?$allocator@D@2@@std@@D@1@ABUpiecewise_construct_t@1@$$QAV?$tuple@$$QAV?$basic_string@DU?$char_traits@D@std@@V?$allocator@D@2@@std@@@1@$$QAV?$tuple@$$$V@1@@Z 100190f0 f i mfdpage.obj
 0001:00018140       ??$construct@U?$pair@$$CBV?$basic_string@DU?$char_traits@D@std@@V?$allocator@D@2@@std@@D@std@@ABUpiecewise_construct_t@2@V?$tuple@$$QAV?$basic_string@DU?$char_traits@D@std@@V?$allocator@D@2@@std@@@2@V?$tuple@$$$V@2@@?$allocator@U?$_Tree_node@U?$pair@$$CBV?$basic_string@DU?$char_traits@D@std@@V?$allocator@D@2@@std@@D@std@@PAX@std@@@std@@QAEXPAU?$pair@$$CBV?$basic_string@DU?$char_traits@D@std@@V?$allocator@D@2@@std@@D@1@ABUpiecewise_construct_t@1@$$QAV?$tuple@$$QAV?$basic_string@DU?$char_traits@D@std@@V?$allocator@D@2@@std@@@1@$$QAV?$tuple@$$$V@1@@Z 10019140 f i mfdpage.obj
 0001:000181b0       ??$construct@U?$pair@$$CBV?$basic_string@DU?$char_traits@D@std@@V?$allocator@D@2@@std@@D@std@@ABUpiecewise_construct_t@2@V?$tuple@$$QAV?$basic_string@DU?$char_traits@D@std@@V?$allocator@D@2@@std@@@2@V?$tuple@$$$V@2@@?$allocator_traits@V?$allocator@U?$_Tree_node@U?$pair@$$CBV?$basic_string@DU?$char_traits@D@std@@V?$allocator@D@2@@std@@D@std@@PAX@std@@@std@@@std@@SAXAAV?$allocator@U?$_Tree_node@U?$pair@$$CBV?$basic_string@DU?$char_traits@D@std@@V?$allocator@D@2@@std@@D@std@@PAX@std@@@1@PAU?$pair@$$CBV?$basic_string@DU?$char_traits@D@std@@V?$allocator@D@2@@std@@D@1@ABUpiecewise_construct_t@1@$$QAV?$tuple@$$QAV?$basic_string@DU?$char_traits@D@std@@V?$allocator@D@2@@std@@@1@$$QAV?$tuple@$$$V@1@@Z 100191b0 f i mfdpage.obj
 0001:000181f0       ??$construct@U?$pair@$$CBV?$basic_string@DU?$char_traits@D@std@@V?$allocator@D@2@@std@@H@std@@ABUpiecewise_construct_t@2@V?$tuple@$$QAV?$basic_string@DU?$char_traits@D@std@@V?$allocator@D@2@@std@@@2@V?$tuple@$$$V@2@@?$_Wrap_alloc@V?$allocator@U?$_Tree_node@U?$pair@$$CBV?$basic_string@DU?$char_traits@D@std@@V?$allocator@D@2@@std@@H@std@@PAX@std@@@std@@@std@@QAEXPAU?$pair@$$CBV?$basic_string@DU?$char_traits@D@std@@V?$allocator@D@2@@std@@H@1@ABUpiecewise_construct_t@1@$$QAV?$tuple@$$QAV?$basic_string@DU?$char_traits@D@std@@V?$allocator@D@2@@std@@@1@$$QAV?$tuple@$$$V@1@@Z 100191f0 f i mfdpage.obj
 0001:00018240       ??$construct@U?$pair@$$CBV?$basic_string@DU?$char_traits@D@std@@V?$allocator@D@2@@std@@H@std@@ABUpiecewise_construct_t@2@V?$tuple@$$QAV?$basic_string@DU?$char_traits@D@std@@V?$allocator@D@2@@std@@@2@V?$tuple@$$$V@2@@?$allocator@U?$_Tree_node@U?$pair@$$CBV?$basic_string@DU?$char_traits@D@std@@V?$allocator@D@2@@std@@H@std@@PAX@std@@@std@@QAEXPAU?$pair@$$CBV?$basic_string@DU?$char_traits@D@std@@V?$allocator@D@2@@std@@H@1@ABUpiecewise_construct_t@1@$$QAV?$tuple@$$QAV?$basic_string@DU?$char_traits@D@std@@V?$allocator@D@2@@std@@@1@$$QAV?$tuple@$$$V@1@@Z 10019240 f i mfdpage.obj
 0001:000182b0       ??$construct@U?$pair@$$CBV?$basic_string@DU?$char_traits@D@std@@V?$allocator@D@2@@std@@H@std@@ABUpiecewise_construct_t@2@V?$tuple@$$QAV?$basic_string@DU?$char_traits@D@std@@V?$allocator@D@2@@std@@@2@V?$tuple@$$$V@2@@?$allocator_traits@V?$allocator@U?$_Tree_node@U?$pair@$$CBV?$basic_string@DU?$char_traits@D@std@@V?$allocator@D@2@@std@@H@std@@PAX@std@@@std@@@std@@SAXAAV?$allocator@U?$_Tree_node@U?$pair@$$CBV?$basic_string@DU?$char_traits@D@std@@V?$allocator@D@2@@std@@H@std@@PAX@std@@@1@PAU?$pair@$$CBV?$basic_string@DU?$char_traits@D@std@@V?$allocator@D@2@@std@@H@1@ABUpiecewise_construct_t@1@$$QAV?$tuple@$$QAV?$basic_string@DU?$char_traits@D@std@@V?$allocator@D@2@@std@@@1@$$QAV?$tuple@$$$V@1@@Z 100192b0 f i mfdpage.obj
 0001:000182f0       ??$construct@U?$pair@$$CBV?$basic_string@DU?$char_traits@D@std@@V?$allocator@D@2@@std@@V12@@std@@ABUpiecewise_construct_t@2@V?$tuple@ABV?$basic_string@DU?$char_traits@D@std@@V?$allocator@D@2@@std@@@2@V?$tuple@$$$V@2@@?$_Wrap_alloc@V?$allocator@U?$_Tree_node@U?$pair@$$CBV?$basic_string@DU?$char_traits@D@std@@V?$allocator@D@2@@std@@V12@@std@@PAX@std@@@std@@@std@@QAEXPAU?$pair@$$CBV?$basic_string@DU?$char_traits@D@std@@V?$allocator@D@2@@std@@V12@@1@ABUpiecewise_construct_t@1@$$QAV?$tuple@ABV?$basic_string@DU?$char_traits@D@std@@V?$allocator@D@2@@std@@@1@$$QAV?$tuple@$$$V@1@@Z 100192f0 f i mfdpage.obj
 0001:00018340       ??$construct@U?$pair@$$CBV?$basic_string@DU?$char_traits@D@std@@V?$allocator@D@2@@std@@V12@@std@@ABUpiecewise_construct_t@2@V?$tuple@ABV?$basic_string@DU?$char_traits@D@std@@V?$allocator@D@2@@std@@@2@V?$tuple@$$$V@2@@?$allocator@U?$_Tree_node@U?$pair@$$CBV?$basic_string@DU?$char_traits@D@std@@V?$allocator@D@2@@std@@V12@@std@@PAX@std@@@std@@QAEXPAU?$pair@$$CBV?$basic_string@DU?$char_traits@D@std@@V?$allocator@D@2@@std@@V12@@1@ABUpiecewise_construct_t@1@$$QAV?$tuple@ABV?$basic_string@DU?$char_traits@D@std@@V?$allocator@D@2@@std@@@1@$$QAV?$tuple@$$$V@1@@Z 10019340 f i mfdpage.obj
 0001:000183b0       ??$construct@U?$pair@$$CBV?$basic_string@DU?$char_traits@D@std@@V?$allocator@D@2@@std@@V12@@std@@ABUpiecewise_construct_t@2@V?$tuple@ABV?$basic_string@DU?$char_traits@D@std@@V?$allocator@D@2@@std@@@2@V?$tuple@$$$V@2@@?$allocator_traits@V?$allocator@U?$_Tree_node@U?$pair@$$CBV?$basic_string@DU?$char_traits@D@std@@V?$allocator@D@2@@std@@V12@@std@@PAX@std@@@std@@@std@@SAXAAV?$allocator@U?$_Tree_node@U?$pair@$$CBV?$basic_string@DU?$char_traits@D@std@@V?$allocator@D@2@@std@@V12@@std@@PAX@std@@@1@PAU?$pair@$$CBV?$basic_string@DU?$char_traits@D@std@@V?$allocator@D@2@@std@@V12@@1@ABUpiecewise_construct_t@1@$$QAV?$tuple@ABV?$basic_string@DU?$char_traits@D@std@@V?$allocator@D@2@@std@@@1@$$QAV?$tuple@$$$V@1@@Z 100193b0 f i mfdpage.obj
 0001:000183f0       ??$destroy@PAU?$_Tree_node@U?$pair@$$CBHPAVobject_t@@@std@@PAX@std@@@?$_Wrap_alloc@V?$allocator@U?$_Tree_node@U?$pair@$$CBHPAVobject_t@@@std@@PAX@std@@@std@@@std@@QAEXPAPAU?$_Tree_node@U?$pair@$$CBHPAVobject_t@@@std@@PAX@1@@Z 100193f0 f i mfdpage.obj
 0001:00018410       ??$destroy@PAU?$_Tree_node@U?$pair@$$CBHPAVobject_t@@@std@@PAX@std@@@?$allocator@U?$_Tree_node@U?$pair@$$CBHPAVobject_t@@@std@@PAX@std@@@std@@QAEXPAPAU?$_Tree_node@U?$pair@$$CBHPAVobject_t@@@std@@PAX@1@@Z 10019410 f i mfdpage.obj
 0001:00018420       ??$destroy@PAU?$_Tree_node@U?$pair@$$CBHPAVobject_t@@@std@@PAX@std@@@?$allocator_traits@V?$allocator@U?$_Tree_node@U?$pair@$$CBHPAVobject_t@@@std@@PAX@std@@@std@@@std@@SAXAAV?$allocator@U?$_Tree_node@U?$pair@$$CBHPAVobject_t@@@std@@PAX@std@@@1@PAPAU?$_Tree_node@U?$pair@$$CBHPAVobject_t@@@std@@PAX@1@@Z 10019420 f i mfdpage.obj
 0001:00018440       ??$destroy@PAU?$_Tree_node@U?$pair@$$CBV?$basic_string@DU?$char_traits@D@std@@V?$allocator@D@2@@std@@D@std@@PAX@std@@@?$_Wrap_alloc@V?$allocator@U?$_Tree_node@U?$pair@$$CBV?$basic_string@DU?$char_traits@D@std@@V?$allocator@D@2@@std@@D@std@@PAX@std@@@std@@@std@@QAEXPAPAU?$_Tree_node@U?$pair@$$CBV?$basic_string@DU?$char_traits@D@std@@V?$allocator@D@2@@std@@D@std@@PAX@1@@Z 10019440 f i mfdpage.obj
 0001:00018460       ??$destroy@PAU?$_Tree_node@U?$pair@$$CBV?$basic_string@DU?$char_traits@D@std@@V?$allocator@D@2@@std@@D@std@@PAX@std@@@?$allocator@U?$_Tree_node@U?$pair@$$CBV?$basic_string@DU?$char_traits@D@std@@V?$allocator@D@2@@std@@D@std@@PAX@std@@@std@@QAEXPAPAU?$_Tree_node@U?$pair@$$CBV?$basic_string@DU?$char_traits@D@std@@V?$allocator@D@2@@std@@D@std@@PAX@1@@Z 10019460 f i mfdpage.obj
 0001:00018470       ??$destroy@PAU?$_Tree_node@U?$pair@$$CBV?$basic_string@DU?$char_traits@D@std@@V?$allocator@D@2@@std@@D@std@@PAX@std@@@?$allocator_traits@V?$allocator@U?$_Tree_node@U?$pair@$$CBV?$basic_string@DU?$char_traits@D@std@@V?$allocator@D@2@@std@@D@std@@PAX@std@@@std@@@std@@SAXAAV?$allocator@U?$_Tree_node@U?$pair@$$CBV?$basic_string@DU?$char_traits@D@std@@V?$allocator@D@2@@std@@D@std@@PAX@std@@@1@PAPAU?$_Tree_node@U?$pair@$$CBV?$basic_string@DU?$char_traits@D@std@@V?$allocator@D@2@@std@@D@std@@PAX@1@@Z 10019470 f i mfdpage.obj
 0001:00018490       ??$destroy@PAU?$_Tree_node@U?$pair@$$CBV?$basic_string@DU?$char_traits@D@std@@V?$allocator@D@2@@std@@H@std@@PAX@std@@@?$_Wrap_alloc@V?$allocator@U?$_Tree_node@U?$pair@$$CBV?$basic_string@DU?$char_traits@D@std@@V?$allocator@D@2@@std@@H@std@@PAX@std@@@std@@@std@@QAEXPAPAU?$_Tree_node@U?$pair@$$CBV?$basic_string@DU?$char_traits@D@std@@V?$allocator@D@2@@std@@H@std@@PAX@1@@Z 10019490 f i mfdpage.obj
 0001:000184b0       ??$destroy@PAU?$_Tree_node@U?$pair@$$CBV?$basic_string@DU?$char_traits@D@std@@V?$allocator@D@2@@std@@H@std@@PAX@std@@@?$allocator@U?$_Tree_node@U?$pair@$$CBV?$basic_string@DU?$char_traits@D@std@@V?$allocator@D@2@@std@@H@std@@PAX@std@@@std@@QAEXPAPAU?$_Tree_node@U?$pair@$$CBV?$basic_string@DU?$char_traits@D@std@@V?$allocator@D@2@@std@@H@std@@PAX@1@@Z 100194b0 f i mfdpage.obj
 0001:000184c0       ??$destroy@PAU?$_Tree_node@U?$pair@$$CBV?$basic_string@DU?$char_traits@D@std@@V?$allocator@D@2@@std@@H@std@@PAX@std@@@?$allocator_traits@V?$allocator@U?$_Tree_node@U?$pair@$$CBV?$basic_string@DU?$char_traits@D@std@@V?$allocator@D@2@@std@@H@std@@PAX@std@@@std@@@std@@SAXAAV?$allocator@U?$_Tree_node@U?$pair@$$CBV?$basic_string@DU?$char_traits@D@std@@V?$allocator@D@2@@std@@H@std@@PAX@std@@@1@PAPAU?$_Tree_node@U?$pair@$$CBV?$basic_string@DU?$char_traits@D@std@@V?$allocator@D@2@@std@@H@std@@PAX@1@@Z 100194c0 f i mfdpage.obj
 0001:000184e0       ??$destroy@U?$pair@$$CBHPAVobject_t@@@std@@@?$_Wrap_alloc@V?$allocator@U?$_Tree_node@U?$pair@$$CBHPAVobject_t@@@std@@PAX@std@@@std@@@std@@QAEXPAU?$pair@$$CBHPAVobject_t@@@1@@Z 100194e0 f i mfdpage.obj
 0001:00018500       ??$destroy@U?$pair@$$CBHPAVobject_t@@@std@@@?$allocator@U?$_Tree_node@U?$pair@$$CBHPAVobject_t@@@std@@PAX@std@@@std@@QAEXPAU?$pair@$$CBHPAVobject_t@@@1@@Z 10019500 f i mfdpage.obj
 0001:00018510       ??$destroy@U?$pair@$$CBHPAVobject_t@@@std@@@?$allocator_traits@V?$allocator@U?$_Tree_node@U?$pair@$$CBHPAVobject_t@@@std@@PAX@std@@@std@@@std@@SAXAAV?$allocator@U?$_Tree_node@U?$pair@$$CBHPAVobject_t@@@std@@PAX@std@@@1@PAU?$pair@$$CBHPAVobject_t@@@1@@Z 10019510 f i mfdpage.obj
 0001:00018530       ??$destroy@U?$pair@$$CBV?$basic_string@DU?$char_traits@D@std@@V?$allocator@D@2@@std@@D@std@@@?$_Wrap_alloc@V?$allocator@U?$_Tree_node@U?$pair@$$CBV?$basic_string@DU?$char_traits@D@std@@V?$allocator@D@2@@std@@D@std@@PAX@std@@@std@@@std@@QAEXPAU?$pair@$$CBV?$basic_string@DU?$char_traits@D@std@@V?$allocator@D@2@@std@@D@1@@Z 10019530 f i mfdpage.obj
 0001:00018550       ??$destroy@U?$pair@$$CBV?$basic_string@DU?$char_traits@D@std@@V?$allocator@D@2@@std@@D@std@@@?$allocator@U?$_Tree_node@U?$pair@$$CBV?$basic_string@DU?$char_traits@D@std@@V?$allocator@D@2@@std@@D@std@@PAX@std@@@std@@QAEXPAU?$pair@$$CBV?$basic_string@DU?$char_traits@D@std@@V?$allocator@D@2@@std@@D@1@@Z 10019550 f i mfdpage.obj
 0001:00018570       ??$destroy@U?$pair@$$CBV?$basic_string@DU?$char_traits@D@std@@V?$allocator@D@2@@std@@D@std@@@?$allocator_traits@V?$allocator@U?$_Tree_node@U?$pair@$$CBV?$basic_string@DU?$char_traits@D@std@@V?$allocator@D@2@@std@@D@std@@PAX@std@@@std@@@std@@SAXAAV?$allocator@U?$_Tree_node@U?$pair@$$CBV?$basic_string@DU?$char_traits@D@std@@V?$allocator@D@2@@std@@D@std@@PAX@std@@@1@PAU?$pair@$$CBV?$basic_string@DU?$char_traits@D@std@@V?$allocator@D@2@@std@@D@1@@Z 10019570 f i mfdpage.obj
 0001:00018590       ??$destroy@U?$pair@$$CBV?$basic_string@DU?$char_traits@D@std@@V?$allocator@D@2@@std@@H@std@@@?$_Wrap_alloc@V?$allocator@U?$_Tree_node@U?$pair@$$CBV?$basic_string@DU?$char_traits@D@std@@V?$allocator@D@2@@std@@H@std@@PAX@std@@@std@@@std@@QAEXPAU?$pair@$$CBV?$basic_string@DU?$char_traits@D@std@@V?$allocator@D@2@@std@@H@1@@Z 10019590 f i mfdpage.obj
 0001:000185b0       ??$destroy@U?$pair@$$CBV?$basic_string@DU?$char_traits@D@std@@V?$allocator@D@2@@std@@H@std@@@?$allocator@U?$_Tree_node@U?$pair@$$CBV?$basic_string@DU?$char_traits@D@std@@V?$allocator@D@2@@std@@H@std@@PAX@std@@@std@@QAEXPAU?$pair@$$CBV?$basic_string@DU?$char_traits@D@std@@V?$allocator@D@2@@std@@H@1@@Z 100195b0 f i mfdpage.obj
 0001:000185d0       ??$destroy@U?$pair@$$CBV?$basic_string@DU?$char_traits@D@std@@V?$allocator@D@2@@std@@H@std@@@?$allocator_traits@V?$allocator@U?$_Tree_node@U?$pair@$$CBV?$basic_string@DU?$char_traits@D@std@@V?$allocator@D@2@@std@@H@std@@PAX@std@@@std@@@std@@SAXAAV?$allocator@U?$_Tree_node@U?$pair@$$CBV?$basic_string@DU?$char_traits@D@std@@V?$allocator@D@2@@std@@H@std@@PAX@std@@@1@PAU?$pair@$$CBV?$basic_string@DU?$char_traits@D@std@@V?$allocator@D@2@@std@@H@1@@Z 100195d0 f i mfdpage.obj
 0001:000185f0       ??$emplace_hint@ABUpiecewise_construct_t@std@@V?$tuple@$$QAV?$basic_string@DU?$char_traits@D@std@@V?$allocator@D@2@@std@@@2@V?$tuple@$$$V@2@@?$_Tree@V?$_Tmap_traits@V?$basic_string@DU?$char_traits@D@std@@V?$allocator@D@2@@std@@DU?$less@V?$basic_string@DU?$char_traits@D@std@@V?$allocator@D@2@@std@@@2@V?$allocator@U?$pair@$$CBV?$basic_string@DU?$char_traits@D@std@@V?$allocator@D@2@@std@@D@std@@@2@$0A@@std@@@std@@QAE?AV?$_Tree_iterator@V?$_Tree_val@U?$_Tree_simple_types@U?$pair@$$CBV?$basic_string@DU?$char_traits@D@std@@V?$allocator@D@2@@std@@D@std@@@std@@@std@@@1@V?$_Tree_const_iterator@V?$_Tree_val@U?$_Tree_simple_types@U?$pair@$$CBV?$basic_string@DU?$char_traits@D@std@@V?$allocator@D@2@@std@@D@std@@@std@@@std@@@1@ABUpiecewise_construct_t@1@$$QAV?$tuple@$$QAV?$basic_string@DU?$char_traits@D@std@@V?$allocator@D@2@@std@@@1@$$QAV?$tuple@$$$V@1@@Z 100195f0 f i mfdpage.obj
 0001:00018660       ??$emplace_hint@ABUpiecewise_construct_t@std@@V?$tuple@$$QAV?$basic_string@DU?$char_traits@D@std@@V?$allocator@D@2@@std@@@2@V?$tuple@$$$V@2@@?$_Tree@V?$_Tmap_traits@V?$basic_string@DU?$char_traits@D@std@@V?$allocator@D@2@@std@@HU?$less@V?$basic_string@DU?$char_traits@D@std@@V?$allocator@D@2@@std@@@2@V?$allocator@U?$pair@$$CBV?$basic_string@DU?$char_traits@D@std@@V?$allocator@D@2@@std@@H@std@@@2@$0A@@std@@@std@@QAE?AV?$_Tree_iterator@V?$_Tree_val@U?$_Tree_simple_types@U?$pair@$$CBV?$basic_string@DU?$char_traits@D@std@@V?$allocator@D@2@@std@@H@std@@@std@@@std@@@1@V?$_Tree_const_iterator@V?$_Tree_val@U?$_Tree_simple_types@U?$pair@$$CBV?$basic_string@DU?$char_traits@D@std@@V?$allocator@D@2@@std@@H@std@@@std@@@std@@@1@ABUpiecewise_construct_t@1@$$QAV?$tuple@$$QAV?$basic_string@DU?$char_traits@D@std@@V?$allocator@D@2@@std@@@1@$$QAV?$tuple@$$$V@1@@Z 10019660 f i mfdpage.obj
 0001:000186d0       ??$emplace_hint@ABUpiecewise_construct_t@std@@V?$tuple@ABH@2@V?$tuple@$$$V@2@@?$_Tree@V?$_Tmap_traits@HPAVobject_t@@U?$less@H@std@@V?$allocator@U?$pair@$$CBHPAVobject_t@@@std@@@3@$0A@@std@@@std@@QAE?AV?$_Tree_iterator@V?$_Tree_val@U?$_Tree_simple_types@U?$pair@$$CBHPAVobject_t@@@std@@@std@@@std@@@1@V?$_Tree_const_iterator@V?$_Tree_val@U?$_Tree_simple_types@U?$pair@$$CBHPAVobject_t@@@std@@@std@@@std@@@1@ABUpiecewise_construct_t@1@$$QAV?$tuple@ABH@1@$$QAV?$tuple@$$$V@1@@Z 100196d0 f i mfdpage.obj
 0001:00018740       ??$emplace_hint@ABUpiecewise_construct_t@std@@V?$tuple@ABV?$basic_string@DU?$char_traits@D@std@@V?$allocator@D@2@@std@@@2@V?$tuple@$$$V@2@@?$_Tree@V?$_Tmap_traits@V?$basic_string@DU?$char_traits@D@std@@V?$allocator@D@2@@std@@V12@U?$less@V?$basic_string@DU?$char_traits@D@std@@V?$allocator@D@2@@std@@@2@V?$allocator@U?$pair@$$CBV?$basic_string@DU?$char_traits@D@std@@V?$allocator@D@2@@std@@V12@@std@@@2@$0A@@std@@@std@@QAE?AV?$_Tree_iterator@V?$_Tree_val@U?$_Tree_simple_types@U?$pair@$$CBV?$basic_string@DU?$char_traits@D@std@@V?$allocator@D@2@@std@@V12@@std@@@std@@@std@@@1@V?$_Tree_const_iterator@V?$_Tree_val@U?$_Tree_simple_types@U?$pair@$$CBV?$basic_string@DU?$char_traits@D@std@@V?$allocator@D@2@@std@@V12@@std@@@std@@@std@@@1@ABUpiecewise_construct_t@1@$$QAV?$tuple@ABV?$basic_string@DU?$char_traits@D@std@@V?$allocator@D@2@@std@@@1@$$QAV?$tuple@$$$V@1@@Z 10019740 f i mfdpage.obj
 0001:000187b0       ??$forward@AAPAU?$_Tree_node@U?$pair@$$CBHPAVobject_t@@@std@@PAX@std@@@std@@YAAAPAU?$_Tree_node@U?$pair@$$CBHPAVobject_t@@@std@@PAX@0@AAPAU10@@Z 100197b0 f i mfdpage.obj
 0001:000187c0       ??$forward@AAPAU?$_Tree_node@U?$pair@$$CBV?$basic_string@DU?$char_traits@D@std@@V?$allocator@D@2@@std@@D@std@@PAX@std@@@std@@YAAAPAU?$_Tree_node@U?$pair@$$CBV?$basic_string@DU?$char_traits@D@std@@V?$allocator@D@2@@std@@D@std@@PAX@0@AAPAU10@@Z 100197c0 f i mfdpage.obj
 0001:000187d0       ??$forward@AAPAU?$_Tree_node@U?$pair@$$CBV?$basic_string@DU?$char_traits@D@std@@V?$allocator@D@2@@std@@H@std@@PAX@std@@@std@@YAAAPAU?$_Tree_node@U?$pair@$$CBV?$basic_string@DU?$char_traits@D@std@@V?$allocator@D@2@@std@@H@std@@PAX@0@AAPAU10@@Z 100197d0 f i mfdpage.obj
 0001:000187e0       ??$forward@AAU?$pair@$$CBHPAVobject_t@@@std@@@std@@YAAAU?$pair@$$CBHPAVobject_t@@@0@AAU10@@Z 100197e0 f i mfdpage.obj
 0001:000187f0       ??$forward@AAU?$pair@$$CBV?$basic_string@DU?$char_traits@D@std@@V?$allocator@D@2@@std@@D@std@@@std@@YAAAU?$pair@$$CBV?$basic_string@DU?$char_traits@D@std@@V?$allocator@D@2@@std@@D@0@AAU10@@Z 100197f0 f i mfdpage.obj
 0001:00018800       ??$forward@AAU?$pair@$$CBV?$basic_string@DU?$char_traits@D@std@@V?$allocator@D@2@@std@@H@std@@@std@@YAAAU?$pair@$$CBV?$basic_string@DU?$char_traits@D@std@@V?$allocator@D@2@@std@@H@0@AAU10@@Z 10019800 f i mfdpage.obj
 0001:00018810       ??$forward@AAV?$_Tree_iterator@V?$_Tree_val@U?$_Tree_simple_types@U?$pair@$$CBHPAVobject_t@@@std@@@std@@@std@@@std@@@std@@YAAAV?$_Tree_iterator@V?$_Tree_val@U?$_Tree_simple_types@U?$pair@$$CBHPAVobject_t@@@std@@@std@@@std@@@0@AAV10@@Z 10019810 f i mfdpage.obj
 0001:00018820       ??$forward@AAV?$_Tree_iterator@V?$_Tree_val@U?$_Tree_simple_types@U?$pair@$$CBV?$basic_string@DU?$char_traits@D@std@@V?$allocator@D@2@@std@@D@std@@@std@@@std@@@std@@@std@@YAAAV?$_Tree_iterator@V?$_Tree_val@U?$_Tree_simple_types@U?$pair@$$CBV?$basic_string@DU?$char_traits@D@std@@V?$allocator@D@2@@std@@D@std@@@std@@@std@@@0@AAV10@@Z 10019820 f i mfdpage.obj
 0001:00018830       ??$forward@AAV?$_Tree_iterator@V?$_Tree_val@U?$_Tree_simple_types@U?$pair@$$CBV?$basic_string@DU?$char_traits@D@std@@V?$allocator@D@2@@std@@H@std@@@std@@@std@@@std@@@std@@YAAAV?$_Tree_iterator@V?$_Tree_val@U?$_Tree_simple_types@U?$pair@$$CBV?$basic_string@DU?$char_traits@D@std@@V?$allocator@D@2@@std@@H@std@@@std@@@std@@@0@AAV10@@Z 10019830 f i mfdpage.obj
 0001:00018840       ??$forward@ABV?$basic_string@DU?$char_traits@D@std@@V?$allocator@D@2@@std@@@std@@YAABV?$basic_string@DU?$char_traits@D@std@@V?$allocator@D@2@@0@ABV10@@Z 10019840 f i mfdpage.obj
 0001:00018850       ??$forward@V?$_Tree_iterator@V?$_Tree_val@U?$_Tree_simple_types@U?$pair@$$CBHPAVobject_t@@@std@@@std@@@std@@@std@@@std@@YA$$QAV?$_Tree_iterator@V?$_Tree_val@U?$_Tree_simple_types@U?$pair@$$CBHPAVobject_t@@@std@@@std@@@std@@@0@AAV10@@Z 10019850 f i mfdpage.obj
 0001:00018860       ??$forward@V?$_Tree_iterator@V?$_Tree_val@U?$_Tree_simple_types@U?$pair@$$CBV?$basic_string@DU?$char_traits@D@std@@V?$allocator@D@2@@std@@D@std@@@std@@@std@@@std@@@std@@YA$$QAV?$_Tree_iterator@V?$_Tree_val@U?$_Tree_simple_types@U?$pair@$$CBV?$basic_string@DU?$char_traits@D@std@@V?$allocator@D@2@@std@@D@std@@@std@@@std@@@0@AAV10@@Z 10019860 f i mfdpage.obj
 0001:00018870       ??$forward@V?$_Tree_iterator@V?$_Tree_val@U?$_Tree_simple_types@U?$pair@$$CBV?$basic_string@DU?$char_traits@D@std@@V?$allocator@D@2@@std@@H@std@@@std@@@std@@@std@@@std@@YA$$QAV?$_Tree_iterator@V?$_Tree_val@U?$_Tree_simple_types@U?$pair@$$CBV?$basic_string@DU?$char_traits@D@std@@V?$allocator@D@2@@std@@H@std@@@std@@@std@@@0@AAV10@@Z 10019870 f i mfdpage.obj
 0001:00018880       ??$forward@V?$tuple@ABV?$basic_string@DU?$char_traits@D@std@@V?$allocator@D@2@@std@@@std@@@std@@YA$$QAV?$tuple@ABV?$basic_string@DU?$char_traits@D@std@@V?$allocator@D@2@@std@@@0@AAV10@@Z 10019880 f i mfdpage.obj
 0001:00018890       ??$forward_as_tuple@ABV?$basic_string@DU?$char_traits@D@std@@V?$allocator@D@2@@std@@@std@@YA?AV?$tuple@ABV?$basic_string@DU?$char_traits@D@std@@V?$allocator@D@2@@std@@@0@ABV?$basic_string@DU?$char_traits@D@std@@V?$allocator@D@2@@0@@Z 10019890 f i mfdpage.obj
 0001:000188b0       ??$get@$0A@ABV?$basic_string@DU?$char_traits@D@std@@V?$allocator@D@2@@std@@@std@@YAABV?$basic_string@DU?$char_traits@D@std@@V?$allocator@D@2@@0@$$QAV?$tuple@ABV?$basic_string@DU?$char_traits@D@std@@V?$allocator@D@2@@std@@@0@@Z 100198b0 f i mfdpage.obj
 0001:000188d0       ??$getline@DU?$char_traits@D@std@@V?$allocator@D@2@@std@@YAAAV?$basic_istream@DU?$char_traits@D@std@@@0@$$QAV10@AAV?$basic_string@DU?$char_traits@D@std@@V?$allocator@D@2@@0@D@Z 100198d0 f i mfdpage.obj
 0001:00018ab0       ??$getline@DU?$char_traits@D@std@@V?$allocator@D@2@@std@@YAAAV?$basic_istream@DU?$char_traits@D@std@@@0@AAV10@AAV?$basic_string@DU?$char_traits@D@std@@V?$allocator@D@2@@0@D@Z 10019ab0 f i mfdpage.obj
 0001:00018ae0       ??$move@AAV?$basic_istream@DU?$char_traits@D@std@@@std@@@std@@YA$$QAV?$basic_istream@DU?$char_traits@D@std@@@0@AAV10@@Z 10019ae0 f i mfdpage.obj
 0001:00018af0       ??$move@AAV?$tuple@ABV?$basic_string@DU?$char_traits@D@std@@V?$allocator@D@2@@std@@@std@@@std@@YA$$QAV?$tuple@ABV?$basic_string@DU?$char_traits@D@std@@V?$allocator@D@2@@std@@@0@AAV10@@Z 10019af0 f i mfdpage.obj
 0001:00018b00       ??0?$_String_const_iterator@V?$_String_val@U?$_Simple_types@D@std@@@std@@@std@@QAE@PBDPBU_Container_base0@1@@Z 10019b00 f i mfdpage.obj
 0001:00018b30       ??0?$_String_iterator@V?$_String_val@U?$_Simple_types@D@std@@@std@@@std@@QAE@PADPBU_Container_base0@1@@Z 10019b30 f i mfdpage.obj
 0001:00018b50       ??0?$_Tree@V?$_Tmap_traits@HPAVobject_t@@U?$less@H@std@@V?$allocator@U?$pair@$$CBHPAVobject_t@@@std@@@3@$0A@@std@@@std@@QAE@ABU?$less@H@1@ABV?$allocator@U?$pair@$$CBHPAVobject_t@@@std@@@1@@Z 10019b50 f i mfdpage.obj
 0001:00018b70       ??0?$_Tree@V?$_Tmap_traits@HPAVobject_t@@U?$less@H@std@@V?$allocator@U?$pair@$$CBHPAVobject_t@@@std@@@3@$0A@@std@@@std@@QAE@ABV01@ABV?$allocator@U?$pair@$$CBHPAVobject_t@@@std@@@1@@Z 10019b70 f i mfdpage.obj
 0001:00018c20       ??0?$_Tree@V?$_Tmap_traits@V?$basic_string@DU?$char_traits@D@std@@V?$allocator@D@2@@std@@HU?$less@V?$basic_string@DU?$char_traits@D@std@@V?$allocator@D@2@@std@@@2@V?$allocator@U?$pair@$$CBV?$basic_string@DU?$char_traits@D@std@@V?$allocator@D@2@@std@@H@std@@@2@$0A@@std@@@std@@QAE@ABU?$less@V?$basic_string@DU?$char_traits@D@std@@V?$allocator@D@2@@std@@@1@ABV?$allocator@U?$pair@$$CBV?$basic_string@DU?$char_traits@D@std@@V?$allocator@D@2@@std@@H@std@@@1@@Z 10019c20 f i mfdpage.obj
 0001:00018c40       ??0?$_Tree_alloc@$0A@U?$_Tree_base_types@U?$pair@$$CBHPAVobject_t@@@std@@V?$allocator@U?$pair@$$CBHPAVobject_t@@@std@@@2@@std@@@std@@QAE@ABV?$allocator@U?$pair@$$CBHPAVobject_t@@@std@@@1@@Z 10019c40 f i mfdpage.obj
 0001:00018c70       ??0?$_Tree_alloc@$0A@U?$_Tree_base_types@U?$pair@$$CBV?$basic_string@DU?$char_traits@D@std@@V?$allocator@D@2@@std@@H@std@@V?$allocator@U?$pair@$$CBV?$basic_string@DU?$char_traits@D@std@@V?$allocator@D@2@@std@@H@std@@@2@@std@@@std@@QAE@ABV?$allocator@U?$pair@$$CBV?$basic_string@DU?$char_traits@D@std@@V?$allocator@D@2@@std@@H@std@@@1@@Z 10019c70 f i mfdpage.obj
 0001:00018ca0       ??0?$_Tree_buy@U?$pair@$$CBHPAVobject_t@@@std@@V?$allocator@U?$pair@$$CBHPAVobject_t@@@std@@@2@@std@@QAE@ABV?$allocator@U?$pair@$$CBHPAVobject_t@@@std@@@1@@Z 10019ca0 f i mfdpage.obj
 0001:00018cc0       ??0?$_Tree_buy@U?$pair@$$CBV?$basic_string@DU?$char_traits@D@std@@V?$allocator@D@2@@std@@H@std@@V?$allocator@U?$pair@$$CBV?$basic_string@DU?$char_traits@D@std@@V?$allocator@D@2@@std@@H@std@@@2@@std@@QAE@ABV?$allocator@U?$pair@$$CBV?$basic_string@DU?$char_traits@D@std@@V?$allocator@D@2@@std@@H@std@@@1@@Z 10019cc0 f i mfdpage.obj
 0001:00018ce0       ??0?$_Tree_comp@$0A@V?$_Tmap_traits@HPAVobject_t@@U?$less@H@std@@V?$allocator@U?$pair@$$CBHPAVobject_t@@@std@@@3@$0A@@std@@@std@@QAE@ABU?$less@H@1@ABV?$allocator@U?$pair@$$CBHPAVobject_t@@@std@@@1@@Z 10019ce0 f i mfdpage.obj
 0001:00018d00       ??0?$_Tree_comp@$0A@V?$_Tmap_traits@V?$basic_string@DU?$char_traits@D@std@@V?$allocator@D@2@@std@@HU?$less@V?$basic_string@DU?$char_traits@D@std@@V?$allocator@D@2@@std@@@2@V?$allocator@U?$pair@$$CBV?$basic_string@DU?$char_traits@D@std@@V?$allocator@D@2@@std@@H@std@@@2@$0A@@std@@@std@@QAE@ABU?$less@V?$basic_string@DU?$char_traits@D@std@@V?$allocator@D@2@@std@@@1@ABV?$allocator@U?$pair@$$CBV?$basic_string@DU?$char_traits@D@std@@V?$allocator@D@2@@std@@H@std@@@1@@Z 10019d00 f i mfdpage.obj
 0001:00018d20       ??0?$_Tree_const_iterator@V?$_Tree_val@U?$_Tree_simple_types@U?$pair@$$CBHPAVobject_t@@@std@@@std@@@std@@@std@@QAE@PAU?$_Tree_node@U?$pair@$$CBHPAVobject_t@@@std@@PAX@1@PBV?$_Tree_val@U?$_Tree_simple_types@U?$pair@$$CBHPAVobject_t@@@std@@@std@@@1@@Z 10019d20 f i mfdpage.obj
 0001:00018d40       ??0?$_Tree_const_iterator@V?$_Tree_val@U?$_Tree_simple_types@U?$pair@$$CBHPAVobject_t@@@std@@@std@@@std@@@std@@QAE@XZ 10019d40 f i mfdpage.obj
 0001:00018d60       ??0?$_Tree_const_iterator@V?$_Tree_val@U?$_Tree_simple_types@U?$pair@$$CBV?$basic_string@DU?$char_traits@D@std@@V?$allocator@D@2@@std@@D@std@@@std@@@std@@@std@@QAE@PAU?$_Tree_node@U?$pair@$$CBV?$basic_string@DU?$char_traits@D@std@@V?$allocator@D@2@@std@@D@std@@PAX@1@PBV?$_Tree_val@U?$_Tree_simple_types@U?$pair@$$CBV?$basic_string@DU?$char_traits@D@std@@V?$allocator@D@2@@std@@D@std@@@std@@@1@@Z 10019d60 f i mfdpage.obj
 0001:00018d80       ??0?$_Tree_const_iterator@V?$_Tree_val@U?$_Tree_simple_types@U?$pair@$$CBV?$basic_string@DU?$char_traits@D@std@@V?$allocator@D@2@@std@@D@std@@@std@@@std@@@std@@QAE@XZ 10019d80 f i mfdpage.obj
 0001:00018da0       ??0?$_Tree_const_iterator@V?$_Tree_val@U?$_Tree_simple_types@U?$pair@$$CBV?$basic_string@DU?$char_traits@D@std@@V?$allocator@D@2@@std@@H@std@@@std@@@std@@@std@@QAE@PAU?$_Tree_node@U?$pair@$$CBV?$basic_string@DU?$char_traits@D@std@@V?$allocator@D@2@@std@@H@std@@PAX@1@PBV?$_Tree_val@U?$_Tree_simple_types@U?$pair@$$CBV?$basic_string@DU?$char_traits@D@std@@V?$allocator@D@2@@std@@H@std@@@std@@@1@@Z 10019da0 f i mfdpage.obj
 0001:00018dc0       ??0?$_Tree_const_iterator@V?$_Tree_val@U?$_Tree_simple_types@U?$pair@$$CBV?$basic_string@DU?$char_traits@D@std@@V?$allocator@D@2@@std@@H@std@@@std@@@std@@@std@@QAE@XZ 10019dc0 f i mfdpage.obj
 0001:00018de0       ??0?$_Tree_iterator@V?$_Tree_val@U?$_Tree_simple_types@U?$pair@$$CBHPAVobject_t@@@std@@@std@@@std@@@std@@QAE@PAU?$_Tree_node@U?$pair@$$CBHPAVobject_t@@@std@@PAX@1@PBV?$_Tree_val@U?$_Tree_simple_types@U?$pair@$$CBHPAVobject_t@@@std@@@std@@@1@@Z 10019de0 f i mfdpage.obj
 0001:00018e00       ??0?$_Tree_iterator@V?$_Tree_val@U?$_Tree_simple_types@U?$pair@$$CBV?$basic_string@DU?$char_traits@D@std@@V?$allocator@D@2@@std@@D@std@@@std@@@std@@@std@@QAE@PAU?$_Tree_node@U?$pair@$$CBV?$basic_string@DU?$char_traits@D@std@@V?$allocator@D@2@@std@@D@std@@PAX@1@PBV?$_Tree_val@U?$_Tree_simple_types@U?$pair@$$CBV?$basic_string@DU?$char_traits@D@std@@V?$allocator@D@2@@std@@D@std@@@std@@@1@@Z 10019e00 f i mfdpage.obj
 0001:00018e20       ??0?$_Tree_iterator@V?$_Tree_val@U?$_Tree_simple_types@U?$pair@$$CBV?$basic_string@DU?$char_traits@D@std@@V?$allocator@D@2@@std@@H@std@@@std@@@std@@@std@@QAE@PAU?$_Tree_node@U?$pair@$$CBV?$basic_string@DU?$char_traits@D@std@@V?$allocator@D@2@@std@@H@std@@PAX@1@PBV?$_Tree_val@U?$_Tree_simple_types@U?$pair@$$CBV?$basic_string@DU?$char_traits@D@std@@V?$allocator@D@2@@std@@H@std@@@std@@@1@@Z 10019e20 f i mfdpage.obj
 0001:00018e40       ??0?$_Tree_unchecked_const_iterator@V?$_Tree_val@U?$_Tree_simple_types@U?$pair@$$CBHPAVobject_t@@@std@@@std@@@std@@U_Iterator_base0@2@@std@@QAE@PAU?$_Tree_node@U?$pair@$$CBHPAVobject_t@@@std@@PAX@1@PBV?$_Tree_val@U?$_Tree_simple_types@U?$pair@$$CBHPAVobject_t@@@std@@@std@@@1@@Z 10019e40 f i mfdpage.obj
 0001:00018e70       ??0?$_Tree_unchecked_const_iterator@V?$_Tree_val@U?$_Tree_simple_types@U?$pair@$$CBHPAVobject_t@@@std@@@std@@@std@@U_Iterator_base0@2@@std@@QAE@XZ 10019e70 f i mfdpage.obj
 0001:00018e90       ??0?$_Tree_unchecked_const_iterator@V?$_Tree_val@U?$_Tree_simple_types@U?$pair@$$CBV?$basic_string@DU?$char_traits@D@std@@V?$allocator@D@2@@std@@D@std@@@std@@@std@@U_Iterator_base0@2@@std@@QAE@PAU?$_Tree_node@U?$pair@$$CBV?$basic_string@DU?$char_traits@D@std@@V?$allocator@D@2@@std@@D@std@@PAX@1@PBV?$_Tree_val@U?$_Tree_simple_types@U?$pair@$$CBV?$basic_string@DU?$char_traits@D@std@@V?$allocator@D@2@@std@@D@std@@@std@@@1@@Z 10019e90 f i mfdpage.obj
 0001:00018ec0       ??0?$_Tree_unchecked_const_iterator@V?$_Tree_val@U?$_Tree_simple_types@U?$pair@$$CBV?$basic_string@DU?$char_traits@D@std@@V?$allocator@D@2@@std@@D@std@@@std@@@std@@U_Iterator_base0@2@@std@@QAE@XZ 10019ec0 f i mfdpage.obj
 0001:00018ee0       ??0?$_Tree_unchecked_const_iterator@V?$_Tree_val@U?$_Tree_simple_types@U?$pair@$$CBV?$basic_string@DU?$char_traits@D@std@@V?$allocator@D@2@@std@@H@std@@@std@@@std@@U_Iterator_base0@2@@std@@QAE@PAU?$_Tree_node@U?$pair@$$CBV?$basic_string@DU?$char_traits@D@std@@V?$allocator@D@2@@std@@H@std@@PAX@1@PBV?$_Tree_val@U?$_Tree_simple_types@U?$pair@$$CBV?$basic_string@DU?$char_traits@D@std@@V?$allocator@D@2@@std@@H@std@@@std@@@1@@Z 10019ee0 f i mfdpage.obj
 0001:00018f10       ??0?$_Tree_unchecked_const_iterator@V?$_Tree_val@U?$_Tree_simple_types@U?$pair@$$CBV?$basic_string@DU?$char_traits@D@std@@V?$allocator@D@2@@std@@H@std@@@std@@@std@@U_Iterator_base0@2@@std@@QAE@XZ 10019f10 f i mfdpage.obj
 0001:00018f30       ??0?$_Tree_val@U?$_Tree_simple_types@U?$pair@$$CBHPAVobject_t@@@std@@@std@@@std@@QAE@XZ 10019f30 f i mfdpage.obj
 0001:00018f60       ??0?$_Tree_val@U?$_Tree_simple_types@U?$pair@$$CBV?$basic_string@DU?$char_traits@D@std@@V?$allocator@D@2@@std@@H@std@@@std@@@std@@QAE@XZ 10019f60 f i mfdpage.obj
 0001:00018f90       ??0?$_Wrap_alloc@V?$allocator@U?$_Tree_node@U?$pair@$$CBHPAVobject_t@@@std@@PAX@std@@@std@@@std@@QAE@ABV?$allocator@U?$_Tree_node@U?$pair@$$CBHPAVobject_t@@@std@@PAX@std@@@1@@Z 10019f90 f i mfdpage.obj
 0001:00018fb0       ??0?$_Wrap_alloc@V?$allocator@U?$_Tree_node@U?$pair@$$CBHPAVobject_t@@@std@@PAX@std@@@std@@@std@@QAE@XZ 10019fb0 f i mfdpage.obj
 0001:00018fd0       ??0?$_Wrap_alloc@V?$allocator@U?$_Tree_node@U?$pair@$$CBV?$basic_string@DU?$char_traits@D@std@@V?$allocator@D@2@@std@@D@std@@PAX@std@@@std@@@std@@QAE@XZ 10019fd0 f i mfdpage.obj
 0001:00018ff0       ??0?$_Wrap_alloc@V?$allocator@U?$_Tree_node@U?$pair@$$CBV?$basic_string@DU?$char_traits@D@std@@V?$allocator@D@2@@std@@H@std@@PAX@std@@@std@@@std@@QAE@XZ 10019ff0 f i mfdpage.obj
 0001:00019010       ??0?$allocator@U?$_Tree_node@U?$pair@$$CBHPAVobject_t@@@std@@PAX@std@@@std@@QAE@ABV01@@Z 1001a010 f i mfdpage.obj
 0001:00019020       ??0?$allocator@U?$_Tree_node@U?$pair@$$CBHPAVobject_t@@@std@@PAX@std@@@std@@QAE@XZ 1001a020 f i mfdpage.obj
 0001:00019030       ??0?$allocator@U?$_Tree_node@U?$pair@$$CBV?$basic_string@DU?$char_traits@D@std@@V?$allocator@D@2@@std@@D@std@@PAX@std@@@std@@QAE@XZ 1001a030 f i mfdpage.obj
 0001:00019040       ??0?$allocator@U?$_Tree_node@U?$pair@$$CBV?$basic_string@DU?$char_traits@D@std@@V?$allocator@D@2@@std@@H@std@@PAX@std@@@std@@QAE@XZ 1001a040 f i mfdpage.obj
 0001:00019050       ??0?$allocator@U?$pair@$$CBHPAVobject_t@@@std@@@std@@QAE@XZ 1001a050 f i mfdpage.obj
 0001:00019060       ??0?$allocator@U?$pair@$$CBV?$basic_string@DU?$char_traits@D@std@@V?$allocator@D@2@@std@@H@std@@@std@@QAE@XZ 1001a060 f i mfdpage.obj
 0001:00019070       ??0?$basic_stringbuf@DU?$char_traits@D@std@@V?$allocator@D@2@@std@@QAE@ABV?$basic_string@DU?$char_traits@D@std@@V?$allocator@D@2@@1@H@Z 1001a070 f i mfdpage.obj
 0001:000190d0       ??0?$basic_stringstream@DU?$char_traits@D@std@@V?$allocator@D@2@@std@@QAE@ABV?$basic_string@DU?$char_traits@D@std@@V?$allocator@D@2@@1@H@Z 1001a0d0 f i mfdpage.obj
 0001:00019170       ??0?$map@HPAVobject_t@@U?$less@H@std@@V?$allocator@U?$pair@$$CBHPAVobject_t@@@std@@@3@@std@@QAE@ABV01@@Z 1001a170 f i mfdpage.obj
 0001:000191c0       ??0?$map@HPAVobject_t@@U?$less@H@std@@V?$allocator@U?$pair@$$CBHPAVobject_t@@@std@@@3@@std@@QAE@XZ 1001a1c0 f i mfdpage.obj
 0001:000191f0       ??0?$map@V?$basic_string@DU?$char_traits@D@std@@V?$allocator@D@2@@std@@HU?$less@V?$basic_string@DU?$char_traits@D@std@@V?$allocator@D@2@@std@@@2@V?$allocator@U?$pair@$$CBV?$basic_string@DU?$char_traits@D@std@@V?$allocator@D@2@@std@@H@std@@@2@@std@@QAE@XZ 1001a1f0 f i mfdpage.obj
 0001:00019220       ??0?$tuple@ABV?$basic_string@DU?$char_traits@D@std@@V?$allocator@D@2@@std@@@std@@QAE@ABV?$basic_string@DU?$char_traits@D@std@@V?$allocator@D@2@@1@@Z 1001a220 f i mfdpage.obj
 0001:00019250       ??0_Sentry_base@?$basic_istream@DU?$char_traits@D@std@@@std@@QAE@AAV12@@Z 1001a250 f i mfdpage.obj
 0001:000192b0       ??0listener_t@@QAE@XZ      1001a2b0 f i mfdpage.obj
 0001:000192d0       ??0sentry@?$basic_istream@DU?$char_traits@D@std@@@std@@QAE@AAV12@_N@Z 1001a2d0 f i mfdpage.obj
 0001:00019310       ??1?$_Tree@V?$_Tmap_traits@HPAVobject_t@@U?$less@H@std@@V?$allocator@U?$pair@$$CBHPAVobject_t@@@std@@@3@$0A@@std@@@std@@QAE@XZ 1001a310 f i mfdpage.obj
 0001:00019330       ??1?$_Tree@V?$_Tmap_traits@HV?$basic_string@DU?$char_traits@D@std@@V?$allocator@D@2@@std@@U?$less@H@2@V?$allocator@U?$pair@$$CBHV?$basic_string@DU?$char_traits@D@std@@V?$allocator@D@2@@std@@@std@@@2@$0A@@std@@@std@@QAE@XZ 1001a330 f i mfdpage.obj
 0001:00019350       ??1?$_Tree@V?$_Tmap_traits@V?$basic_string@DU?$char_traits@D@std@@V?$allocator@D@2@@std@@HU?$less@V?$basic_string@DU?$char_traits@D@std@@V?$allocator@D@2@@std@@@2@V?$allocator@U?$pair@$$CBV?$basic_string@DU?$char_traits@D@std@@V?$allocator@D@2@@std@@H@std@@@2@$0A@@std@@@std@@QAE@XZ 1001a350 f i mfdpage.obj
 0001:00019370       ??1?$_Tree_alloc@$0A@U?$_Tree_base_types@U?$pair@$$CBHPAVobject_t@@@std@@V?$allocator@U?$pair@$$CBHPAVobject_t@@@std@@@2@@std@@@std@@QAE@XZ 1001a370 f i mfdpage.obj
 0001:00019390       ??1?$_Tree_alloc@$0A@U?$_Tree_base_types@U?$pair@$$CBHV?$basic_string@DU?$char_traits@D@std@@V?$allocator@D@2@@std@@@std@@V?$allocator@U?$pair@$$CBHV?$basic_string@DU?$char_traits@D@std@@V?$allocator@D@2@@std@@@std@@@2@@std@@@std@@QAE@XZ 1001a390 f i mfdpage.obj
 0001:000193b0       ??1?$_Tree_alloc@$0A@U?$_Tree_base_types@U?$pair@$$CBV?$basic_string@DU?$char_traits@D@std@@V?$allocator@D@2@@std@@H@std@@V?$allocator@U?$pair@$$CBV?$basic_string@DU?$char_traits@D@std@@V?$allocator@D@2@@std@@H@std@@@2@@std@@@std@@QAE@XZ 1001a3b0 f i mfdpage.obj
 0001:000193d0       ??1?$_Tree_buy@U?$pair@$$CBHPAVobject_t@@@std@@V?$allocator@U?$pair@$$CBHPAVobject_t@@@std@@@2@@std@@QAE@XZ 1001a3d0 f i mfdpage.obj
 0001:000193f0       ??1?$_Tree_buy@U?$pair@$$CBHV?$basic_string@DU?$char_traits@D@std@@V?$allocator@D@2@@std@@@std@@V?$allocator@U?$pair@$$CBHV?$basic_string@DU?$char_traits@D@std@@V?$allocator@D@2@@std@@@std@@@2@@std@@QAE@XZ 1001a3f0 f i mfdpage.obj
 0001:00019410       ??1?$_Tree_buy@U?$pair@$$CBV?$basic_string@DU?$char_traits@D@std@@V?$allocator@D@2@@std@@H@std@@V?$allocator@U?$pair@$$CBV?$basic_string@DU?$char_traits@D@std@@V?$allocator@D@2@@std@@H@std@@@2@@std@@QAE@XZ 1001a410 f i mfdpage.obj
 0001:00019430       ??1?$_Tree_comp@$0A@V?$_Tmap_traits@HPAVobject_t@@U?$less@H@std@@V?$allocator@U?$pair@$$CBHPAVobject_t@@@std@@@3@$0A@@std@@@std@@QAE@XZ 1001a430 f i mfdpage.obj
 0001:00019450       ??1?$_Tree_comp@$0A@V?$_Tmap_traits@HV?$basic_string@DU?$char_traits@D@std@@V?$allocator@D@2@@std@@U?$less@H@2@V?$allocator@U?$pair@$$CBHV?$basic_string@DU?$char_traits@D@std@@V?$allocator@D@2@@std@@@std@@@2@$0A@@std@@@std@@QAE@XZ 1001a450 f i mfdpage.obj
 0001:00019470       ??1?$_Tree_comp@$0A@V?$_Tmap_traits@V?$basic_string@DU?$char_traits@D@std@@V?$allocator@D@2@@std@@HU?$less@V?$basic_string@DU?$char_traits@D@std@@V?$allocator@D@2@@std@@@2@V?$allocator@U?$pair@$$CBV?$basic_string@DU?$char_traits@D@std@@V?$allocator@D@2@@std@@H@std@@@2@$0A@@std@@@std@@QAE@XZ 1001a470 f i mfdpage.obj
 0001:00019490       ??1?$basic_stringstream@DU?$char_traits@D@std@@V?$allocator@D@2@@std@@UAE@XZ 1001a490 f i mfdpage.obj
 0001:000194f0       ??1?$map@HPAVobject_t@@U?$less@H@std@@V?$allocator@U?$pair@$$CBHPAVobject_t@@@std@@@3@@std@@QAE@XZ 1001a4f0 f i mfdpage.obj
 0001:00019510       ??1?$map@HV?$basic_string@DU?$char_traits@D@std@@V?$allocator@D@2@@std@@U?$less@H@2@V?$allocator@U?$pair@$$CBHV?$basic_string@DU?$char_traits@D@std@@V?$allocator@D@2@@std@@@std@@@2@@std@@QAE@XZ 1001a510 f i mfdpage.obj
 0001:00019530       ??1?$map@V?$basic_string@DU?$char_traits@D@std@@V?$allocator@D@2@@std@@HU?$less@V?$basic_string@DU?$char_traits@D@std@@V?$allocator@D@2@@std@@@2@V?$allocator@U?$pair@$$CBV?$basic_string@DU?$char_traits@D@std@@V?$allocator@D@2@@std@@H@std@@@2@@std@@QAE@XZ 1001a530 f i mfdpage.obj
 0001:00019550       ??1?$pair@$$CBV?$basic_string@DU?$char_traits@D@std@@V?$allocator@D@2@@std@@D@std@@QAE@XZ 1001a550 f i mfdpage.obj
 0001:00019570       ??1?$pair@$$CBV?$basic_string@DU?$char_traits@D@std@@V?$allocator@D@2@@std@@H@std@@QAE@XZ 1001a570 f i mfdpage.obj
 0001:00019590       ??1_Sentry_base@?$basic_istream@DU?$char_traits@D@std@@@std@@QAE@XZ 1001a590 f i mfdpage.obj
 0001:000195f0       ??1listener_t@@UAE@XZ      1001a5f0 f i mfdpage.obj
 0001:00019610       ??1sentry@?$basic_istream@DU?$char_traits@D@std@@@std@@QAE@XZ 1001a610 f i mfdpage.obj
 0001:00019630       ??4?$basic_string@DU?$char_traits@D@std@@V?$allocator@D@2@@std@@QAEAAV01@$$QAV01@@Z 1001a630 f i mfdpage.obj
 0001:000196e0       ??8?$_String_const_iterator@V?$_String_val@U?$_Simple_types@D@std@@@std@@@std@@QBE_NABV01@@Z 1001a6e0 f i mfdpage.obj
 0001:00019720       ??8?$_Tree_const_iterator@V?$_Tree_val@U?$_Tree_simple_types@U?$pair@$$CBHPAVobject_t@@@std@@@std@@@std@@@std@@QBE_NABV01@@Z 1001a720 f i mfdpage.obj
 0001:00019750       ??8?$_Tree_const_iterator@V?$_Tree_val@U?$_Tree_simple_types@U?$pair@$$CBV?$basic_string@DU?$char_traits@D@std@@V?$allocator@D@2@@std@@D@std@@@std@@@std@@@std@@QBE_NABV01@@Z 1001a750 f i mfdpage.obj
 0001:00019780       ??8?$_Tree_const_iterator@V?$_Tree_val@U?$_Tree_simple_types@U?$pair@$$CBV?$basic_string@DU?$char_traits@D@std@@V?$allocator@D@2@@std@@H@std@@@std@@@std@@@std@@QBE_NABV01@@Z 1001a780 f i mfdpage.obj
 0001:000197b0       ??9?$_Tree_const_iterator@V?$_Tree_val@U?$_Tree_simple_types@U?$pair@$$CBHPAVobject_t@@@std@@@std@@@std@@@std@@QBE_NABV01@@Z 1001a7b0 f i mfdpage.obj
 0001:000197f0       ??9?$_Tree_const_iterator@V?$_Tree_val@U?$_Tree_simple_types@U?$pair@$$CBHV?$basic_string@DU?$char_traits@D@std@@V?$allocator@D@2@@std@@@std@@@std@@@std@@@std@@QBE_NABV01@@Z 1001a7f0 f i mfdpage.obj
 0001:00019830       ??9?$_Tree_const_iterator@V?$_Tree_val@U?$_Tree_simple_types@U?$pair@$$CBV?$basic_string@DU?$char_traits@D@std@@V?$allocator@D@2@@std@@H@std@@@std@@@std@@@std@@QBE_NABV01@@Z 1001a830 f i mfdpage.obj
 0001:00019870       ??A?$map@HPAVobject_t@@U?$less@H@std@@V?$allocator@U?$pair@$$CBHPAVobject_t@@@std@@@3@@std@@QAEAAPAVobject_t@@ABH@Z 1001a870 f i mfdpage.obj
 0001:00019920       ??A?$map@V?$basic_string@DU?$char_traits@D@std@@V?$allocator@D@2@@std@@DU?$less@V?$basic_string@DU?$char_traits@D@std@@V?$allocator@D@2@@std@@@2@V?$allocator@U?$pair@$$CBV?$basic_string@DU?$char_traits@D@std@@V?$allocator@D@2@@std@@D@std@@@2@@std@@QAEAAD$$QAV?$basic_string@DU?$char_traits@D@std@@V?$allocator@D@2@@1@@Z 1001a920 f i mfdpage.obj
 0001:000199e0       ??A?$map@V?$basic_string@DU?$char_traits@D@std@@V?$allocator@D@2@@std@@HU?$less@V?$basic_string@DU?$char_traits@D@std@@V?$allocator@D@2@@std@@@2@V?$allocator@U?$pair@$$CBV?$basic_string@DU?$char_traits@D@std@@V?$allocator@D@2@@std@@H@std@@@2@@std@@QAEAAH$$QAV?$basic_string@DU?$char_traits@D@std@@V?$allocator@D@2@@1@@Z 1001a9e0 f i mfdpage.obj
 0001:00019aa0       ??A?$map@V?$basic_string@DU?$char_traits@D@std@@V?$allocator@D@2@@std@@V12@U?$less@V?$basic_string@DU?$char_traits@D@std@@V?$allocator@D@2@@std@@@2@V?$allocator@U?$pair@$$CBV?$basic_string@DU?$char_traits@D@std@@V?$allocator@D@2@@std@@V12@@std@@@2@@std@@QAEAAV?$basic_string@DU?$char_traits@D@std@@V?$allocator@D@2@@1@ABV21@@Z 1001aaa0 f i mfdpage.obj
 0001:00019b50       ??Bsentry@?$basic_istream@DU?$char_traits@D@std@@@std@@QBE_NXZ 1001ab50 f i mfdpage.obj
 0001:00019b70       ??C?$_Tree_iterator@V?$_Tree_val@U?$_Tree_simple_types@U?$pair@$$CBHPAVobject_t@@@std@@@std@@@std@@@std@@QBEPAU?$pair@$$CBHPAVobject_t@@@1@XZ 1001ab70 f i mfdpage.obj
 0001:00019b90       ??C?$_Tree_iterator@V?$_Tree_val@U?$_Tree_simple_types@U?$pair@$$CBV?$basic_string@DU?$char_traits@D@std@@V?$allocator@D@2@@std@@D@std@@@std@@@std@@@std@@QBEPAU?$pair@$$CBV?$basic_string@DU?$char_traits@D@std@@V?$allocator@D@2@@std@@D@1@XZ 1001ab90 f i mfdpage.obj
 0001:00019bb0       ??C?$_Tree_iterator@V?$_Tree_val@U?$_Tree_simple_types@U?$pair@$$CBV?$basic_string@DU?$char_traits@D@std@@V?$allocator@D@2@@std@@H@std@@@std@@@std@@@std@@QBEPAU?$pair@$$CBV?$basic_string@DU?$char_traits@D@std@@V?$allocator@D@2@@std@@H@1@XZ 1001abb0 f i mfdpage.obj
 0001:00019bd0       ??D?$_String_const_iterator@V?$_String_val@U?$_Simple_types@D@std@@@std@@@std@@QBEABDXZ 1001abd0 f i mfdpage.obj
 0001:00019be0       ??D?$_String_iterator@V?$_String_val@U?$_Simple_types@D@std@@@std@@@std@@QBEAADXZ 1001abe0 f i mfdpage.obj
 0001:00019c00       ??D?$_Tree_const_iterator@V?$_Tree_val@U?$_Tree_simple_types@U?$pair@$$CBHPAVobject_t@@@std@@@std@@@std@@@std@@QBEABU?$pair@$$CBHPAVobject_t@@@1@XZ 1001ac00 f i mfdpage.obj
 0001:00019c20       ??D?$_Tree_const_iterator@V?$_Tree_val@U?$_Tree_simple_types@U?$pair@$$CBV?$basic_string@DU?$char_traits@D@std@@V?$allocator@D@2@@std@@D@std@@@std@@@std@@@std@@QBEABU?$pair@$$CBV?$basic_string@DU?$char_traits@D@std@@V?$allocator@D@2@@std@@D@1@XZ 1001ac20 f i mfdpage.obj
 0001:00019c40       ??D?$_Tree_const_iterator@V?$_Tree_val@U?$_Tree_simple_types@U?$pair@$$CBV?$basic_string@DU?$char_traits@D@std@@V?$allocator@D@2@@std@@H@std@@@std@@@std@@@std@@QBEABU?$pair@$$CBV?$basic_string@DU?$char_traits@D@std@@V?$allocator@D@2@@std@@H@1@XZ 1001ac40 f i mfdpage.obj
 0001:00019c60       ??D?$_Tree_iterator@V?$_Tree_val@U?$_Tree_simple_types@U?$pair@$$CBHPAVobject_t@@@std@@@std@@@std@@@std@@QBEAAU?$pair@$$CBHPAVobject_t@@@1@XZ 1001ac60 f i mfdpage.obj
 0001:00019c80       ??D?$_Tree_iterator@V?$_Tree_val@U?$_Tree_simple_types@U?$pair@$$CBV?$basic_string@DU?$char_traits@D@std@@V?$allocator@D@2@@std@@D@std@@@std@@@std@@@std@@QBEAAU?$pair@$$CBV?$basic_string@DU?$char_traits@D@std@@V?$allocator@D@2@@std@@D@1@XZ 1001ac80 f i mfdpage.obj
 0001:00019ca0       ??D?$_Tree_iterator@V?$_Tree_val@U?$_Tree_simple_types@U?$pair@$$CBV?$basic_string@DU?$char_traits@D@std@@V?$allocator@D@2@@std@@H@std@@@std@@@std@@@std@@QBEAAU?$pair@$$CBV?$basic_string@DU?$char_traits@D@std@@V?$allocator@D@2@@std@@H@1@XZ 1001aca0 f i mfdpage.obj
 0001:00019cc0       ??E?$_Tree_const_iterator@V?$_Tree_val@U?$_Tree_simple_types@U?$pair@$$CBHPAVobject_t@@@std@@@std@@@std@@@std@@QAE?AV01@H@Z 1001acc0 f i mfdpage.obj
 0001:00019cf0       ??E?$_Tree_const_iterator@V?$_Tree_val@U?$_Tree_simple_types@U?$pair@$$CBHPAVobject_t@@@std@@@std@@@std@@@std@@QAEAAV01@XZ 1001acf0 f i mfdpage.obj
 0001:00019d10       ??E?$_Tree_const_iterator@V?$_Tree_val@U?$_Tree_simple_types@U?$pair@$$CBHV?$basic_string@DU?$char_traits@D@std@@V?$allocator@D@2@@std@@@std@@@std@@@std@@@std@@QAE?AV01@H@Z 1001ad10 f i mfdpage.obj
 0001:00019d40       ??E?$_Tree_const_iterator@V?$_Tree_val@U?$_Tree_simple_types@U?$pair@$$CBV?$basic_string@DU?$char_traits@D@std@@V?$allocator@D@2@@std@@D@std@@@std@@@std@@@std@@QAEAAV01@XZ 1001ad40 f i mfdpage.obj
 0001:00019d60       ??E?$_Tree_const_iterator@V?$_Tree_val@U?$_Tree_simple_types@U?$pair@$$CBV?$basic_string@DU?$char_traits@D@std@@V?$allocator@D@2@@std@@H@std@@@std@@@std@@@std@@QAE?AV01@H@Z 1001ad60 f i mfdpage.obj
 0001:00019d90       ??E?$_Tree_const_iterator@V?$_Tree_val@U?$_Tree_simple_types@U?$pair@$$CBV?$basic_string@DU?$char_traits@D@std@@V?$allocator@D@2@@std@@H@std@@@std@@@std@@@std@@QAEAAV01@XZ 1001ad90 f i mfdpage.obj
 0001:00019db0       ??E?$_Tree_iterator@V?$_Tree_val@U?$_Tree_simple_types@U?$pair@$$CBHPAVobject_t@@@std@@@std@@@std@@@std@@QAEAAV01@XZ 1001adb0 f i mfdpage.obj
 0001:00019dd0       ??E?$_Tree_iterator@V?$_Tree_val@U?$_Tree_simple_types@U?$pair@$$CBHV?$basic_string@DU?$char_traits@D@std@@V?$allocator@D@2@@std@@@std@@@std@@@std@@@std@@QAEAAV01@XZ 1001add0 f i mfdpage.obj
 0001:00019df0       ??E?$_Tree_iterator@V?$_Tree_val@U?$_Tree_simple_types@U?$pair@$$CBV?$basic_string@DU?$char_traits@D@std@@V?$allocator@D@2@@std@@H@std@@@std@@@std@@@std@@QAEAAV01@XZ 1001adf0 f i mfdpage.obj
 0001:00019e10       ??E?$_Tree_unchecked_const_iterator@V?$_Tree_val@U?$_Tree_simple_types@U?$pair@$$CBHPAVobject_t@@@std@@@std@@@std@@U_Iterator_base0@2@@std@@QAEAAV01@XZ 1001ae10 f i mfdpage.obj
 0001:00019ed0       ??E?$_Tree_unchecked_const_iterator@V?$_Tree_val@U?$_Tree_simple_types@U?$pair@$$CBV?$basic_string@DU?$char_traits@D@std@@V?$allocator@D@2@@std@@D@std@@@std@@@std@@U_Iterator_base0@2@@std@@QAEAAV01@XZ 1001aed0 f i mfdpage.obj
 0001:00019f90       ??E?$_Tree_unchecked_const_iterator@V?$_Tree_val@U?$_Tree_simple_types@U?$pair@$$CBV?$basic_string@DU?$char_traits@D@std@@V?$allocator@D@2@@std@@H@std@@@std@@@std@@U_Iterator_base0@2@@std@@QAEAAV01@XZ 1001af90 f i mfdpage.obj
 0001:0001a050       ??F?$_Tree_const_iterator@V?$_Tree_val@U?$_Tree_simple_types@U?$pair@$$CBHPAVobject_t@@@std@@@std@@@std@@@std@@QAEAAV01@XZ 1001b050 f i mfdpage.obj
 0001:0001a070       ??F?$_Tree_const_iterator@V?$_Tree_val@U?$_Tree_simple_types@U?$pair@$$CBV?$basic_string@DU?$char_traits@D@std@@V?$allocator@D@2@@std@@D@std@@@std@@@std@@@std@@QAEAAV01@XZ 1001b070 f i mfdpage.obj
 0001:0001a090       ??F?$_Tree_const_iterator@V?$_Tree_val@U?$_Tree_simple_types@U?$pair@$$CBV?$basic_string@DU?$char_traits@D@std@@V?$allocator@D@2@@std@@H@std@@@std@@@std@@@std@@QAEAAV01@XZ 1001b090 f i mfdpage.obj
 0001:0001a0b0       ??F?$_Tree_iterator@V?$_Tree_val@U?$_Tree_simple_types@U?$pair@$$CBHPAVobject_t@@@std@@@std@@@std@@@std@@QAEAAV01@XZ 1001b0b0 f i mfdpage.obj
 0001:0001a0d0       ??F?$_Tree_iterator@V?$_Tree_val@U?$_Tree_simple_types@U?$pair@$$CBV?$basic_string@DU?$char_traits@D@std@@V?$allocator@D@2@@std@@D@std@@@std@@@std@@@std@@QAEAAV01@XZ 1001b0d0 f i mfdpage.obj
 0001:0001a0f0       ??F?$_Tree_iterator@V?$_Tree_val@U?$_Tree_simple_types@U?$pair@$$CBV?$basic_string@DU?$char_traits@D@std@@V?$allocator@D@2@@std@@H@std@@@std@@@std@@@std@@QAEAAV01@XZ 1001b0f0 f i mfdpage.obj
 0001:0001a110       ??F?$_Tree_unchecked_const_iterator@V?$_Tree_val@U?$_Tree_simple_types@U?$pair@$$CBHPAVobject_t@@@std@@@std@@@std@@U_Iterator_base0@2@@std@@QAEAAV01@XZ 1001b110 f i mfdpage.obj
 0001:0001a200       ??F?$_Tree_unchecked_const_iterator@V?$_Tree_val@U?$_Tree_simple_types@U?$pair@$$CBV?$basic_string@DU?$char_traits@D@std@@V?$allocator@D@2@@std@@D@std@@@std@@@std@@U_Iterator_base0@2@@std@@QAEAAV01@XZ 1001b200 f i mfdpage.obj
 0001:0001a2f0       ??F?$_Tree_unchecked_const_iterator@V?$_Tree_val@U?$_Tree_simple_types@U?$pair@$$CBV?$basic_string@DU?$char_traits@D@std@@V?$allocator@D@2@@std@@H@std@@@std@@@std@@U_Iterator_base0@2@@std@@QAEAAV01@XZ 1001b2f0 f i mfdpage.obj
 0001:0001a3e0       ??G?$_String_const_iterator@V?$_String_val@U?$_Simple_types@D@std@@@std@@@std@@QBEHABV01@@Z 1001b3e0 f i mfdpage.obj
 0001:0001a410       ??G?$_String_iterator@V?$_String_val@U?$_Simple_types@D@std@@@std@@@std@@QBEHABV?$_String_const_iterator@V?$_String_val@U?$_Simple_types@D@std@@@std@@@1@@Z 1001b410 f i mfdpage.obj
 0001:0001a440       ??Y?$basic_string@DU?$char_traits@D@std@@V?$allocator@D@2@@std@@QAEAAV01@D@Z 1001b440 f i mfdpage.obj
 0001:0001a460       ??_D?$basic_stringstream@DU?$char_traits@D@std@@V?$allocator@D@2@@std@@QAEXXZ 1001b460 f i mfdpage.obj
 0001:0001a482       ??_E?$basic_stringstream@DU?$char_traits@D@std@@V?$allocator@D@2@@std@@$4PPPPPPPM@A@AEPAXI@Z 1001b482 f i mfdpage.obj
 0001:0001a490       ??_G?$basic_stringstream@DU?$char_traits@D@std@@V?$allocator@D@2@@std@@UAEPAXI@Z 1001b490 f i mfdpage.obj
 0001:0001a490       ??_E?$basic_stringstream@DU?$char_traits@D@std@@V?$allocator@D@2@@std@@UAEPAXI@Z 1001b490 f i mfdpage.obj
 0001:0001a4d0       ??_G?$pair@$$CBV?$basic_string@DU?$char_traits@D@std@@V?$allocator@D@2@@std@@D@std@@QAEPAXI@Z 1001b4d0 f i mfdpage.obj
 0001:0001a500       ??_G?$pair@$$CBV?$basic_string@DU?$char_traits@D@std@@V?$allocator@D@2@@std@@H@std@@QAEPAXI@Z 1001b500 f i mfdpage.obj
 0001:0001a530       ??_Elistener_t@@UAEPAXI@Z  1001b530 f i mfdpage.obj
 0001:0001a530       ??_Glistener_t@@UAEPAXI@Z  1001b530 f i mfdpage.obj
 0001:0001a560       ??_Gmfdpage_t@@UAEPAXI@Z   1001b560 f i mfdpage.obj
 0001:0001a560       ??_Emfdpage_t@@UAEPAXI@Z   1001b560 f i mfdpage.obj
 0001:0001a590       ?_Buyheadnode@?$_Tree_alloc@$0A@U?$_Tree_base_types@U?$pair@$$CBHPAVobject_t@@@std@@V?$allocator@U?$pair@$$CBHPAVobject_t@@@std@@@2@@std@@@std@@QAEPAU?$_Tree_node@U?$pair@$$CBHPAVobject_t@@@std@@PAX@2@XZ 1001b590 f i mfdpage.obj
 0001:0001a6e0       ?_Buyheadnode@?$_Tree_alloc@$0A@U?$_Tree_base_types@U?$pair@$$CBV?$basic_string@DU?$char_traits@D@std@@V?$allocator@D@2@@std@@H@std@@V?$allocator@U?$pair@$$CBV?$basic_string@DU?$char_traits@D@std@@V?$allocator@D@2@@std@@H@std@@@2@@std@@@std@@QAEPAU?$_Tree_node@U?$pair@$$CBV?$basic_string@DU?$char_traits@D@std@@V?$allocator@D@2@@std@@H@std@@PAX@2@XZ 1001b6e0 f i mfdpage.obj
 0001:0001a830       ?_Buynode0@?$_Tree_buy@U?$pair@$$CBHPAVobject_t@@@std@@V?$allocator@U?$pair@$$CBHPAVobject_t@@@std@@@2@@std@@QAEPAU?$_Tree_node@U?$pair@$$CBHPAVobject_t@@@std@@PAX@2@XZ 1001b830 f i mfdpage.obj
 0001:0001a960       ?_Buynode0@?$_Tree_buy@U?$pair@$$CBV?$basic_string@DU?$char_traits@D@std@@V?$allocator@D@2@@std@@D@std@@V?$allocator@U?$pair@$$CBV?$basic_string@DU?$char_traits@D@std@@V?$allocator@D@2@@std@@D@std@@@2@@std@@QAEPAU?$_Tree_node@U?$pair@$$CBV?$basic_string@DU?$char_traits@D@std@@V?$allocator@D@2@@std@@D@std@@PAX@2@XZ 1001b960 f i mfdpage.obj
 0001:0001aa90       ?_Buynode0@?$_Tree_buy@U?$pair@$$CBV?$basic_string@DU?$char_traits@D@std@@V?$allocator@D@2@@std@@H@std@@V?$allocator@U?$pair@$$CBV?$basic_string@DU?$char_traits@D@std@@V?$allocator@D@2@@std@@H@std@@@2@@std@@QAEPAU?$_Tree_node@U?$pair@$$CBV?$basic_string@DU?$char_traits@D@std@@V?$allocator@D@2@@std@@H@std@@PAX@2@XZ 1001ba90 f i mfdpage.obj
 0001:0001abc0       ?_Chassign@?$basic_string@DU?$char_traits@D@std@@V?$allocator@D@2@@std@@QAEXIID@Z 1001bbc0 f i mfdpage.obj
 0001:0001ac10       ?_Color@?$_Tree_val@U?$_Tree_simple_types@U?$pair@$$CBHPAVobject_t@@@std@@@std@@@std@@SAAADPAU?$_Tree_node@U?$pair@$$CBHPAVobject_t@@@std@@PAX@2@@Z 1001bc10 f i mfdpage.obj
 0001:0001ac20       ?_Color@?$_Tree_val@U?$_Tree_simple_types@U?$pair@$$CBV?$basic_string@DU?$char_traits@D@std@@V?$allocator@D@2@@std@@D@std@@@std@@@std@@SAAADPAU?$_Tree_node@U?$pair@$$CBV?$basic_string@DU?$char_traits@D@std@@V?$allocator@D@2@@std@@D@std@@PAX@2@@Z 1001bc20 f i mfdpage.obj
 0001:0001ac30       ?_Color@?$_Tree_val@U?$_Tree_simple_types@U?$pair@$$CBV?$basic_string@DU?$char_traits@D@std@@V?$allocator@D@2@@std@@H@std@@@std@@@std@@SAAADPAU?$_Tree_node@U?$pair@$$CBV?$basic_string@DU?$char_traits@D@std@@V?$allocator@D@2@@std@@H@std@@PAX@2@@Z 1001bc30 f i mfdpage.obj
 0001:0001ac40       ?_Compat@?$_String_const_iterator@V?$_String_val@U?$_Simple_types@D@std@@@std@@@std@@QBEXABV12@@Z 1001bc40 f i mfdpage.obj
 0001:0001ac50       ?_Destroy_if_not_nil@?$_Tree@V?$_Tmap_traits@HPAVobject_t@@U?$less@H@std@@V?$allocator@U?$pair@$$CBHPAVobject_t@@@std@@@3@$0A@@std@@@std@@IAEXPAU?$_Tree_node@U?$pair@$$CBHPAVobject_t@@@std@@PAX@2@@Z 1001bc50 f i mfdpage.obj
 0001:0001acb0       ?_Destroy_if_not_nil@?$_Tree@V?$_Tmap_traits@V?$basic_string@DU?$char_traits@D@std@@V?$allocator@D@2@@std@@DU?$less@V?$basic_string@DU?$char_traits@D@std@@V?$allocator@D@2@@std@@@2@V?$allocator@U?$pair@$$CBV?$basic_string@DU?$char_traits@D@std@@V?$allocator@D@2@@std@@D@std@@@2@$0A@@std@@@std@@IAEXPAU?$_Tree_node@U?$pair@$$CBV?$basic_string@DU?$char_traits@D@std@@V?$allocator@D@2@@std@@D@std@@PAX@2@@Z 1001bcb0 f i mfdpage.obj
 0001:0001ad10       ?_Destroy_if_not_nil@?$_Tree@V?$_Tmap_traits@V?$basic_string@DU?$char_traits@D@std@@V?$allocator@D@2@@std@@HU?$less@V?$basic_string@DU?$char_traits@D@std@@V?$allocator@D@2@@std@@@2@V?$allocator@U?$pair@$$CBV?$basic_string@DU?$char_traits@D@std@@V?$allocator@D@2@@std@@H@std@@@2@$0A@@std@@@std@@IAEXPAU?$_Tree_node@U?$pair@$$CBV?$basic_string@DU?$char_traits@D@std@@V?$allocator@D@2@@std@@H@std@@PAX@2@@Z 1001bd10 f i mfdpage.obj
 0001:0001ad70       ?_Erase@?$_Tree@V?$_Tmap_traits@HPAVobject_t@@U?$less@H@std@@V?$allocator@U?$pair@$$CBHPAVobject_t@@@std@@@3@$0A@@std@@@std@@IAEXPAU?$_Tree_node@U?$pair@$$CBHPAVobject_t@@@std@@PAX@2@@Z 1001bd70 f i mfdpage.obj
 0001:0001ae10       ?_Erase@?$_Tree@V?$_Tmap_traits@HV?$basic_string@DU?$char_traits@D@std@@V?$allocator@D@2@@std@@U?$less@H@2@V?$allocator@U?$pair@$$CBHV?$basic_string@DU?$char_traits@D@std@@V?$allocator@D@2@@std@@@std@@@2@$0A@@std@@@std@@IAEXPAU?$_Tree_node@U?$pair@$$CBHV?$basic_string@DU?$char_traits@D@std@@V?$allocator@D@2@@std@@@std@@PAX@2@@Z 1001be10 f i mfdpage.obj
 0001:0001aeb0       ?_Erase@?$_Tree@V?$_Tmap_traits@V?$basic_string@DU?$char_traits@D@std@@V?$allocator@D@2@@std@@HU?$less@V?$basic_string@DU?$char_traits@D@std@@V?$allocator@D@2@@std@@@2@V?$allocator@U?$pair@$$CBV?$basic_string@DU?$char_traits@D@std@@V?$allocator@D@2@@std@@H@std@@@2@$0A@@std@@@std@@IAEXPAU?$_Tree_node@U?$pair@$$CBV?$basic_string@DU?$char_traits@D@std@@V?$allocator@D@2@@std@@H@std@@PAX@2@@Z 1001beb0 f i mfdpage.obj
 0001:0001af50       ?_Freeheadnode@?$_Tree_alloc@$0A@U?$_Tree_base_types@U?$pair@$$CBHPAVobject_t@@@std@@V?$allocator@U?$pair@$$CBHPAVobject_t@@@std@@@2@@std@@@std@@QAEXPAU?$_Tree_node@U?$pair@$$CBHPAVobject_t@@@std@@PAX@2@@Z 1001bf50 f i mfdpage.obj
 0001:0001b000       ?_Freeheadnode@?$_Tree_alloc@$0A@U?$_Tree_base_types@U?$pair@$$CBHV?$basic_string@DU?$char_traits@D@std@@V?$allocator@D@2@@std@@@std@@V?$allocator@U?$pair@$$CBHV?$basic_string@DU?$char_traits@D@std@@V?$allocator@D@2@@std@@@std@@@2@@std@@@std@@QAEXPAU?$_Tree_node@U?$pair@$$CBHV?$basic_string@DU?$char_traits@D@std@@V?$allocator@D@2@@std@@@std@@PAX@2@@Z 1001c000 f i mfdpage.obj
 0001:0001b0b0       ?_Freeheadnode@?$_Tree_alloc@$0A@U?$_Tree_base_types@U?$pair@$$CBV?$basic_string@DU?$char_traits@D@std@@V?$allocator@D@2@@std@@H@std@@V?$allocator@U?$pair@$$CBV?$basic_string@DU?$char_traits@D@std@@V?$allocator@D@2@@std@@H@std@@@2@@std@@@std@@QAEXPAU?$_Tree_node@U?$pair@$$CBV?$basic_string@DU?$char_traits@D@std@@V?$allocator@D@2@@std@@H@std@@PAX@2@@Z 1001c0b0 f i mfdpage.obj
 0001:0001b160       ?_Freenode0@?$_Tree_buy@U?$pair@$$CBHPAVobject_t@@@std@@V?$allocator@U?$pair@$$CBHPAVobject_t@@@std@@@2@@std@@QAEXPAU?$_Tree_node@U?$pair@$$CBHPAVobject_t@@@std@@PAX@2@@Z 1001c160 f i mfdpage.obj
 0001:0001b210       ?_Freenode0@?$_Tree_buy@U?$pair@$$CBV?$basic_string@DU?$char_traits@D@std@@V?$allocator@D@2@@std@@D@std@@V?$allocator@U?$pair@$$CBV?$basic_string@DU?$char_traits@D@std@@V?$allocator@D@2@@std@@D@std@@@2@@std@@QAEXPAU?$_Tree_node@U?$pair@$$CBV?$basic_string@DU?$char_traits@D@std@@V?$allocator@D@2@@std@@D@std@@PAX@2@@Z 1001c210 f i mfdpage.obj
 0001:0001b2c0       ?_Freenode0@?$_Tree_buy@U?$pair@$$CBV?$basic_string@DU?$char_traits@D@std@@V?$allocator@D@2@@std@@H@std@@V?$allocator@U?$pair@$$CBV?$basic_string@DU?$char_traits@D@std@@V?$allocator@D@2@@std@@H@std@@@2@@std@@QAEXPAU?$_Tree_node@U?$pair@$$CBV?$basic_string@DU?$char_traits@D@std@@V?$allocator@D@2@@std@@H@std@@PAX@2@@Z 1001c2c0 f i mfdpage.obj
 0001:0001b370       ?_Get_rest@?$tuple@ABV?$basic_string@DU?$char_traits@D@std@@V?$allocator@D@2@@std@@@std@@QAEAAV?$tuple@$$$V@2@XZ 1001c370 f i mfdpage.obj
 0001:0001b380       ?_Getal@?$_Tree_alloc@$0A@U?$_Tree_base_types@U?$pair@$$CBHPAVobject_t@@@std@@V?$allocator@U?$pair@$$CBHPAVobject_t@@@std@@@2@@std@@@std@@QBE?AU?$_Wrap_alloc@V?$allocator@U?$_Tree_node@U?$pair@$$CBHPAVobject_t@@@std@@PAX@std@@@std@@@2@XZ 1001c380 f i mfdpage.obj
 0001:0001b3a0       ?_Getal@?$_Tree_alloc@$0A@U?$_Tree_base_types@U?$pair@$$CBV?$basic_string@DU?$char_traits@D@std@@V?$allocator@D@2@@std@@D@std@@V?$allocator@U?$pair@$$CBV?$basic_string@DU?$char_traits@D@std@@V?$allocator@D@2@@std@@D@std@@@2@@std@@@std@@QBE?AU?$_Wrap_alloc@V?$allocator@U?$_Tree_node@U?$pair@$$CBV?$basic_string@DU?$char_traits@D@std@@V?$allocator@D@2@@std@@D@std@@PAX@std@@@std@@@2@XZ 1001c3a0 f i mfdpage.obj
 0001:0001b3c0       ?_Getal@?$_Tree_alloc@$0A@U?$_Tree_base_types@U?$pair@$$CBV?$basic_string@DU?$char_traits@D@std@@V?$allocator@D@2@@std@@H@std@@V?$allocator@U?$pair@$$CBV?$basic_string@DU?$char_traits@D@std@@V?$allocator@D@2@@std@@H@std@@@2@@std@@@std@@QBE?AU?$_Wrap_alloc@V?$allocator@U?$_Tree_node@U?$pair@$$CBV?$basic_string@DU?$char_traits@D@std@@V?$allocator@D@2@@std@@H@std@@PAX@std@@@std@@@2@XZ 1001c3c0 f i mfdpage.obj
 0001:0001b3e0       ?_Getcomp@?$_Tree_comp@$0A@V?$_Tmap_traits@HPAVobject_t@@U?$less@H@std@@V?$allocator@U?$pair@$$CBHPAVobject_t@@@std@@@3@$0A@@std@@@std@@QBE?AU?$less@H@2@XZ 1001c3e0 f i mfdpage.obj
 0001:0001b3f0       ?_Getcomp@?$_Tree_comp@$0A@V?$_Tmap_traits@V?$basic_string@DU?$char_traits@D@std@@V?$allocator@D@2@@std@@DU?$less@V?$basic_string@DU?$char_traits@D@std@@V?$allocator@D@2@@std@@@2@V?$allocator@U?$pair@$$CBV?$basic_string@DU?$char_traits@D@std@@V?$allocator@D@2@@std@@D@std@@@2@$0A@@std@@@std@@QBE?AU?$less@V?$basic_string@DU?$char_traits@D@std@@V?$allocator@D@2@@std@@@2@XZ 1001c3f0 f i mfdpage.obj
 0001:0001b400       ?_Getcomp@?$_Tree_comp@$0A@V?$_Tmap_traits@V?$basic_string@DU?$char_traits@D@std@@V?$allocator@D@2@@std@@HU?$less@V?$basic_string@DU?$char_traits@D@std@@V?$allocator@D@2@@std@@@2@V?$allocator@U?$pair@$$CBV?$basic_string@DU?$char_traits@D@std@@V?$allocator@D@2@@std@@H@std@@@2@$0A@@std@@@std@@QBE?AU?$less@V?$basic_string@DU?$char_traits@D@std@@V?$allocator@D@2@@std@@@2@XZ 1001c400 f i mfdpage.obj
 0001:0001b410       ?_Isnil@?$_Tree_val@U?$_Tree_simple_types@U?$pair@$$CBHPAVobject_t@@@std@@@std@@@std@@SAAADPAU?$_Tree_node@U?$pair@$$CBHPAVobject_t@@@std@@PAX@2@@Z 1001c410 f i mfdpage.obj
 0001:0001b420       ?_Isnil@?$_Tree_val@U?$_Tree_simple_types@U?$pair@$$CBV?$basic_string@DU?$char_traits@D@std@@V?$allocator@D@2@@std@@D@std@@@std@@@std@@SAAADPAU?$_Tree_node@U?$pair@$$CBV?$basic_string@DU?$char_traits@D@std@@V?$allocator@D@2@@std@@D@std@@PAX@2@@Z 1001c420 f i mfdpage.obj
 0001:0001b430       ?_Isnil@?$_Tree_val@U?$_Tree_simple_types@U?$pair@$$CBV?$basic_string@DU?$char_traits@D@std@@V?$allocator@D@2@@std@@H@std@@@std@@@std@@SAAADPAU?$_Tree_node@U?$pair@$$CBV?$basic_string@DU?$char_traits@D@std@@V?$allocator@D@2@@std@@H@std@@PAX@2@@Z 1001c430 f i mfdpage.obj
 0001:0001b440       ?_Key@?$_Tree@V?$_Tmap_traits@HPAVobject_t@@U?$less@H@std@@V?$allocator@U?$pair@$$CBHPAVobject_t@@@std@@@3@$0A@@std@@@std@@IBEABHPAU?$_Tree_node@U?$pair@$$CBHPAVobject_t@@@std@@PAX@2@@Z 1001c440 f i mfdpage.obj
 0001:0001b470       ?_Key@?$_Tree@V?$_Tmap_traits@V?$basic_string@DU?$char_traits@D@std@@V?$allocator@D@2@@std@@DU?$less@V?$basic_string@DU?$char_traits@D@std@@V?$allocator@D@2@@std@@@2@V?$allocator@U?$pair@$$CBV?$basic_string@DU?$char_traits@D@std@@V?$allocator@D@2@@std@@D@std@@@2@$0A@@std@@@std@@IBEABV?$basic_string@DU?$char_traits@D@std@@V?$allocator@D@2@@2@PAU?$_Tree_node@U?$pair@$$CBV?$basic_string@DU?$char_traits@D@std@@V?$allocator@D@2@@std@@D@std@@PAX@2@@Z 1001c470 f i mfdpage.obj
 0001:0001b4a0       ?_Key@?$_Tree@V?$_Tmap_traits@V?$basic_string@DU?$char_traits@D@std@@V?$allocator@D@2@@std@@HU?$less@V?$basic_string@DU?$char_traits@D@std@@V?$allocator@D@2@@std@@@2@V?$allocator@U?$pair@$$CBV?$basic_string@DU?$char_traits@D@std@@V?$allocator@D@2@@std@@H@std@@@2@$0A@@std@@@std@@IBEABV?$basic_string@DU?$char_traits@D@std@@V?$allocator@D@2@@2@PAU?$_Tree_node@U?$pair@$$CBV?$basic_string@DU?$char_traits@D@std@@V?$allocator@D@2@@std@@H@std@@PAX@2@@Z 1001c4a0 f i mfdpage.obj
 0001:0001b4d0       ?_Kfn@?$_Tree@V?$_Tmap_traits@HPAVobject_t@@U?$less@H@std@@V?$allocator@U?$pair@$$CBHPAVobject_t@@@std@@@3@$0A@@std@@@std@@IBEABHABU?$pair@$$CBHPAVobject_t@@@2@@Z 1001c4d0 f i mfdpage.obj
 0001:0001b4f0       ?_Kfn@?$_Tree@V?$_Tmap_traits@V?$basic_string@DU?$char_traits@D@std@@V?$allocator@D@2@@std@@DU?$less@V?$basic_string@DU?$char_traits@D@std@@V?$allocator@D@2@@std@@@2@V?$allocator@U?$pair@$$CBV?$basic_string@DU?$char_traits@D@std@@V?$allocator@D@2@@std@@D@std@@@2@$0A@@std@@@std@@IBEABV?$basic_string@DU?$char_traits@D@std@@V?$allocator@D@2@@2@ABU?$pair@$$CBV?$basic_string@DU?$char_traits@D@std@@V?$allocator@D@2@@std@@D@2@@Z 1001c4f0 f i mfdpage.obj
 0001:0001b510       ?_Kfn@?$_Tree@V?$_Tmap_traits@V?$basic_string@DU?$char_traits@D@std@@V?$allocator@D@2@@std@@HU?$less@V?$basic_string@DU?$char_traits@D@std@@V?$allocator@D@2@@std@@@2@V?$allocator@U?$pair@$$CBV?$basic_string@DU?$char_traits@D@std@@V?$allocator@D@2@@std@@H@std@@@2@$0A@@std@@@std@@IBEABV?$basic_string@DU?$char_traits@D@std@@V?$allocator@D@2@@2@ABU?$pair@$$CBV?$basic_string@DU?$char_traits@D@std@@V?$allocator@D@2@@std@@H@2@@Z 1001c510 f i mfdpage.obj
 0001:0001b530       ?_Lbound@?$_Tree@V?$_Tmap_traits@HPAVobject_t@@U?$less@H@std@@V?$allocator@U?$pair@$$CBHPAVobject_t@@@std@@@3@$0A@@std@@@std@@IAEPAU?$_Tree_node@U?$pair@$$CBHPAVobject_t@@@std@@PAX@2@ABH@Z 1001c530 f i mfdpage.obj
 0001:0001b5d0       ?_Lbound@?$_Tree@V?$_Tmap_traits@V?$basic_string@DU?$char_traits@D@std@@V?$allocator@D@2@@std@@DU?$less@V?$basic_string@DU?$char_traits@D@std@@V?$allocator@D@2@@std@@@2@V?$allocator@U?$pair@$$CBV?$basic_string@DU?$char_traits@D@std@@V?$allocator@D@2@@std@@D@std@@@2@$0A@@std@@@std@@IAEPAU?$_Tree_node@U?$pair@$$CBV?$basic_string@DU?$char_traits@D@std@@V?$allocator@D@2@@std@@D@std@@PAX@2@ABV?$basic_string@DU?$char_traits@D@std@@V?$allocator@D@2@@2@@Z 1001c5d0 f i mfdpage.obj
 0001:0001b670       ?_Lbound@?$_Tree@V?$_Tmap_traits@V?$basic_string@DU?$char_traits@D@std@@V?$allocator@D@2@@std@@HU?$less@V?$basic_string@DU?$char_traits@D@std@@V?$allocator@D@2@@std@@@2@V?$allocator@U?$pair@$$CBV?$basic_string@DU?$char_traits@D@std@@V?$allocator@D@2@@std@@H@std@@@2@$0A@@std@@@std@@IAEPAU?$_Tree_node@U?$pair@$$CBV?$basic_string@DU?$char_traits@D@std@@V?$allocator@D@2@@std@@H@std@@PAX@2@ABV?$basic_string@DU?$char_traits@D@std@@V?$allocator@D@2@@2@@Z 1001c670 f i mfdpage.obj
 0001:0001b710       ?_Left@?$_Tree_val@U?$_Tree_simple_types@U?$pair@$$CBHPAVobject_t@@@std@@@std@@@std@@SAAAPAU?$_Tree_node@U?$pair@$$CBHPAVobject_t@@@std@@PAX@2@PAU32@@Z 1001c710 f i mfdpage.obj
 0001:0001b720       ?_Left@?$_Tree_val@U?$_Tree_simple_types@U?$pair@$$CBV?$basic_string@DU?$char_traits@D@std@@V?$allocator@D@2@@std@@D@std@@@std@@@std@@SAAAPAU?$_Tree_node@U?$pair@$$CBV?$basic_string@DU?$char_traits@D@std@@V?$allocator@D@2@@std@@D@std@@PAX@2@PAU32@@Z 1001c720 f i mfdpage.obj
 0001:0001b730       ?_Left@?$_Tree_val@U?$_Tree_simple_types@U?$pair@$$CBV?$basic_string@DU?$char_traits@D@std@@V?$allocator@D@2@@std@@H@std@@@std@@@std@@SAAAPAU?$_Tree_node@U?$pair@$$CBV?$basic_string@DU?$char_traits@D@std@@V?$allocator@D@2@@std@@H@std@@PAX@2@PAU32@@Z 1001c730 f i mfdpage.obj
 0001:0001b740       ?_Lmost@?$_Tree@V?$_Tmap_traits@HPAVobject_t@@U?$less@H@std@@V?$allocator@U?$pair@$$CBHPAVobject_t@@@std@@@3@$0A@@std@@@std@@IBEAAPAU?$_Tree_node@U?$pair@$$CBHPAVobject_t@@@std@@PAX@2@XZ 1001c740 f i mfdpage.obj
 0001:0001b760       ?_Lmost@?$_Tree@V?$_Tmap_traits@V?$basic_string@DU?$char_traits@D@std@@V?$allocator@D@2@@std@@DU?$less@V?$basic_string@DU?$char_traits@D@std@@V?$allocator@D@2@@std@@@2@V?$allocator@U?$pair@$$CBV?$basic_string@DU?$char_traits@D@std@@V?$allocator@D@2@@std@@D@std@@@2@$0A@@std@@@std@@IBEAAPAU?$_Tree_node@U?$pair@$$CBV?$basic_string@DU?$char_traits@D@std@@V?$allocator@D@2@@std@@D@std@@PAX@2@XZ 1001c760 f i mfdpage.obj
 0001:0001b780       ?_Lmost@?$_Tree@V?$_Tmap_traits@V?$basic_string@DU?$char_traits@D@std@@V?$allocator@D@2@@std@@HU?$less@V?$basic_string@DU?$char_traits@D@std@@V?$allocator@D@2@@std@@@2@V?$allocator@U?$pair@$$CBV?$basic_string@DU?$char_traits@D@std@@V?$allocator@D@2@@std@@H@std@@@2@$0A@@std@@@std@@IBEAAPAU?$_Tree_node@U?$pair@$$CBV?$basic_string@DU?$char_traits@D@std@@V?$allocator@D@2@@std@@H@std@@PAX@2@XZ 1001c780 f i mfdpage.obj
 0001:0001b7a0       ?_Lrotate@?$_Tree@V?$_Tmap_traits@HPAVobject_t@@U?$less@H@std@@V?$allocator@U?$pair@$$CBHPAVobject_t@@@std@@@3@$0A@@std@@@std@@IAEXPAU?$_Tree_node@U?$pair@$$CBHPAVobject_t@@@std@@PAX@2@@Z 1001c7a0 f i mfdpage.obj
 0001:0001b8d0       ?_Lrotate@?$_Tree@V?$_Tmap_traits@V?$basic_string@DU?$char_traits@D@std@@V?$allocator@D@2@@std@@DU?$less@V?$basic_string@DU?$char_traits@D@std@@V?$allocator@D@2@@std@@@2@V?$allocator@U?$pair@$$CBV?$basic_string@DU?$char_traits@D@std@@V?$allocator@D@2@@std@@D@std@@@2@$0A@@std@@@std@@IAEXPAU?$_Tree_node@U?$pair@$$CBV?$basic_string@DU?$char_traits@D@std@@V?$allocator@D@2@@std@@D@std@@PAX@2@@Z 1001c8d0 f i mfdpage.obj
 0001:0001ba00       ?_Lrotate@?$_Tree@V?$_Tmap_traits@V?$basic_string@DU?$char_traits@D@std@@V?$allocator@D@2@@std@@HU?$less@V?$basic_string@DU?$char_traits@D@std@@V?$allocator@D@2@@std@@@2@V?$allocator@U?$pair@$$CBV?$basic_string@DU?$char_traits@D@std@@V?$allocator@D@2@@std@@H@std@@@2@$0A@@std@@@std@@IAEXPAU?$_Tree_node@U?$pair@$$CBV?$basic_string@DU?$char_traits@D@std@@V?$allocator@D@2@@std@@H@std@@PAX@2@@Z 1001ca00 f i mfdpage.obj
 0001:0001bb30       ?_Max@?$_Tree_val@U?$_Tree_simple_types@U?$pair@$$CBHPAVobject_t@@@std@@@std@@@std@@SAPAU?$_Tree_node@U?$pair@$$CBHPAVobject_t@@@std@@PAX@2@PAU32@@Z 1001cb30 f i mfdpage.obj
 0001:0001bb70       ?_Max@?$_Tree_val@U?$_Tree_simple_types@U?$pair@$$CBV?$basic_string@DU?$char_traits@D@std@@V?$allocator@D@2@@std@@D@std@@@std@@@std@@SAPAU?$_Tree_node@U?$pair@$$CBV?$basic_string@DU?$char_traits@D@std@@V?$allocator@D@2@@std@@D@std@@PAX@2@PAU32@@Z 1001cb70 f i mfdpage.obj
 0001:0001bbb0       ?_Max@?$_Tree_val@U?$_Tree_simple_types@U?$pair@$$CBV?$basic_string@DU?$char_traits@D@std@@V?$allocator@D@2@@std@@H@std@@@std@@@std@@SAPAU?$_Tree_node@U?$pair@$$CBV?$basic_string@DU?$char_traits@D@std@@V?$allocator@D@2@@std@@H@std@@PAX@2@PAU32@@Z 1001cbb0 f i mfdpage.obj
 0001:0001bbf0       ?_Min@?$_Tree_val@U?$_Tree_simple_types@U?$pair@$$CBHPAVobject_t@@@std@@@std@@@std@@SAPAU?$_Tree_node@U?$pair@$$CBHPAVobject_t@@@std@@PAX@2@PAU32@@Z 1001cbf0 f i mfdpage.obj
 0001:0001bc30       ?_Min@?$_Tree_val@U?$_Tree_simple_types@U?$pair@$$CBV?$basic_string@DU?$char_traits@D@std@@V?$allocator@D@2@@std@@D@std@@@std@@@std@@SAPAU?$_Tree_node@U?$pair@$$CBV?$basic_string@DU?$char_traits@D@std@@V?$allocator@D@2@@std@@D@std@@PAX@2@PAU32@@Z 1001cc30 f i mfdpage.obj
 0001:0001bc70       ?_Min@?$_Tree_val@U?$_Tree_simple_types@U?$pair@$$CBV?$basic_string@DU?$char_traits@D@std@@V?$allocator@D@2@@std@@H@std@@@std@@@std@@SAPAU?$_Tree_node@U?$pair@$$CBV?$basic_string@DU?$char_traits@D@std@@V?$allocator@D@2@@std@@H@std@@PAX@2@PAU32@@Z 1001cc70 f i mfdpage.obj
 0001:0001bcb0       ?_Mynode@?$_Tree_unchecked_const_iterator@V?$_Tree_val@U?$_Tree_simple_types@U?$pair@$$CBHPAVobject_t@@@std@@@std@@@std@@U_Iterator_base0@2@@std@@QBEPAU?$_Tree_node@U?$pair@$$CBHPAVobject_t@@@std@@PAX@2@XZ 1001ccb0 f i mfdpage.obj
 0001:0001bcc0       ?_Mynode@?$_Tree_unchecked_const_iterator@V?$_Tree_val@U?$_Tree_simple_types@U?$pair@$$CBV?$basic_string@DU?$char_traits@D@std@@V?$allocator@D@2@@std@@D@std@@@std@@@std@@U_Iterator_base0@2@@std@@QBEPAU?$_Tree_node@U?$pair@$$CBV?$basic_string@DU?$char_traits@D@std@@V?$allocator@D@2@@std@@D@std@@PAX@2@XZ 1001ccc0 f i mfdpage.obj
 0001:0001bcd0       ?_Mynode@?$_Tree_unchecked_const_iterator@V?$_Tree_val@U?$_Tree_simple_types@U?$pair@$$CBV?$basic_string@DU?$char_traits@D@std@@V?$allocator@D@2@@std@@H@std@@@std@@@std@@U_Iterator_base0@2@@std@@QBEPAU?$_Tree_node@U?$pair@$$CBV?$basic_string@DU?$char_traits@D@std@@V?$allocator@D@2@@std@@H@std@@PAX@2@XZ 1001ccd0 f i mfdpage.obj
 0001:0001bce0       ?_Myval@?$_Tree_val@U?$_Tree_simple_types@U?$pair@$$CBHPAVobject_t@@@std@@@std@@@std@@SAAAU?$pair@$$CBHPAVobject_t@@@2@PAU?$_Tree_node@U?$pair@$$CBHPAVobject_t@@@std@@PAX@2@@Z 1001cce0 f i mfdpage.obj
 0001:0001bcf0       ?_Myval@?$_Tree_val@U?$_Tree_simple_types@U?$pair@$$CBV?$basic_string@DU?$char_traits@D@std@@V?$allocator@D@2@@std@@D@std@@@std@@@std@@SAAAU?$pair@$$CBV?$basic_string@DU?$char_traits@D@std@@V?$allocator@D@2@@std@@D@2@PAU?$_Tree_node@U?$pair@$$CBV?$basic_string@DU?$char_traits@D@std@@V?$allocator@D@2@@std@@D@std@@PAX@2@@Z 1001ccf0 f i mfdpage.obj
 0001:0001bd00       ?_Myval@?$_Tree_val@U?$_Tree_simple_types@U?$pair@$$CBV?$basic_string@DU?$char_traits@D@std@@V?$allocator@D@2@@std@@H@std@@@std@@@std@@SAAAU?$pair@$$CBV?$basic_string@DU?$char_traits@D@std@@V?$allocator@D@2@@std@@H@2@PAU?$_Tree_node@U?$pair@$$CBV?$basic_string@DU?$char_traits@D@std@@V?$allocator@D@2@@std@@H@std@@PAX@2@@Z 1001cd00 f i mfdpage.obj
 0001:0001bd10       ?_Parent@?$_Tree_val@U?$_Tree_simple_types@U?$pair@$$CBHPAVobject_t@@@std@@@std@@@std@@SAAAPAU?$_Tree_node@U?$pair@$$CBHPAVobject_t@@@std@@PAX@2@PAU32@@Z 1001cd10 f i mfdpage.obj
 0001:0001bd20       ?_Parent@?$_Tree_val@U?$_Tree_simple_types@U?$pair@$$CBV?$basic_string@DU?$char_traits@D@std@@V?$allocator@D@2@@std@@D@std@@@std@@@std@@SAAAPAU?$_Tree_node@U?$pair@$$CBV?$basic_string@DU?$char_traits@D@std@@V?$allocator@D@2@@std@@D@std@@PAX@2@PAU32@@Z 1001cd20 f i mfdpage.obj
 0001:0001bd30       ?_Parent@?$_Tree_val@U?$_Tree_simple_types@U?$pair@$$CBV?$basic_string@DU?$char_traits@D@std@@V?$allocator@D@2@@std@@H@std@@@std@@@std@@SAAAPAU?$_Tree_node@U?$pair@$$CBV?$basic_string@DU?$char_traits@D@std@@V?$allocator@D@2@@std@@H@std@@PAX@2@PAU32@@Z 1001cd30 f i mfdpage.obj
 0001:0001bd40       ?_Pdif@?$basic_string@DU?$char_traits@D@std@@V?$allocator@D@2@@std@@SAIV?$_String_const_iterator@V?$_String_val@U?$_Simple_types@D@std@@@std@@@2@0@Z 1001cd40 f i mfdpage.obj
 0001:0001bd70       ?_Right@?$_Tree_val@U?$_Tree_simple_types@U?$pair@$$CBHPAVobject_t@@@std@@@std@@@std@@SAAAPAU?$_Tree_node@U?$pair@$$CBHPAVobject_t@@@std@@PAX@2@PAU32@@Z 1001cd70 f i mfdpage.obj
 0001:0001bd80       ?_Right@?$_Tree_val@U?$_Tree_simple_types@U?$pair@$$CBV?$basic_string@DU?$char_traits@D@std@@V?$allocator@D@2@@std@@D@std@@@std@@@std@@SAAAPAU?$_Tree_node@U?$pair@$$CBV?$basic_string@DU?$char_traits@D@std@@V?$allocator@D@2@@std@@D@std@@PAX@2@PAU32@@Z 1001cd80 f i mfdpage.obj
 0001:0001bd90       ?_Right@?$_Tree_val@U?$_Tree_simple_types@U?$pair@$$CBV?$basic_string@DU?$char_traits@D@std@@V?$allocator@D@2@@std@@H@std@@@std@@@std@@SAAAPAU?$_Tree_node@U?$pair@$$CBV?$basic_string@DU?$char_traits@D@std@@V?$allocator@D@2@@std@@H@std@@PAX@2@PAU32@@Z 1001cd90 f i mfdpage.obj
 0001:0001bda0       ?_Rmost@?$_Tree@V?$_Tmap_traits@HPAVobject_t@@U?$less@H@std@@V?$allocator@U?$pair@$$CBHPAVobject_t@@@std@@@3@$0A@@std@@@std@@IBEAAPAU?$_Tree_node@U?$pair@$$CBHPAVobject_t@@@std@@PAX@2@XZ 1001cda0 f i mfdpage.obj
 0001:0001bdc0       ?_Rmost@?$_Tree@V?$_Tmap_traits@V?$basic_string@DU?$char_traits@D@std@@V?$allocator@D@2@@std@@DU?$less@V?$basic_string@DU?$char_traits@D@std@@V?$allocator@D@2@@std@@@2@V?$allocator@U?$pair@$$CBV?$basic_string@DU?$char_traits@D@std@@V?$allocator@D@2@@std@@D@std@@@2@$0A@@std@@@std@@IBEAAPAU?$_Tree_node@U?$pair@$$CBV?$basic_string@DU?$char_traits@D@std@@V?$allocator@D@2@@std@@D@std@@PAX@2@XZ 1001cdc0 f i mfdpage.obj
 0001:0001bde0       ?_Rmost@?$_Tree@V?$_Tmap_traits@V?$basic_string@DU?$char_traits@D@std@@V?$allocator@D@2@@std@@HU?$less@V?$basic_string@DU?$char_traits@D@std@@V?$allocator@D@2@@std@@@2@V?$allocator@U?$pair@$$CBV?$basic_string@DU?$char_traits@D@std@@V?$allocator@D@2@@std@@H@std@@@2@$0A@@std@@@std@@IBEAAPAU?$_Tree_node@U?$pair@$$CBV?$basic_string@DU?$char_traits@D@std@@V?$allocator@D@2@@std@@H@std@@PAX@2@XZ 1001cde0 f i mfdpage.obj
 0001:0001be00       ?_Root@?$_Tree@V?$_Tmap_traits@HPAVobject_t@@U?$less@H@std@@V?$allocator@U?$pair@$$CBHPAVobject_t@@@std@@@3@$0A@@std@@@std@@IBEAAPAU?$_Tree_node@U?$pair@$$CBHPAVobject_t@@@std@@PAX@2@XZ 1001ce00 f i mfdpage.obj
 0001:0001be20       ?_Root@?$_Tree@V?$_Tmap_traits@V?$basic_string@DU?$char_traits@D@std@@V?$allocator@D@2@@std@@DU?$less@V?$basic_string@DU?$char_traits@D@std@@V?$allocator@D@2@@std@@@2@V?$allocator@U?$pair@$$CBV?$basic_string@DU?$char_traits@D@std@@V?$allocator@D@2@@std@@D@std@@@2@$0A@@std@@@std@@IBEAAPAU?$_Tree_node@U?$pair@$$CBV?$basic_string@DU?$char_traits@D@std@@V?$allocator@D@2@@std@@D@std@@PAX@2@XZ 1001ce20 f i mfdpage.obj
 0001:0001be40       ?_Root@?$_Tree@V?$_Tmap_traits@V?$basic_string@DU?$char_traits@D@std@@V?$allocator@D@2@@std@@HU?$less@V?$basic_string@DU?$char_traits@D@std@@V?$allocator@D@2@@std@@@2@V?$allocator@U?$pair@$$CBV?$basic_string@DU?$char_traits@D@std@@V?$allocator@D@2@@std@@H@std@@@2@$0A@@std@@@std@@IBEAAPAU?$_Tree_node@U?$pair@$$CBV?$basic_string@DU?$char_traits@D@std@@V?$allocator@D@2@@std@@H@std@@PAX@2@XZ 1001ce40 f i mfdpage.obj
 0001:0001be60       ?_Rrotate@?$_Tree@V?$_Tmap_traits@HPAVobject_t@@U?$less@H@std@@V?$allocator@U?$pair@$$CBHPAVobject_t@@@std@@@3@$0A@@std@@@std@@IAEXPAU?$_Tree_node@U?$pair@$$CBHPAVobject_t@@@std@@PAX@2@@Z 1001ce60 f i mfdpage.obj
 0001:0001bf90       ?_Rrotate@?$_Tree@V?$_Tmap_traits@V?$basic_string@DU?$char_traits@D@std@@V?$allocator@D@2@@std@@DU?$less@V?$basic_string@DU?$char_traits@D@std@@V?$allocator@D@2@@std@@@2@V?$allocator@U?$pair@$$CBV?$basic_string@DU?$char_traits@D@std@@V?$allocator@D@2@@std@@D@std@@@2@$0A@@std@@@std@@IAEXPAU?$_Tree_node@U?$pair@$$CBV?$basic_string@DU?$char_traits@D@std@@V?$allocator@D@2@@std@@D@std@@PAX@2@@Z 1001cf90 f i mfdpage.obj
 0001:0001c0c0       ?_Rrotate@?$_Tree@V?$_Tmap_traits@V?$basic_string@DU?$char_traits@D@std@@V?$allocator@D@2@@std@@HU?$less@V?$basic_string@DU?$char_traits@D@std@@V?$allocator@D@2@@std@@@2@V?$allocator@U?$pair@$$CBV?$basic_string@DU?$char_traits@D@std@@V?$allocator@D@2@@std@@H@std@@@2@$0A@@std@@@std@@IAEXPAU?$_Tree_node@U?$pair@$$CBV?$basic_string@DU?$char_traits@D@std@@V?$allocator@D@2@@std@@H@std@@PAX@2@@Z 1001d0c0 f i mfdpage.obj
 0001:0001c1f0       ?_Tidy@?$_Tree@V?$_Tmap_traits@HPAVobject_t@@U?$less@H@std@@V?$allocator@U?$pair@$$CBHPAVobject_t@@@std@@@3@$0A@@std@@@std@@IAEXXZ 1001d1f0 f i mfdpage.obj
 0001:0001c240       ?_Tidy@?$_Tree@V?$_Tmap_traits@HV?$basic_string@DU?$char_traits@D@std@@V?$allocator@D@2@@std@@U?$less@H@2@V?$allocator@U?$pair@$$CBHV?$basic_string@DU?$char_traits@D@std@@V?$allocator@D@2@@std@@@std@@@2@$0A@@std@@@std@@IAEXXZ 1001d240 f i mfdpage.obj
 0001:0001c290       ?_Tidy@?$_Tree@V?$_Tmap_traits@V?$basic_string@DU?$char_traits@D@std@@V?$allocator@D@2@@std@@HU?$less@V?$basic_string@DU?$char_traits@D@std@@V?$allocator@D@2@@std@@@2@V?$allocator@U?$pair@$$CBV?$basic_string@DU?$char_traits@D@std@@V?$allocator@D@2@@std@@H@std@@@2@$0A@@std@@@std@@IAEXXZ 1001d290 f i mfdpage.obj
 0001:0001c2e0       ?allocate@?$_Wrap_alloc@V?$allocator@U?$_Tree_node@U?$pair@$$CBHPAVobject_t@@@std@@PAX@std@@@std@@@std@@QAEPAU?$_Tree_node@U?$pair@$$CBHPAVobject_t@@@std@@PAX@2@I@Z 1001d2e0 f i mfdpage.obj
 0001:0001c300       ?allocate@?$_Wrap_alloc@V?$allocator@U?$_Tree_node@U?$pair@$$CBV?$basic_string@DU?$char_traits@D@std@@V?$allocator@D@2@@std@@D@std@@PAX@std@@@std@@@std@@QAEPAU?$_Tree_node@U?$pair@$$CBV?$basic_string@DU?$char_traits@D@std@@V?$allocator@D@2@@std@@D@std@@PAX@2@I@Z 1001d300 f i mfdpage.obj
 0001:0001c320       ?allocate@?$_Wrap_alloc@V?$allocator@U?$_Tree_node@U?$pair@$$CBV?$basic_string@DU?$char_traits@D@std@@V?$allocator@D@2@@std@@H@std@@PAX@std@@@std@@@std@@QAEPAU?$_Tree_node@U?$pair@$$CBV?$basic_string@DU?$char_traits@D@std@@V?$allocator@D@2@@std@@H@std@@PAX@2@I@Z 1001d320 f i mfdpage.obj
 0001:0001c340       ?allocate@?$allocator@U?$_Tree_node@U?$pair@$$CBHPAVobject_t@@@std@@PAX@std@@@std@@QAEPAU?$_Tree_node@U?$pair@$$CBHPAVobject_t@@@std@@PAX@2@I@Z 1001d340 f i mfdpage.obj
 0001:0001c360       ?allocate@?$allocator@U?$_Tree_node@U?$pair@$$CBV?$basic_string@DU?$char_traits@D@std@@V?$allocator@D@2@@std@@D@std@@PAX@std@@@std@@QAEPAU?$_Tree_node@U?$pair@$$CBV?$basic_string@DU?$char_traits@D@std@@V?$allocator@D@2@@std@@D@std@@PAX@2@I@Z 1001d360 f i mfdpage.obj
 0001:0001c380       ?allocate@?$allocator@U?$_Tree_node@U?$pair@$$CBV?$basic_string@DU?$char_traits@D@std@@V?$allocator@D@2@@std@@H@std@@PAX@std@@@std@@QAEPAU?$_Tree_node@U?$pair@$$CBV?$basic_string@DU?$char_traits@D@std@@V?$allocator@D@2@@std@@H@std@@PAX@2@I@Z 1001d380 f i mfdpage.obj
 0001:0001c3a0       ?append@?$basic_string@DU?$char_traits@D@std@@V?$allocator@D@2@@std@@QAEAAV12@ID@Z 1001d3a0 f i mfdpage.obj
 0001:0001c420       ?assign@?$char_traits@D@std@@SAPADPADID@Z 1001d420 f i mfdpage.obj
 0001:0001c440       ?begin@?$_Tree@V?$_Tmap_traits@HPAVobject_t@@U?$less@H@std@@V?$allocator@U?$pair@$$CBHPAVobject_t@@@std@@@3@$0A@@std@@@std@@QAE?AV?$_Tree_iterator@V?$_Tree_val@U?$_Tree_simple_types@U?$pair@$$CBHPAVobject_t@@@std@@@std@@@std@@@2@XZ 1001d440 f i mfdpage.obj
 0001:0001c470       ?begin@?$_Tree@V?$_Tmap_traits@V?$basic_string@DU?$char_traits@D@std@@V?$allocator@D@2@@std@@DU?$less@V?$basic_string@DU?$char_traits@D@std@@V?$allocator@D@2@@std@@@2@V?$allocator@U?$pair@$$CBV?$basic_string@DU?$char_traits@D@std@@V?$allocator@D@2@@std@@D@std@@@2@$0A@@std@@@std@@QAE?AV?$_Tree_iterator@V?$_Tree_val@U?$_Tree_simple_types@U?$pair@$$CBV?$basic_string@DU?$char_traits@D@std@@V?$allocator@D@2@@std@@D@std@@@std@@@std@@@2@XZ 1001d470 f i mfdpage.obj
 0001:0001c4a0       ?begin@?$_Tree@V?$_Tmap_traits@V?$basic_string@DU?$char_traits@D@std@@V?$allocator@D@2@@std@@HU?$less@V?$basic_string@DU?$char_traits@D@std@@V?$allocator@D@2@@std@@@2@V?$allocator@U?$pair@$$CBV?$basic_string@DU?$char_traits@D@std@@V?$allocator@D@2@@std@@H@std@@@2@$0A@@std@@@std@@QAE?AV?$_Tree_iterator@V?$_Tree_val@U?$_Tree_simple_types@U?$pair@$$CBV?$basic_string@DU?$char_traits@D@std@@V?$allocator@D@2@@std@@H@std@@@std@@@std@@@2@XZ 1001d4a0 f i mfdpage.obj
 0001:0001c4d0       ?begin@?$basic_string@DU?$char_traits@D@std@@V?$allocator@D@2@@std@@QAE?AV?$_String_iterator@V?$_String_val@U?$_Simple_types@D@std@@@std@@@2@XZ 1001d4d0 f i mfdpage.obj
 0001:0001c500       ?clear@?$_Tree@V?$_Tmap_traits@HPAVobject_t@@U?$less@H@std@@V?$allocator@U?$pair@$$CBHPAVobject_t@@@std@@@3@$0A@@std@@@std@@QAEXXZ 1001d500 f i mfdpage.obj
 0001:0001c560       ?clear@?$_Tree@V?$_Tmap_traits@HV?$basic_string@DU?$char_traits@D@std@@V?$allocator@D@2@@std@@U?$less@H@2@V?$allocator@U?$pair@$$CBHV?$basic_string@DU?$char_traits@D@std@@V?$allocator@D@2@@std@@@std@@@2@$0A@@std@@@std@@QAEXXZ 1001d560 f i mfdpage.obj
 0001:0001c5c0       ?clear@?$_Tree@V?$_Tmap_traits@V?$basic_string@DU?$char_traits@D@std@@V?$allocator@D@2@@std@@HU?$less@V?$basic_string@DU?$char_traits@D@std@@V?$allocator@D@2@@std@@@2@V?$allocator@U?$pair@$$CBV?$basic_string@DU?$char_traits@D@std@@V?$allocator@D@2@@std@@H@std@@@2@$0A@@std@@@std@@QAEXXZ 1001d5c0 f i mfdpage.obj
 0001:0001c620       ?deallocate@?$_Wrap_alloc@V?$allocator@U?$_Tree_node@U?$pair@$$CBHPAVobject_t@@@std@@PAX@std@@@std@@@std@@QAEXPAU?$_Tree_node@U?$pair@$$CBHPAVobject_t@@@std@@PAX@2@I@Z 1001d620 f i mfdpage.obj
 0001:0001c640       ?deallocate@?$_Wrap_alloc@V?$allocator@U?$_Tree_node@U?$pair@$$CBV?$basic_string@DU?$char_traits@D@std@@V?$allocator@D@2@@std@@D@std@@PAX@std@@@std@@@std@@QAEXPAU?$_Tree_node@U?$pair@$$CBV?$basic_string@DU?$char_traits@D@std@@V?$allocator@D@2@@std@@D@std@@PAX@2@I@Z 1001d640 f i mfdpage.obj
 0001:0001c660       ?deallocate@?$_Wrap_alloc@V?$allocator@U?$_Tree_node@U?$pair@$$CBV?$basic_string@DU?$char_traits@D@std@@V?$allocator@D@2@@std@@H@std@@PAX@std@@@std@@@std@@QAEXPAU?$_Tree_node@U?$pair@$$CBV?$basic_string@DU?$char_traits@D@std@@V?$allocator@D@2@@std@@H@std@@PAX@2@I@Z 1001d660 f i mfdpage.obj
 0001:0001c680       ?deallocate@?$allocator@U?$_Tree_node@U?$pair@$$CBHPAVobject_t@@@std@@PAX@std@@@std@@QAEXPAU?$_Tree_node@U?$pair@$$CBHPAVobject_t@@@std@@PAX@2@I@Z 1001d680 f i mfdpage.obj
 0001:0001c6a0       ?deallocate@?$allocator@U?$_Tree_node@U?$pair@$$CBV?$basic_string@DU?$char_traits@D@std@@V?$allocator@D@2@@std@@D@std@@PAX@std@@@std@@QAEXPAU?$_Tree_node@U?$pair@$$CBV?$basic_string@DU?$char_traits@D@std@@V?$allocator@D@2@@std@@D@std@@PAX@2@I@Z 1001d6a0 f i mfdpage.obj
 0001:0001c6c0       ?deallocate@?$allocator@U?$_Tree_node@U?$pair@$$CBV?$basic_string@DU?$char_traits@D@std@@V?$allocator@D@2@@std@@H@std@@PAX@std@@@std@@QAEXPAU?$_Tree_node@U?$pair@$$CBV?$basic_string@DU?$char_traits@D@std@@V?$allocator@D@2@@std@@H@std@@PAX@2@I@Z 1001d6c0 f i mfdpage.obj
 0001:0001c6e0       ?end@?$_Tree@V?$_Tmap_traits@HPAVobject_t@@U?$less@H@std@@V?$allocator@U?$pair@$$CBHPAVobject_t@@@std@@@3@$0A@@std@@@std@@QAE?AV?$_Tree_iterator@V?$_Tree_val@U?$_Tree_simple_types@U?$pair@$$CBHPAVobject_t@@@std@@@std@@@std@@@2@XZ 1001d6e0 f i mfdpage.obj
 0001:0001c710       ?end@?$_Tree@V?$_Tmap_traits@V?$basic_string@DU?$char_traits@D@std@@V?$allocator@D@2@@std@@DU?$less@V?$basic_string@DU?$char_traits@D@std@@V?$allocator@D@2@@std@@@2@V?$allocator@U?$pair@$$CBV?$basic_string@DU?$char_traits@D@std@@V?$allocator@D@2@@std@@D@std@@@2@$0A@@std@@@std@@QAE?AV?$_Tree_iterator@V?$_Tree_val@U?$_Tree_simple_types@U?$pair@$$CBV?$basic_string@DU?$char_traits@D@std@@V?$allocator@D@2@@std@@D@std@@@std@@@std@@@2@XZ 1001d710 f i mfdpage.obj
 0001:0001c740       ?end@?$_Tree@V?$_Tmap_traits@V?$basic_string@DU?$char_traits@D@std@@V?$allocator@D@2@@std@@HU?$less@V?$basic_string@DU?$char_traits@D@std@@V?$allocator@D@2@@std@@@2@V?$allocator@U?$pair@$$CBV?$basic_string@DU?$char_traits@D@std@@V?$allocator@D@2@@std@@H@std@@@2@$0A@@std@@@std@@QAE?AV?$_Tree_iterator@V?$_Tree_val@U?$_Tree_simple_types@U?$pair@$$CBV?$basic_string@DU?$char_traits@D@std@@V?$allocator@D@2@@std@@H@std@@@std@@@std@@@2@XZ 1001d740 f i mfdpage.obj
 0001:0001c770       ?end@?$basic_string@DU?$char_traits@D@std@@V?$allocator@D@2@@std@@QAE?AV?$_String_iterator@V?$_String_val@U?$_Simple_types@D@std@@@std@@@2@XZ 1001d770 f i mfdpage.obj
 0001:0001c7a0       ?erase@?$_Tree@V?$_Tmap_traits@HPAVobject_t@@U?$less@H@std@@V?$allocator@U?$pair@$$CBHPAVobject_t@@@std@@@3@$0A@@std@@@std@@QAE?AV?$_Tree_iterator@V?$_Tree_val@U?$_Tree_simple_types@U?$pair@$$CBHPAVobject_t@@@std@@@std@@@std@@@2@V?$_Tree_const_iterator@V?$_Tree_val@U?$_Tree_simple_types@U?$pair@$$CBHPAVobject_t@@@std@@@std@@@std@@@2@0@Z 1001d7a0 f i mfdpage.obj
 0001:0001c850       ?erase@?$_Tree@V?$_Tmap_traits@HPAVobject_t@@U?$less@H@std@@V?$allocator@U?$pair@$$CBHPAVobject_t@@@std@@@3@$0A@@std@@@std@@QAE?AV?$_Tree_iterator@V?$_Tree_val@U?$_Tree_simple_types@U?$pair@$$CBHPAVobject_t@@@std@@@std@@@std@@@2@V?$_Tree_const_iterator@V?$_Tree_val@U?$_Tree_simple_types@U?$pair@$$CBHPAVobject_t@@@std@@@std@@@std@@@2@@Z 1001d850 f i mfdpage.obj
 0001:0001cfd0       ?erase@?$_Tree@V?$_Tmap_traits@HV?$basic_string@DU?$char_traits@D@std@@V?$allocator@D@2@@std@@U?$less@H@2@V?$allocator@U?$pair@$$CBHV?$basic_string@DU?$char_traits@D@std@@V?$allocator@D@2@@std@@@std@@@2@$0A@@std@@@std@@QAE?AV?$_Tree_iterator@V?$_Tree_val@U?$_Tree_simple_types@U?$pair@$$CBHV?$basic_string@DU?$char_traits@D@std@@V?$allocator@D@2@@std@@@std@@@std@@@std@@@2@V?$_Tree_const_iterator@V?$_Tree_val@U?$_Tree_simple_types@U?$pair@$$CBHV?$basic_string@DU?$char_traits@D@std@@V?$allocator@D@2@@std@@@std@@@std@@@std@@@2@0@Z 1001dfd0 f i mfdpage.obj
 0001:0001d080       ?erase@?$_Tree@V?$_Tmap_traits@HV?$basic_string@DU?$char_traits@D@std@@V?$allocator@D@2@@std@@U?$less@H@2@V?$allocator@U?$pair@$$CBHV?$basic_string@DU?$char_traits@D@std@@V?$allocator@D@2@@std@@@std@@@2@$0A@@std@@@std@@QAE?AV?$_Tree_iterator@V?$_Tree_val@U?$_Tree_simple_types@U?$pair@$$CBHV?$basic_string@DU?$char_traits@D@std@@V?$allocator@D@2@@std@@@std@@@std@@@std@@@2@V?$_Tree_const_iterator@V?$_Tree_val@U?$_Tree_simple_types@U?$pair@$$CBHV?$basic_string@DU?$char_traits@D@std@@V?$allocator@D@2@@std@@@std@@@std@@@std@@@2@@Z 1001e080 f i mfdpage.obj
 0001:0001d800       ?erase@?$_Tree@V?$_Tmap_traits@V?$basic_string@DU?$char_traits@D@std@@V?$allocator@D@2@@std@@HU?$less@V?$basic_string@DU?$char_traits@D@std@@V?$allocator@D@2@@std@@@2@V?$allocator@U?$pair@$$CBV?$basic_string@DU?$char_traits@D@std@@V?$allocator@D@2@@std@@H@std@@@2@$0A@@std@@@std@@QAE?AV?$_Tree_iterator@V?$_Tree_val@U?$_Tree_simple_types@U?$pair@$$CBV?$basic_string@DU?$char_traits@D@std@@V?$allocator@D@2@@std@@H@std@@@std@@@std@@@2@V?$_Tree_const_iterator@V?$_Tree_val@U?$_Tree_simple_types@U?$pair@$$CBV?$basic_string@DU?$char_traits@D@std@@V?$allocator@D@2@@std@@H@std@@@std@@@std@@@2@0@Z 1001e800 f i mfdpage.obj
 0001:0001d8b0       ?erase@?$_Tree@V?$_Tmap_traits@V?$basic_string@DU?$char_traits@D@std@@V?$allocator@D@2@@std@@HU?$less@V?$basic_string@DU?$char_traits@D@std@@V?$allocator@D@2@@std@@@2@V?$allocator@U?$pair@$$CBV?$basic_string@DU?$char_traits@D@std@@V?$allocator@D@2@@std@@H@std@@@2@$0A@@std@@@std@@QAE?AV?$_Tree_iterator@V?$_Tree_val@U?$_Tree_simple_types@U?$pair@$$CBV?$basic_string@DU?$char_traits@D@std@@V?$allocator@D@2@@std@@H@std@@@std@@@std@@@2@V?$_Tree_const_iterator@V?$_Tree_val@U?$_Tree_simple_types@U?$pair@$$CBV?$basic_string@DU?$char_traits@D@std@@V?$allocator@D@2@@std@@H@std@@@std@@@std@@@2@@Z 1001e8b0 f i mfdpage.obj
 0001:0001e030       ?find@?$basic_string@DU?$char_traits@D@std@@V?$allocator@D@2@@std@@QBEIPBDI@Z 1001f030 f i mfdpage.obj
 0001:0001e060       ?find@?$basic_string@DU?$char_traits@D@std@@V?$allocator@D@2@@std@@QBEIPBDII@Z 1001f060 f i mfdpage.obj
 0001:0001e140       ?find@?$char_traits@D@std@@SAPBDPBDIABD@Z 1001f140 f i mfdpage.obj
 0001:0001e180       ?key_comp@?$_Tree@V?$_Tmap_traits@HPAVobject_t@@U?$less@H@std@@V?$allocator@U?$pair@$$CBHPAVobject_t@@@std@@@3@$0A@@std@@@std@@QBE?AU?$less@H@2@XZ 1001f180 f i mfdpage.obj
 0001:0001e1a0       ?lower_bound@?$_Tree@V?$_Tmap_traits@HPAVobject_t@@U?$less@H@std@@V?$allocator@U?$pair@$$CBHPAVobject_t@@@std@@@3@$0A@@std@@@std@@QAE?AV?$_Tree_iterator@V?$_Tree_val@U?$_Tree_simple_types@U?$pair@$$CBHPAVobject_t@@@std@@@std@@@std@@@2@ABH@Z 1001f1a0 f i mfdpage.obj
 0001:0001e1d0       ?lower_bound@?$_Tree@V?$_Tmap_traits@V?$basic_string@DU?$char_traits@D@std@@V?$allocator@D@2@@std@@DU?$less@V?$basic_string@DU?$char_traits@D@std@@V?$allocator@D@2@@std@@@2@V?$allocator@U?$pair@$$CBV?$basic_string@DU?$char_traits@D@std@@V?$allocator@D@2@@std@@D@std@@@2@$0A@@std@@@std@@QAE?AV?$_Tree_iterator@V?$_Tree_val@U?$_Tree_simple_types@U?$pair@$$CBV?$basic_string@DU?$char_traits@D@std@@V?$allocator@D@2@@std@@D@std@@@std@@@std@@@2@ABV?$basic_string@DU?$char_traits@D@std@@V?$allocator@D@2@@2@@Z 1001f1d0 f i mfdpage.obj
 0001:0001e200       ?lower_bound@?$_Tree@V?$_Tmap_traits@V?$basic_string@DU?$char_traits@D@std@@V?$allocator@D@2@@std@@HU?$less@V?$basic_string@DU?$char_traits@D@std@@V?$allocator@D@2@@std@@@2@V?$allocator@U?$pair@$$CBV?$basic_string@DU?$char_traits@D@std@@V?$allocator@D@2@@std@@H@std@@@2@$0A@@std@@@std@@QAE?AV?$_Tree_iterator@V?$_Tree_val@U?$_Tree_simple_types@U?$pair@$$CBV?$basic_string@DU?$char_traits@D@std@@V?$allocator@D@2@@std@@H@std@@@std@@@std@@@2@ABV?$basic_string@DU?$char_traits@D@std@@V?$allocator@D@2@@2@@Z 1001f200 f i mfdpage.obj
 0001:0001e230       ?max_size@?$_Tree@V?$_Tmap_traits@HPAVobject_t@@U?$less@H@std@@V?$allocator@U?$pair@$$CBHPAVobject_t@@@std@@@3@$0A@@std@@@std@@QBEIXZ 1001f230 f i mfdpage.obj
 0001:0001e250       ?max_size@?$_Tree@V?$_Tmap_traits@V?$basic_string@DU?$char_traits@D@std@@V?$allocator@D@2@@std@@DU?$less@V?$basic_string@DU?$char_traits@D@std@@V?$allocator@D@2@@std@@@2@V?$allocator@U?$pair@$$CBV?$basic_string@DU?$char_traits@D@std@@V?$allocator@D@2@@std@@D@std@@@2@$0A@@std@@@std@@QBEIXZ 1001f250 f i mfdpage.obj
 0001:0001e270       ?max_size@?$_Tree@V?$_Tmap_traits@V?$basic_string@DU?$char_traits@D@std@@V?$allocator@D@2@@std@@HU?$less@V?$basic_string@DU?$char_traits@D@std@@V?$allocator@D@2@@std@@@2@V?$allocator@U?$pair@$$CBV?$basic_string@DU?$char_traits@D@std@@V?$allocator@D@2@@std@@H@std@@@2@$0A@@std@@@std@@QBEIXZ 1001f270 f i mfdpage.obj
 0001:0001e290       ?max_size@?$_Wrap_alloc@V?$allocator@U?$_Tree_node@U?$pair@$$CBHPAVobject_t@@@std@@PAX@std@@@std@@@std@@QBEIXZ 1001f290 f i mfdpage.obj
 0001:0001e2b0       ?max_size@?$_Wrap_alloc@V?$allocator@U?$_Tree_node@U?$pair@$$CBV?$basic_string@DU?$char_traits@D@std@@V?$allocator@D@2@@std@@D@std@@PAX@std@@@std@@@std@@QBEIXZ 1001f2b0 f i mfdpage.obj
 0001:0001e2d0       ?max_size@?$_Wrap_alloc@V?$allocator@U?$_Tree_node@U?$pair@$$CBV?$basic_string@DU?$char_traits@D@std@@V?$allocator@D@2@@std@@H@std@@PAX@std@@@std@@@std@@QBEIXZ 1001f2d0 f i mfdpage.obj
 0001:0001e2f0       ?max_size@?$allocator@U?$_Tree_node@U?$pair@$$CBHPAVobject_t@@@std@@PAX@std@@@std@@QBEIXZ 1001f2f0 f i mfdpage.obj
 0001:0001e300       ?max_size@?$allocator@U?$_Tree_node@U?$pair@$$CBV?$basic_string@DU?$char_traits@D@std@@V?$allocator@D@2@@std@@D@std@@PAX@std@@@std@@QBEIXZ 1001f300 f i mfdpage.obj
 0001:0001e310       ?max_size@?$allocator@U?$_Tree_node@U?$pair@$$CBV?$basic_string@DU?$char_traits@D@std@@V?$allocator@D@2@@std@@H@std@@PAX@std@@@std@@QBEIXZ 1001f310 f i mfdpage.obj
 0001:0001e320       ?max_size@?$allocator_traits@V?$allocator@U?$_Tree_node@U?$pair@$$CBHPAVobject_t@@@std@@PAX@std@@@std@@@std@@SAIABV?$allocator@U?$_Tree_node@U?$pair@$$CBHPAVobject_t@@@std@@PAX@std@@@2@@Z 1001f320 f i mfdpage.obj
 0001:0001e330       ?max_size@?$allocator_traits@V?$allocator@U?$_Tree_node@U?$pair@$$CBV?$basic_string@DU?$char_traits@D@std@@V?$allocator@D@2@@std@@D@std@@PAX@std@@@std@@@std@@SAIABV?$allocator@U?$_Tree_node@U?$pair@$$CBV?$basic_string@DU?$char_traits@D@std@@V?$allocator@D@2@@std@@D@std@@PAX@std@@@2@@Z 1001f330 f i mfdpage.obj
 0001:0001e340       ?max_size@?$allocator_traits@V?$allocator@U?$_Tree_node@U?$pair@$$CBV?$basic_string@DU?$char_traits@D@std@@V?$allocator@D@2@@std@@H@std@@PAX@std@@@std@@@std@@SAIABV?$allocator@U?$_Tree_node@U?$pair@$$CBV?$basic_string@DU?$char_traits@D@std@@V?$allocator@D@2@@std@@H@std@@PAX@std@@@2@@Z 1001f340 f i mfdpage.obj
 0001:0001e350       ?pointer_to@?$pointer_traits@PAU?$pair@$$CBHPAVobject_t@@@std@@@std@@SAPAU?$pair@$$CBHPAVobject_t@@@2@AAU32@@Z 1001f350 f i mfdpage.obj
 0001:0001e370       ?pointer_to@?$pointer_traits@PAU?$pair@$$CBV?$basic_string@DU?$char_traits@D@std@@V?$allocator@D@2@@std@@D@std@@@std@@SAPAU?$pair@$$CBV?$basic_string@DU?$char_traits@D@std@@V?$allocator@D@2@@std@@D@2@AAU32@@Z 1001f370 f i mfdpage.obj
 0001:0001e390       ?pointer_to@?$pointer_traits@PAU?$pair@$$CBV?$basic_string@DU?$char_traits@D@std@@V?$allocator@D@2@@std@@H@std@@@std@@SAPAU?$pair@$$CBV?$basic_string@DU?$char_traits@D@std@@V?$allocator@D@2@@std@@H@2@AAU32@@Z 1001f390 f i mfdpage.obj
 0001:0001e3b0       ?replace@?$basic_string@DU?$char_traits@D@std@@V?$allocator@D@2@@std@@QAEAAV12@IIABV12@II@Z 1001f3b0 f i mfdpage.obj
 0001:0001e670       ?replace@?$basic_string@DU?$char_traits@D@std@@V?$allocator@D@2@@std@@QAEAAV12@IIPBDI@Z 1001f670 f i mfdpage.obj
 0001:0001e7e0       ?replace@?$basic_string@DU?$char_traits@D@std@@V?$allocator@D@2@@std@@QAEAAV12@V?$_String_const_iterator@V?$_String_val@U?$_Simple_types@D@std@@@std@@@2@0V?$_String_iterator@V?$_String_val@U?$_Simple_types@D@std@@@std@@@2@1@Z 1001f7e0 f i mfdpage.obj
 0001:0001e8a0       ?select_on_container_copy_construction@?$_Wrap_alloc@V?$allocator@U?$_Tree_node@U?$pair@$$CBHPAVobject_t@@@std@@PAX@std@@@std@@@std@@QBE?AU12@XZ 1001f8a0 f i mfdpage.obj
 0001:0001e8d0       ?select_on_container_copy_construction@?$allocator@U?$_Tree_node@U?$pair@$$CBHPAVobject_t@@@std@@PAX@std@@@std@@QBE?AV12@XZ 1001f8d0 f i mfdpage.obj
 0001:0001e8f0       ?select_on_container_copy_construction@?$allocator_traits@V?$allocator@U?$_Tree_node@U?$pair@$$CBHPAVobject_t@@@std@@PAX@std@@@std@@@std@@SA?AV?$allocator@U?$_Tree_node@U?$pair@$$CBHPAVobject_t@@@std@@PAX@std@@@2@ABV32@@Z 1001f8f0 f i mfdpage.obj
 0001:0001e910       ?size@?$_Tree@V?$_Tmap_traits@HPAVobject_t@@U?$less@H@std@@V?$allocator@U?$pair@$$CBHPAVobject_t@@@std@@@3@$0A@@std@@@std@@QBEIXZ 1001f910 f i mfdpage.obj
 0001:0001e930       ?size@?$_Tree@V?$_Tmap_traits@V?$basic_string@DU?$char_traits@D@std@@V?$allocator@D@2@@std@@DU?$less@V?$basic_string@DU?$char_traits@D@std@@V?$allocator@D@2@@std@@@2@V?$allocator@U?$pair@$$CBV?$basic_string@DU?$char_traits@D@std@@V?$allocator@D@2@@std@@D@std@@@2@$0A@@std@@@std@@QBEIXZ 1001f930 f i mfdpage.obj
 0001:0001e950       ?size@?$_Tree@V?$_Tmap_traits@V?$basic_string@DU?$char_traits@D@std@@V?$allocator@D@2@@std@@HU?$less@V?$basic_string@DU?$char_traits@D@std@@V?$allocator@D@2@@std@@@2@V?$allocator@U?$pair@$$CBV?$basic_string@DU?$char_traits@D@std@@V?$allocator@D@2@@std@@H@std@@@2@$0A@@std@@@std@@QBEIXZ 1001f950 f i mfdpage.obj
 0001:0001e970       ??0mfdpage_fms_t@@QAE@V?$basic_string@DU?$char_traits@D@std@@V?$allocator@D@2@@std@@@Z 1001f970 f   mfdpage_fms.obj
 0001:0001e9c0       ??0mfdpage_fms_t@@QAE@V?$basic_string@DU?$char_traits@D@std@@V?$allocator@D@2@@std@@PAVfms_t@@@Z 1001f9c0 f   mfdpage_fms.obj
 0001:0001ea30       ?get_template@mfdpage_fms_t@@UAE?AV?$basic_string@DU?$char_traits@D@std@@V?$allocator@D@2@@std@@V23@AAV?$map@HV?$basic_string@DU?$char_traits@D@std@@V?$allocator@D@2@@std@@U?$less@H@2@V?$allocator@U?$pair@$$CBHV?$basic_string@DU?$char_traits@D@std@@V?$allocator@D@2@@std@@@std@@@2@@3@@Z 1001fa30 f   mfdpage_fms.obj
 0001:0001ebb0       ?do_refresh@mfdpage_fms_t@@UAEXPAVobject_t@@@Z 1001fbb0 f   mfdpage_fms.obj
 0001:0001ed00       ?refresh_interval@mfdpage_fms_t@@UAEHV?$basic_string@DU?$char_traits@D@std@@V?$allocator@D@2@@std@@@Z 1001fd00 f   mfdpage_fms.obj
 0001:0001ed30       ?refresh_template@mfdpage_fms_t@@UAE?AV?$basic_string@DU?$char_traits@D@std@@V?$allocator@D@2@@std@@V23@V?$map@HPAVobject_t@@U?$less@H@std@@V?$allocator@U?$pair@$$CBHPAVobject_t@@@std@@@3@@3@0@Z 1001fd30 f   mfdpage_fms.obj
 0001:0001f700       ??$?0$$QAH$$$V@?$pair@$$CBHPAVfms_fp_item_t@@@std@@QAE@Upiecewise_construct_t@1@V?$tuple@$$QAH@1@V?$tuple@$$$V@1@@Z 10020700 f i mfdpage_fms.obj
 0001:0001f740       ??$?0$$QAH$$$V@?$pair@$$CBHPAVobject_t@@@std@@QAE@Upiecewise_construct_t@1@V?$tuple@$$QAH@1@V?$tuple@$$$V@1@@Z 10020740 f i mfdpage_fms.obj
 0001:0001f780       ??$?0$$QAH$$$V@?$pair@$$CBHV?$basic_string@DU?$char_traits@D@std@@V?$allocator@D@2@@std@@@std@@QAE@Upiecewise_construct_t@1@V?$tuple@$$QAH@1@V?$tuple@$$$V@1@@Z 10020780 f i mfdpage_fms.obj
 0001:0001f7c0       ??$?0$$QAHPAPAX@?$tuple@$$QAH@std@@QAE@$$QAV01@@Z 100207c0 f i mfdpage_fms.obj
 0001:0001f810       ??$?0$$QAV?$basic_string@DU?$char_traits@D@std@@V?$allocator@D@2@@std@@$$$V@?$pair@$$CBV?$basic_string@DU?$char_traits@D@std@@V?$allocator@D@2@@std@@M@std@@QAE@Upiecewise_construct_t@1@V?$tuple@$$QAV?$basic_string@DU?$char_traits@D@std@@V?$allocator@D@2@@std@@@1@V?$tuple@$$$V@1@@Z 10020810 f i mfdpage_fms.obj
 0001:0001f850       ??$?0AAV?$_Tree_iterator@V?$_Tree_val@U?$_Tree_simple_types@U?$pair@$$CBHPAVfms_fp_item_t@@@std@@@std@@@std@@@std@@_NX@?$pair@V?$_Tree_iterator@V?$_Tree_val@U?$_Tree_simple_types@U?$pair@$$CBHPAVfms_fp_item_t@@@std@@@std@@@std@@@std@@_N@std@@QAE@AAV?$_Tree_iterator@V?$_Tree_val@U?$_Tree_simple_types@U?$pair@$$CBHPAVfms_fp_item_t@@@std@@@std@@@std@@@1@$$QA_N@Z 10020850 f i mfdpage_fms.obj
 0001:0001f890       ??$?0AAV?$_Tree_iterator@V?$_Tree_val@U?$_Tree_simple_types@U?$pair@$$CBV?$basic_string@DU?$char_traits@D@std@@V?$allocator@D@2@@std@@M@std@@@std@@@std@@@std@@_NX@?$pair@V?$_Tree_iterator@V?$_Tree_val@U?$_Tree_simple_types@U?$pair@$$CBV?$basic_string@DU?$char_traits@D@std@@V?$allocator@D@2@@std@@M@std@@@std@@@std@@@std@@_N@std@@QAE@AAV?$_Tree_iterator@V?$_Tree_val@U?$_Tree_simple_types@U?$pair@$$CBV?$basic_string@DU?$char_traits@D@std@@V?$allocator@D@2@@std@@M@std@@@std@@@std@@@1@$$QA_N@Z 10020890 f i mfdpage_fms.obj
 0001:0001f8d0       ??$?0ABH$$$V@?$pair@$$CBHPAVfms_fp_item_t@@@std@@QAE@Upiecewise_construct_t@1@V?$tuple@ABH@1@V?$tuple@$$$V@1@@Z 100208d0 f i mfdpage_fms.obj
 0001:0001f910       ??$?0H$$$VPAPAX@?$tuple@$$QAH@std@@QAE@$$QAH@Z 10020910 f i mfdpage_fms.obj
 0001:0001f940       ??$?0H@?$_Tuple_val@$$QAH@std@@QAE@$$QAH@Z 10020940 f i mfdpage_fms.obj
 0001:0001f970       ??$?0V?$_Tree_iterator@V?$_Tree_val@U?$_Tree_simple_types@U?$pair@$$CBHPAVfms_fp_item_t@@@std@@@std@@@std@@@std@@_NX@?$pair@V?$_Tree_iterator@V?$_Tree_val@U?$_Tree_simple_types@U?$pair@$$CBHPAVfms_fp_item_t@@@std@@@std@@@std@@@std@@_N@std@@QAE@$$QAV?$_Tree_iterator@V?$_Tree_val@U?$_Tree_simple_types@U?$pair@$$CBHPAVfms_fp_item_t@@@std@@@std@@@std@@@1@$$QA_N@Z 10020970 f i mfdpage_fms.obj
 0001:0001f9b0       ??$?0V?$_Tree_iterator@V?$_Tree_val@U?$_Tree_simple_types@U?$pair@$$CBV?$basic_string@DU?$char_traits@D@std@@V?$allocator@D@2@@std@@M@std@@@std@@@std@@@std@@_NX@?$pair@V?$_Tree_iterator@V?$_Tree_val@U?$_Tree_simple_types@U?$pair@$$CBV?$basic_string@DU?$char_traits@D@std@@V?$allocator@D@2@@std@@M@std@@@std@@@std@@@std@@_N@std@@QAE@$$QAV?$_Tree_iterator@V?$_Tree_val@U?$_Tree_simple_types@U?$pair@$$CBV?$basic_string@DU?$char_traits@D@std@@V?$allocator@D@2@@std@@M@std@@@std@@@std@@@1@$$QA_N@Z 100209b0 f i mfdpage_fms.obj
 0001:0001f9f0       ??$?0V?$tuple@$$QAH@std@@V?$tuple@$$$V@1@$0A@$S@?$pair@$$CBHPAVfms_fp_item_t@@@std@@QAE@AAV?$tuple@$$QAH@1@AAV?$tuple@$$$V@1@U?$_Arg_idx@$0A@@1@U?$_Arg_idx@$S@1@@Z 100209f0 f i mfdpage_fms.obj
 0001:0001fa30       ??$?0V?$tuple@$$QAH@std@@V?$tuple@$$$V@1@$0A@$S@?$pair@$$CBHPAVobject_t@@@std@@QAE@AAV?$tuple@$$QAH@1@AAV?$tuple@$$$V@1@U?$_Arg_idx@$0A@@1@U?$_Arg_idx@$S@1@@Z 10020a30 f i mfdpage_fms.obj
 0001:0001fa70       ??$?0V?$tuple@$$QAH@std@@V?$tuple@$$$V@1@$0A@$S@?$pair@$$CBHV?$basic_string@DU?$char_traits@D@std@@V?$allocator@D@2@@std@@@std@@QAE@AAV?$tuple@$$QAH@1@AAV?$tuple@$$$V@1@U?$_Arg_idx@$0A@@1@U?$_Arg_idx@$S@1@@Z 10020a70 f i mfdpage_fms.obj
 0001:0001fab0       ??$?0V?$tuple@$$QAV?$basic_string@DU?$char_traits@D@std@@V?$allocator@D@2@@std@@@std@@V?$tuple@$$$V@1@$0A@$S@?$pair@$$CBV?$basic_string@DU?$char_traits@D@std@@V?$allocator@D@2@@std@@M@std@@QAE@AAV?$tuple@$$QAV?$basic_string@DU?$char_traits@D@std@@V?$allocator@D@2@@std@@@1@AAV?$tuple@$$$V@1@U?$_Arg_idx@$0A@@1@U?$_Arg_idx@$S@1@@Z 10020ab0 f i mfdpage_fms.obj
 0001:0001faf0       ??$?0V?$tuple@ABH@std@@V?$tuple@$$$V@1@$0A@$S@?$pair@$$CBHPAVfms_fp_item_t@@@std@@QAE@AAV?$tuple@ABH@1@AAV?$tuple@$$$V@1@U?$_Arg_idx@$0A@@1@U?$_Arg_idx@$S@1@@Z 10020af0 f i mfdpage_fms.obj
 0001:0001fb30       ??$_Allocate@U?$_Tree_node@U?$pair@$$CBHPAVfms_fp_item_t@@@std@@PAX@std@@@std@@YAPAU?$_Tree_node@U?$pair@$$CBHPAVfms_fp_item_t@@@std@@PAX@0@IPAU10@@Z 10020b30 f i mfdpage_fms.obj
 0001:0001fb70       ??$_Allocate@U?$_Tree_node@U?$pair@$$CBV?$basic_string@DU?$char_traits@D@std@@V?$allocator@D@2@@std@@M@std@@PAX@std@@@std@@YAPAU?$_Tree_node@U?$pair@$$CBV?$basic_string@DU?$char_traits@D@std@@V?$allocator@D@2@@std@@M@std@@PAX@0@IPAU10@@Z 10020b70 f i mfdpage_fms.obj
 0001:0001fbb0       ??$_Buynode@ABUpiecewise_construct_t@std@@V?$tuple@$$QAH@2@V?$tuple@$$$V@2@@?$_Tree_buy@U?$pair@$$CBHPAVfms_fp_item_t@@@std@@V?$allocator@U?$pair@$$CBHPAVfms_fp_item_t@@@std@@@2@@std@@QAEPAU?$_Tree_node@U?$pair@$$CBHPAVfms_fp_item_t@@@std@@PAX@1@ABUpiecewise_construct_t@1@$$QAV?$tuple@$$QAH@1@$$QAV?$tuple@$$$V@1@@Z 10020bb0 f i mfdpage_fms.obj
 0001:0001fcb0       ??$_Buynode@ABUpiecewise_construct_t@std@@V?$tuple@$$QAH@2@V?$tuple@$$$V@2@@?$_Tree_buy@U?$pair@$$CBHPAVobject_t@@@std@@V?$allocator@U?$pair@$$CBHPAVobject_t@@@std@@@2@@std@@QAEPAU?$_Tree_node@U?$pair@$$CBHPAVobject_t@@@std@@PAX@1@ABUpiecewise_construct_t@1@$$QAV?$tuple@$$QAH@1@$$QAV?$tuple@$$$V@1@@Z 10020cb0 f i mfdpage_fms.obj
 0001:0001fdb0       ??$_Buynode@ABUpiecewise_construct_t@std@@V?$tuple@$$QAH@2@V?$tuple@$$$V@2@@?$_Tree_buy@U?$pair@$$CBHV?$basic_string@DU?$char_traits@D@std@@V?$allocator@D@2@@std@@@std@@V?$allocator@U?$pair@$$CBHV?$basic_string@DU?$char_traits@D@std@@V?$allocator@D@2@@std@@@std@@@2@@std@@QAEPAU?$_Tree_node@U?$pair@$$CBHV?$basic_string@DU?$char_traits@D@std@@V?$allocator@D@2@@std@@@std@@PAX@1@ABUpiecewise_construct_t@1@$$QAV?$tuple@$$QAH@1@$$QAV?$tuple@$$$V@1@@Z 10020db0 f i mfdpage_fms.obj
 0001:0001feb0       ??$_Buynode@ABUpiecewise_construct_t@std@@V?$tuple@$$QAV?$basic_string@DU?$char_traits@D@std@@V?$allocator@D@2@@std@@@2@V?$tuple@$$$V@2@@?$_Tree_buy@U?$pair@$$CBV?$basic_string@DU?$char_traits@D@std@@V?$allocator@D@2@@std@@M@std@@V?$allocator@U?$pair@$$CBV?$basic_string@DU?$char_traits@D@std@@V?$allocator@D@2@@std@@M@std@@@2@@std@@QAEPAU?$_Tree_node@U?$pair@$$CBV?$basic_string@DU?$char_traits@D@std@@V?$allocator@D@2@@std@@M@std@@PAX@1@ABUpiecewise_construct_t@1@$$QAV?$tuple@$$QAV?$basic_string@DU?$char_traits@D@std@@V?$allocator@D@2@@std@@@1@$$QAV?$tuple@$$$V@1@@Z 10020eb0 f i mfdpage_fms.obj
 0001:0001ffb0       ??$_Buynode@ABUpiecewise_construct_t@std@@V?$tuple@ABH@2@V?$tuple@$$$V@2@@?$_Tree_buy@U?$pair@$$CBHPAVfms_fp_item_t@@@std@@V?$allocator@U?$pair@$$CBHPAVfms_fp_item_t@@@std@@@2@@std@@QAEPAU?$_Tree_node@U?$pair@$$CBHPAVfms_fp_item_t@@@std@@PAX@1@ABUpiecewise_construct_t@1@$$QAV?$tuple@ABH@1@$$QAV?$tuple@$$$V@1@@Z 10020fb0 f i mfdpage_fms.obj
 0001:000200b0       ??$_Buynode_if_nil@AAU?$pair@$$CBHPAVfms_fp_item_t@@@std@@@?$_Tree@V?$_Tmap_traits@HPAVfms_fp_item_t@@U?$less@H@std@@V?$allocator@U?$pair@$$CBHPAVfms_fp_item_t@@@std@@@3@$0A@@std@@@std@@IAEPAU?$_Tree_node@U?$pair@$$CBHPAVfms_fp_item_t@@@std@@PAX@1@PAU21@AAU?$pair@$$CBHPAVfms_fp_item_t@@@1@@Z 100210b0 f i mfdpage_fms.obj
 0001:000200c0       ??$_Buynode_if_nil@AAU?$pair@$$CBV?$basic_string@DU?$char_traits@D@std@@V?$allocator@D@2@@std@@M@std@@@?$_Tree@V?$_Tmap_traits@V?$basic_string@DU?$char_traits@D@std@@V?$allocator@D@2@@std@@MU?$less@V?$basic_string@DU?$char_traits@D@std@@V?$allocator@D@2@@std@@@2@V?$allocator@U?$pair@$$CBV?$basic_string@DU?$char_traits@D@std@@V?$allocator@D@2@@std@@M@std@@@2@$0A@@std@@@std@@IAEPAU?$_Tree_node@U?$pair@$$CBV?$basic_string@DU?$char_traits@D@std@@V?$allocator@D@2@@std@@M@std@@PAX@1@PAU21@AAU?$pair@$$CBV?$basic_string@DU?$char_traits@D@std@@V?$allocator@D@2@@std@@M@1@@Z 100210c0 f i mfdpage_fms.obj
 0001:000200d0       ??$_Insert_at@AAU?$pair@$$CBHPAVfms_fp_item_t@@@std@@PAU?$_Tree_node@U?$pair@$$CBHPAVfms_fp_item_t@@@std@@PAX@2@@?$_Tree@V?$_Tmap_traits@HPAVfms_fp_item_t@@U?$less@H@std@@V?$allocator@U?$pair@$$CBHPAVfms_fp_item_t@@@std@@@3@$0A@@std@@@std@@IAE?AV?$_Tree_iterator@V?$_Tree_val@U?$_Tree_simple_types@U?$pair@$$CBHPAVfms_fp_item_t@@@std@@@std@@@std@@@1@_NPAU?$_Tree_node@U?$pair@$$CBHPAVfms_fp_item_t@@@std@@PAX@1@AAU?$pair@$$CBHPAVfms_fp_item_t@@@1@1@Z 100210d0 f i mfdpage_fms.obj
 0001:00020500       ??$_Insert_at@AAU?$pair@$$CBV?$basic_string@DU?$char_traits@D@std@@V?$allocator@D@2@@std@@M@std@@PAU?$_Tree_node@U?$pair@$$CBV?$basic_string@DU?$char_traits@D@std@@V?$allocator@D@2@@std@@M@std@@PAX@2@@?$_Tree@V?$_Tmap_traits@V?$basic_string@DU?$char_traits@D@std@@V?$allocator@D@2@@std@@MU?$less@V?$basic_string@DU?$char_traits@D@std@@V?$allocator@D@2@@std@@@2@V?$allocator@U?$pair@$$CBV?$basic_string@DU?$char_traits@D@std@@V?$allocator@D@2@@std@@M@std@@@2@$0A@@std@@@std@@IAE?AV?$_Tree_iterator@V?$_Tree_val@U?$_Tree_simple_types@U?$pair@$$CBV?$basic_string@DU?$char_traits@D@std@@V?$allocator@D@2@@std@@M@std@@@std@@@std@@@1@_NPAU?$_Tree_node@U?$pair@$$CBV?$basic_string@DU?$char_traits@D@std@@V?$allocator@D@2@@std@@M@std@@PAX@1@AAU?$pair@$$CBV?$basic_string@DU?$char_traits@D@std@@V?$allocator@D@2@@std@@M@1@1@Z 10021500 f i mfdpage_fms.obj
 0001:00020930       ??$_Insert_hint@AAU?$pair@$$CBHPAVfms_fp_item_t@@@std@@PAU?$_Tree_node@U?$pair@$$CBHPAVfms_fp_item_t@@@std@@PAX@2@@?$_Tree@V?$_Tmap_traits@HPAVfms_fp_item_t@@U?$less@H@std@@V?$allocator@U?$pair@$$CBHPAVfms_fp_item_t@@@std@@@3@$0A@@std@@@std@@IAE?AV?$_Tree_iterator@V?$_Tree_val@U?$_Tree_simple_types@U?$pair@$$CBHPAVfms_fp_item_t@@@std@@@std@@@std@@@1@V?$_Tree_const_iterator@V?$_Tree_val@U?$_Tree_simple_types@U?$pair@$$CBHPAVfms_fp_item_t@@@std@@@std@@@std@@@1@AAU?$pair@$$CBHPAVfms_fp_item_t@@@1@PAU?$_Tree_node@U?$pair@$$CBHPAVfms_fp_item_t@@@std@@PAX@1@@Z 10021930 f i mfdpage_fms.obj
 0001:000210e0       ??$_Insert_hint@AAU?$pair@$$CBV?$basic_string@DU?$char_traits@D@std@@V?$allocator@D@2@@std@@M@std@@PAU?$_Tree_node@U?$pair@$$CBV?$basic_string@DU?$char_traits@D@std@@V?$allocator@D@2@@std@@M@std@@PAX@2@@?$_Tree@V?$_Tmap_traits@V?$basic_string@DU?$char_traits@D@std@@V?$allocator@D@2@@std@@MU?$less@V?$basic_string@DU?$char_traits@D@std@@V?$allocator@D@2@@std@@@2@V?$allocator@U?$pair@$$CBV?$basic_string@DU?$char_traits@D@std@@V?$allocator@D@2@@std@@M@std@@@2@$0A@@std@@@std@@IAE?AV?$_Tree_iterator@V?$_Tree_val@U?$_Tree_simple_types@U?$pair@$$CBV?$basic_string@DU?$char_traits@D@std@@V?$allocator@D@2@@std@@M@std@@@std@@@std@@@1@V?$_Tree_const_iterator@V?$_Tree_val@U?$_Tree_simple_types@U?$pair@$$CBV?$basic_string@DU?$char_traits@D@std@@V?$allocator@D@2@@std@@M@std@@@std@@@std@@@1@AAU?$pair@$$CBV?$basic_string@DU?$char_traits@D@std@@V?$allocator@D@2@@std@@M@1@PAU?$_Tree_node@U?$pair@$$CBV?$basic_string@DU?$char_traits@D@std@@V?$allocator@D@2@@std@@M@std@@PAX@1@@Z 100220e0 f i mfdpage_fms.obj
 0001:00021890       ??$_Insert_nohint@AAU?$pair@$$CBHPAVfms_fp_item_t@@@std@@PAU?$_Tree_node@U?$pair@$$CBHPAVfms_fp_item_t@@@std@@PAX@2@@?$_Tree@V?$_Tmap_traits@HPAVfms_fp_item_t@@U?$less@H@std@@V?$allocator@U?$pair@$$CBHPAVfms_fp_item_t@@@std@@@3@$0A@@std@@@std@@IAE?AU?$pair@V?$_Tree_iterator@V?$_Tree_val@U?$_Tree_simple_types@U?$pair@$$CBHPAVfms_fp_item_t@@@std@@@std@@@std@@@std@@_N@1@_NAAU?$pair@$$CBHPAVfms_fp_item_t@@@1@PAU?$_Tree_node@U?$pair@$$CBHPAVfms_fp_item_t@@@std@@PAX@1@@Z 10022890 f i mfdpage_fms.obj
 0001:00021b60       ??$_Insert_nohint@AAU?$pair@$$CBV?$basic_string@DU?$char_traits@D@std@@V?$allocator@D@2@@std@@M@std@@PAU?$_Tree_node@U?$pair@$$CBV?$basic_string@DU?$char_traits@D@std@@V?$allocator@D@2@@std@@M@std@@PAX@2@@?$_Tree@V?$_Tmap_traits@V?$basic_string@DU?$char_traits@D@std@@V?$allocator@D@2@@std@@MU?$less@V?$basic_string@DU?$char_traits@D@std@@V?$allocator@D@2@@std@@@2@V?$allocator@U?$pair@$$CBV?$basic_string@DU?$char_traits@D@std@@V?$allocator@D@2@@std@@M@std@@@2@$0A@@std@@@std@@IAE?AU?$pair@V?$_Tree_iterator@V?$_Tree_val@U?$_Tree_simple_types@U?$pair@$$CBV?$basic_string@DU?$char_traits@D@std@@V?$allocator@D@2@@std@@M@std@@@std@@@std@@@std@@_N@1@_NAAU?$pair@$$CBV?$basic_string@DU?$char_traits@D@std@@V?$allocator@D@2@@std@@M@1@PAU?$_Tree_node@U?$pair@$$CBV?$basic_string@DU?$char_traits@D@std@@V?$allocator@D@2@@std@@M@std@@PAX@1@@Z 10022b60 f i mfdpage_fms.obj
 0001:00021e30       ??$_Kfn@$$CBHPAVfms_fp_item_t@@@?$_Tmap_traits@HPAVfms_fp_item_t@@U?$less@H@std@@V?$allocator@U?$pair@$$CBHPAVfms_fp_item_t@@@std@@@3@$0A@@std@@SAABHABU?$pair@$$CBHPAVfms_fp_item_t@@@1@@Z 10022e30 f i mfdpage_fms.obj
 0001:00021e40       ??$_Kfn@$$CBV?$basic_string@DU?$char_traits@D@std@@V?$allocator@D@2@@std@@M@?$_Tmap_traits@V?$basic_string@DU?$char_traits@D@std@@V?$allocator@D@2@@std@@MU?$less@V?$basic_string@DU?$char_traits@D@std@@V?$allocator@D@2@@std@@@2@V?$allocator@U?$pair@$$CBV?$basic_string@DU?$char_traits@D@std@@V?$allocator@D@2@@std@@M@std@@@2@$0A@@std@@SAABV?$basic_string@DU?$char_traits@D@std@@V?$allocator@D@2@@1@ABU?$pair@$$CBV?$basic_string@DU?$char_traits@D@std@@V?$allocator@D@2@@std@@M@1@@Z 10022e40 f i mfdpage_fms.obj
 0001:00021e50       ??$addressof@PAU?$_Tree_node@U?$pair@$$CBHPAVfms_fp_item_t@@@std@@PAX@std@@@std@@YAPAPAU?$_Tree_node@U?$pair@$$CBHPAVfms_fp_item_t@@@std@@PAX@0@AAPAU10@@Z 10022e50 f i mfdpage_fms.obj
 0001:00021e60       ??$addressof@PAU?$_Tree_node@U?$pair@$$CBV?$basic_string@DU?$char_traits@D@std@@V?$allocator@D@2@@std@@M@std@@PAX@std@@@std@@YAPAPAU?$_Tree_node@U?$pair@$$CBV?$basic_string@DU?$char_traits@D@std@@V?$allocator@D@2@@std@@M@std@@PAX@0@AAPAU10@@Z 10022e60 f i mfdpage_fms.obj
 0001:00021e70       ??$addressof@U?$pair@$$CBHPAVfms_fp_item_t@@@std@@@std@@YAPAU?$pair@$$CBHPAVfms_fp_item_t@@@0@AAU10@@Z 10022e70 f i mfdpage_fms.obj
 0001:00021e80       ??$addressof@U?$pair@$$CBV?$basic_string@DU?$char_traits@D@std@@V?$allocator@D@2@@std@@M@std@@@std@@YAPAU?$pair@$$CBV?$basic_string@DU?$char_traits@D@std@@V?$allocator@D@2@@std@@M@0@AAU10@@Z 10022e80 f i mfdpage_fms.obj
 0001:00021e90       ??$construct@PAU?$_Tree_node@U?$pair@$$CBHPAVfms_fp_item_t@@@std@@PAX@std@@AAPAU12@@?$_Wrap_alloc@V?$allocator@U?$_Tree_node@U?$pair@$$CBHPAVfms_fp_item_t@@@std@@PAX@std@@@std@@@std@@QAEXPAPAU?$_Tree_node@U?$pair@$$CBHPAVfms_fp_item_t@@@std@@PAX@1@AAPAU21@@Z 10022e90 f i mfdpage_fms.obj
 0001:00021ec0       ??$construct@PAU?$_Tree_node@U?$pair@$$CBHPAVfms_fp_item_t@@@std@@PAX@std@@AAPAU12@@?$allocator@U?$_Tree_node@U?$pair@$$CBHPAVfms_fp_item_t@@@std@@PAX@std@@@std@@QAEXPAPAU?$_Tree_node@U?$pair@$$CBHPAVfms_fp_item_t@@@std@@PAX@1@AAPAU21@@Z 10022ec0 f i mfdpage_fms.obj
 0001:00021f10       ??$construct@PAU?$_Tree_node@U?$pair@$$CBHPAVfms_fp_item_t@@@std@@PAX@std@@AAPAU12@@?$allocator_traits@V?$allocator@U?$_Tree_node@U?$pair@$$CBHPAVfms_fp_item_t@@@std@@PAX@std@@@std@@@std@@SAXAAV?$allocator@U?$_Tree_node@U?$pair@$$CBHPAVfms_fp_item_t@@@std@@PAX@std@@@1@PAPAU?$_Tree_node@U?$pair@$$CBHPAVfms_fp_item_t@@@std@@PAX@1@AAPAU31@@Z 10022f10 f i mfdpage_fms.obj
 0001:00021f30       ??$construct@PAU?$_Tree_node@U?$pair@$$CBV?$basic_string@DU?$char_traits@D@std@@V?$allocator@D@2@@std@@M@std@@PAX@std@@AAPAU12@@?$_Wrap_alloc@V?$allocator@U?$_Tree_node@U?$pair@$$CBV?$basic_string@DU?$char_traits@D@std@@V?$allocator@D@2@@std@@M@std@@PAX@std@@@std@@@std@@QAEXPAPAU?$_Tree_node@U?$pair@$$CBV?$basic_string@DU?$char_traits@D@std@@V?$allocator@D@2@@std@@M@std@@PAX@1@AAPAU21@@Z 10022f30 f i mfdpage_fms.obj
 0001:00021f60       ??$construct@PAU?$_Tree_node@U?$pair@$$CBV?$basic_string@DU?$char_traits@D@std@@V?$allocator@D@2@@std@@M@std@@PAX@std@@AAPAU12@@?$allocator@U?$_Tree_node@U?$pair@$$CBV?$basic_string@DU?$char_traits@D@std@@V?$allocator@D@2@@std@@M@std@@PAX@std@@@std@@QAEXPAPAU?$_Tree_node@U?$pair@$$CBV?$basic_string@DU?$char_traits@D@std@@V?$allocator@D@2@@std@@M@std@@PAX@1@AAPAU21@@Z 10022f60 f i mfdpage_fms.obj
 0001:00021fb0       ??$construct@PAU?$_Tree_node@U?$pair@$$CBV?$basic_string@DU?$char_traits@D@std@@V?$allocator@D@2@@std@@M@std@@PAX@std@@AAPAU12@@?$allocator_traits@V?$allocator@U?$_Tree_node@U?$pair@$$CBV?$basic_string@DU?$char_traits@D@std@@V?$allocator@D@2@@std@@M@std@@PAX@std@@@std@@@std@@SAXAAV?$allocator@U?$_Tree_node@U?$pair@$$CBV?$basic_string@DU?$char_traits@D@std@@V?$allocator@D@2@@std@@M@std@@PAX@std@@@1@PAPAU?$_Tree_node@U?$pair@$$CBV?$basic_string@DU?$char_traits@D@std@@V?$allocator@D@2@@std@@M@std@@PAX@1@AAPAU31@@Z 10022fb0 f i mfdpage_fms.obj
 0001:00021fd0       ??$construct@U?$pair@$$CBHPAVfms_fp_item_t@@@std@@ABUpiecewise_construct_t@2@V?$tuple@$$QAH@2@V?$tuple@$$$V@2@@?$_Wrap_alloc@V?$allocator@U?$_Tree_node@U?$pair@$$CBHPAVfms_fp_item_t@@@std@@PAX@std@@@std@@@std@@QAEXPAU?$pair@$$CBHPAVfms_fp_item_t@@@1@ABUpiecewise_construct_t@1@$$QAV?$tuple@$$QAH@1@$$QAV?$tuple@$$$V@1@@Z 10022fd0 f i mfdpage_fms.obj
 0001:00022020       ??$construct@U?$pair@$$CBHPAVfms_fp_item_t@@@std@@ABUpiecewise_construct_t@2@V?$tuple@$$QAH@2@V?$tuple@$$$V@2@@?$allocator@U?$_Tree_node@U?$pair@$$CBHPAVfms_fp_item_t@@@std@@PAX@std@@@std@@QAEXPAU?$pair@$$CBHPAVfms_fp_item_t@@@1@ABUpiecewise_construct_t@1@$$QAV?$tuple@$$QAH@1@$$QAV?$tuple@$$$V@1@@Z 10023020 f i mfdpage_fms.obj
 0001:00022090       ??$construct@U?$pair@$$CBHPAVfms_fp_item_t@@@std@@ABUpiecewise_construct_t@2@V?$tuple@$$QAH@2@V?$tuple@$$$V@2@@?$allocator_traits@V?$allocator@U?$_Tree_node@U?$pair@$$CBHPAVfms_fp_item_t@@@std@@PAX@std@@@std@@@std@@SAXAAV?$allocator@U?$_Tree_node@U?$pair@$$CBHPAVfms_fp_item_t@@@std@@PAX@std@@@1@PAU?$pair@$$CBHPAVfms_fp_item_t@@@1@ABUpiecewise_construct_t@1@$$QAV?$tuple@$$QAH@1@$$QAV?$tuple@$$$V@1@@Z 10023090 f i mfdpage_fms.obj
 0001:000220d0       ??$construct@U?$pair@$$CBHPAVfms_fp_item_t@@@std@@ABUpiecewise_construct_t@2@V?$tuple@ABH@2@V?$tuple@$$$V@2@@?$_Wrap_alloc@V?$allocator@U?$_Tree_node@U?$pair@$$CBHPAVfms_fp_item_t@@@std@@PAX@std@@@std@@@std@@QAEXPAU?$pair@$$CBHPAVfms_fp_item_t@@@1@ABUpiecewise_construct_t@1@$$QAV?$tuple@ABH@1@$$QAV?$tuple@$$$V@1@@Z 100230d0 f i mfdpage_fms.obj
 0001:00022120       ??$construct@U?$pair@$$CBHPAVfms_fp_item_t@@@std@@ABUpiecewise_construct_t@2@V?$tuple@ABH@2@V?$tuple@$$$V@2@@?$allocator@U?$_Tree_node@U?$pair@$$CBHPAVfms_fp_item_t@@@std@@PAX@std@@@std@@QAEXPAU?$pair@$$CBHPAVfms_fp_item_t@@@1@ABUpiecewise_construct_t@1@$$QAV?$tuple@ABH@1@$$QAV?$tuple@$$$V@1@@Z 10023120 f i mfdpage_fms.obj
 0001:00022190       ??$construct@U?$pair@$$CBHPAVfms_fp_item_t@@@std@@ABUpiecewise_construct_t@2@V?$tuple@ABH@2@V?$tuple@$$$V@2@@?$allocator_traits@V?$allocator@U?$_Tree_node@U?$pair@$$CBHPAVfms_fp_item_t@@@std@@PAX@std@@@std@@@std@@SAXAAV?$allocator@U?$_Tree_node@U?$pair@$$CBHPAVfms_fp_item_t@@@std@@PAX@std@@@1@PAU?$pair@$$CBHPAVfms_fp_item_t@@@1@ABUpiecewise_construct_t@1@$$QAV?$tuple@ABH@1@$$QAV?$tuple@$$$V@1@@Z 10023190 f i mfdpage_fms.obj
 0001:000221d0       ??$construct@U?$pair@$$CBHPAVobject_t@@@std@@ABUpiecewise_construct_t@2@V?$tuple@$$QAH@2@V?$tuple@$$$V@2@@?$_Wrap_alloc@V?$allocator@U?$_Tree_node@U?$pair@$$CBHPAVobject_t@@@std@@PAX@std@@@std@@@std@@QAEXPAU?$pair@$$CBHPAVobject_t@@@1@ABUpiecewise_construct_t@1@$$QAV?$tuple@$$QAH@1@$$QAV?$tuple@$$$V@1@@Z 100231d0 f i mfdpage_fms.obj
 0001:00022220       ??$construct@U?$pair@$$CBHPAVobject_t@@@std@@ABUpiecewise_construct_t@2@V?$tuple@$$QAH@2@V?$tuple@$$$V@2@@?$allocator@U?$_Tree_node@U?$pair@$$CBHPAVobject_t@@@std@@PAX@std@@@std@@QAEXPAU?$pair@$$CBHPAVobject_t@@@1@ABUpiecewise_construct_t@1@$$QAV?$tuple@$$QAH@1@$$QAV?$tuple@$$$V@1@@Z 10023220 f i mfdpage_fms.obj
 0001:00022290       ??$construct@U?$pair@$$CBHPAVobject_t@@@std@@ABUpiecewise_construct_t@2@V?$tuple@$$QAH@2@V?$tuple@$$$V@2@@?$allocator_traits@V?$allocator@U?$_Tree_node@U?$pair@$$CBHPAVobject_t@@@std@@PAX@std@@@std@@@std@@SAXAAV?$allocator@U?$_Tree_node@U?$pair@$$CBHPAVobject_t@@@std@@PAX@std@@@1@PAU?$pair@$$CBHPAVobject_t@@@1@ABUpiecewise_construct_t@1@$$QAV?$tuple@$$QAH@1@$$QAV?$tuple@$$$V@1@@Z 10023290 f i mfdpage_fms.obj
 0001:000222d0       ??$construct@U?$pair@$$CBHV?$basic_string@DU?$char_traits@D@std@@V?$allocator@D@2@@std@@@std@@ABUpiecewise_construct_t@2@V?$tuple@$$QAH@2@V?$tuple@$$$V@2@@?$_Wrap_alloc@V?$allocator@U?$_Tree_node@U?$pair@$$CBHV?$basic_string@DU?$char_traits@D@std@@V?$allocator@D@2@@std@@@std@@PAX@std@@@std@@@std@@QAEXPAU?$pair@$$CBHV?$basic_string@DU?$char_traits@D@std@@V?$allocator@D@2@@std@@@1@ABUpiecewise_construct_t@1@$$QAV?$tuple@$$QAH@1@$$QAV?$tuple@$$$V@1@@Z 100232d0 f i mfdpage_fms.obj
 0001:00022320       ??$construct@U?$pair@$$CBHV?$basic_string@DU?$char_traits@D@std@@V?$allocator@D@2@@std@@@std@@ABUpiecewise_construct_t@2@V?$tuple@$$QAH@2@V?$tuple@$$$V@2@@?$allocator@U?$_Tree_node@U?$pair@$$CBHV?$basic_string@DU?$char_traits@D@std@@V?$allocator@D@2@@std@@@std@@PAX@std@@@std@@QAEXPAU?$pair@$$CBHV?$basic_string@DU?$char_traits@D@std@@V?$allocator@D@2@@std@@@1@ABUpiecewise_construct_t@1@$$QAV?$tuple@$$QAH@1@$$QAV?$tuple@$$$V@1@@Z 10023320 f i mfdpage_fms.obj
 0001:00022390       ??$construct@U?$pair@$$CBHV?$basic_string@DU?$char_traits@D@std@@V?$allocator@D@2@@std@@@std@@ABUpiecewise_construct_t@2@V?$tuple@$$QAH@2@V?$tuple@$$$V@2@@?$allocator_traits@V?$allocator@U?$_Tree_node@U?$pair@$$CBHV?$basic_string@DU?$char_traits@D@std@@V?$allocator@D@2@@std@@@std@@PAX@std@@@std@@@std@@SAXAAV?$allocator@U?$_Tree_node@U?$pair@$$CBHV?$basic_string@DU?$char_traits@D@std@@V?$allocator@D@2@@std@@@std@@PAX@std@@@1@PAU?$pair@$$CBHV?$basic_string@DU?$char_traits@D@std@@V?$allocator@D@2@@std@@@1@ABUpiecewise_construct_t@1@$$QAV?$tuple@$$QAH@1@$$QAV?$tuple@$$$V@1@@Z 10023390 f i mfdpage_fms.obj
 0001:000223d0       ??$construct@U?$pair@$$CBV?$basic_string@DU?$char_traits@D@std@@V?$allocator@D@2@@std@@M@std@@ABUpiecewise_construct_t@2@V?$tuple@$$QAV?$basic_string@DU?$char_traits@D@std@@V?$allocator@D@2@@std@@@2@V?$tuple@$$$V@2@@?$_Wrap_alloc@V?$allocator@U?$_Tree_node@U?$pair@$$CBV?$basic_string@DU?$char_traits@D@std@@V?$allocator@D@2@@std@@M@std@@PAX@std@@@std@@@std@@QAEXPAU?$pair@$$CBV?$basic_string@DU?$char_traits@D@std@@V?$allocator@D@2@@std@@M@1@ABUpiecewise_construct_t@1@$$QAV?$tuple@$$QAV?$basic_string@DU?$char_traits@D@std@@V?$allocator@D@2@@std@@@1@$$QAV?$tuple@$$$V@1@@Z 100233d0 f i mfdpage_fms.obj
 0001:00022420       ??$construct@U?$pair@$$CBV?$basic_string@DU?$char_traits@D@std@@V?$allocator@D@2@@std@@M@std@@ABUpiecewise_construct_t@2@V?$tuple@$$QAV?$basic_string@DU?$char_traits@D@std@@V?$allocator@D@2@@std@@@2@V?$tuple@$$$V@2@@?$allocator@U?$_Tree_node@U?$pair@$$CBV?$basic_string@DU?$char_traits@D@std@@V?$allocator@D@2@@std@@M@std@@PAX@std@@@std@@QAEXPAU?$pair@$$CBV?$basic_string@DU?$char_traits@D@std@@V?$allocator@D@2@@std@@M@1@ABUpiecewise_construct_t@1@$$QAV?$tuple@$$QAV?$basic_string@DU?$char_traits@D@std@@V?$allocator@D@2@@std@@@1@$$QAV?$tuple@$$$V@1@@Z 10023420 f i mfdpage_fms.obj
 0001:00022490       ??$construct@U?$pair@$$CBV?$basic_string@DU?$char_traits@D@std@@V?$allocator@D@2@@std@@M@std@@ABUpiecewise_construct_t@2@V?$tuple@$$QAV?$basic_string@DU?$char_traits@D@std@@V?$allocator@D@2@@std@@@2@V?$tuple@$$$V@2@@?$allocator_traits@V?$allocator@U?$_Tree_node@U?$pair@$$CBV?$basic_string@DU?$char_traits@D@std@@V?$allocator@D@2@@std@@M@std@@PAX@std@@@std@@@std@@SAXAAV?$allocator@U?$_Tree_node@U?$pair@$$CBV?$basic_string@DU?$char_traits@D@std@@V?$allocator@D@2@@std@@M@std@@PAX@std@@@1@PAU?$pair@$$CBV?$basic_string@DU?$char_traits@D@std@@V?$allocator@D@2@@std@@M@1@ABUpiecewise_construct_t@1@$$QAV?$tuple@$$QAV?$basic_string@DU?$char_traits@D@std@@V?$allocator@D@2@@std@@@1@$$QAV?$tuple@$$$V@1@@Z 10023490 f i mfdpage_fms.obj
 0001:000224d0       ??$destroy@PAU?$_Tree_node@U?$pair@$$CBHPAVfms_fp_item_t@@@std@@PAX@std@@@?$_Wrap_alloc@V?$allocator@U?$_Tree_node@U?$pair@$$CBHPAVfms_fp_item_t@@@std@@PAX@std@@@std@@@std@@QAEXPAPAU?$_Tree_node@U?$pair@$$CBHPAVfms_fp_item_t@@@std@@PAX@1@@Z 100234d0 f i mfdpage_fms.obj
 0001:000224f0       ??$destroy@PAU?$_Tree_node@U?$pair@$$CBHPAVfms_fp_item_t@@@std@@PAX@std@@@?$allocator@U?$_Tree_node@U?$pair@$$CBHPAVfms_fp_item_t@@@std@@PAX@std@@@std@@QAEXPAPAU?$_Tree_node@U?$pair@$$CBHPAVfms_fp_item_t@@@std@@PAX@1@@Z 100234f0 f i mfdpage_fms.obj
 0001:00022500       ??$destroy@PAU?$_Tree_node@U?$pair@$$CBHPAVfms_fp_item_t@@@std@@PAX@std@@@?$allocator_traits@V?$allocator@U?$_Tree_node@U?$pair@$$CBHPAVfms_fp_item_t@@@std@@PAX@std@@@std@@@std@@SAXAAV?$allocator@U?$_Tree_node@U?$pair@$$CBHPAVfms_fp_item_t@@@std@@PAX@std@@@1@PAPAU?$_Tree_node@U?$pair@$$CBHPAVfms_fp_item_t@@@std@@PAX@1@@Z 10023500 f i mfdpage_fms.obj
 0001:00022520       ??$destroy@PAU?$_Tree_node@U?$pair@$$CBV?$basic_string@DU?$char_traits@D@std@@V?$allocator@D@2@@std@@M@std@@PAX@std@@@?$_Wrap_alloc@V?$allocator@U?$_Tree_node@U?$pair@$$CBV?$basic_string@DU?$char_traits@D@std@@V?$allocator@D@2@@std@@M@std@@PAX@std@@@std@@@std@@QAEXPAPAU?$_Tree_node@U?$pair@$$CBV?$basic_string@DU?$char_traits@D@std@@V?$allocator@D@2@@std@@M@std@@PAX@1@@Z 10023520 f i mfdpage_fms.obj
 0001:00022540       ??$destroy@PAU?$_Tree_node@U?$pair@$$CBV?$basic_string@DU?$char_traits@D@std@@V?$allocator@D@2@@std@@M@std@@PAX@std@@@?$allocator@U?$_Tree_node@U?$pair@$$CBV?$basic_string@DU?$char_traits@D@std@@V?$allocator@D@2@@std@@M@std@@PAX@std@@@std@@QAEXPAPAU?$_Tree_node@U?$pair@$$CBV?$basic_string@DU?$char_traits@D@std@@V?$allocator@D@2@@std@@M@std@@PAX@1@@Z 10023540 f i mfdpage_fms.obj
 0001:00022550       ??$destroy@PAU?$_Tree_node@U?$pair@$$CBV?$basic_string@DU?$char_traits@D@std@@V?$allocator@D@2@@std@@M@std@@PAX@std@@@?$allocator_traits@V?$allocator@U?$_Tree_node@U?$pair@$$CBV?$basic_string@DU?$char_traits@D@std@@V?$allocator@D@2@@std@@M@std@@PAX@std@@@std@@@std@@SAXAAV?$allocator@U?$_Tree_node@U?$pair@$$CBV?$basic_string@DU?$char_traits@D@std@@V?$allocator@D@2@@std@@M@std@@PAX@std@@@1@PAPAU?$_Tree_node@U?$pair@$$CBV?$basic_string@DU?$char_traits@D@std@@V?$allocator@D@2@@std@@M@std@@PAX@1@@Z 10023550 f i mfdpage_fms.obj
 0001:00022570       ??$destroy@U?$pair@$$CBHPAVfms_fp_item_t@@@std@@@?$_Wrap_alloc@V?$allocator@U?$_Tree_node@U?$pair@$$CBHPAVfms_fp_item_t@@@std@@PAX@std@@@std@@@std@@QAEXPAU?$pair@$$CBHPAVfms_fp_item_t@@@1@@Z 10023570 f i mfdpage_fms.obj
 0001:00022590       ??$destroy@U?$pair@$$CBHPAVfms_fp_item_t@@@std@@@?$allocator@U?$_Tree_node@U?$pair@$$CBHPAVfms_fp_item_t@@@std@@PAX@std@@@std@@QAEXPAU?$pair@$$CBHPAVfms_fp_item_t@@@1@@Z 10023590 f i mfdpage_fms.obj
 0001:000225a0       ??$destroy@U?$pair@$$CBHPAVfms_fp_item_t@@@std@@@?$allocator_traits@V?$allocator@U?$_Tree_node@U?$pair@$$CBHPAVfms_fp_item_t@@@std@@PAX@std@@@std@@@std@@SAXAAV?$allocator@U?$_Tree_node@U?$pair@$$CBHPAVfms_fp_item_t@@@std@@PAX@std@@@1@PAU?$pair@$$CBHPAVfms_fp_item_t@@@1@@Z 100235a0 f i mfdpage_fms.obj
 0001:000225c0       ??$destroy@U?$pair@$$CBV?$basic_string@DU?$char_traits@D@std@@V?$allocator@D@2@@std@@M@std@@@?$_Wrap_alloc@V?$allocator@U?$_Tree_node@U?$pair@$$CBV?$basic_string@DU?$char_traits@D@std@@V?$allocator@D@2@@std@@M@std@@PAX@std@@@std@@@std@@QAEXPAU?$pair@$$CBV?$basic_string@DU?$char_traits@D@std@@V?$allocator@D@2@@std@@M@1@@Z 100235c0 f i mfdpage_fms.obj
 0001:000225e0       ??$destroy@U?$pair@$$CBV?$basic_string@DU?$char_traits@D@std@@V?$allocator@D@2@@std@@M@std@@@?$allocator@U?$_Tree_node@U?$pair@$$CBV?$basic_string@DU?$char_traits@D@std@@V?$allocator@D@2@@std@@M@std@@PAX@std@@@std@@QAEXPAU?$pair@$$CBV?$basic_string@DU?$char_traits@D@std@@V?$allocator@D@2@@std@@M@1@@Z 100235e0 f i mfdpage_fms.obj
 0001:00022600       ??$destroy@U?$pair@$$CBV?$basic_string@DU?$char_traits@D@std@@V?$allocator@D@2@@std@@M@std@@@?$allocator_traits@V?$allocator@U?$_Tree_node@U?$pair@$$CBV?$basic_string@DU?$char_traits@D@std@@V?$allocator@D@2@@std@@M@std@@PAX@std@@@std@@@std@@SAXAAV?$allocator@U?$_Tree_node@U?$pair@$$CBV?$basic_string@DU?$char_traits@D@std@@V?$allocator@D@2@@std@@M@std@@PAX@std@@@1@PAU?$pair@$$CBV?$basic_string@DU?$char_traits@D@std@@V?$allocator@D@2@@std@@M@1@@Z 10023600 f i mfdpage_fms.obj
 0001:00022620       ??$emplace_hint@ABUpiecewise_construct_t@std@@V?$tuple@$$QAH@2@V?$tuple@$$$V@2@@?$_Tree@V?$_Tmap_traits@HPAVfms_fp_item_t@@U?$less@H@std@@V?$allocator@U?$pair@$$CBHPAVfms_fp_item_t@@@std@@@3@$0A@@std@@@std@@QAE?AV?$_Tree_iterator@V?$_Tree_val@U?$_Tree_simple_types@U?$pair@$$CBHPAVfms_fp_item_t@@@std@@@std@@@std@@@1@V?$_Tree_const_iterator@V?$_Tree_val@U?$_Tree_simple_types@U?$pair@$$CBHPAVfms_fp_item_t@@@std@@@std@@@std@@@1@ABUpiecewise_construct_t@1@$$QAV?$tuple@$$QAH@1@$$QAV?$tuple@$$$V@1@@Z 10023620 f i mfdpage_fms.obj
 0001:00022690       ??$emplace_hint@ABUpiecewise_construct_t@std@@V?$tuple@$$QAH@2@V?$tuple@$$$V@2@@?$_Tree@V?$_Tmap_traits@HPAVobject_t@@U?$less@H@std@@V?$allocator@U?$pair@$$CBHPAVobject_t@@@std@@@3@$0A@@std@@@std@@QAE?AV?$_Tree_iterator@V?$_Tree_val@U?$_Tree_simple_types@U?$pair@$$CBHPAVobject_t@@@std@@@std@@@std@@@1@V?$_Tree_const_iterator@V?$_Tree_val@U?$_Tree_simple_types@U?$pair@$$CBHPAVobject_t@@@std@@@std@@@std@@@1@ABUpiecewise_construct_t@1@$$QAV?$tuple@$$QAH@1@$$QAV?$tuple@$$$V@1@@Z 10023690 f i mfdpage_fms.obj
 0001:00022700       ??$emplace_hint@ABUpiecewise_construct_t@std@@V?$tuple@$$QAH@2@V?$tuple@$$$V@2@@?$_Tree@V?$_Tmap_traits@HV?$basic_string@DU?$char_traits@D@std@@V?$allocator@D@2@@std@@U?$less@H@2@V?$allocator@U?$pair@$$CBHV?$basic_string@DU?$char_traits@D@std@@V?$allocator@D@2@@std@@@std@@@2@$0A@@std@@@std@@QAE?AV?$_Tree_iterator@V?$_Tree_val@U?$_Tree_simple_types@U?$pair@$$CBHV?$basic_string@DU?$char_traits@D@std@@V?$allocator@D@2@@std@@@std@@@std@@@std@@@1@V?$_Tree_const_iterator@V?$_Tree_val@U?$_Tree_simple_types@U?$pair@$$CBHV?$basic_string@DU?$char_traits@D@std@@V?$allocator@D@2@@std@@@std@@@std@@@std@@@1@ABUpiecewise_construct_t@1@$$QAV?$tuple@$$QAH@1@$$QAV?$tuple@$$$V@1@@Z 10023700 f i mfdpage_fms.obj
 0001:00022770       ??$emplace_hint@ABUpiecewise_construct_t@std@@V?$tuple@$$QAV?$basic_string@DU?$char_traits@D@std@@V?$allocator@D@2@@std@@@2@V?$tuple@$$$V@2@@?$_Tree@V?$_Tmap_traits@V?$basic_string@DU?$char_traits@D@std@@V?$allocator@D@2@@std@@MU?$less@V?$basic_string@DU?$char_traits@D@std@@V?$allocator@D@2@@std@@@2@V?$allocator@U?$pair@$$CBV?$basic_string@DU?$char_traits@D@std@@V?$allocator@D@2@@std@@M@std@@@2@$0A@@std@@@std@@QAE?AV?$_Tree_iterator@V?$_Tree_val@U?$_Tree_simple_types@U?$pair@$$CBV?$basic_string@DU?$char_traits@D@std@@V?$allocator@D@2@@std@@M@std@@@std@@@std@@@1@V?$_Tree_const_iterator@V?$_Tree_val@U?$_Tree_simple_types@U?$pair@$$CBV?$basic_string@DU?$char_traits@D@std@@V?$allocator@D@2@@std@@M@std@@@std@@@std@@@1@ABUpiecewise_construct_t@1@$$QAV?$tuple@$$QAV?$basic_string@DU?$char_traits@D@std@@V?$allocator@D@2@@std@@@1@$$QAV?$tuple@$$$V@1@@Z 10023770 f i mfdpage_fms.obj
 0001:000227e0       ??$emplace_hint@ABUpiecewise_construct_t@std@@V?$tuple@ABH@2@V?$tuple@$$$V@2@@?$_Tree@V?$_Tmap_traits@HPAVfms_fp_item_t@@U?$less@H@std@@V?$allocator@U?$pair@$$CBHPAVfms_fp_item_t@@@std@@@3@$0A@@std@@@std@@QAE?AV?$_Tree_iterator@V?$_Tree_val@U?$_Tree_simple_types@U?$pair@$$CBHPAVfms_fp_item_t@@@std@@@std@@@std@@@1@V?$_Tree_const_iterator@V?$_Tree_val@U?$_Tree_simple_types@U?$pair@$$CBHPAVfms_fp_item_t@@@std@@@std@@@std@@@1@ABUpiecewise_construct_t@1@$$QAV?$tuple@ABH@1@$$QAV?$tuple@$$$V@1@@Z 100237e0 f i mfdpage_fms.obj
 0001:00022850       ??$forward@$$QAH@std@@YA$$QAHAAH@Z 10023850 f i mfdpage_fms.obj
 0001:00022860       ??$forward@AAPAU?$_Tree_node@U?$pair@$$CBHPAVfms_fp_item_t@@@std@@PAX@std@@@std@@YAAAPAU?$_Tree_node@U?$pair@$$CBHPAVfms_fp_item_t@@@std@@PAX@0@AAPAU10@@Z 10023860 f i mfdpage_fms.obj
 0001:00022870       ??$forward@AAPAU?$_Tree_node@U?$pair@$$CBV?$basic_string@DU?$char_traits@D@std@@V?$allocator@D@2@@std@@M@std@@PAX@std@@@std@@YAAAPAU?$_Tree_node@U?$pair@$$CBV?$basic_string@DU?$char_traits@D@std@@V?$allocator@D@2@@std@@M@std@@PAX@0@AAPAU10@@Z 10023870 f i mfdpage_fms.obj
 0001:00022880       ??$forward@AAU?$pair@$$CBHPAVfms_fp_item_t@@@std@@@std@@YAAAU?$pair@$$CBHPAVfms_fp_item_t@@@0@AAU10@@Z 10023880 f i mfdpage_fms.obj
 0001:00022890       ??$forward@AAU?$pair@$$CBV?$basic_string@DU?$char_traits@D@std@@V?$allocator@D@2@@std@@M@std@@@std@@YAAAU?$pair@$$CBV?$basic_string@DU?$char_traits@D@std@@V?$allocator@D@2@@std@@M@0@AAU10@@Z 10023890 f i mfdpage_fms.obj
 0001:000228a0       ??$forward@AAV?$_Tree_iterator@V?$_Tree_val@U?$_Tree_simple_types@U?$pair@$$CBHPAVfms_fp_item_t@@@std@@@std@@@std@@@std@@@std@@YAAAV?$_Tree_iterator@V?$_Tree_val@U?$_Tree_simple_types@U?$pair@$$CBHPAVfms_fp_item_t@@@std@@@std@@@std@@@0@AAV10@@Z 100238a0 f i mfdpage_fms.obj
 0001:000228b0       ??$forward@AAV?$_Tree_iterator@V?$_Tree_val@U?$_Tree_simple_types@U?$pair@$$CBV?$basic_string@DU?$char_traits@D@std@@V?$allocator@D@2@@std@@M@std@@@std@@@std@@@std@@@std@@YAAAV?$_Tree_iterator@V?$_Tree_val@U?$_Tree_simple_types@U?$pair@$$CBV?$basic_string@DU?$char_traits@D@std@@V?$allocator@D@2@@std@@M@std@@@std@@@std@@@0@AAV10@@Z 100238b0 f i mfdpage_fms.obj
 0001:000228c0       ??$forward@H@std@@YA$$QAHAAH@Z 100238c0 f i mfdpage_fms.obj
 0001:000228d0       ??$forward@V?$_Tree_iterator@V?$_Tree_val@U?$_Tree_simple_types@U?$pair@$$CBHPAVfms_fp_item_t@@@std@@@std@@@std@@@std@@@std@@YA$$QAV?$_Tree_iterator@V?$_Tree_val@U?$_Tree_simple_types@U?$pair@$$CBHPAVfms_fp_item_t@@@std@@@std@@@std@@@0@AAV10@@Z 100238d0 f i mfdpage_fms.obj
 0001:000228e0       ??$forward@V?$_Tree_iterator@V?$_Tree_val@U?$_Tree_simple_types@U?$pair@$$CBV?$basic_string@DU?$char_traits@D@std@@V?$allocator@D@2@@std@@M@std@@@std@@@std@@@std@@@std@@YA$$QAV?$_Tree_iterator@V?$_Tree_val@U?$_Tree_simple_types@U?$pair@$$CBV?$basic_string@DU?$char_traits@D@std@@V?$allocator@D@2@@std@@M@std@@@std@@@std@@@0@AAV10@@Z 100238e0 f i mfdpage_fms.obj
 0001:000228f0       ??$forward@V?$tuple@$$QAH@std@@@std@@YA$$QAV?$tuple@$$QAH@0@AAV10@@Z 100238f0 f i mfdpage_fms.obj
 0001:00022900       ??$forward_as_tuple@H@std@@YA?AV?$tuple@$$QAH@0@$$QAH@Z 10023900 f i mfdpage_fms.obj
 0001:00022920       ??$get@$0A@$$QAH@std@@YA$$QAH$$QAV?$tuple@$$QAH@0@@Z 10023920 f i mfdpage_fms.obj
 0001:00022940       ??$move@AAH@std@@YA$$QAHAAH@Z 10023940 f i mfdpage_fms.obj
 0001:00022950       ??$move@AAV?$tuple@$$QAH@std@@@std@@YA$$QAV?$tuple@$$QAH@0@AAV10@@Z 10023950 f i mfdpage_fms.obj
 0001:00022960       ??0?$_Tree@V?$_Tmap_traits@V?$basic_string@DU?$char_traits@D@std@@V?$allocator@D@2@@std@@DU?$less@V?$basic_string@DU?$char_traits@D@std@@V?$allocator@D@2@@std@@@2@V?$allocator@U?$pair@$$CBV?$basic_string@DU?$char_traits@D@std@@V?$allocator@D@2@@std@@D@std@@@2@$0A@@std@@@std@@QAE@ABU?$less@V?$basic_string@DU?$char_traits@D@std@@V?$allocator@D@2@@std@@@1@ABV?$allocator@U?$pair@$$CBV?$basic_string@DU?$char_traits@D@std@@V?$allocator@D@2@@std@@D@std@@@1@@Z 10023960 f i mfdpage_fms.obj
 0001:00022980       ??0?$_Tree_alloc@$0A@U?$_Tree_base_types@U?$pair@$$CBV?$basic_string@DU?$char_traits@D@std@@V?$allocator@D@2@@std@@D@std@@V?$allocator@U?$pair@$$CBV?$basic_string@DU?$char_traits@D@std@@V?$allocator@D@2@@std@@D@std@@@2@@std@@@std@@QAE@ABV?$allocator@U?$pair@$$CBV?$basic_string@DU?$char_traits@D@std@@V?$allocator@D@2@@std@@D@std@@@1@@Z 10023980 f i mfdpage_fms.obj
 0001:000229b0       ??0?$_Tree_buy@U?$pair@$$CBV?$basic_string@DU?$char_traits@D@std@@V?$allocator@D@2@@std@@D@std@@V?$allocator@U?$pair@$$CBV?$basic_string@DU?$char_traits@D@std@@V?$allocator@D@2@@std@@D@std@@@2@@std@@QAE@ABV?$allocator@U?$pair@$$CBV?$basic_string@DU?$char_traits@D@std@@V?$allocator@D@2@@std@@D@std@@@1@@Z 100239b0 f i mfdpage_fms.obj
 0001:000229d0       ??0?$_Tree_comp@$0A@V?$_Tmap_traits@V?$basic_string@DU?$char_traits@D@std@@V?$allocator@D@2@@std@@DU?$less@V?$basic_string@DU?$char_traits@D@std@@V?$allocator@D@2@@std@@@2@V?$allocator@U?$pair@$$CBV?$basic_string@DU?$char_traits@D@std@@V?$allocator@D@2@@std@@D@std@@@2@$0A@@std@@@std@@QAE@ABU?$less@V?$basic_string@DU?$char_traits@D@std@@V?$allocator@D@2@@std@@@1@ABV?$allocator@U?$pair@$$CBV?$basic_string@DU?$char_traits@D@std@@V?$allocator@D@2@@std@@D@std@@@1@@Z 100239d0 f i mfdpage_fms.obj
 0001:000229f0       ??0?$_Tree_const_iterator@V?$_Tree_val@U?$_Tree_simple_types@U?$pair@$$CBHPAVfms_fp_item_t@@@std@@@std@@@std@@@std@@QAE@PAU?$_Tree_node@U?$pair@$$CBHPAVfms_fp_item_t@@@std@@PAX@1@PBV?$_Tree_val@U?$_Tree_simple_types@U?$pair@$$CBHPAVfms_fp_item_t@@@std@@@std@@@1@@Z 100239f0 f i mfdpage_fms.obj
 0001:00022a10       ??0?$_Tree_const_iterator@V?$_Tree_val@U?$_Tree_simple_types@U?$pair@$$CBHPAVfms_fp_item_t@@@std@@@std@@@std@@@std@@QAE@XZ 10023a10 f i mfdpage_fms.obj
 0001:00022a30       ??0?$_Tree_const_iterator@V?$_Tree_val@U?$_Tree_simple_types@U?$pair@$$CBV?$basic_string@DU?$char_traits@D@std@@V?$allocator@D@2@@std@@M@std@@@std@@@std@@@std@@QAE@PAU?$_Tree_node@U?$pair@$$CBV?$basic_string@DU?$char_traits@D@std@@V?$allocator@D@2@@std@@M@std@@PAX@1@PBV?$_Tree_val@U?$_Tree_simple_types@U?$pair@$$CBV?$basic_string@DU?$char_traits@D@std@@V?$allocator@D@2@@std@@M@std@@@std@@@1@@Z 10023a30 f i mfdpage_fms.obj
 0001:00022a50       ??0?$_Tree_const_iterator@V?$_Tree_val@U?$_Tree_simple_types@U?$pair@$$CBV?$basic_string@DU?$char_traits@D@std@@V?$allocator@D@2@@std@@M@std@@@std@@@std@@@std@@QAE@XZ 10023a50 f i mfdpage_fms.obj
 0001:00022a70       ??0?$_Tree_iterator@V?$_Tree_val@U?$_Tree_simple_types@U?$pair@$$CBHPAVfms_fp_item_t@@@std@@@std@@@std@@@std@@QAE@PAU?$_Tree_node@U?$pair@$$CBHPAVfms_fp_item_t@@@std@@PAX@1@PBV?$_Tree_val@U?$_Tree_simple_types@U?$pair@$$CBHPAVfms_fp_item_t@@@std@@@std@@@1@@Z 10023a70 f i mfdpage_fms.obj
 0001:00022a90       ??0?$_Tree_iterator@V?$_Tree_val@U?$_Tree_simple_types@U?$pair@$$CBV?$basic_string@DU?$char_traits@D@std@@V?$allocator@D@2@@std@@M@std@@@std@@@std@@@std@@QAE@PAU?$_Tree_node@U?$pair@$$CBV?$basic_string@DU?$char_traits@D@std@@V?$allocator@D@2@@std@@M@std@@PAX@1@PBV?$_Tree_val@U?$_Tree_simple_types@U?$pair@$$CBV?$basic_string@DU?$char_traits@D@std@@V?$allocator@D@2@@std@@M@std@@@std@@@1@@Z 10023a90 f i mfdpage_fms.obj
 0001:00022ab0       ??0?$_Tree_unchecked_const_iterator@V?$_Tree_val@U?$_Tree_simple_types@U?$pair@$$CBHPAVfms_fp_item_t@@@std@@@std@@@std@@U_Iterator_base0@2@@std@@QAE@PAU?$_Tree_node@U?$pair@$$CBHPAVfms_fp_item_t@@@std@@PAX@1@PBV?$_Tree_val@U?$_Tree_simple_types@U?$pair@$$CBHPAVfms_fp_item_t@@@std@@@std@@@1@@Z 10023ab0 f i mfdpage_fms.obj
 0001:00022ae0       ??0?$_Tree_unchecked_const_iterator@V?$_Tree_val@U?$_Tree_simple_types@U?$pair@$$CBHPAVfms_fp_item_t@@@std@@@std@@@std@@U_Iterator_base0@2@@std@@QAE@XZ 10023ae0 f i mfdpage_fms.obj
 0001:00022b00       ??0?$_Tree_unchecked_const_iterator@V?$_Tree_val@U?$_Tree_simple_types@U?$pair@$$CBV?$basic_string@DU?$char_traits@D@std@@V?$allocator@D@2@@std@@M@std@@@std@@@std@@U_Iterator_base0@2@@std@@QAE@PAU?$_Tree_node@U?$pair@$$CBV?$basic_string@DU?$char_traits@D@std@@V?$allocator@D@2@@std@@M@std@@PAX@1@PBV?$_Tree_val@U?$_Tree_simple_types@U?$pair@$$CBV?$basic_string@DU?$char_traits@D@std@@V?$allocator@D@2@@std@@M@std@@@std@@@1@@Z 10023b00 f i mfdpage_fms.obj
 0001:00022b30       ??0?$_Tree_unchecked_const_iterator@V?$_Tree_val@U?$_Tree_simple_types@U?$pair@$$CBV?$basic_string@DU?$char_traits@D@std@@V?$allocator@D@2@@std@@M@std@@@std@@@std@@U_Iterator_base0@2@@std@@QAE@XZ 10023b30 f i mfdpage_fms.obj
 0001:00022b50       ??0?$_Tree_val@U?$_Tree_simple_types@U?$pair@$$CBV?$basic_string@DU?$char_traits@D@std@@V?$allocator@D@2@@std@@D@std@@@std@@@std@@QAE@XZ 10023b50 f i mfdpage_fms.obj
 0001:00022b80       ??0?$_Wrap_alloc@V?$allocator@U?$_Tree_node@U?$pair@$$CBHPAVfms_fp_item_t@@@std@@PAX@std@@@std@@@std@@QAE@XZ 10023b80 f i mfdpage_fms.obj
 0001:00022ba0       ??0?$_Wrap_alloc@V?$allocator@U?$_Tree_node@U?$pair@$$CBV?$basic_string@DU?$char_traits@D@std@@V?$allocator@D@2@@std@@M@std@@PAX@std@@@std@@@std@@QAE@XZ 10023ba0 f i mfdpage_fms.obj
 0001:00022bc0       ??0?$allocator@U?$_Tree_node@U?$pair@$$CBHPAVfms_fp_item_t@@@std@@PAX@std@@@std@@QAE@XZ 10023bc0 f i mfdpage_fms.obj
 0001:00022bd0       ??0?$allocator@U?$_Tree_node@U?$pair@$$CBV?$basic_string@DU?$char_traits@D@std@@V?$allocator@D@2@@std@@M@std@@PAX@std@@@std@@QAE@XZ 10023bd0 f i mfdpage_fms.obj
 0001:00022be0       ??0?$allocator@U?$pair@$$CBV?$basic_string@DU?$char_traits@D@std@@V?$allocator@D@2@@std@@D@std@@@std@@QAE@XZ 10023be0 f i mfdpage_fms.obj
 0001:00022bf0       ??0?$map@V?$basic_string@DU?$char_traits@D@std@@V?$allocator@D@2@@std@@DU?$less@V?$basic_string@DU?$char_traits@D@std@@V?$allocator@D@2@@std@@@2@V?$allocator@U?$pair@$$CBV?$basic_string@DU?$char_traits@D@std@@V?$allocator@D@2@@std@@D@std@@@2@@std@@QAE@XZ 10023bf0 f i mfdpage_fms.obj
 0001:00022c20       ??0mfdpage_type_t@@QAE@XZ  10023c20 f i mfdpage_fms.obj
 0001:00022c50       ??1?$pair@$$CBV?$basic_string@DU?$char_traits@D@std@@V?$allocator@D@2@@std@@M@std@@QAE@XZ 10023c50 f i mfdpage_fms.obj
 0001:00022c70       ??4?$basic_string@DU?$char_traits@D@std@@V?$allocator@D@2@@std@@QAEAAV01@PBD@Z 10023c70 f i mfdpage_fms.obj
 0001:00022c90       ??8?$_Tree_const_iterator@V?$_Tree_val@U?$_Tree_simple_types@U?$pair@$$CBHPAVfms_fp_item_t@@@std@@@std@@@std@@@std@@QBE_NABV01@@Z 10023c90 f i mfdpage_fms.obj
 0001:00022cc0       ??8?$_Tree_const_iterator@V?$_Tree_val@U?$_Tree_simple_types@U?$pair@$$CBV?$basic_string@DU?$char_traits@D@std@@V?$allocator@D@2@@std@@M@std@@@std@@@std@@@std@@QBE_NABV01@@Z 10023cc0 f i mfdpage_fms.obj
 0001:00022cf0       ??A?$map@HPAVfms_fp_item_t@@U?$less@H@std@@V?$allocator@U?$pair@$$CBHPAVfms_fp_item_t@@@std@@@3@@std@@QAEAAPAVfms_fp_item_t@@$$QAH@Z 10023cf0 f i mfdpage_fms.obj
 0001:00022db0       ??A?$map@HPAVfms_fp_item_t@@U?$less@H@std@@V?$allocator@U?$pair@$$CBHPAVfms_fp_item_t@@@std@@@3@@std@@QAEAAPAVfms_fp_item_t@@ABH@Z 10023db0 f i mfdpage_fms.obj
 0001:00022e60       ??A?$map@HPAVobject_t@@U?$less@H@std@@V?$allocator@U?$pair@$$CBHPAVobject_t@@@std@@@3@@std@@QAEAAPAVobject_t@@$$QAH@Z 10023e60 f i mfdpage_fms.obj
 0001:00022f20       ??A?$map@HV?$basic_string@DU?$char_traits@D@std@@V?$allocator@D@2@@std@@U?$less@H@2@V?$allocator@U?$pair@$$CBHV?$basic_string@DU?$char_traits@D@std@@V?$allocator@D@2@@std@@@std@@@2@@std@@QAEAAV?$basic_string@DU?$char_traits@D@std@@V?$allocator@D@2@@1@$$QAH@Z 10023f20 f i mfdpage_fms.obj
 0001:00022fe0       ??A?$map@V?$basic_string@DU?$char_traits@D@std@@V?$allocator@D@2@@std@@MU?$less@V?$basic_string@DU?$char_traits@D@std@@V?$allocator@D@2@@std@@@2@V?$allocator@U?$pair@$$CBV?$basic_string@DU?$char_traits@D@std@@V?$allocator@D@2@@std@@M@std@@@2@@std@@QAEAAM$$QAV?$basic_string@DU?$char_traits@D@std@@V?$allocator@D@2@@1@@Z 10023fe0 f i mfdpage_fms.obj
 0001:000230a0       ??C?$_Tree_iterator@V?$_Tree_val@U?$_Tree_simple_types@U?$pair@$$CBHPAVfms_fp_item_t@@@std@@@std@@@std@@@std@@QBEPAU?$pair@$$CBHPAVfms_fp_item_t@@@1@XZ 100240a0 f i mfdpage_fms.obj
 0001:000230c0       ??C?$_Tree_iterator@V?$_Tree_val@U?$_Tree_simple_types@U?$pair@$$CBV?$basic_string@DU?$char_traits@D@std@@V?$allocator@D@2@@std@@M@std@@@std@@@std@@@std@@QBEPAU?$pair@$$CBV?$basic_string@DU?$char_traits@D@std@@V?$allocator@D@2@@std@@M@1@XZ 100240c0 f i mfdpage_fms.obj
 0001:000230e0       ??D?$_Tree_const_iterator@V?$_Tree_val@U?$_Tree_simple_types@U?$pair@$$CBHPAVfms_fp_item_t@@@std@@@std@@@std@@@std@@QBEABU?$pair@$$CBHPAVfms_fp_item_t@@@1@XZ 100240e0 f i mfdpage_fms.obj
 0001:00023100       ??D?$_Tree_const_iterator@V?$_Tree_val@U?$_Tree_simple_types@U?$pair@$$CBV?$basic_string@DU?$char_traits@D@std@@V?$allocator@D@2@@std@@M@std@@@std@@@std@@@std@@QBEABU?$pair@$$CBV?$basic_string@DU?$char_traits@D@std@@V?$allocator@D@2@@std@@M@1@XZ 10024100 f i mfdpage_fms.obj
 0001:00023120       ??D?$_Tree_iterator@V?$_Tree_val@U?$_Tree_simple_types@U?$pair@$$CBHPAVfms_fp_item_t@@@std@@@std@@@std@@@std@@QBEAAU?$pair@$$CBHPAVfms_fp_item_t@@@1@XZ 10024120 f i mfdpage_fms.obj
 0001:00023140       ??D?$_Tree_iterator@V?$_Tree_val@U?$_Tree_simple_types@U?$pair@$$CBV?$basic_string@DU?$char_traits@D@std@@V?$allocator@D@2@@std@@M@std@@@std@@@std@@@std@@QBEAAU?$pair@$$CBV?$basic_string@DU?$char_traits@D@std@@V?$allocator@D@2@@std@@M@1@XZ 10024140 f i mfdpage_fms.obj
 0001:00023160       ??E?$_Tree_const_iterator@V?$_Tree_val@U?$_Tree_simple_types@U?$pair@$$CBHPAVfms_fp_item_t@@@std@@@std@@@std@@@std@@QAEAAV01@XZ 10024160 f i mfdpage_fms.obj
 0001:00023180       ??E?$_Tree_const_iterator@V?$_Tree_val@U?$_Tree_simple_types@U?$pair@$$CBV?$basic_string@DU?$char_traits@D@std@@V?$allocator@D@2@@std@@M@std@@@std@@@std@@@std@@QAEAAV01@XZ 10024180 f i mfdpage_fms.obj
 0001:000231a0       ??E?$_Tree_unchecked_const_iterator@V?$_Tree_val@U?$_Tree_simple_types@U?$pair@$$CBHPAVfms_fp_item_t@@@std@@@std@@@std@@U_Iterator_base0@2@@std@@QAEAAV01@XZ 100241a0 f i mfdpage_fms.obj
 0001:00023260       ??E?$_Tree_unchecked_const_iterator@V?$_Tree_val@U?$_Tree_simple_types@U?$pair@$$CBV?$basic_string@DU?$char_traits@D@std@@V?$allocator@D@2@@std@@M@std@@@std@@@std@@U_Iterator_base0@2@@std@@QAEAAV01@XZ 10024260 f i mfdpage_fms.obj
 0001:00023320       ??F?$_Tree_const_iterator@V?$_Tree_val@U?$_Tree_simple_types@U?$pair@$$CBHPAVfms_fp_item_t@@@std@@@std@@@std@@@std@@QAEAAV01@XZ 10024320 f i mfdpage_fms.obj
 0001:00023340       ??F?$_Tree_const_iterator@V?$_Tree_val@U?$_Tree_simple_types@U?$pair@$$CBV?$basic_string@DU?$char_traits@D@std@@V?$allocator@D@2@@std@@M@std@@@std@@@std@@@std@@QAEAAV01@XZ 10024340 f i mfdpage_fms.obj
 0001:00023360       ??F?$_Tree_iterator@V?$_Tree_val@U?$_Tree_simple_types@U?$pair@$$CBHPAVfms_fp_item_t@@@std@@@std@@@std@@@std@@QAEAAV01@XZ 10024360 f i mfdpage_fms.obj
 0001:00023380       ??F?$_Tree_iterator@V?$_Tree_val@U?$_Tree_simple_types@U?$pair@$$CBV?$basic_string@DU?$char_traits@D@std@@V?$allocator@D@2@@std@@M@std@@@std@@@std@@@std@@QAEAAV01@XZ 10024380 f i mfdpage_fms.obj
 0001:000233a0       ??F?$_Tree_unchecked_const_iterator@V?$_Tree_val@U?$_Tree_simple_types@U?$pair@$$CBHPAVfms_fp_item_t@@@std@@@std@@@std@@U_Iterator_base0@2@@std@@QAEAAV01@XZ 100243a0 f i mfdpage_fms.obj
 0001:00023490       ??F?$_Tree_unchecked_const_iterator@V?$_Tree_val@U?$_Tree_simple_types@U?$pair@$$CBV?$basic_string@DU?$char_traits@D@std@@V?$allocator@D@2@@std@@M@std@@@std@@@std@@U_Iterator_base0@2@@std@@QAEAAV01@XZ 10024490 f i mfdpage_fms.obj
 0001:00023580       ??_G?$pair@$$CBV?$basic_string@DU?$char_traits@D@std@@V?$allocator@D@2@@std@@M@std@@QAEPAXI@Z 10024580 f i mfdpage_fms.obj
 0001:000235b0       ?_Buyheadnode@?$_Tree_alloc@$0A@U?$_Tree_base_types@U?$pair@$$CBV?$basic_string@DU?$char_traits@D@std@@V?$allocator@D@2@@std@@D@std@@V?$allocator@U?$pair@$$CBV?$basic_string@DU?$char_traits@D@std@@V?$allocator@D@2@@std@@D@std@@@2@@std@@@std@@QAEPAU?$_Tree_node@U?$pair@$$CBV?$basic_string@DU?$char_traits@D@std@@V?$allocator@D@2@@std@@D@std@@PAX@2@XZ 100245b0 f i mfdpage_fms.obj
 0001:00023700       ?_Buynode0@?$_Tree_buy@U?$pair@$$CBHPAVfms_fp_item_t@@@std@@V?$allocator@U?$pair@$$CBHPAVfms_fp_item_t@@@std@@@2@@std@@QAEPAU?$_Tree_node@U?$pair@$$CBHPAVfms_fp_item_t@@@std@@PAX@2@XZ 10024700 f i mfdpage_fms.obj
 0001:00023830       ?_Buynode0@?$_Tree_buy@U?$pair@$$CBV?$basic_string@DU?$char_traits@D@std@@V?$allocator@D@2@@std@@M@std@@V?$allocator@U?$pair@$$CBV?$basic_string@DU?$char_traits@D@std@@V?$allocator@D@2@@std@@M@std@@@2@@std@@QAEPAU?$_Tree_node@U?$pair@$$CBV?$basic_string@DU?$char_traits@D@std@@V?$allocator@D@2@@std@@M@std@@PAX@2@XZ 10024830 f i mfdpage_fms.obj
 0001:00023960       ?_Color@?$_Tree_val@U?$_Tree_simple_types@U?$pair@$$CBHPAVfms_fp_item_t@@@std@@@std@@@std@@SAAADPAU?$_Tree_node@U?$pair@$$CBHPAVfms_fp_item_t@@@std@@PAX@2@@Z 10024960 f i mfdpage_fms.obj
 0001:00023970       ?_Color@?$_Tree_val@U?$_Tree_simple_types@U?$pair@$$CBV?$basic_string@DU?$char_traits@D@std@@V?$allocator@D@2@@std@@M@std@@@std@@@std@@SAAADPAU?$_Tree_node@U?$pair@$$CBV?$basic_string@DU?$char_traits@D@std@@V?$allocator@D@2@@std@@M@std@@PAX@2@@Z 10024970 f i mfdpage_fms.obj
 0001:00023980       ?_Destroy_if_not_nil@?$_Tree@V?$_Tmap_traits@HPAVfms_fp_item_t@@U?$less@H@std@@V?$allocator@U?$pair@$$CBHPAVfms_fp_item_t@@@std@@@3@$0A@@std@@@std@@IAEXPAU?$_Tree_node@U?$pair@$$CBHPAVfms_fp_item_t@@@std@@PAX@2@@Z 10024980 f i mfdpage_fms.obj
 0001:000239e0       ?_Destroy_if_not_nil@?$_Tree@V?$_Tmap_traits@V?$basic_string@DU?$char_traits@D@std@@V?$allocator@D@2@@std@@MU?$less@V?$basic_string@DU?$char_traits@D@std@@V?$allocator@D@2@@std@@@2@V?$allocator@U?$pair@$$CBV?$basic_string@DU?$char_traits@D@std@@V?$allocator@D@2@@std@@M@std@@@2@$0A@@std@@@std@@IAEXPAU?$_Tree_node@U?$pair@$$CBV?$basic_string@DU?$char_traits@D@std@@V?$allocator@D@2@@std@@M@std@@PAX@2@@Z 100249e0 f i mfdpage_fms.obj
 0001:00023a40       ?_Freenode0@?$_Tree_buy@U?$pair@$$CBHPAVfms_fp_item_t@@@std@@V?$allocator@U?$pair@$$CBHPAVfms_fp_item_t@@@std@@@2@@std@@QAEXPAU?$_Tree_node@U?$pair@$$CBHPAVfms_fp_item_t@@@std@@PAX@2@@Z 10024a40 f i mfdpage_fms.obj
 0001:00023af0       ?_Freenode0@?$_Tree_buy@U?$pair@$$CBV?$basic_string@DU?$char_traits@D@std@@V?$allocator@D@2@@std@@M@std@@V?$allocator@U?$pair@$$CBV?$basic_string@DU?$char_traits@D@std@@V?$allocator@D@2@@std@@M@std@@@2@@std@@QAEXPAU?$_Tree_node@U?$pair@$$CBV?$basic_string@DU?$char_traits@D@std@@V?$allocator@D@2@@std@@M@std@@PAX@2@@Z 10024af0 f i mfdpage_fms.obj
 0001:00023ba0       ?_Get_rest@?$tuple@$$QAH@std@@QAEAAV?$tuple@$$$V@2@XZ 10024ba0 f i mfdpage_fms.obj
 0001:00023bb0       ?_Getal@?$_Tree_alloc@$0A@U?$_Tree_base_types@U?$pair@$$CBHPAVfms_fp_item_t@@@std@@V?$allocator@U?$pair@$$CBHPAVfms_fp_item_t@@@std@@@2@@std@@@std@@QBE?AU?$_Wrap_alloc@V?$allocator@U?$_Tree_node@U?$pair@$$CBHPAVfms_fp_item_t@@@std@@PAX@std@@@std@@@2@XZ 10024bb0 f i mfdpage_fms.obj
 0001:00023bd0       ?_Getal@?$_Tree_alloc@$0A@U?$_Tree_base_types@U?$pair@$$CBV?$basic_string@DU?$char_traits@D@std@@V?$allocator@D@2@@std@@M@std@@V?$allocator@U?$pair@$$CBV?$basic_string@DU?$char_traits@D@std@@V?$allocator@D@2@@std@@M@std@@@2@@std@@@std@@QBE?AU?$_Wrap_alloc@V?$allocator@U?$_Tree_node@U?$pair@$$CBV?$basic_string@DU?$char_traits@D@std@@V?$allocator@D@2@@std@@M@std@@PAX@std@@@std@@@2@XZ 10024bd0 f i mfdpage_fms.obj
 0001:00023bf0       ?_Getcomp@?$_Tree_comp@$0A@V?$_Tmap_traits@HPAVfms_fp_item_t@@U?$less@H@std@@V?$allocator@U?$pair@$$CBHPAVfms_fp_item_t@@@std@@@3@$0A@@std@@@std@@QBE?AU?$less@H@2@XZ 10024bf0 f i mfdpage_fms.obj
 0001:00023c00       ?_Getcomp@?$_Tree_comp@$0A@V?$_Tmap_traits@V?$basic_string@DU?$char_traits@D@std@@V?$allocator@D@2@@std@@MU?$less@V?$basic_string@DU?$char_traits@D@std@@V?$allocator@D@2@@std@@@2@V?$allocator@U?$pair@$$CBV?$basic_string@DU?$char_traits@D@std@@V?$allocator@D@2@@std@@M@std@@@2@$0A@@std@@@std@@QBE?AU?$less@V?$basic_string@DU?$char_traits@D@std@@V?$allocator@D@2@@std@@@2@XZ 10024c00 f i mfdpage_fms.obj
 0001:00023c10       ?_Isnil@?$_Tree_val@U?$_Tree_simple_types@U?$pair@$$CBHPAVfms_fp_item_t@@@std@@@std@@@std@@SAAADPAU?$_Tree_node@U?$pair@$$CBHPAVfms_fp_item_t@@@std@@PAX@2@@Z 10024c10 f i mfdpage_fms.obj
 0001:00023c20       ?_Isnil@?$_Tree_val@U?$_Tree_simple_types@U?$pair@$$CBV?$basic_string@DU?$char_traits@D@std@@V?$allocator@D@2@@std@@M@std@@@std@@@std@@SAAADPAU?$_Tree_node@U?$pair@$$CBV?$basic_string@DU?$char_traits@D@std@@V?$allocator@D@2@@std@@M@std@@PAX@2@@Z 10024c20 f i mfdpage_fms.obj
 0001:00023c30       ?_Key@?$_Tree@V?$_Tmap_traits@HPAVfms_fp_item_t@@U?$less@H@std@@V?$allocator@U?$pair@$$CBHPAVfms_fp_item_t@@@std@@@3@$0A@@std@@@std@@IBEABHPAU?$_Tree_node@U?$pair@$$CBHPAVfms_fp_item_t@@@std@@PAX@2@@Z 10024c30 f i mfdpage_fms.obj
 0001:00023c60       ?_Key@?$_Tree@V?$_Tmap_traits@V?$basic_string@DU?$char_traits@D@std@@V?$allocator@D@2@@std@@MU?$less@V?$basic_string@DU?$char_traits@D@std@@V?$allocator@D@2@@std@@@2@V?$allocator@U?$pair@$$CBV?$basic_string@DU?$char_traits@D@std@@V?$allocator@D@2@@std@@M@std@@@2@$0A@@std@@@std@@IBEABV?$basic_string@DU?$char_traits@D@std@@V?$allocator@D@2@@2@PAU?$_Tree_node@U?$pair@$$CBV?$basic_string@DU?$char_traits@D@std@@V?$allocator@D@2@@std@@M@std@@PAX@2@@Z 10024c60 f i mfdpage_fms.obj
 0001:00023c90       ?_Kfn@?$_Tree@V?$_Tmap_traits@HPAVfms_fp_item_t@@U?$less@H@std@@V?$allocator@U?$pair@$$CBHPAVfms_fp_item_t@@@std@@@3@$0A@@std@@@std@@IBEABHABU?$pair@$$CBHPAVfms_fp_item_t@@@2@@Z 10024c90 f i mfdpage_fms.obj
 0001:00023cb0       ?_Kfn@?$_Tree@V?$_Tmap_traits@V?$basic_string@DU?$char_traits@D@std@@V?$allocator@D@2@@std@@MU?$less@V?$basic_string@DU?$char_traits@D@std@@V?$allocator@D@2@@std@@@2@V?$allocator@U?$pair@$$CBV?$basic_string@DU?$char_traits@D@std@@V?$allocator@D@2@@std@@M@std@@@2@$0A@@std@@@std@@IBEABV?$basic_string@DU?$char_traits@D@std@@V?$allocator@D@2@@2@ABU?$pair@$$CBV?$basic_string@DU?$char_traits@D@std@@V?$allocator@D@2@@std@@M@2@@Z 10024cb0 f i mfdpage_fms.obj
 0001:00023cd0       ?_Lbound@?$_Tree@V?$_Tmap_traits@HPAVfms_fp_item_t@@U?$less@H@std@@V?$allocator@U?$pair@$$CBHPAVfms_fp_item_t@@@std@@@3@$0A@@std@@@std@@IAEPAU?$_Tree_node@U?$pair@$$CBHPAVfms_fp_item_t@@@std@@PAX@2@ABH@Z 10024cd0 f i mfdpage_fms.obj
 0001:00023d70       ?_Lbound@?$_Tree@V?$_Tmap_traits@V?$basic_string@DU?$char_traits@D@std@@V?$allocator@D@2@@std@@MU?$less@V?$basic_string@DU?$char_traits@D@std@@V?$allocator@D@2@@std@@@2@V?$allocator@U?$pair@$$CBV?$basic_string@DU?$char_traits@D@std@@V?$allocator@D@2@@std@@M@std@@@2@$0A@@std@@@std@@IAEPAU?$_Tree_node@U?$pair@$$CBV?$basic_string@DU?$char_traits@D@std@@V?$allocator@D@2@@std@@M@std@@PAX@2@ABV?$basic_string@DU?$char_traits@D@std@@V?$allocator@D@2@@2@@Z 10024d70 f i mfdpage_fms.obj
 0001:00023e10       ?_Left@?$_Tree_val@U?$_Tree_simple_types@U?$pair@$$CBHPAVfms_fp_item_t@@@std@@@std@@@std@@SAAAPAU?$_Tree_node@U?$pair@$$CBHPAVfms_fp_item_t@@@std@@PAX@2@PAU32@@Z 10024e10 f i mfdpage_fms.obj
 0001:00023e20       ?_Left@?$_Tree_val@U?$_Tree_simple_types@U?$pair@$$CBV?$basic_string@DU?$char_traits@D@std@@V?$allocator@D@2@@std@@M@std@@@std@@@std@@SAAAPAU?$_Tree_node@U?$pair@$$CBV?$basic_string@DU?$char_traits@D@std@@V?$allocator@D@2@@std@@M@std@@PAX@2@PAU32@@Z 10024e20 f i mfdpage_fms.obj
 0001:00023e30       ?_Lmost@?$_Tree@V?$_Tmap_traits@HPAVfms_fp_item_t@@U?$less@H@std@@V?$allocator@U?$pair@$$CBHPAVfms_fp_item_t@@@std@@@3@$0A@@std@@@std@@IBEAAPAU?$_Tree_node@U?$pair@$$CBHPAVfms_fp_item_t@@@std@@PAX@2@XZ 10024e30 f i mfdpage_fms.obj
 0001:00023e50       ?_Lmost@?$_Tree@V?$_Tmap_traits@V?$basic_string@DU?$char_traits@D@std@@V?$allocator@D@2@@std@@MU?$less@V?$basic_string@DU?$char_traits@D@std@@V?$allocator@D@2@@std@@@2@V?$allocator@U?$pair@$$CBV?$basic_string@DU?$char_traits@D@std@@V?$allocator@D@2@@std@@M@std@@@2@$0A@@std@@@std@@IBEAAPAU?$_Tree_node@U?$pair@$$CBV?$basic_string@DU?$char_traits@D@std@@V?$allocator@D@2@@std@@M@std@@PAX@2@XZ 10024e50 f i mfdpage_fms.obj
 0001:00023e70       ?_Lrotate@?$_Tree@V?$_Tmap_traits@HPAVfms_fp_item_t@@U?$less@H@std@@V?$allocator@U?$pair@$$CBHPAVfms_fp_item_t@@@std@@@3@$0A@@std@@@std@@IAEXPAU?$_Tree_node@U?$pair@$$CBHPAVfms_fp_item_t@@@std@@PAX@2@@Z 10024e70 f i mfdpage_fms.obj
 0001:00023fa0       ?_Lrotate@?$_Tree@V?$_Tmap_traits@V?$basic_string@DU?$char_traits@D@std@@V?$allocator@D@2@@std@@MU?$less@V?$basic_string@DU?$char_traits@D@std@@V?$allocator@D@2@@std@@@2@V?$allocator@U?$pair@$$CBV?$basic_string@DU?$char_traits@D@std@@V?$allocator@D@2@@std@@M@std@@@2@$0A@@std@@@std@@IAEXPAU?$_Tree_node@U?$pair@$$CBV?$basic_string@DU?$char_traits@D@std@@V?$allocator@D@2@@std@@M@std@@PAX@2@@Z 10024fa0 f i mfdpage_fms.obj
 0001:000240d0       ?_Max@?$_Tree_val@U?$_Tree_simple_types@U?$pair@$$CBHPAVfms_fp_item_t@@@std@@@std@@@std@@SAPAU?$_Tree_node@U?$pair@$$CBHPAVfms_fp_item_t@@@std@@PAX@2@PAU32@@Z 100250d0 f i mfdpage_fms.obj
 0001:00024110       ?_Max@?$_Tree_val@U?$_Tree_simple_types@U?$pair@$$CBV?$basic_string@DU?$char_traits@D@std@@V?$allocator@D@2@@std@@M@std@@@std@@@std@@SAPAU?$_Tree_node@U?$pair@$$CBV?$basic_string@DU?$char_traits@D@std@@V?$allocator@D@2@@std@@M@std@@PAX@2@PAU32@@Z 10025110 f i mfdpage_fms.obj
 0001:00024150       ?_Min@?$_Tree_val@U?$_Tree_simple_types@U?$pair@$$CBHPAVfms_fp_item_t@@@std@@@std@@@std@@SAPAU?$_Tree_node@U?$pair@$$CBHPAVfms_fp_item_t@@@std@@PAX@2@PAU32@@Z 10025150 f i mfdpage_fms.obj
 0001:00024190       ?_Min@?$_Tree_val@U?$_Tree_simple_types@U?$pair@$$CBV?$basic_string@DU?$char_traits@D@std@@V?$allocator@D@2@@std@@M@std@@@std@@@std@@SAPAU?$_Tree_node@U?$pair@$$CBV?$basic_string@DU?$char_traits@D@std@@V?$allocator@D@2@@std@@M@std@@PAX@2@PAU32@@Z 10025190 f i mfdpage_fms.obj
 0001:000241d0       ?_Mynode@?$_Tree_unchecked_const_iterator@V?$_Tree_val@U?$_Tree_simple_types@U?$pair@$$CBHPAVfms_fp_item_t@@@std@@@std@@@std@@U_Iterator_base0@2@@std@@QBEPAU?$_Tree_node@U?$pair@$$CBHPAVfms_fp_item_t@@@std@@PAX@2@XZ 100251d0 f i mfdpage_fms.obj
 0001:000241e0       ?_Mynode@?$_Tree_unchecked_const_iterator@V?$_Tree_val@U?$_Tree_simple_types@U?$pair@$$CBV?$basic_string@DU?$char_traits@D@std@@V?$allocator@D@2@@std@@M@std@@@std@@@std@@U_Iterator_base0@2@@std@@QBEPAU?$_Tree_node@U?$pair@$$CBV?$basic_string@DU?$char_traits@D@std@@V?$allocator@D@2@@std@@M@std@@PAX@2@XZ 100251e0 f i mfdpage_fms.obj
 0001:000241f0       ?_Myval@?$_Tree_val@U?$_Tree_simple_types@U?$pair@$$CBHPAVfms_fp_item_t@@@std@@@std@@@std@@SAAAU?$pair@$$CBHPAVfms_fp_item_t@@@2@PAU?$_Tree_node@U?$pair@$$CBHPAVfms_fp_item_t@@@std@@PAX@2@@Z 100251f0 f i mfdpage_fms.obj
 0001:00024200       ?_Myval@?$_Tree_val@U?$_Tree_simple_types@U?$pair@$$CBV?$basic_string@DU?$char_traits@D@std@@V?$allocator@D@2@@std@@M@std@@@std@@@std@@SAAAU?$pair@$$CBV?$basic_string@DU?$char_traits@D@std@@V?$allocator@D@2@@std@@M@2@PAU?$_Tree_node@U?$pair@$$CBV?$basic_string@DU?$char_traits@D@std@@V?$allocator@D@2@@std@@M@std@@PAX@2@@Z 10025200 f i mfdpage_fms.obj
 0001:00024210       ?_Parent@?$_Tree_val@U?$_Tree_simple_types@U?$pair@$$CBHPAVfms_fp_item_t@@@std@@@std@@@std@@SAAAPAU?$_Tree_node@U?$pair@$$CBHPAVfms_fp_item_t@@@std@@PAX@2@PAU32@@Z 10025210 f i mfdpage_fms.obj
 0001:00024220       ?_Parent@?$_Tree_val@U?$_Tree_simple_types@U?$pair@$$CBV?$basic_string@DU?$char_traits@D@std@@V?$allocator@D@2@@std@@M@std@@@std@@@std@@SAAAPAU?$_Tree_node@U?$pair@$$CBV?$basic_string@DU?$char_traits@D@std@@V?$allocator@D@2@@std@@M@std@@PAX@2@PAU32@@Z 10025220 f i mfdpage_fms.obj
 0001:00024230       ?_Right@?$_Tree_val@U?$_Tree_simple_types@U?$pair@$$CBHPAVfms_fp_item_t@@@std@@@std@@@std@@SAAAPAU?$_Tree_node@U?$pair@$$CBHPAVfms_fp_item_t@@@std@@PAX@2@PAU32@@Z 10025230 f i mfdpage_fms.obj
 0001:00024240       ?_Right@?$_Tree_val@U?$_Tree_simple_types@U?$pair@$$CBV?$basic_string@DU?$char_traits@D@std@@V?$allocator@D@2@@std@@M@std@@@std@@@std@@SAAAPAU?$_Tree_node@U?$pair@$$CBV?$basic_string@DU?$char_traits@D@std@@V?$allocator@D@2@@std@@M@std@@PAX@2@PAU32@@Z 10025240 f i mfdpage_fms.obj
 0001:00024250       ?_Rmost@?$_Tree@V?$_Tmap_traits@HPAVfms_fp_item_t@@U?$less@H@std@@V?$allocator@U?$pair@$$CBHPAVfms_fp_item_t@@@std@@@3@$0A@@std@@@std@@IBEAAPAU?$_Tree_node@U?$pair@$$CBHPAVfms_fp_item_t@@@std@@PAX@2@XZ 10025250 f i mfdpage_fms.obj
 0001:00024270       ?_Rmost@?$_Tree@V?$_Tmap_traits@V?$basic_string@DU?$char_traits@D@std@@V?$allocator@D@2@@std@@MU?$less@V?$basic_string@DU?$char_traits@D@std@@V?$allocator@D@2@@std@@@2@V?$allocator@U?$pair@$$CBV?$basic_string@DU?$char_traits@D@std@@V?$allocator@D@2@@std@@M@std@@@2@$0A@@std@@@std@@IBEAAPAU?$_Tree_node@U?$pair@$$CBV?$basic_string@DU?$char_traits@D@std@@V?$allocator@D@2@@std@@M@std@@PAX@2@XZ 10025270 f i mfdpage_fms.obj
 0001:00024290       ?_Root@?$_Tree@V?$_Tmap_traits@HPAVfms_fp_item_t@@U?$less@H@std@@V?$allocator@U?$pair@$$CBHPAVfms_fp_item_t@@@std@@@3@$0A@@std@@@std@@IBEAAPAU?$_Tree_node@U?$pair@$$CBHPAVfms_fp_item_t@@@std@@PAX@2@XZ 10025290 f i mfdpage_fms.obj
 0001:000242b0       ?_Root@?$_Tree@V?$_Tmap_traits@V?$basic_string@DU?$char_traits@D@std@@V?$allocator@D@2@@std@@MU?$less@V?$basic_string@DU?$char_traits@D@std@@V?$allocator@D@2@@std@@@2@V?$allocator@U?$pair@$$CBV?$basic_string@DU?$char_traits@D@std@@V?$allocator@D@2@@std@@M@std@@@2@$0A@@std@@@std@@IBEAAPAU?$_Tree_node@U?$pair@$$CBV?$basic_string@DU?$char_traits@D@std@@V?$allocator@D@2@@std@@M@std@@PAX@2@XZ 100252b0 f i mfdpage_fms.obj
 0001:000242d0       ?_Rrotate@?$_Tree@V?$_Tmap_traits@HPAVfms_fp_item_t@@U?$less@H@std@@V?$allocator@U?$pair@$$CBHPAVfms_fp_item_t@@@std@@@3@$0A@@std@@@std@@IAEXPAU?$_Tree_node@U?$pair@$$CBHPAVfms_fp_item_t@@@std@@PAX@2@@Z 100252d0 f i mfdpage_fms.obj
 0001:00024400       ?_Rrotate@?$_Tree@V?$_Tmap_traits@V?$basic_string@DU?$char_traits@D@std@@V?$allocator@D@2@@std@@MU?$less@V?$basic_string@DU?$char_traits@D@std@@V?$allocator@D@2@@std@@@2@V?$allocator@U?$pair@$$CBV?$basic_string@DU?$char_traits@D@std@@V?$allocator@D@2@@std@@M@std@@@2@$0A@@std@@@std@@IAEXPAU?$_Tree_node@U?$pair@$$CBV?$basic_string@DU?$char_traits@D@std@@V?$allocator@D@2@@std@@M@std@@PAX@2@@Z 10025400 f i mfdpage_fms.obj
 0001:00024530       ?allocate@?$_Wrap_alloc@V?$allocator@U?$_Tree_node@U?$pair@$$CBHPAVfms_fp_item_t@@@std@@PAX@std@@@std@@@std@@QAEPAU?$_Tree_node@U?$pair@$$CBHPAVfms_fp_item_t@@@std@@PAX@2@I@Z 10025530 f i mfdpage_fms.obj
 0001:00024550       ?allocate@?$_Wrap_alloc@V?$allocator@U?$_Tree_node@U?$pair@$$CBV?$basic_string@DU?$char_traits@D@std@@V?$allocator@D@2@@std@@M@std@@PAX@std@@@std@@@std@@QAEPAU?$_Tree_node@U?$pair@$$CBV?$basic_string@DU?$char_traits@D@std@@V?$allocator@D@2@@std@@M@std@@PAX@2@I@Z 10025550 f i mfdpage_fms.obj
 0001:00024570       ?allocate@?$allocator@U?$_Tree_node@U?$pair@$$CBHPAVfms_fp_item_t@@@std@@PAX@std@@@std@@QAEPAU?$_Tree_node@U?$pair@$$CBHPAVfms_fp_item_t@@@std@@PAX@2@I@Z 10025570 f i mfdpage_fms.obj
 0001:00024590       ?allocate@?$allocator@U?$_Tree_node@U?$pair@$$CBV?$basic_string@DU?$char_traits@D@std@@V?$allocator@D@2@@std@@M@std@@PAX@std@@@std@@QAEPAU?$_Tree_node@U?$pair@$$CBV?$basic_string@DU?$char_traits@D@std@@V?$allocator@D@2@@std@@M@std@@PAX@2@I@Z 10025590 f i mfdpage_fms.obj
 0001:000245b0       ?begin@?$_Tree@V?$_Tmap_traits@HPAVfms_fp_item_t@@U?$less@H@std@@V?$allocator@U?$pair@$$CBHPAVfms_fp_item_t@@@std@@@3@$0A@@std@@@std@@QAE?AV?$_Tree_iterator@V?$_Tree_val@U?$_Tree_simple_types@U?$pair@$$CBHPAVfms_fp_item_t@@@std@@@std@@@std@@@2@XZ 100255b0 f i mfdpage_fms.obj
 0001:000245e0       ?begin@?$_Tree@V?$_Tmap_traits@V?$basic_string@DU?$char_traits@D@std@@V?$allocator@D@2@@std@@MU?$less@V?$basic_string@DU?$char_traits@D@std@@V?$allocator@D@2@@std@@@2@V?$allocator@U?$pair@$$CBV?$basic_string@DU?$char_traits@D@std@@V?$allocator@D@2@@std@@M@std@@@2@$0A@@std@@@std@@QAE?AV?$_Tree_iterator@V?$_Tree_val@U?$_Tree_simple_types@U?$pair@$$CBV?$basic_string@DU?$char_traits@D@std@@V?$allocator@D@2@@std@@M@std@@@std@@@std@@@2@XZ 100255e0 f i mfdpage_fms.obj
 0001:00024610       ?deallocate@?$_Wrap_alloc@V?$allocator@U?$_Tree_node@U?$pair@$$CBHPAVfms_fp_item_t@@@std@@PAX@std@@@std@@@std@@QAEXPAU?$_Tree_node@U?$pair@$$CBHPAVfms_fp_item_t@@@std@@PAX@2@I@Z 10025610 f i mfdpage_fms.obj
 0001:00024630       ?deallocate@?$_Wrap_alloc@V?$allocator@U?$_Tree_node@U?$pair@$$CBV?$basic_string@DU?$char_traits@D@std@@V?$allocator@D@2@@std@@M@std@@PAX@std@@@std@@@std@@QAEXPAU?$_Tree_node@U?$pair@$$CBV?$basic_string@DU?$char_traits@D@std@@V?$allocator@D@2@@std@@M@std@@PAX@2@I@Z 10025630 f i mfdpage_fms.obj
 0001:00024650       ?deallocate@?$allocator@U?$_Tree_node@U?$pair@$$CBHPAVfms_fp_item_t@@@std@@PAX@std@@@std@@QAEXPAU?$_Tree_node@U?$pair@$$CBHPAVfms_fp_item_t@@@std@@PAX@2@I@Z 10025650 f i mfdpage_fms.obj
 0001:00024670       ?deallocate@?$allocator@U?$_Tree_node@U?$pair@$$CBV?$basic_string@DU?$char_traits@D@std@@V?$allocator@D@2@@std@@M@std@@PAX@std@@@std@@QAEXPAU?$_Tree_node@U?$pair@$$CBV?$basic_string@DU?$char_traits@D@std@@V?$allocator@D@2@@std@@M@std@@PAX@2@I@Z 10025670 f i mfdpage_fms.obj
 0001:00024690       ?end@?$_Tree@V?$_Tmap_traits@HPAVfms_fp_item_t@@U?$less@H@std@@V?$allocator@U?$pair@$$CBHPAVfms_fp_item_t@@@std@@@3@$0A@@std@@@std@@QAE?AV?$_Tree_iterator@V?$_Tree_val@U?$_Tree_simple_types@U?$pair@$$CBHPAVfms_fp_item_t@@@std@@@std@@@std@@@2@XZ 10025690 f i mfdpage_fms.obj
 0001:000246c0       ?end@?$_Tree@V?$_Tmap_traits@V?$basic_string@DU?$char_traits@D@std@@V?$allocator@D@2@@std@@MU?$less@V?$basic_string@DU?$char_traits@D@std@@V?$allocator@D@2@@std@@@2@V?$allocator@U?$pair@$$CBV?$basic_string@DU?$char_traits@D@std@@V?$allocator@D@2@@std@@M@std@@@2@$0A@@std@@@std@@QAE?AV?$_Tree_iterator@V?$_Tree_val@U?$_Tree_simple_types@U?$pair@$$CBV?$basic_string@DU?$char_traits@D@std@@V?$allocator@D@2@@std@@M@std@@@std@@@std@@@2@XZ 100256c0 f i mfdpage_fms.obj
 0001:000246f0       ?lower_bound@?$_Tree@V?$_Tmap_traits@HPAVfms_fp_item_t@@U?$less@H@std@@V?$allocator@U?$pair@$$CBHPAVfms_fp_item_t@@@std@@@3@$0A@@std@@@std@@QAE?AV?$_Tree_iterator@V?$_Tree_val@U?$_Tree_simple_types@U?$pair@$$CBHPAVfms_fp_item_t@@@std@@@std@@@std@@@2@ABH@Z 100256f0 f i mfdpage_fms.obj
 0001:00024720       ?lower_bound@?$_Tree@V?$_Tmap_traits@V?$basic_string@DU?$char_traits@D@std@@V?$allocator@D@2@@std@@MU?$less@V?$basic_string@DU?$char_traits@D@std@@V?$allocator@D@2@@std@@@2@V?$allocator@U?$pair@$$CBV?$basic_string@DU?$char_traits@D@std@@V?$allocator@D@2@@std@@M@std@@@2@$0A@@std@@@std@@QAE?AV?$_Tree_iterator@V?$_Tree_val@U?$_Tree_simple_types@U?$pair@$$CBV?$basic_string@DU?$char_traits@D@std@@V?$allocator@D@2@@std@@M@std@@@std@@@std@@@2@ABV?$basic_string@DU?$char_traits@D@std@@V?$allocator@D@2@@2@@Z 10025720 f i mfdpage_fms.obj
 0001:00024750       ?max_size@?$_Tree@V?$_Tmap_traits@HPAVfms_fp_item_t@@U?$less@H@std@@V?$allocator@U?$pair@$$CBHPAVfms_fp_item_t@@@std@@@3@$0A@@std@@@std@@QBEIXZ 10025750 f i mfdpage_fms.obj
 0001:00024770       ?max_size@?$_Tree@V?$_Tmap_traits@V?$basic_string@DU?$char_traits@D@std@@V?$allocator@D@2@@std@@MU?$less@V?$basic_string@DU?$char_traits@D@std@@V?$allocator@D@2@@std@@@2@V?$allocator@U?$pair@$$CBV?$basic_string@DU?$char_traits@D@std@@V?$allocator@D@2@@std@@M@std@@@2@$0A@@std@@@std@@QBEIXZ 10025770 f i mfdpage_fms.obj
 0001:00024790       ?max_size@?$_Wrap_alloc@V?$allocator@U?$_Tree_node@U?$pair@$$CBHPAVfms_fp_item_t@@@std@@PAX@std@@@std@@@std@@QBEIXZ 10025790 f i mfdpage_fms.obj
 0001:000247b0       ?max_size@?$_Wrap_alloc@V?$allocator@U?$_Tree_node@U?$pair@$$CBV?$basic_string@DU?$char_traits@D@std@@V?$allocator@D@2@@std@@M@std@@PAX@std@@@std@@@std@@QBEIXZ 100257b0 f i mfdpage_fms.obj
 0001:000247d0       ?max_size@?$allocator@U?$_Tree_node@U?$pair@$$CBHPAVfms_fp_item_t@@@std@@PAX@std@@@std@@QBEIXZ 100257d0 f i mfdpage_fms.obj
 0001:000247e0       ?max_size@?$allocator@U?$_Tree_node@U?$pair@$$CBV?$basic_string@DU?$char_traits@D@std@@V?$allocator@D@2@@std@@M@std@@PAX@std@@@std@@QBEIXZ 100257e0 f i mfdpage_fms.obj
 0001:000247f0       ?max_size@?$allocator_traits@V?$allocator@U?$_Tree_node@U?$pair@$$CBHPAVfms_fp_item_t@@@std@@PAX@std@@@std@@@std@@SAIABV?$allocator@U?$_Tree_node@U?$pair@$$CBHPAVfms_fp_item_t@@@std@@PAX@std@@@2@@Z 100257f0 f i mfdpage_fms.obj
 0001:00024800       ?max_size@?$allocator_traits@V?$allocator@U?$_Tree_node@U?$pair@$$CBV?$basic_string@DU?$char_traits@D@std@@V?$allocator@D@2@@std@@M@std@@PAX@std@@@std@@@std@@SAIABV?$allocator@U?$_Tree_node@U?$pair@$$CBV?$basic_string@DU?$char_traits@D@std@@V?$allocator@D@2@@std@@M@std@@PAX@std@@@2@@Z 10025800 f i mfdpage_fms.obj
 0001:00024810       ?pointer_to@?$pointer_traits@PAU?$pair@$$CBHPAVfms_fp_item_t@@@std@@@std@@SAPAU?$pair@$$CBHPAVfms_fp_item_t@@@2@AAU32@@Z 10025810 f i mfdpage_fms.obj
 0001:00024830       ?pointer_to@?$pointer_traits@PAU?$pair@$$CBV?$basic_string@DU?$char_traits@D@std@@V?$allocator@D@2@@std@@M@std@@@std@@SAPAU?$pair@$$CBV?$basic_string@DU?$char_traits@D@std@@V?$allocator@D@2@@std@@M@2@AAU32@@Z 10025830 f i mfdpage_fms.obj
 0001:00024850       ?size@?$_Tree@V?$_Tmap_traits@HPAVfms_fp_item_t@@U?$less@H@std@@V?$allocator@U?$pair@$$CBHPAVfms_fp_item_t@@@std@@@3@$0A@@std@@@std@@QBEIXZ 10025850 f i mfdpage_fms.obj
 0001:00024870       ?size@?$_Tree@V?$_Tmap_traits@V?$basic_string@DU?$char_traits@D@std@@V?$allocator@D@2@@std@@MU?$less@V?$basic_string@DU?$char_traits@D@std@@V?$allocator@D@2@@std@@@2@V?$allocator@U?$pair@$$CBV?$basic_string@DU?$char_traits@D@std@@V?$allocator@D@2@@std@@M@std@@@2@$0A@@std@@@std@@QBEIXZ 10025870 f i mfdpage_fms.obj
 0001:00024890       ??0mfdpage_flight_t@@QAE@V?$basic_string@DU?$char_traits@D@std@@V?$allocator@D@2@@std@@@Z 10025890 f   mfdpage_flight.obj
 0001:000248e0       ?get_template@mfdpage_flight_t@@UAE?AV?$basic_string@DU?$char_traits@D@std@@V?$allocator@D@2@@std@@V23@AAV?$map@HV?$basic_string@DU?$char_traits@D@std@@V?$allocator@D@2@@std@@U?$less@H@2@V?$allocator@U?$pair@$$CBHV?$basic_string@DU?$char_traits@D@std@@V?$allocator@D@2@@std@@@std@@@2@@3@@Z 100258e0 f   mfdpage_flight.obj
 0001:00024e90       ?do_refresh@mfdpage_flight_t@@UAEXPAVobject_t@@@Z 10025e90 f   mfdpage_flight.obj
 0001:00024ea0       ?refresh_interval@mfdpage_flight_t@@UAEHV?$basic_string@DU?$char_traits@D@std@@V?$allocator@D@2@@std@@@Z 10025ea0 f   mfdpage_flight.obj
 0001:00024ed0       ?refresh_template@mfdpage_flight_t@@UAE?AV?$basic_string@DU?$char_traits@D@std@@V?$allocator@D@2@@std@@V23@V?$map@HPAVobject_t@@U?$less@H@std@@V?$allocator@U?$pair@$$CBHPAVobject_t@@@std@@@3@@3@0@Z 10025ed0 f   mfdpage_flight.obj
 0001:000257e0       ?fabs@@YAMM@Z              100267e0 f i mfdpage_flight.obj
 0001:00025800       ?find@?$basic_string@DU?$char_traits@D@std@@V?$allocator@D@2@@std@@QBEIDI@Z 10026800 f i mfdpage_flight.obj
 0001:00025820       ?replace@?$basic_string@DU?$char_traits@D@std@@V?$allocator@D@2@@std@@QAEAAV12@IIPBD@Z 10026820 f i mfdpage_flight.obj
 0001:00025850       _fabsf                     10026850 f i mfdpage_flight.obj
 0001:000258c0       ??0mfdpage_time_t@@QAE@V?$basic_string@DU?$char_traits@D@std@@V?$allocator@D@2@@std@@@Z 100268c0 f   mfdpage_time.obj
 0001:00025940       ?get_template@mfdpage_time_t@@UAE?AV?$basic_string@DU?$char_traits@D@std@@V?$allocator@D@2@@std@@V23@AAV?$map@HV?$basic_string@DU?$char_traits@D@std@@V?$allocator@D@2@@std@@U?$less@H@2@V?$allocator@U?$pair@$$CBHV?$basic_string@DU?$char_traits@D@std@@V?$allocator@D@2@@std@@@std@@@2@@3@@Z 10026940 f   mfdpage_time.obj
 0001:00025990       ?do_refresh@mfdpage_time_t@@UAEXPAVobject_t@@@Z 10026990 f   mfdpage_time.obj
 0001:000259e0       ?refresh_interval@mfdpage_time_t@@UAEHV?$basic_string@DU?$char_traits@D@std@@V?$allocator@D@2@@std@@@Z 100269e0 f   mfdpage_time.obj
 0001:00025a10       ?refresh_template@mfdpage_time_t@@UAE?AV?$basic_string@DU?$char_traits@D@std@@V?$allocator@D@2@@std@@V23@V?$map@HPAVobject_t@@U?$less@H@std@@V?$allocator@U?$pair@$$CBHPAVobject_t@@@std@@@3@@3@0@Z 10026a10 f   mfdpage_time.obj
 0001:00025bd0       ??0mfdpage_weather_t@@QAE@V?$basic_string@DU?$char_traits@D@std@@V?$allocator@D@2@@std@@@Z 10026bd0 f   mfdpage_weather.obj
 0001:00025c20       ?get_template@mfdpage_weather_t@@UAE?AV?$basic_string@DU?$char_traits@D@std@@V?$allocator@D@2@@std@@V23@AAV?$map@HV?$basic_string@DU?$char_traits@D@std@@V?$allocator@D@2@@std@@U?$less@H@2@V?$allocator@U?$pair@$$CBHV?$basic_string@DU?$char_traits@D@std@@V?$allocator@D@2@@std@@@std@@@2@@3@@Z 10026c20 f   mfdpage_weather.obj
 0001:000261d0       ?do_refresh@mfdpage_weather_t@@UAEXPAVobject_t@@@Z 100271d0 f   mfdpage_weather.obj
 0001:000261e0       ?refresh_interval@mfdpage_weather_t@@UAEHV?$basic_string@DU?$char_traits@D@std@@V?$allocator@D@2@@std@@@Z 100271e0 f   mfdpage_weather.obj
 0001:00026210       ?refresh_template@mfdpage_weather_t@@UAE?AV?$basic_string@DU?$char_traits@D@std@@V?$allocator@D@2@@std@@V23@V?$map@HPAVobject_t@@U?$less@H@std@@V?$allocator@U?$pair@$$CBHPAVobject_t@@@std@@@3@@3@0@Z 10027210 f   mfdpage_weather.obj
 0001:00026990       ??0mfdpage_std_t@@QAE@V?$basic_string@DU?$char_traits@D@std@@V?$allocator@D@2@@std@@@Z 10027990 f   mfdpage_std.obj
 0001:000269e0       ?get_template@mfdpage_std_t@@UAE?AV?$basic_string@DU?$char_traits@D@std@@V?$allocator@D@2@@std@@V23@AAV?$map@HV?$basic_string@DU?$char_traits@D@std@@V?$allocator@D@2@@std@@U?$less@H@2@V?$allocator@U?$pair@$$CBHV?$basic_string@DU?$char_traits@D@std@@V?$allocator@D@2@@std@@@std@@@2@@3@@Z 100279e0 f   mfdpage_std.obj
 0001:00026d40       ?do_refresh@mfdpage_std_t@@UAEXPAVobject_t@@@Z 10027d40 f   mfdpage_std.obj
 0001:00026d50       ?refresh_interval@mfdpage_std_t@@UAEHV?$basic_string@DU?$char_traits@D@std@@V?$allocator@D@2@@std@@@Z 10027d50 f   mfdpage_std.obj
 0001:00026dd0       ?refresh_template@mfdpage_std_t@@UAE?AV?$basic_string@DU?$char_traits@D@std@@V?$allocator@D@2@@std@@V23@V?$map@HPAVobject_t@@U?$less@H@std@@V?$allocator@U?$pair@$$CBHPAVobject_t@@@std@@@3@@3@0@Z 10027dd0 f   mfdpage_std.obj
 0001:00027170       ??0mfdpage_led_t@@QAE@V?$basic_string@DU?$char_traits@D@std@@V?$allocator@D@2@@std@@@Z 10028170 f   mfdpage_led.obj
 0001:000271d0       ??0mfdpage_led_t@@QAE@V?$basic_string@DU?$char_traits@D@std@@V?$allocator@D@2@@std@@PAVout_t@@@Z 100281d0 f   mfdpage_led.obj
 0001:00027240       ?get_template@mfdpage_led_t@@UAE?AV?$basic_string@DU?$char_traits@D@std@@V?$allocator@D@2@@std@@V23@AAV?$map@HV?$basic_string@DU?$char_traits@D@std@@V?$allocator@D@2@@std@@U?$less@H@2@V?$allocator@U?$pair@$$CBHV?$basic_string@DU?$char_traits@D@std@@V?$allocator@D@2@@std@@@std@@@2@@3@@Z 10028240 f   mfdpage_led.obj
 0001:000276e0       ?do_refresh@mfdpage_led_t@@UAEXPAVobject_t@@@Z 100286e0 f   mfdpage_led.obj
 0001:00027da0       ?refresh_interval@mfdpage_led_t@@UAEHV?$basic_string@DU?$char_traits@D@std@@V?$allocator@D@2@@std@@@Z 10028da0 f   mfdpage_led.obj
 0001:00027dd0       ?refresh_template@mfdpage_led_t@@UAE?AV?$basic_string@DU?$char_traits@D@std@@V?$allocator@D@2@@std@@V23@V?$map@HPAVobject_t@@U?$less@H@std@@V?$allocator@U?$pair@$$CBHPAVobject_t@@@std@@@3@@3@0@Z 10028dd0 f   mfdpage_led.obj
 0001:00027e10       ?set_led_by_name@mfdpage_led_t@@AAAXHPBDH0ZZ 10028e10 f   mfdpage_led.obj
 0001:000285e0       ??$?0U?$_Tree_node@U?$pair@$$CBV?$basic_string@DU?$char_traits@D@std@@V?$allocator@D@2@@std@@V12@@std@@PAX@std@@@?$allocator@U?$pair@$$CBV?$basic_string@DU?$char_traits@D@std@@V?$allocator@D@2@@std@@V12@@std@@@std@@QAE@ABV?$allocator@U?$_Tree_node@U?$pair@$$CBV?$basic_string@DU?$char_traits@D@std@@V?$allocator@D@2@@std@@V12@@std@@PAX@std@@@1@@Z 100295e0 f i mfdpage_led.obj
 0001:000285f0       ??$?0V?$basic_string@DU?$char_traits@D@std@@V?$allocator@D@2@@std@@V01@X@?$pair@$$CBV?$basic_string@DU?$char_traits@D@std@@V?$allocator@D@2@@std@@V12@@std@@QAE@$$QAV?$basic_string@DU?$char_traits@D@std@@V?$allocator@D@2@@1@0@Z 100295f0 f i mfdpage_led.obj
 0001:00028630       ??$?8U?$pair@$$CBV?$basic_string@DU?$char_traits@D@std@@V?$allocator@D@2@@std@@V12@@std@@U01@@std@@YA_NABV?$allocator@U?$pair@$$CBV?$basic_string@DU?$char_traits@D@std@@V?$allocator@D@2@@std@@V12@@std@@@0@0@Z 10029630 f i mfdpage_led.obj
 0001:00028640       ??$_Buynode@V?$basic_string@DU?$char_traits@D@std@@V?$allocator@D@2@@std@@V12@@?$_Tree_buy@U?$pair@$$CBV?$basic_string@DU?$char_traits@D@std@@V?$allocator@D@2@@std@@V12@@std@@V?$allocator@U?$pair@$$CBV?$basic_string@DU?$char_traits@D@std@@V?$allocator@D@2@@std@@V12@@std@@@2@@std@@QAEPAU?$_Tree_node@U?$pair@$$CBV?$basic_string@DU?$char_traits@D@std@@V?$allocator@D@2@@std@@V12@@std@@PAX@1@$$QAV?$basic_string@DU?$char_traits@D@std@@V?$allocator@D@2@@1@0@Z 10029640 f i mfdpage_led.obj
 0001:00028730       ??$_Copy@U?$integral_constant@_N$00@std@@@?$_Tree@V?$_Tmap_traits@V?$basic_string@DU?$char_traits@D@std@@V?$allocator@D@2@@std@@V12@U?$less@V?$basic_string@DU?$char_traits@D@std@@V?$allocator@D@2@@std@@@2@V?$allocator@U?$pair@$$CBV?$basic_string@DU?$char_traits@D@std@@V?$allocator@D@2@@std@@V12@@std@@@2@$0A@@std@@@std@@IAEXABV01@U?$integral_constant@_N$00@1@@Z 10029730 f i mfdpage_led.obj
 0001:000287f0       ??$_Copy_nodes@U?$integral_constant@_N$00@std@@@?$_Tree@V?$_Tmap_traits@V?$basic_string@DU?$char_traits@D@std@@V?$allocator@D@2@@std@@V12@U?$less@V?$basic_string@DU?$char_traits@D@std@@V?$allocator@D@2@@std@@@2@V?$allocator@U?$pair@$$CBV?$basic_string@DU?$char_traits@D@std@@V?$allocator@D@2@@std@@V12@@std@@@2@$0A@@std@@@std@@IAEPAU?$_Tree_node@U?$pair@$$CBV?$basic_string@DU?$char_traits@D@std@@V?$allocator@D@2@@std@@V12@@std@@PAX@1@PAU21@0U?$integral_constant@_N$00@1@@Z 100297f0 f i mfdpage_led.obj
 0001:00028950       ??$_Copy_or_move@H@?$_Tree@V?$_Tmap_traits@V?$basic_string@DU?$char_traits@D@std@@V?$allocator@D@2@@std@@V12@U?$less@V?$basic_string@DU?$char_traits@D@std@@V?$allocator@D@2@@std@@@2@V?$allocator@U?$pair@$$CBV?$basic_string@DU?$char_traits@D@std@@V?$allocator@D@2@@std@@V12@@std@@@2@$0A@@std@@@std@@IAEPAU?$_Tree_node@U?$pair@$$CBV?$basic_string@DU?$char_traits@D@std@@V?$allocator@D@2@@std@@V12@@std@@PAX@1@PAU21@U?$integral_constant@_N$00@1@1U?$integral_constant@_N$0A@@1@H@Z 10029950 f i mfdpage_led.obj
 0001:000289a0       ??$_Move@AAI@std@@YA$$QAIAAI@Z 100299a0 f i mfdpage_led.obj
 0001:000289b0       ??$_Move@AAPAU?$_Tree_node@U?$pair@$$CBV?$basic_string@DU?$char_traits@D@std@@V?$allocator@D@2@@std@@V12@@std@@PAX@std@@@std@@YA$$QAPAU?$_Tree_node@U?$pair@$$CBV?$basic_string@DU?$char_traits@D@std@@V?$allocator@D@2@@std@@V12@@std@@PAX@0@AAPAU10@@Z 100299b0 f i mfdpage_led.obj
 0001:000289c0       ??$_Swap_adl@PAU?$_Tree_node@U?$pair@$$CBV?$basic_string@DU?$char_traits@D@std@@V?$allocator@D@2@@std@@V12@@std@@PAX@std@@@std@@YAXAAPAU?$_Tree_node@U?$pair@$$CBV?$basic_string@DU?$char_traits@D@std@@V?$allocator@D@2@@std@@V12@@std@@PAX@0@0@Z 100299c0 f i mfdpage_led.obj
 0001:000289e0       ??$_Transform@PADV?$_String_iterator@V?$_String_val@U?$_Simple_types@D@std@@@std@@@std@@P6AHH@Z@std@@YA?AV?$_String_iterator@V?$_String_val@U?$_Simple_types@D@std@@@std@@@0@PAD0V10@P6AHH@Z@Z 100299e0 f i mfdpage_led.obj
 0001:00028a30       ??$_Unchecked@V?$_String_val@U?$_Simple_types@D@std@@@std@@@std@@YAPADV?$_String_iterator@V?$_String_val@U?$_Simple_types@D@std@@@std@@@0@@Z 10029a30 f i mfdpage_led.obj
 0001:00028a40       ??$construct@U?$pair@$$CBV?$basic_string@DU?$char_traits@D@std@@V?$allocator@D@2@@std@@V12@@std@@V?$basic_string@DU?$char_traits@D@std@@V?$allocator@D@2@@2@V32@@?$_Wrap_alloc@V?$allocator@U?$_Tree_node@U?$pair@$$CBV?$basic_string@DU?$char_traits@D@std@@V?$allocator@D@2@@std@@V12@@std@@PAX@std@@@std@@@std@@QAEXPAU?$pair@$$CBV?$basic_string@DU?$char_traits@D@std@@V?$allocator@D@2@@std@@V12@@1@$$QAV?$basic_string@DU?$char_traits@D@std@@V?$allocator@D@2@@1@1@Z 10029a40 f i mfdpage_led.obj
 0001:00028a80       ??$construct@U?$pair@$$CBV?$basic_string@DU?$char_traits@D@std@@V?$allocator@D@2@@std@@V12@@std@@V?$basic_string@DU?$char_traits@D@std@@V?$allocator@D@2@@2@V32@@?$allocator@U?$_Tree_node@U?$pair@$$CBV?$basic_string@DU?$char_traits@D@std@@V?$allocator@D@2@@std@@V12@@std@@PAX@std@@@std@@QAEXPAU?$pair@$$CBV?$basic_string@DU?$char_traits@D@std@@V?$allocator@D@2@@std@@V12@@1@$$QAV?$basic_string@DU?$char_traits@D@std@@V?$allocator@D@2@@1@1@Z 10029a80 f i mfdpage_led.obj
 0001:00028ae0       ??$construct@U?$pair@$$CBV?$basic_string@DU?$char_traits@D@std@@V?$allocator@D@2@@std@@V12@@std@@V?$basic_string@DU?$char_traits@D@std@@V?$allocator@D@2@@2@V32@@?$allocator_traits@V?$allocator@U?$_Tree_node@U?$pair@$$CBV?$basic_string@DU?$char_traits@D@std@@V?$allocator@D@2@@std@@V12@@std@@PAX@std@@@std@@@std@@SAXAAV?$allocator@U?$_Tree_node@U?$pair@$$CBV?$basic_string@DU?$char_traits@D@std@@V?$allocator@D@2@@std@@V12@@std@@PAX@std@@@1@PAU?$pair@$$CBV?$basic_string@DU?$char_traits@D@std@@V?$allocator@D@2@@std@@V12@@1@$$QAV?$basic_string@DU?$char_traits@D@std@@V?$allocator@D@2@@1@2@Z 10029ae0 f i mfdpage_led.obj
 0001:00028b10       ??$forward@V?$_Tree@V?$_Tmap_traits@V?$basic_string@DU?$char_traits@D@std@@V?$allocator@D@2@@std@@V12@U?$less@V?$basic_string@DU?$char_traits@D@std@@V?$allocator@D@2@@std@@@2@V?$allocator@U?$pair@$$CBV?$basic_string@DU?$char_traits@D@std@@V?$allocator@D@2@@std@@V12@@std@@@2@$0A@@std@@@std@@@std@@YA$$QAV?$_Tree@V?$_Tmap_traits@V?$basic_string@DU?$char_traits@D@std@@V?$allocator@D@2@@std@@V12@U?$less@V?$basic_string@DU?$char_traits@D@std@@V?$allocator@D@2@@std@@@2@V?$allocator@U?$pair@$$CBV?$basic_string@DU?$char_traits@D@std@@V?$allocator@D@2@@std@@V12@@std@@@2@$0A@@std@@@0@AAV10@@Z 10029b10 f i mfdpage_led.obj
 0001:00028b20       ??$move@AAV?$map@V?$basic_string@DU?$char_traits@D@std@@V?$allocator@D@2@@std@@V12@U?$less@V?$basic_string@DU?$char_traits@D@std@@V?$allocator@D@2@@std@@@2@V?$allocator@U?$pair@$$CBV?$basic_string@DU?$char_traits@D@std@@V?$allocator@D@2@@std@@V12@@std@@@2@@std@@@std@@YA$$QAV?$map@V?$basic_string@DU?$char_traits@D@std@@V?$allocator@D@2@@std@@V12@U?$less@V?$basic_string@DU?$char_traits@D@std@@V?$allocator@D@2@@std@@@2@V?$allocator@U?$pair@$$CBV?$basic_string@DU?$char_traits@D@std@@V?$allocator@D@2@@std@@V12@@std@@@2@@0@AAV10@@Z 10029b20 f i mfdpage_led.obj
 0001:00028b30       ??$swap@I@std@@YAXAAI0@Z   10029b30 f i mfdpage_led.obj
 0001:00028b70       ??$swap@PAU?$_Tree_node@U?$pair@$$CBV?$basic_string@DU?$char_traits@D@std@@V?$allocator@D@2@@std@@V12@@std@@PAX@std@@@std@@YAXAAPAU?$_Tree_node@U?$pair@$$CBV?$basic_string@DU?$char_traits@D@std@@V?$allocator@D@2@@std@@V12@@std@@PAX@0@0@Z 10029b70 f i mfdpage_led.obj
 0001:00028bb0       ??$transform@V?$_String_iterator@V?$_String_val@U?$_Simple_types@D@std@@@std@@@std@@V12@P6AHH@Z@std@@YA?AV?$_String_iterator@V?$_String_val@U?$_Simple_types@D@std@@@std@@@0@V10@00P6AHH@Z@Z 10029bb0 f i mfdpage_led.obj
 0001:00028c10       ??0?$_Tree@V?$_Tmap_traits@V?$basic_string@DU?$char_traits@D@std@@V?$allocator@D@2@@std@@V12@U?$less@V?$basic_string@DU?$char_traits@D@std@@V?$allocator@D@2@@std@@@2@V?$allocator@U?$pair@$$CBV?$basic_string@DU?$char_traits@D@std@@V?$allocator@D@2@@std@@V12@@std@@@2@$0A@@std@@@std@@QAE@ABU?$less@V?$basic_string@DU?$char_traits@D@std@@V?$allocator@D@2@@std@@@1@ABV?$allocator@U?$pair@$$CBV?$basic_string@DU?$char_traits@D@std@@V?$allocator@D@2@@std@@V12@@std@@@1@@Z 10029c10 f i mfdpage_led.obj
 0001:00028c30       ??0?$_Tree_alloc@$0A@U?$_Tree_base_types@U?$pair@$$CBV?$basic_string@DU?$char_traits@D@std@@V?$allocator@D@2@@std@@V12@@std@@V?$allocator@U?$pair@$$CBV?$basic_string@DU?$char_traits@D@std@@V?$allocator@D@2@@std@@V12@@std@@@2@@std@@@std@@QAE@ABV?$allocator@U?$pair@$$CBV?$basic_string@DU?$char_traits@D@std@@V?$allocator@D@2@@std@@V12@@std@@@1@@Z 10029c30 f i mfdpage_led.obj
 0001:00028c60       ??0?$_Tree_buy@U?$pair@$$CBV?$basic_string@DU?$char_traits@D@std@@V?$allocator@D@2@@std@@V12@@std@@V?$allocator@U?$pair@$$CBV?$basic_string@DU?$char_traits@D@std@@V?$allocator@D@2@@std@@V12@@std@@@2@@std@@QAE@ABV?$allocator@U?$pair@$$CBV?$basic_string@DU?$char_traits@D@std@@V?$allocator@D@2@@std@@V12@@std@@@1@@Z 10029c60 f i mfdpage_led.obj
 0001:00028c80       ??0?$_Tree_comp@$0A@V?$_Tmap_traits@V?$basic_string@DU?$char_traits@D@std@@V?$allocator@D@2@@std@@V12@U?$less@V?$basic_string@DU?$char_traits@D@std@@V?$allocator@D@2@@std@@@2@V?$allocator@U?$pair@$$CBV?$basic_string@DU?$char_traits@D@std@@V?$allocator@D@2@@std@@V12@@std@@@2@$0A@@std@@@std@@QAE@ABU?$less@V?$basic_string@DU?$char_traits@D@std@@V?$allocator@D@2@@std@@@1@ABV?$allocator@U?$pair@$$CBV?$basic_string@DU?$char_traits@D@std@@V?$allocator@D@2@@std@@V12@@std@@@1@@Z 10029c80 f i mfdpage_led.obj
 0001:00028ca0       ??0?$_Tree_val@U?$_Tree_simple_types@U?$pair@$$CBV?$basic_string@DU?$char_traits@D@std@@V?$allocator@D@2@@std@@V12@@std@@@std@@@std@@QAE@XZ 10029ca0 f i mfdpage_led.obj
 0001:00028cd0       ??0?$allocator@U?$pair@$$CBV?$basic_string@DU?$char_traits@D@std@@V?$allocator@D@2@@std@@V12@@std@@@std@@QAE@XZ 10029cd0 f i mfdpage_led.obj
 0001:00028ce0       ??0?$basic_string@DU?$char_traits@D@std@@V?$allocator@D@2@@std@@QAE@ABV01@IIABV?$allocator@D@1@@Z 10029ce0 f i mfdpage_led.obj
 0001:00028d20       ??0?$map@V?$basic_string@DU?$char_traits@D@std@@V?$allocator@D@2@@std@@V12@U?$less@V?$basic_string@DU?$char_traits@D@std@@V?$allocator@D@2@@std@@@2@V?$allocator@U?$pair@$$CBV?$basic_string@DU?$char_traits@D@std@@V?$allocator@D@2@@std@@V12@@std@@@2@@std@@QAE@XZ 10029d20 f i mfdpage_led.obj
 0001:00028d50       ??4?$_Tree@V?$_Tmap_traits@V?$basic_string@DU?$char_traits@D@std@@V?$allocator@D@2@@std@@V12@U?$less@V?$basic_string@DU?$char_traits@D@std@@V?$allocator@D@2@@std@@@2@V?$allocator@U?$pair@$$CBV?$basic_string@DU?$char_traits@D@std@@V?$allocator@D@2@@std@@V12@@std@@@2@$0A@@std@@@std@@QAEAAV01@$$QAV01@@Z 10029d50 f i mfdpage_led.obj
 0001:00028da0       ??4?$map@V?$basic_string@DU?$char_traits@D@std@@V?$allocator@D@2@@std@@V12@U?$less@V?$basic_string@DU?$char_traits@D@std@@V?$allocator@D@2@@std@@@2@V?$allocator@U?$pair@$$CBV?$basic_string@DU?$char_traits@D@std@@V?$allocator@D@2@@std@@V12@@std@@@2@@std@@QAEAAV01@$$QAV01@@Z 10029da0 f i mfdpage_led.obj
 0001:00028dd0       ??9?$_String_const_iterator@V?$_String_val@U?$_Simple_types@D@std@@@std@@@std@@QBE_NABV01@@Z 10029dd0 f i mfdpage_led.obj
 0001:00028e10       ??E?$_String_const_iterator@V?$_String_val@U?$_Simple_types@D@std@@@std@@@std@@QAEAAV01@XZ 10029e10 f i mfdpage_led.obj
 0001:00028e30       ??E?$_String_iterator@V?$_String_val@U?$_Simple_types@D@std@@@std@@@std@@QAEAAV01@XZ 10029e30 f i mfdpage_led.obj
 0001:00028e50       ??E?$_Tree_iterator@V?$_Tree_val@U?$_Tree_simple_types@U?$pair@$$CBV?$basic_string@DU?$char_traits@D@std@@V?$allocator@D@2@@std@@V12@@std@@@std@@@std@@@std@@QAEAAV01@XZ 10029e50 f i mfdpage_led.obj
 0001:00028e70       ??Y?$basic_string@DU?$char_traits@D@std@@V?$allocator@D@2@@std@@QAEAAV01@PBD@Z 10029e70 f i mfdpage_led.obj
 0001:00028e90       ?_Assign_rv@?$_Tree@V?$_Tmap_traits@V?$basic_string@DU?$char_traits@D@std@@V?$allocator@D@2@@std@@V12@U?$less@V?$basic_string@DU?$char_traits@D@std@@V?$allocator@D@2@@std@@@2@V?$allocator@U?$pair@$$CBV?$basic_string@DU?$char_traits@D@std@@V?$allocator@D@2@@std@@V12@@std@@@2@$0A@@std@@@std@@QAEX$$QAV12@@Z 10029e90 f i mfdpage_led.obj
 0001:00028ec0       ?_Assign_rv@?$_Tree@V?$_Tmap_traits@V?$basic_string@DU?$char_traits@D@std@@V?$allocator@D@2@@std@@V12@U?$less@V?$basic_string@DU?$char_traits@D@std@@V?$allocator@D@2@@std@@@2@V?$allocator@U?$pair@$$CBV?$basic_string@DU?$char_traits@D@std@@V?$allocator@D@2@@std@@V12@@std@@@2@$0A@@std@@@std@@QAEX$$QAV12@U?$integral_constant@_N$00@2@@Z 10029ec0 f i mfdpage_led.obj
 0001:00028f20       ?_Assign_rv@?$_Tree@V?$_Tmap_traits@V?$basic_string@DU?$char_traits@D@std@@V?$allocator@D@2@@std@@V12@U?$less@V?$basic_string@DU?$char_traits@D@std@@V?$allocator@D@2@@std@@@2@V?$allocator@U?$pair@$$CBV?$basic_string@DU?$char_traits@D@std@@V?$allocator@D@2@@std@@V12@@std@@@2@$0A@@std@@@std@@QAEX$$QAV12@U?$integral_constant@_N$0A@@2@@Z 10029f20 f i mfdpage_led.obj
 0001:00028f90       ?_Buyheadnode@?$_Tree_alloc@$0A@U?$_Tree_base_types@U?$pair@$$CBV?$basic_string@DU?$char_traits@D@std@@V?$allocator@D@2@@std@@V12@@std@@V?$allocator@U?$pair@$$CBV?$basic_string@DU?$char_traits@D@std@@V?$allocator@D@2@@std@@V12@@std@@@2@@std@@@std@@QAEPAU?$_Tree_node@U?$pair@$$CBV?$basic_string@DU?$char_traits@D@std@@V?$allocator@D@2@@std@@V12@@std@@PAX@2@XZ 10029f90 f i mfdpage_led.obj
 0001:000290e0       ?_Change_alloc@?$_Tree_alloc@$0A@U?$_Tree_base_types@U?$pair@$$CBV?$basic_string@DU?$char_traits@D@std@@V?$allocator@D@2@@std@@V12@@std@@V?$allocator@U?$pair@$$CBV?$basic_string@DU?$char_traits@D@std@@V?$allocator@D@2@@std@@V12@@std@@@2@@std@@@std@@QAEXABU?$_Wrap_alloc@V?$allocator@U?$_Tree_node@U?$pair@$$CBV?$basic_string@DU?$char_traits@D@std@@V?$allocator@D@2@@std@@V12@@std@@PAX@std@@@std@@@2@@Z 1002a0e0 f i mfdpage_led.obj
 0001:000290f0       ?_Swapcomp@?$_Tree_comp@$0A@V?$_Tmap_traits@V?$basic_string@DU?$char_traits@D@std@@V?$allocator@D@2@@std@@V12@U?$less@V?$basic_string@DU?$char_traits@D@std@@V?$allocator@D@2@@std@@@2@V?$allocator@U?$pair@$$CBV?$basic_string@DU?$char_traits@D@std@@V?$allocator@D@2@@std@@V12@@std@@@2@$0A@@std@@@std@@QAEXABU?$less@V?$basic_string@DU?$char_traits@D@std@@V?$allocator@D@2@@std@@@2@@Z 1002a0f0 f i mfdpage_led.obj
 0001:00029100       ?_Unchecked@?$_String_iterator@V?$_String_val@U?$_Simple_types@D@std@@@std@@@std@@QBEPADXZ 1002a100 f i mfdpage_led.obj
 0001:00029110       ?append@?$basic_string@DU?$char_traits@D@std@@V?$allocator@D@2@@std@@QAEAAV12@ABV12@II@Z 1002a110 f i mfdpage_led.obj
 0001:000291d0       ?append@?$basic_string@DU?$char_traits@D@std@@V?$allocator@D@2@@std@@QAEAAV12@PBD@Z 1002a1d0 f i mfdpage_led.obj
 0001:00029200       ?append@?$basic_string@DU?$char_traits@D@std@@V?$allocator@D@2@@std@@QAEAAV12@PBDI@Z 1002a200 f i mfdpage_led.obj
 0001:000292b0       ?get_allocator@?$_Tree@V?$_Tmap_traits@V?$basic_string@DU?$char_traits@D@std@@V?$allocator@D@2@@std@@V12@U?$less@V?$basic_string@DU?$char_traits@D@std@@V?$allocator@D@2@@std@@@2@V?$allocator@U?$pair@$$CBV?$basic_string@DU?$char_traits@D@std@@V?$allocator@D@2@@std@@V12@@std@@@2@$0A@@std@@@std@@QBE?AV?$allocator@U?$pair@$$CBV?$basic_string@DU?$char_traits@D@std@@V?$allocator@D@2@@std@@V12@@std@@@2@XZ 1002a2b0 f i mfdpage_led.obj
 0001:000292e0       ?substr@?$basic_string@DU?$char_traits@D@std@@V?$allocator@D@2@@std@@QBE?AV12@II@Z 1002a2e0 f i mfdpage_led.obj
 0001:00029320       ??0fms_t@@QAE@XZ           1002a320 f   fms.obj
 0001:00029360       ??1fms_t@@QAE@XZ           1002a360 f   fms.obj
 0001:00029400       ?refresh@fms_t@@QAEXXZ     1002a400 f   fms.obj
 0001:000295d0       ?reset@fms_t@@QAEXXZ       1002a5d0 f   fms.obj
 0001:000296d0       ?load@fms_t@@QAEXXZ        1002a6d0 f   fms.obj
 0001:00029710       ?displayed_index@fms_t@@QAEHXZ 1002a710 f   fms.obj
 0001:00029760       ?entry_name@fms_t@@QAE?AV?$basic_string@DU?$char_traits@D@std@@V?$allocator@D@2@@std@@H@Z 1002a760 f   fms.obj
 0001:000297c0       ?entry_type@fms_t@@QAE?AV?$basic_string@DU?$char_traits@D@std@@V?$allocator@D@2@@std@@H@Z 1002a7c0 f   fms.obj
 0001:00029820       ?distance_to_entry@fms_t@@QAEMH@Z 1002a820 f   fms.obj
 0001:00029910       ?remaining_distance_from_entry@fms_t@@QAEMH@Z 1002a910 f   fms.obj
 0001:00029970       ?minutes_to_entry@fms_t@@QAEMH@Z 1002a970 f   fms.obj
 0001:00029a80       ?time_to_entry@fms_t@@QAE?AV?$basic_string@DU?$char_traits@D@std@@V?$allocator@D@2@@std@@H@Z 1002aa80 f   fms.obj
 0001:00029ac0       ?eta_to_entry@fms_t@@QAE?AV?$basic_string@DU?$char_traits@D@std@@V?$allocator@D@2@@std@@HM@Z 1002aac0 f   fms.obj
 0001:00029b60       ?remaining_distance@fms_t@@QAEMXZ 1002ab60 f   fms.obj
 0001:00029b80       ?remaining_time@fms_t@@QAEMXZ 1002ab80 f   fms.obj
 0001:00029ba0       ?flying_index@fms_t@@QAEHXZ 1002aba0 f   fms.obj
 0001:00029bf0       ?percentage@fms_t@@QAEMXZ  1002abf0 f   fms.obj
 0001:00029ca0       ?check_takeoff@fms_t@@QAEXM@Z 1002aca0 f   fms.obj
 0001:0002a0f0       ?check_landing@fms_t@@QAEXM@Z 1002b0f0 f   fms.obj
 0001:0002a5e0       ?check_position@fms_t@@QAEXXZ 1002b5e0 f   fms.obj
 0001:0002afa0       ?check_gate_departure@fms_t@@QAEXM@Z 1002bfa0 f   fms.obj
 0001:0002b3b0       ?check_gate_arrival@fms_t@@QAEXXZ 1002c3b0 f   fms.obj
 0001:0002b650       ?distance_to_current@fms_t@@AAEMXZ 1002c650 f   fms.obj
 0001:0002b6b0       ?speed_to_current@fms_t@@AAEMXZ 1002c6b0 f   fms.obj
 0001:0002b710       ?time_to_current@fms_t@@AAEMXZ 1002c710 f   fms.obj
 0001:0002b7d0       ??$?9DU?$char_traits@D@std@@V?$allocator@D@1@@std@@YA_NABV?$basic_string@DU?$char_traits@D@std@@V?$allocator@D@2@@0@PBD@Z 1002c7d0 f i fms.obj
 0001:0002b810       ??_Gfms_config_t@@QAEPAXI@Z 1002c810 f i fms.obj
 0001:0002b840       ??_Gfms_fp_t@@QAEPAXI@Z    1002c840 f i fms.obj
 0001:0002b870       ??_Gfms_fuel_t@@QAEPAXI@Z  1002c870 f i fms.obj
 0001:0002b8a0       ??0fms_config_t@@QAE@XZ    1002c8a0 f   fms_config.obj
 0001:0002b900       ??1fms_config_t@@QAE@XZ    1002c900 f   fms_config.obj
 0001:0002b940       ?load@fms_config_t@@QAEXXZ 1002c940 f   fms_config.obj
 0001:0002b9a0       ?value_from_profile@fms_config_t@@QAEMV?$basic_string@DU?$char_traits@D@std@@V?$allocator@D@2@@std@@H@Z 1002c9a0 f   fms_config.obj
 0001:0002bb90       ?load_config@fms_config_t@@AAEXXZ 1002cb90 f   fms_config.obj
 0001:0002c160       ?load_profiles@fms_config_t@@AAEXXZ 1002d160 f   fms_config.obj
 0001:0002c2b0       ?load_profile@fms_config_t@@AAEXV?$basic_string@DU?$char_traits@D@std@@V?$allocator@D@2@@std@@@Z 1002d2b0 f   fms_config.obj
 0001:0002c470       ?reverse_profile@fms_config_t@@AAEXV?$basic_string@DU?$char_traits@D@std@@V?$allocator@D@2@@std@@0@Z 1002d470 f   fms_config.obj
 0001:0002c5c0       ?combine_profile@fms_config_t@@AAEXV?$basic_string@DU?$char_traits@D@std@@V?$allocator@D@2@@std@@00@Z 1002d5c0 f   fms_config.obj
 0001:0002c780       ?calculate_climb_desc@fms_config_t@@AAEXXZ 1002d780 f   fms_config.obj
 0001:0002ca60       ??0fms_config_item_t@@QAE@XZ 1002da60 f   fms_config.obj
 0001:0002ca90       ??$?0AAV?$_Tree_iterator@V?$_Tree_val@U?$_Tree_simple_types@U?$pair@$$CBHM@std@@@std@@@std@@@std@@_NX@?$pair@V?$_Tree_iterator@V?$_Tree_val@U?$_Tree_simple_types@U?$pair@$$CBHM@std@@@std@@@std@@@std@@_N@std@@QAE@AAV?$_Tree_iterator@V?$_Tree_val@U?$_Tree_simple_types@U?$pair@$$CBHM@std@@@std@@@std@@@1@$$QA_N@Z 1002da90 f i fms_config.obj
 0001:0002cad0       ??$?0AAV?$_Tree_iterator@V?$_Tree_val@U?$_Tree_simple_types@U?$pair@$$CBV?$basic_string@DU?$char_traits@D@std@@V?$allocator@D@2@@std@@PAVfms_config_item_t@@@std@@@std@@@std@@@std@@_NX@?$pair@V?$_Tree_iterator@V?$_Tree_val@U?$_Tree_simple_types@U?$pair@$$CBV?$basic_string@DU?$char_traits@D@std@@V?$allocator@D@2@@std@@PAVfms_config_item_t@@@std@@@std@@@std@@@std@@_N@std@@QAE@AAV?$_Tree_iterator@V?$_Tree_val@U?$_Tree_simple_types@U?$pair@$$CBV?$basic_string@DU?$char_traits@D@std@@V?$allocator@D@2@@std@@PAVfms_config_item_t@@@std@@@std@@@std@@@1@$$QA_N@Z 1002dad0 f i fms_config.obj
 0001:0002cb10       ??$?0ABH$$$V@?$pair@$$CBHM@std@@QAE@Upiecewise_construct_t@1@V?$tuple@ABH@1@V?$tuple@$$$V@1@@Z 1002db10 f i fms_config.obj
 0001:0002cb50       ??$?0ABV?$basic_string@DU?$char_traits@D@std@@V?$allocator@D@2@@std@@$$$V@?$pair@$$CBV?$basic_string@DU?$char_traits@D@std@@V?$allocator@D@2@@std@@PAVfms_config_item_t@@@std@@QAE@Upiecewise_construct_t@1@V?$tuple@ABV?$basic_string@DU?$char_traits@D@std@@V?$allocator@D@2@@std@@@1@V?$tuple@$$$V@1@@Z 1002db50 f i fms_config.obj
 0001:0002cb90       ??$?0V?$_Tree_iterator@V?$_Tree_val@U?$_Tree_simple_types@U?$pair@$$CBHM@std@@@std@@@std@@@std@@_NX@?$pair@V?$_Tree_iterator@V?$_Tree_val@U?$_Tree_simple_types@U?$pair@$$CBHM@std@@@std@@@std@@@std@@_N@std@@QAE@$$QAV?$_Tree_iterator@V?$_Tree_val@U?$_Tree_simple_types@U?$pair@$$CBHM@std@@@std@@@std@@@1@$$QA_N@Z 1002db90 f i fms_config.obj
 0001:0002cbd0       ??$?0V?$_Tree_iterator@V?$_Tree_val@U?$_Tree_simple_types@U?$pair@$$CBV?$basic_string@DU?$char_traits@D@std@@V?$allocator@D@2@@std@@PAVfms_config_item_t@@@std@@@std@@@std@@@std@@_NX@?$pair@V?$_Tree_iterator@V?$_Tree_val@U?$_Tree_simple_types@U?$pair@$$CBV?$basic_string@DU?$char_traits@D@std@@V?$allocator@D@2@@std@@PAVfms_config_item_t@@@std@@@std@@@std@@@std@@_N@std@@QAE@$$QAV?$_Tree_iterator@V?$_Tree_val@U?$_Tree_simple_types@U?$pair@$$CBV?$basic_string@DU?$char_traits@D@std@@V?$allocator@D@2@@std@@PAVfms_config_item_t@@@std@@@std@@@std@@@1@$$QA_N@Z 1002dbd0 f i fms_config.obj
 0001:0002cc10       ??$?0V?$tuple@ABH@std@@V?$tuple@$$$V@1@$0A@$S@?$pair@$$CBHM@std@@QAE@AAV?$tuple@ABH@1@AAV?$tuple@$$$V@1@U?$_Arg_idx@$0A@@1@U?$_Arg_idx@$S@1@@Z 1002dc10 f i fms_config.obj
 0001:0002cc50       ??$?0V?$tuple@ABV?$basic_string@DU?$char_traits@D@std@@V?$allocator@D@2@@std@@@std@@V?$tuple@$$$V@1@$0A@$S@?$pair@$$CBV?$basic_string@DU?$char_traits@D@std@@V?$allocator@D@2@@std@@PAVfms_config_item_t@@@std@@QAE@AAV?$tuple@ABV?$basic_string@DU?$char_traits@D@std@@V?$allocator@D@2@@std@@@1@AAV?$tuple@$$$V@1@U?$_Arg_idx@$0A@@1@U?$_Arg_idx@$S@1@@Z 1002dc50 f i fms_config.obj
 0001:0002cc90       ??$_Allocate@U?$_Tree_node@U?$pair@$$CBHM@std@@PAX@std@@@std@@YAPAU?$_Tree_node@U?$pair@$$CBHM@std@@PAX@0@IPAU10@@Z 1002dc90 f i fms_config.obj
 0001:0002ccd0       ??$_Allocate@U?$_Tree_node@U?$pair@$$CBV?$basic_string@DU?$char_traits@D@std@@V?$allocator@D@2@@std@@PAVfms_config_item_t@@@std@@PAX@std@@@std@@YAPAU?$_Tree_node@U?$pair@$$CBV?$basic_string@DU?$char_traits@D@std@@V?$allocator@D@2@@std@@PAVfms_config_item_t@@@std@@PAX@0@IPAU10@@Z 1002dcd0 f i fms_config.obj
 0001:0002cd10       ??$_Buynode@ABUpiecewise_construct_t@std@@V?$tuple@ABH@2@V?$tuple@$$$V@2@@?$_Tree_buy@U?$pair@$$CBHM@std@@V?$allocator@U?$pair@$$CBHM@std@@@2@@std@@QAEPAU?$_Tree_node@U?$pair@$$CBHM@std@@PAX@1@ABUpiecewise_construct_t@1@$$QAV?$tuple@ABH@1@$$QAV?$tuple@$$$V@1@@Z 1002dd10 f i fms_config.obj
 0001:0002ce10       ??$_Buynode@ABUpiecewise_construct_t@std@@V?$tuple@ABV?$basic_string@DU?$char_traits@D@std@@V?$allocator@D@2@@std@@@2@V?$tuple@$$$V@2@@?$_Tree_buy@U?$pair@$$CBV?$basic_string@DU?$char_traits@D@std@@V?$allocator@D@2@@std@@PAVfms_config_item_t@@@std@@V?$allocator@U?$pair@$$CBV?$basic_string@DU?$char_traits@D@std@@V?$allocator@D@2@@std@@PAVfms_config_item_t@@@std@@@2@@std@@QAEPAU?$_Tree_node@U?$pair@$$CBV?$basic_string@DU?$char_traits@D@std@@V?$allocator@D@2@@std@@PAVfms_config_item_t@@@std@@PAX@1@ABUpiecewise_construct_t@1@$$QAV?$tuple@ABV?$basic_string@DU?$char_traits@D@std@@V?$allocator@D@2@@std@@@1@$$QAV?$tuple@$$$V@1@@Z 1002de10 f i fms_config.obj
 0001:0002cf10       ??$_Buynode_if_nil@AAU?$pair@$$CBHM@std@@@?$_Tree@V?$_Tmap_traits@HMU?$less@H@std@@V?$allocator@U?$pair@$$CBHM@std@@@2@$0A@@std@@@std@@IAEPAU?$_Tree_node@U?$pair@$$CBHM@std@@PAX@1@PAU21@AAU?$pair@$$CBHM@1@@Z 1002df10 f i fms_config.obj
 0001:0002cf20       ??$_Buynode_if_nil@AAU?$pair@$$CBV?$basic_string@DU?$char_traits@D@std@@V?$allocator@D@2@@std@@PAVfms_config_item_t@@@std@@@?$_Tree@V?$_Tmap_traits@V?$basic_string@DU?$char_traits@D@std@@V?$allocator@D@2@@std@@PAVfms_config_item_t@@U?$less@V?$basic_string@DU?$char_traits@D@std@@V?$allocator@D@2@@std@@@2@V?$allocator@U?$pair@$$CBV?$basic_string@DU?$char_traits@D@std@@V?$allocator@D@2@@std@@PAVfms_config_item_t@@@std@@@2@$0A@@std@@@std@@IAEPAU?$_Tree_node@U?$pair@$$CBV?$basic_string@DU?$char_traits@D@std@@V?$allocator@D@2@@std@@PAVfms_config_item_t@@@std@@PAX@1@PAU21@AAU?$pair@$$CBV?$basic_string@DU?$char_traits@D@std@@V?$allocator@D@2@@std@@PAVfms_config_item_t@@@1@@Z 1002df20 f i fms_config.obj
 0001:0002cf30       ??$_Insert_at@AAU?$pair@$$CBHM@std@@PAU?$_Tree_node@U?$pair@$$CBHM@std@@PAX@2@@?$_Tree@V?$_Tmap_traits@HMU?$less@H@std@@V?$allocator@U?$pair@$$CBHM@std@@@2@$0A@@std@@@std@@IAE?AV?$_Tree_iterator@V?$_Tree_val@U?$_Tree_simple_types@U?$pair@$$CBHM@std@@@std@@@std@@@1@_NPAU?$_Tree_node@U?$pair@$$CBHM@std@@PAX@1@AAU?$pair@$$CBHM@1@1@Z 1002df30 f i fms_config.obj
 0001:0002d360       ??$_Insert_at@AAU?$pair@$$CBV?$basic_string@DU?$char_traits@D@std@@V?$allocator@D@2@@std@@PAVfms_config_item_t@@@std@@PAU?$_Tree_node@U?$pair@$$CBV?$basic_string@DU?$char_traits@D@std@@V?$allocator@D@2@@std@@PAVfms_config_item_t@@@std@@PAX@2@@?$_Tree@V?$_Tmap_traits@V?$basic_string@DU?$char_traits@D@std@@V?$allocator@D@2@@std@@PAVfms_config_item_t@@U?$less@V?$basic_string@DU?$char_traits@D@std@@V?$allocator@D@2@@std@@@2@V?$allocator@U?$pair@$$CBV?$basic_string@DU?$char_traits@D@std@@V?$allocator@D@2@@std@@PAVfms_config_item_t@@@std@@@2@$0A@@std@@@std@@IAE?AV?$_Tree_iterator@V?$_Tree_val@U?$_Tree_simple_types@U?$pair@$$CBV?$basic_string@DU?$char_traits@D@std@@V?$allocator@D@2@@std@@PAVfms_config_item_t@@@std@@@std@@@std@@@1@_NPAU?$_Tree_node@U?$pair@$$CBV?$basic_string@DU?$char_traits@D@std@@V?$allocator@D@2@@std@@PAVfms_config_item_t@@@std@@PAX@1@AAU?$pair@$$CBV?$basic_string@DU?$char_traits@D@std@@V?$allocator@D@2@@std@@PAVfms_config_item_t@@@1@1@Z 1002e360 f i fms_config.obj
 0001:0002d790       ??$_Insert_hint@AAU?$pair@$$CBHM@std@@PAU?$_Tree_node@U?$pair@$$CBHM@std@@PAX@2@@?$_Tree@V?$_Tmap_traits@HMU?$less@H@std@@V?$allocator@U?$pair@$$CBHM@std@@@2@$0A@@std@@@std@@IAE?AV?$_Tree_iterator@V?$_Tree_val@U?$_Tree_simple_types@U?$pair@$$CBHM@std@@@std@@@std@@@1@V?$_Tree_const_iterator@V?$_Tree_val@U?$_Tree_simple_types@U?$pair@$$CBHM@std@@@std@@@std@@@1@AAU?$pair@$$CBHM@1@PAU?$_Tree_node@U?$pair@$$CBHM@std@@PAX@1@@Z 1002e790 f i fms_config.obj
 0001:0002df40       ??$_Insert_hint@AAU?$pair@$$CBV?$basic_string@DU?$char_traits@D@std@@V?$allocator@D@2@@std@@PAVfms_config_item_t@@@std@@PAU?$_Tree_node@U?$pair@$$CBV?$basic_string@DU?$char_traits@D@std@@V?$allocator@D@2@@std@@PAVfms_config_item_t@@@std@@PAX@2@@?$_Tree@V?$_Tmap_traits@V?$basic_string@DU?$char_traits@D@std@@V?$allocator@D@2@@std@@PAVfms_config_item_t@@U?$less@V?$basic_string@DU?$char_traits@D@std@@V?$allocator@D@2@@std@@@2@V?$allocator@U?$pair@$$CBV?$basic_string@DU?$char_traits@D@std@@V?$allocator@D@2@@std@@PAVfms_config_item_t@@@std@@@2@$0A@@std@@@std@@IAE?AV?$_Tree_iterator@V?$_Tree_val@U?$_Tree_simple_types@U?$pair@$$CBV?$basic_string@DU?$char_traits@D@std@@V?$allocator@D@2@@std@@PAVfms_config_item_t@@@std@@@std@@@std@@@1@V?$_Tree_const_iterator@V?$_Tree_val@U?$_Tree_simple_types@U?$pair@$$CBV?$basic_string@DU?$char_traits@D@std@@V?$allocator@D@2@@std@@PAVfms_config_item_t@@@std@@@std@@@std@@@1@AAU?$pair@$$CBV?$basic_string@DU?$char_traits@D@std@@V?$allocator@D@2@@std@@PAVfms_config_item_t@@@1@PAU?$_Tree_node@U?$pair@$$CBV?$basic_string@DU?$char_traits@D@std@@V?$allocator@D@2@@std@@PAVfms_config_item_t@@@std@@PAX@1@@Z 1002ef40 f i fms_config.obj
 0001:0002e6f0       ??$_Insert_nohint@AAU?$pair@$$CBHM@std@@PAU?$_Tree_node@U?$pair@$$CBHM@std@@PAX@2@@?$_Tree@V?$_Tmap_traits@HMU?$less@H@std@@V?$allocator@U?$pair@$$CBHM@std@@@2@$0A@@std@@@std@@IAE?AU?$pair@V?$_Tree_iterator@V?$_Tree_val@U?$_Tree_simple_types@U?$pair@$$CBHM@std@@@std@@@std@@@std@@_N@1@_NAAU?$pair@$$CBHM@1@PAU?$_Tree_node@U?$pair@$$CBHM@std@@PAX@1@@Z 1002f6f0 f i fms_config.obj
 0001:0002e9c0       ??$_Insert_nohint@AAU?$pair@$$CBV?$basic_string@DU?$char_traits@D@std@@V?$allocator@D@2@@std@@PAVfms_config_item_t@@@std@@PAU?$_Tree_node@U?$pair@$$CBV?$basic_string@DU?$char_traits@D@std@@V?$allocator@D@2@@std@@PAVfms_config_item_t@@@std@@PAX@2@@?$_Tree@V?$_Tmap_traits@V?$basic_string@DU?$char_traits@D@std@@V?$allocator@D@2@@std@@PAVfms_config_item_t@@U?$less@V?$basic_string@DU?$char_traits@D@std@@V?$allocator@D@2@@std@@@2@V?$allocator@U?$pair@$$CBV?$basic_string@DU?$char_traits@D@std@@V?$allocator@D@2@@std@@PAVfms_config_item_t@@@std@@@2@$0A@@std@@@std@@IAE?AU?$pair@V?$_Tree_iterator@V?$_Tree_val@U?$_Tree_simple_types@U?$pair@$$CBV?$basic_string@DU?$char_traits@D@std@@V?$allocator@D@2@@std@@PAVfms_config_item_t@@@std@@@std@@@std@@@std@@_N@1@_NAAU?$pair@$$CBV?$basic_string@DU?$char_traits@D@std@@V?$allocator@D@2@@std@@PAVfms_config_item_t@@@1@PAU?$_Tree_node@U?$pair@$$CBV?$basic_string@DU?$char_traits@D@std@@V?$allocator@D@2@@std@@PAVfms_config_item_t@@@std@@PAX@1@@Z 1002f9c0 f i fms_config.obj
 0001:0002ec90       ??$_Kfn@$$CBHM@?$_Tmap_traits@HMU?$less@H@std@@V?$allocator@U?$pair@$$CBHM@std@@@2@$0A@@std@@SAABHABU?$pair@$$CBHM@1@@Z 1002fc90 f i fms_config.obj
 0001:0002eca0       ??$_Kfn@$$CBV?$basic_string@DU?$char_traits@D@std@@V?$allocator@D@2@@std@@PAVfms_config_item_t@@@?$_Tmap_traits@V?$basic_string@DU?$char_traits@D@std@@V?$allocator@D@2@@std@@PAVfms_config_item_t@@U?$less@V?$basic_string@DU?$char_traits@D@std@@V?$allocator@D@2@@std@@@2@V?$allocator@U?$pair@$$CBV?$basic_string@DU?$char_traits@D@std@@V?$allocator@D@2@@std@@PAVfms_config_item_t@@@std@@@2@$0A@@std@@SAABV?$basic_string@DU?$char_traits@D@std@@V?$allocator@D@2@@1@ABU?$pair@$$CBV?$basic_string@DU?$char_traits@D@std@@V?$allocator@D@2@@std@@PAVfms_config_item_t@@@1@@Z 1002fca0 f i fms_config.obj
 0001:0002ecb0       ??$addressof@PAU?$_Tree_node@U?$pair@$$CBHM@std@@PAX@std@@@std@@YAPAPAU?$_Tree_node@U?$pair@$$CBHM@std@@PAX@0@AAPAU10@@Z 1002fcb0 f i fms_config.obj
 0001:0002ecc0       ??$addressof@PAU?$_Tree_node@U?$pair@$$CBV?$basic_string@DU?$char_traits@D@std@@V?$allocator@D@2@@std@@PAVfms_config_item_t@@@std@@PAX@std@@@std@@YAPAPAU?$_Tree_node@U?$pair@$$CBV?$basic_string@DU?$char_traits@D@std@@V?$allocator@D@2@@std@@PAVfms_config_item_t@@@std@@PAX@0@AAPAU10@@Z 1002fcc0 f i fms_config.obj
 0001:0002ecd0       ??$addressof@U?$pair@$$CBHM@std@@@std@@YAPAU?$pair@$$CBHM@0@AAU10@@Z 1002fcd0 f i fms_config.obj
 0001:0002ece0       ??$addressof@U?$pair@$$CBV?$basic_string@DU?$char_traits@D@std@@V?$allocator@D@2@@std@@PAVfms_config_item_t@@@std@@@std@@YAPAU?$pair@$$CBV?$basic_string@DU?$char_traits@D@std@@V?$allocator@D@2@@std@@PAVfms_config_item_t@@@0@AAU10@@Z 1002fce0 f i fms_config.obj
 0001:0002ecf0       ??$construct@PAU?$_Tree_node@U?$pair@$$CBHM@std@@PAX@std@@AAPAU12@@?$_Wrap_alloc@V?$allocator@U?$_Tree_node@U?$pair@$$CBHM@std@@PAX@std@@@std@@@std@@QAEXPAPAU?$_Tree_node@U?$pair@$$CBHM@std@@PAX@1@AAPAU21@@Z 1002fcf0 f i fms_config.obj
 0001:0002ed20       ??$construct@PAU?$_Tree_node@U?$pair@$$CBHM@std@@PAX@std@@AAPAU12@@?$allocator@U?$_Tree_node@U?$pair@$$CBHM@std@@PAX@std@@@std@@QAEXPAPAU?$_Tree_node@U?$pair@$$CBHM@std@@PAX@1@AAPAU21@@Z 1002fd20 f i fms_config.obj
 0001:0002ed70       ??$construct@PAU?$_Tree_node@U?$pair@$$CBHM@std@@PAX@std@@AAPAU12@@?$allocator_traits@V?$allocator@U?$_Tree_node@U?$pair@$$CBHM@std@@PAX@std@@@std@@@std@@SAXAAV?$allocator@U?$_Tree_node@U?$pair@$$CBHM@std@@PAX@std@@@1@PAPAU?$_Tree_node@U?$pair@$$CBHM@std@@PAX@1@AAPAU31@@Z 1002fd70 f i fms_config.obj
 0001:0002ed90       ??$construct@PAU?$_Tree_node@U?$pair@$$CBV?$basic_string@DU?$char_traits@D@std@@V?$allocator@D@2@@std@@PAVfms_config_item_t@@@std@@PAX@std@@AAPAU12@@?$_Wrap_alloc@V?$allocator@U?$_Tree_node@U?$pair@$$CBV?$basic_string@DU?$char_traits@D@std@@V?$allocator@D@2@@std@@PAVfms_config_item_t@@@std@@PAX@std@@@std@@@std@@QAEXPAPAU?$_Tree_node@U?$pair@$$CBV?$basic_string@DU?$char_traits@D@std@@V?$allocator@D@2@@std@@PAVfms_config_item_t@@@std@@PAX@1@AAPAU21@@Z 1002fd90 f i fms_config.obj
 0001:0002edc0       ??$construct@PAU?$_Tree_node@U?$pair@$$CBV?$basic_string@DU?$char_traits@D@std@@V?$allocator@D@2@@std@@PAVfms_config_item_t@@@std@@PAX@std@@AAPAU12@@?$allocator@U?$_Tree_node@U?$pair@$$CBV?$basic_string@DU?$char_traits@D@std@@V?$allocator@D@2@@std@@PAVfms_config_item_t@@@std@@PAX@std@@@std@@QAEXPAPAU?$_Tree_node@U?$pair@$$CBV?$basic_string@DU?$char_traits@D@std@@V?$allocator@D@2@@std@@PAVfms_config_item_t@@@std@@PAX@1@AAPAU21@@Z 1002fdc0 f i fms_config.obj
 0001:0002ee10       ??$construct@PAU?$_Tree_node@U?$pair@$$CBV?$basic_string@DU?$char_traits@D@std@@V?$allocator@D@2@@std@@PAVfms_config_item_t@@@std@@PAX@std@@AAPAU12@@?$allocator_traits@V?$allocator@U?$_Tree_node@U?$pair@$$CBV?$basic_string@DU?$char_traits@D@std@@V?$allocator@D@2@@std@@PAVfms_config_item_t@@@std@@PAX@std@@@std@@@std@@SAXAAV?$allocator@U?$_Tree_node@U?$pair@$$CBV?$basic_string@DU?$char_traits@D@std@@V?$allocator@D@2@@std@@PAVfms_config_item_t@@@std@@PAX@std@@@1@PAPAU?$_Tree_node@U?$pair@$$CBV?$basic_string@DU?$char_traits@D@std@@V?$allocator@D@2@@std@@PAVfms_config_item_t@@@std@@PAX@1@AAPAU31@@Z 1002fe10 f i fms_config.obj
 0001:0002ee30       ??$construct@U?$pair@$$CBHM@std@@ABUpiecewise_construct_t@2@V?$tuple@ABH@2@V?$tuple@$$$V@2@@?$_Wrap_alloc@V?$allocator@U?$_Tree_node@U?$pair@$$CBHM@std@@PAX@std@@@std@@@std@@QAEXPAU?$pair@$$CBHM@1@ABUpiecewise_construct_t@1@$$QAV?$tuple@ABH@1@$$QAV?$tuple@$$$V@1@@Z 1002fe30 f i fms_config.obj
 0001:0002ee80       ??$construct@U?$pair@$$CBHM@std@@ABUpiecewise_construct_t@2@V?$tuple@ABH@2@V?$tuple@$$$V@2@@?$allocator@U?$_Tree_node@U?$pair@$$CBHM@std@@PAX@std@@@std@@QAEXPAU?$pair@$$CBHM@1@ABUpiecewise_construct_t@1@$$QAV?$tuple@ABH@1@$$QAV?$tuple@$$$V@1@@Z 1002fe80 f i fms_config.obj
 0001:0002eef0       ??$construct@U?$pair@$$CBHM@std@@ABUpiecewise_construct_t@2@V?$tuple@ABH@2@V?$tuple@$$$V@2@@?$allocator_traits@V?$allocator@U?$_Tree_node@U?$pair@$$CBHM@std@@PAX@std@@@std@@@std@@SAXAAV?$allocator@U?$_Tree_node@U?$pair@$$CBHM@std@@PAX@std@@@1@PAU?$pair@$$CBHM@1@ABUpiecewise_construct_t@1@$$QAV?$tuple@ABH@1@$$QAV?$tuple@$$$V@1@@Z 1002fef0 f i fms_config.obj
 0001:0002ef30       ??$construct@U?$pair@$$CBV?$basic_string@DU?$char_traits@D@std@@V?$allocator@D@2@@std@@PAVfms_config_item_t@@@std@@ABUpiecewise_construct_t@2@V?$tuple@ABV?$basic_string@DU?$char_traits@D@std@@V?$allocator@D@2@@std@@@2@V?$tuple@$$$V@2@@?$_Wrap_alloc@V?$allocator@U?$_Tree_node@U?$pair@$$CBV?$basic_string@DU?$char_traits@D@std@@V?$allocator@D@2@@std@@PAVfms_config_item_t@@@std@@PAX@std@@@std@@@std@@QAEXPAU?$pair@$$CBV?$basic_string@DU?$char_traits@D@std@@V?$allocator@D@2@@std@@PAVfms_config_item_t@@@1@ABUpiecewise_construct_t@1@$$QAV?$tuple@ABV?$basic_string@DU?$char_traits@D@std@@V?$allocator@D@2@@std@@@1@$$QAV?$tuple@$$$V@1@@Z 1002ff30 f i fms_config.obj
 0001:0002ef80       ??$construct@U?$pair@$$CBV?$basic_string@DU?$char_traits@D@std@@V?$allocator@D@2@@std@@PAVfms_config_item_t@@@std@@ABUpiecewise_construct_t@2@V?$tuple@ABV?$basic_string@DU?$char_traits@D@std@@V?$allocator@D@2@@std@@@2@V?$tuple@$$$V@2@@?$allocator@U?$_Tree_node@U?$pair@$$CBV?$basic_string@DU?$char_traits@D@std@@V?$allocator@D@2@@std@@PAVfms_config_item_t@@@std@@PAX@std@@@std@@QAEXPAU?$pair@$$CBV?$basic_string@DU?$char_traits@D@std@@V?$allocator@D@2@@std@@PAVfms_config_item_t@@@1@ABUpiecewise_construct_t@1@$$QAV?$tuple@ABV?$basic_string@DU?$char_traits@D@std@@V?$allocator@D@2@@std@@@1@$$QAV?$tuple@$$$V@1@@Z 1002ff80 f i fms_config.obj
 0001:0002eff0       ??$construct@U?$pair@$$CBV?$basic_string@DU?$char_traits@D@std@@V?$allocator@D@2@@std@@PAVfms_config_item_t@@@std@@ABUpiecewise_construct_t@2@V?$tuple@ABV?$basic_string@DU?$char_traits@D@std@@V?$allocator@D@2@@std@@@2@V?$tuple@$$$V@2@@?$allocator_traits@V?$allocator@U?$_Tree_node@U?$pair@$$CBV?$basic_string@DU?$char_traits@D@std@@V?$allocator@D@2@@std@@PAVfms_config_item_t@@@std@@PAX@std@@@std@@@std@@SAXAAV?$allocator@U?$_Tree_node@U?$pair@$$CBV?$basic_string@DU?$char_traits@D@std@@V?$allocator@D@2@@std@@PAVfms_config_item_t@@@std@@PAX@std@@@1@PAU?$pair@$$CBV?$basic_string@DU?$char_traits@D@std@@V?$allocator@D@2@@std@@PAVfms_config_item_t@@@1@ABUpiecewise_construct_t@1@$$QAV?$tuple@ABV?$basic_string@DU?$char_traits@D@std@@V?$allocator@D@2@@std@@@1@$$QAV?$tuple@$$$V@1@@Z 1002fff0 f i fms_config.obj
 0001:0002f030       ??$destroy@PAU?$_Tree_node@U?$pair@$$CBHM@std@@PAX@std@@@?$_Wrap_alloc@V?$allocator@U?$_Tree_node@U?$pair@$$CBHM@std@@PAX@std@@@std@@@std@@QAEXPAPAU?$_Tree_node@U?$pair@$$CBHM@std@@PAX@1@@Z 10030030 f i fms_config.obj
 0001:0002f050       ??$destroy@PAU?$_Tree_node@U?$pair@$$CBHM@std@@PAX@std@@@?$allocator@U?$_Tree_node@U?$pair@$$CBHM@std@@PAX@std@@@std@@QAEXPAPAU?$_Tree_node@U?$pair@$$CBHM@std@@PAX@1@@Z 10030050 f i fms_config.obj
 0001:0002f060       ??$destroy@PAU?$_Tree_node@U?$pair@$$CBHM@std@@PAX@std@@@?$allocator_traits@V?$allocator@U?$_Tree_node@U?$pair@$$CBHM@std@@PAX@std@@@std@@@std@@SAXAAV?$allocator@U?$_Tree_node@U?$pair@$$CBHM@std@@PAX@std@@@1@PAPAU?$_Tree_node@U?$pair@$$CBHM@std@@PAX@1@@Z 10030060 f i fms_config.obj
 0001:0002f080       ??$destroy@PAU?$_Tree_node@U?$pair@$$CBV?$basic_string@DU?$char_traits@D@std@@V?$allocator@D@2@@std@@PAVfms_config_item_t@@@std@@PAX@std@@@?$_Wrap_alloc@V?$allocator@U?$_Tree_node@U?$pair@$$CBV?$basic_string@DU?$char_traits@D@std@@V?$allocator@D@2@@std@@PAVfms_config_item_t@@@std@@PAX@std@@@std@@@std@@QAEXPAPAU?$_Tree_node@U?$pair@$$CBV?$basic_string@DU?$char_traits@D@std@@V?$allocator@D@2@@std@@PAVfms_config_item_t@@@std@@PAX@1@@Z 10030080 f i fms_config.obj
 0001:0002f0a0       ??$destroy@PAU?$_Tree_node@U?$pair@$$CBV?$basic_string@DU?$char_traits@D@std@@V?$allocator@D@2@@std@@PAVfms_config_item_t@@@std@@PAX@std@@@?$allocator@U?$_Tree_node@U?$pair@$$CBV?$basic_string@DU?$char_traits@D@std@@V?$allocator@D@2@@std@@PAVfms_config_item_t@@@std@@PAX@std@@@std@@QAEXPAPAU?$_Tree_node@U?$pair@$$CBV?$basic_string@DU?$char_traits@D@std@@V?$allocator@D@2@@std@@PAVfms_config_item_t@@@std@@PAX@1@@Z 100300a0 f i fms_config.obj
 0001:0002f0b0       ??$destroy@PAU?$_Tree_node@U?$pair@$$CBV?$basic_string@DU?$char_traits@D@std@@V?$allocator@D@2@@std@@PAVfms_config_item_t@@@std@@PAX@std@@@?$allocator_traits@V?$allocator@U?$_Tree_node@U?$pair@$$CBV?$basic_string@DU?$char_traits@D@std@@V?$allocator@D@2@@std@@PAVfms_config_item_t@@@std@@PAX@std@@@std@@@std@@SAXAAV?$allocator@U?$_Tree_node@U?$pair@$$CBV?$basic_string@DU?$char_traits@D@std@@V?$allocator@D@2@@std@@PAVfms_config_item_t@@@std@@PAX@std@@@1@PAPAU?$_Tree_node@U?$pair@$$CBV?$basic_string@DU?$char_traits@D@std@@V?$allocator@D@2@@std@@PAVfms_config_item_t@@@std@@PAX@1@@Z 100300b0 f i fms_config.obj
 0001:0002f0d0       ??$destroy@U?$pair@$$CBHM@std@@@?$_Wrap_alloc@V?$allocator@U?$_Tree_node@U?$pair@$$CBHM@std@@PAX@std@@@std@@@std@@QAEXPAU?$pair@$$CBHM@1@@Z 100300d0 f i fms_config.obj
 0001:0002f0f0       ??$destroy@U?$pair@$$CBHM@std@@@?$allocator@U?$_Tree_node@U?$pair@$$CBHM@std@@PAX@std@@@std@@QAEXPAU?$pair@$$CBHM@1@@Z 100300f0 f i fms_config.obj
 0001:0002f100       ??$destroy@U?$pair@$$CBHM@std@@@?$allocator_traits@V?$allocator@U?$_Tree_node@U?$pair@$$CBHM@std@@PAX@std@@@std@@@std@@SAXAAV?$allocator@U?$_Tree_node@U?$pair@$$CBHM@std@@PAX@std@@@1@PAU?$pair@$$CBHM@1@@Z 10030100 f i fms_config.obj
 0001:0002f120       ??$destroy@U?$pair@$$CBV?$basic_string@DU?$char_traits@D@std@@V?$allocator@D@2@@std@@PAVfms_config_item_t@@@std@@@?$_Wrap_alloc@V?$allocator@U?$_Tree_node@U?$pair@$$CBV?$basic_string@DU?$char_traits@D@std@@V?$allocator@D@2@@std@@PAVfms_config_item_t@@@std@@PAX@std@@@std@@@std@@QAEXPAU?$pair@$$CBV?$basic_string@DU?$char_traits@D@std@@V?$allocator@D@2@@std@@PAVfms_config_item_t@@@1@@Z 10030120 f i fms_config.obj
 0001:0002f140       ??$destroy@U?$pair@$$CBV?$basic_string@DU?$char_traits@D@std@@V?$allocator@D@2@@std@@PAVfms_config_item_t@@@std@@@?$allocator@U?$_Tree_node@U?$pair@$$CBV?$basic_string@DU?$char_traits@D@std@@V?$allocator@D@2@@std@@PAVfms_config_item_t@@@std@@PAX@std@@@std@@QAEXPAU?$pair@$$CBV?$basic_string@DU?$char_traits@D@std@@V?$allocator@D@2@@std@@PAVfms_config_item_t@@@1@@Z 10030140 f i fms_config.obj
 0001:0002f160       ??$destroy@U?$pair@$$CBV?$basic_string@DU?$char_traits@D@std@@V?$allocator@D@2@@std@@PAVfms_config_item_t@@@std@@@?$allocator_traits@V?$allocator@U?$_Tree_node@U?$pair@$$CBV?$basic_string@DU?$char_traits@D@std@@V?$allocator@D@2@@std@@PAVfms_config_item_t@@@std@@PAX@std@@@std@@@std@@SAXAAV?$allocator@U?$_Tree_node@U?$pair@$$CBV?$basic_string@DU?$char_traits@D@std@@V?$allocator@D@2@@std@@PAVfms_config_item_t@@@std@@PAX@std@@@1@PAU?$pair@$$CBV?$basic_string@DU?$char_traits@D@std@@V?$allocator@D@2@@std@@PAVfms_config_item_t@@@1@@Z 10030160 f i fms_config.obj
 0001:0002f180       ??$emplace_hint@ABUpiecewise_construct_t@std@@V?$tuple@ABH@2@V?$tuple@$$$V@2@@?$_Tree@V?$_Tmap_traits@HMU?$less@H@std@@V?$allocator@U?$pair@$$CBHM@std@@@2@$0A@@std@@@std@@QAE?AV?$_Tree_iterator@V?$_Tree_val@U?$_Tree_simple_types@U?$pair@$$CBHM@std@@@std@@@std@@@1@V?$_Tree_const_iterator@V?$_Tree_val@U?$_Tree_simple_types@U?$pair@$$CBHM@std@@@std@@@std@@@1@ABUpiecewise_construct_t@1@$$QAV?$tuple@ABH@1@$$QAV?$tuple@$$$V@1@@Z 10030180 f i fms_config.obj
 0001:0002f1f0       ??$emplace_hint@ABUpiecewise_construct_t@std@@V?$tuple@ABV?$basic_string@DU?$char_traits@D@std@@V?$allocator@D@2@@std@@@2@V?$tuple@$$$V@2@@?$_Tree@V?$_Tmap_traits@V?$basic_string@DU?$char_traits@D@std@@V?$allocator@D@2@@std@@PAVfms_config_item_t@@U?$less@V?$basic_string@DU?$char_traits@D@std@@V?$allocator@D@2@@std@@@2@V?$allocator@U?$pair@$$CBV?$basic_string@DU?$char_traits@D@std@@V?$allocator@D@2@@std@@PAVfms_config_item_t@@@std@@@2@$0A@@std@@@std@@QAE?AV?$_Tree_iterator@V?$_Tree_val@U?$_Tree_simple_types@U?$pair@$$CBV?$basic_string@DU?$char_traits@D@std@@V?$allocator@D@2@@std@@PAVfms_config_item_t@@@std@@@std@@@std@@@1@V?$_Tree_const_iterator@V?$_Tree_val@U?$_Tree_simple_types@U?$pair@$$CBV?$basic_string@DU?$char_traits@D@std@@V?$allocator@D@2@@std@@PAVfms_config_item_t@@@std@@@std@@@std@@@1@ABUpiecewise_construct_t@1@$$QAV?$tuple@ABV?$basic_string@DU?$char_traits@D@std@@V?$allocator@D@2@@std@@@1@$$QAV?$tuple@$$$V@1@@Z 100301f0 f i fms_config.obj
 0001:0002f260       ??$forward@AAPAU?$_Tree_node@U?$pair@$$CBHM@std@@PAX@std@@@std@@YAAAPAU?$_Tree_node@U?$pair@$$CBHM@std@@PAX@0@AAPAU10@@Z 10030260 f i fms_config.obj
 0001:0002f270       ??$forward@AAPAU?$_Tree_node@U?$pair@$$CBV?$basic_string@DU?$char_traits@D@std@@V?$allocator@D@2@@std@@PAVfms_config_item_t@@@std@@PAX@std@@@std@@YAAAPAU?$_Tree_node@U?$pair@$$CBV?$basic_string@DU?$char_traits@D@std@@V?$allocator@D@2@@std@@PAVfms_config_item_t@@@std@@PAX@0@AAPAU10@@Z 10030270 f i fms_config.obj
 0001:0002f280       ??$forward@AAU?$pair@$$CBHM@std@@@std@@YAAAU?$pair@$$CBHM@0@AAU10@@Z 10030280 f i fms_config.obj
 0001:0002f290       ??$forward@AAU?$pair@$$CBV?$basic_string@DU?$char_traits@D@std@@V?$allocator@D@2@@std@@PAVfms_config_item_t@@@std@@@std@@YAAAU?$pair@$$CBV?$basic_string@DU?$char_traits@D@std@@V?$allocator@D@2@@std@@PAVfms_config_item_t@@@0@AAU10@@Z 10030290 f i fms_config.obj
 0001:0002f2a0       ??$forward@AAV?$_Tree_iterator@V?$_Tree_val@U?$_Tree_simple_types@U?$pair@$$CBHM@std@@@std@@@std@@@std@@@std@@YAAAV?$_Tree_iterator@V?$_Tree_val@U?$_Tree_simple_types@U?$pair@$$CBHM@std@@@std@@@std@@@0@AAV10@@Z 100302a0 f i fms_config.obj
 0001:0002f2b0       ??$forward@AAV?$_Tree_iterator@V?$_Tree_val@U?$_Tree_simple_types@U?$pair@$$CBV?$basic_string@DU?$char_traits@D@std@@V?$allocator@D@2@@std@@PAVfms_config_item_t@@@std@@@std@@@std@@@std@@@std@@YAAAV?$_Tree_iterator@V?$_Tree_val@U?$_Tree_simple_types@U?$pair@$$CBV?$basic_string@DU?$char_traits@D@std@@V?$allocator@D@2@@std@@PAVfms_config_item_t@@@std@@@std@@@std@@@0@AAV10@@Z 100302b0 f i fms_config.obj
 0001:0002f2c0       ??$forward@V?$_Tree_iterator@V?$_Tree_val@U?$_Tree_simple_types@U?$pair@$$CBHM@std@@@std@@@std@@@std@@@std@@YA$$QAV?$_Tree_iterator@V?$_Tree_val@U?$_Tree_simple_types@U?$pair@$$CBHM@std@@@std@@@std@@@0@AAV10@@Z 100302c0 f i fms_config.obj
 0001:0002f2d0       ??$forward@V?$_Tree_iterator@V?$_Tree_val@U?$_Tree_simple_types@U?$pair@$$CBV?$basic_string@DU?$char_traits@D@std@@V?$allocator@D@2@@std@@PAVfms_config_item_t@@@std@@@std@@@std@@@std@@@std@@YA$$QAV?$_Tree_iterator@V?$_Tree_val@U?$_Tree_simple_types@U?$pair@$$CBV?$basic_string@DU?$char_traits@D@std@@V?$allocator@D@2@@std@@PAVfms_config_item_t@@@std@@@std@@@std@@@0@AAV10@@Z 100302d0 f i fms_config.obj
 0001:0002f2e0       ??0?$_Tree@V?$_Tmap_traits@HMU?$less@H@std@@V?$allocator@U?$pair@$$CBHM@std@@@2@$0A@@std@@@std@@QAE@ABU?$less@H@1@ABV?$allocator@U?$pair@$$CBHM@std@@@1@@Z 100302e0 f i fms_config.obj
 0001:0002f300       ??0?$_Tree@V?$_Tmap_traits@V?$basic_string@DU?$char_traits@D@std@@V?$allocator@D@2@@std@@MU?$less@V?$basic_string@DU?$char_traits@D@std@@V?$allocator@D@2@@std@@@2@V?$allocator@U?$pair@$$CBV?$basic_string@DU?$char_traits@D@std@@V?$allocator@D@2@@std@@M@std@@@2@$0A@@std@@@std@@QAE@ABU?$less@V?$basic_string@DU?$char_traits@D@std@@V?$allocator@D@2@@std@@@1@ABV?$allocator@U?$pair@$$CBV?$basic_string@DU?$char_traits@D@std@@V?$allocator@D@2@@std@@M@std@@@1@@Z 10030300 f i fms_config.obj
 0001:0002f320       ??0?$_Tree@V?$_Tmap_traits@V?$basic_string@DU?$char_traits@D@std@@V?$allocator@D@2@@std@@PAVfms_config_item_t@@U?$less@V?$basic_string@DU?$char_traits@D@std@@V?$allocator@D@2@@std@@@2@V?$allocator@U?$pair@$$CBV?$basic_string@DU?$char_traits@D@std@@V?$allocator@D@2@@std@@PAVfms_config_item_t@@@std@@@2@$0A@@std@@@std@@QAE@ABU?$less@V?$basic_string@DU?$char_traits@D@std@@V?$allocator@D@2@@std@@@1@ABV?$allocator@U?$pair@$$CBV?$basic_string@DU?$char_traits@D@std@@V?$allocator@D@2@@std@@PAVfms_config_item_t@@@std@@@1@@Z 10030320 f i fms_config.obj
 0001:0002f340       ??0?$_Tree_alloc@$0A@U?$_Tree_base_types@U?$pair@$$CBHM@std@@V?$allocator@U?$pair@$$CBHM@std@@@2@@std@@@std@@QAE@ABV?$allocator@U?$pair@$$CBHM@std@@@1@@Z 10030340 f i fms_config.obj
 0001:0002f370       ??0?$_Tree_alloc@$0A@U?$_Tree_base_types@U?$pair@$$CBV?$basic_string@DU?$char_traits@D@std@@V?$allocator@D@2@@std@@M@std@@V?$allocator@U?$pair@$$CBV?$basic_string@DU?$char_traits@D@std@@V?$allocator@D@2@@std@@M@std@@@2@@std@@@std@@QAE@ABV?$allocator@U?$pair@$$CBV?$basic_string@DU?$char_traits@D@std@@V?$allocator@D@2@@std@@M@std@@@1@@Z 10030370 f i fms_config.obj
 0001:0002f3a0       ??0?$_Tree_alloc@$0A@U?$_Tree_base_types@U?$pair@$$CBV?$basic_string@DU?$char_traits@D@std@@V?$allocator@D@2@@std@@PAVfms_config_item_t@@@std@@V?$allocator@U?$pair@$$CBV?$basic_string@DU?$char_traits@D@std@@V?$allocator@D@2@@std@@PAVfms_config_item_t@@@std@@@2@@std@@@std@@QAE@ABV?$allocator@U?$pair@$$CBV?$basic_string@DU?$char_traits@D@std@@V?$allocator@D@2@@std@@PAVfms_config_item_t@@@std@@@1@@Z 100303a0 f i fms_config.obj
 0001:0002f3d0       ??0?$_Tree_buy@U?$pair@$$CBHM@std@@V?$allocator@U?$pair@$$CBHM@std@@@2@@std@@QAE@ABV?$allocator@U?$pair@$$CBHM@std@@@1@@Z 100303d0 f i fms_config.obj
 0001:0002f3f0       ??0?$_Tree_buy@U?$pair@$$CBV?$basic_string@DU?$char_traits@D@std@@V?$allocator@D@2@@std@@M@std@@V?$allocator@U?$pair@$$CBV?$basic_string@DU?$char_traits@D@std@@V?$allocator@D@2@@std@@M@std@@@2@@std@@QAE@ABV?$allocator@U?$pair@$$CBV?$basic_string@DU?$char_traits@D@std@@V?$allocator@D@2@@std@@M@std@@@1@@Z 100303f0 f i fms_config.obj
 0001:0002f410       ??0?$_Tree_buy@U?$pair@$$CBV?$basic_string@DU?$char_traits@D@std@@V?$allocator@D@2@@std@@PAVfms_config_item_t@@@std@@V?$allocator@U?$pair@$$CBV?$basic_string@DU?$char_traits@D@std@@V?$allocator@D@2@@std@@PAVfms_config_item_t@@@std@@@2@@std@@QAE@ABV?$allocator@U?$pair@$$CBV?$basic_string@DU?$char_traits@D@std@@V?$allocator@D@2@@std@@PAVfms_config_item_t@@@std@@@1@@Z 10030410 f i fms_config.obj
 0001:0002f430       ??0?$_Tree_comp@$0A@V?$_Tmap_traits@HMU?$less@H@std@@V?$allocator@U?$pair@$$CBHM@std@@@2@$0A@@std@@@std@@QAE@ABU?$less@H@1@ABV?$allocator@U?$pair@$$CBHM@std@@@1@@Z 10030430 f i fms_config.obj
 0001:0002f450       ??0?$_Tree_comp@$0A@V?$_Tmap_traits@V?$basic_string@DU?$char_traits@D@std@@V?$allocator@D@2@@std@@MU?$less@V?$basic_string@DU?$char_traits@D@std@@V?$allocator@D@2@@std@@@2@V?$allocator@U?$pair@$$CBV?$basic_string@DU?$char_traits@D@std@@V?$allocator@D@2@@std@@M@std@@@2@$0A@@std@@@std@@QAE@ABU?$less@V?$basic_string@DU?$char_traits@D@std@@V?$allocator@D@2@@std@@@1@ABV?$allocator@U?$pair@$$CBV?$basic_string@DU?$char_traits@D@std@@V?$allocator@D@2@@std@@M@std@@@1@@Z 10030450 f i fms_config.obj
 0001:0002f470       ??0?$_Tree_comp@$0A@V?$_Tmap_traits@V?$basic_string@DU?$char_traits@D@std@@V?$allocator@D@2@@std@@PAVfms_config_item_t@@U?$less@V?$basic_string@DU?$char_traits@D@std@@V?$allocator@D@2@@std@@@2@V?$allocator@U?$pair@$$CBV?$basic_string@DU?$char_traits@D@std@@V?$allocator@D@2@@std@@PAVfms_config_item_t@@@std@@@2@$0A@@std@@@std@@QAE@ABU?$less@V?$basic_string@DU?$char_traits@D@std@@V?$allocator@D@2@@std@@@1@ABV?$allocator@U?$pair@$$CBV?$basic_string@DU?$char_traits@D@std@@V?$allocator@D@2@@std@@PAVfms_config_item_t@@@std@@@1@@Z 10030470 f i fms_config.obj
 0001:0002f490       ??0?$_Tree_const_iterator@V?$_Tree_val@U?$_Tree_simple_types@U?$pair@$$CBHM@std@@@std@@@std@@@std@@QAE@PAU?$_Tree_node@U?$pair@$$CBHM@std@@PAX@1@PBV?$_Tree_val@U?$_Tree_simple_types@U?$pair@$$CBHM@std@@@std@@@1@@Z 10030490 f i fms_config.obj
 0001:0002f4b0       ??0?$_Tree_const_iterator@V?$_Tree_val@U?$_Tree_simple_types@U?$pair@$$CBHM@std@@@std@@@std@@@std@@QAE@XZ 100304b0 f i fms_config.obj
 0001:0002f4d0       ??0?$_Tree_const_iterator@V?$_Tree_val@U?$_Tree_simple_types@U?$pair@$$CBV?$basic_string@DU?$char_traits@D@std@@V?$allocator@D@2@@std@@PAVfms_config_item_t@@@std@@@std@@@std@@@std@@QAE@PAU?$_Tree_node@U?$pair@$$CBV?$basic_string@DU?$char_traits@D@std@@V?$allocator@D@2@@std@@PAVfms_config_item_t@@@std@@PAX@1@PBV?$_Tree_val@U?$_Tree_simple_types@U?$pair@$$CBV?$basic_string@DU?$char_traits@D@std@@V?$allocator@D@2@@std@@PAVfms_config_item_t@@@std@@@std@@@1@@Z 100304d0 f i fms_config.obj
 0001:0002f4f0       ??0?$_Tree_const_iterator@V?$_Tree_val@U?$_Tree_simple_types@U?$pair@$$CBV?$basic_string@DU?$char_traits@D@std@@V?$allocator@D@2@@std@@PAVfms_config_item_t@@@std@@@std@@@std@@@std@@QAE@XZ 100304f0 f i fms_config.obj
 0001:0002f510       ??0?$_Tree_iterator@V?$_Tree_val@U?$_Tree_simple_types@U?$pair@$$CBHM@std@@@std@@@std@@@std@@QAE@PAU?$_Tree_node@U?$pair@$$CBHM@std@@PAX@1@PBV?$_Tree_val@U?$_Tree_simple_types@U?$pair@$$CBHM@std@@@std@@@1@@Z 10030510 f i fms_config.obj
 0001:0002f530       ??0?$_Tree_iterator@V?$_Tree_val@U?$_Tree_simple_types@U?$pair@$$CBV?$basic_string@DU?$char_traits@D@std@@V?$allocator@D@2@@std@@PAVfms_config_item_t@@@std@@@std@@@std@@@std@@QAE@PAU?$_Tree_node@U?$pair@$$CBV?$basic_string@DU?$char_traits@D@std@@V?$allocator@D@2@@std@@PAVfms_config_item_t@@@std@@PAX@1@PBV?$_Tree_val@U?$_Tree_simple_types@U?$pair@$$CBV?$basic_string@DU?$char_traits@D@std@@V?$allocator@D@2@@std@@PAVfms_config_item_t@@@std@@@std@@@1@@Z 10030530 f i fms_config.obj
 0001:0002f550       ??0?$_Tree_unchecked_const_iterator@V?$_Tree_val@U?$_Tree_simple_types@U?$pair@$$CBHM@std@@@std@@@std@@U_Iterator_base0@2@@std@@QAE@PAU?$_Tree_node@U?$pair@$$CBHM@std@@PAX@1@PBV?$_Tree_val@U?$_Tree_simple_types@U?$pair@$$CBHM@std@@@std@@@1@@Z 10030550 f i fms_config.obj
 0001:0002f580       ??0?$_Tree_unchecked_const_iterator@V?$_Tree_val@U?$_Tree_simple_types@U?$pair@$$CBHM@std@@@std@@@std@@U_Iterator_base0@2@@std@@QAE@XZ 10030580 f i fms_config.obj
 0001:0002f5a0       ??0?$_Tree_unchecked_const_iterator@V?$_Tree_val@U?$_Tree_simple_types@U?$pair@$$CBV?$basic_string@DU?$char_traits@D@std@@V?$allocator@D@2@@std@@PAVfms_config_item_t@@@std@@@std@@@std@@U_Iterator_base0@2@@std@@QAE@PAU?$_Tree_node@U?$pair@$$CBV?$basic_string@DU?$char_traits@D@std@@V?$allocator@D@2@@std@@PAVfms_config_item_t@@@std@@PAX@1@PBV?$_Tree_val@U?$_Tree_simple_types@U?$pair@$$CBV?$basic_string@DU?$char_traits@D@std@@V?$allocator@D@2@@std@@PAVfms_config_item_t@@@std@@@std@@@1@@Z 100305a0 f i fms_config.obj
 0001:0002f5d0       ??0?$_Tree_unchecked_const_iterator@V?$_Tree_val@U?$_Tree_simple_types@U?$pair@$$CBV?$basic_string@DU?$char_traits@D@std@@V?$allocator@D@2@@std@@PAVfms_config_item_t@@@std@@@std@@@std@@U_Iterator_base0@2@@std@@QAE@XZ 100305d0 f i fms_config.obj
 0001:0002f5f0       ??0?$_Tree_val@U?$_Tree_simple_types@U?$pair@$$CBHM@std@@@std@@@std@@QAE@XZ 100305f0 f i fms_config.obj
 0001:0002f620       ??0?$_Tree_val@U?$_Tree_simple_types@U?$pair@$$CBV?$basic_string@DU?$char_traits@D@std@@V?$allocator@D@2@@std@@M@std@@@std@@@std@@QAE@XZ 10030620 f i fms_config.obj
 0001:0002f650       ??0?$_Tree_val@U?$_Tree_simple_types@U?$pair@$$CBV?$basic_string@DU?$char_traits@D@std@@V?$allocator@D@2@@std@@PAVfms_config_item_t@@@std@@@std@@@std@@QAE@XZ 10030650 f i fms_config.obj
 0001:0002f680       ??0?$_Wrap_alloc@V?$allocator@U?$_Tree_node@U?$pair@$$CBHM@std@@PAX@std@@@std@@@std@@QAE@XZ 10030680 f i fms_config.obj
 0001:0002f6a0       ??0?$_Wrap_alloc@V?$allocator@U?$_Tree_node@U?$pair@$$CBV?$basic_string@DU?$char_traits@D@std@@V?$allocator@D@2@@std@@PAVfms_config_item_t@@@std@@PAX@std@@@std@@@std@@QAE@XZ 100306a0 f i fms_config.obj
 0001:0002f6c0       ??0?$allocator@U?$_Tree_node@U?$pair@$$CBHM@std@@PAX@std@@@std@@QAE@XZ 100306c0 f i fms_config.obj
 0001:0002f6d0       ??0?$allocator@U?$_Tree_node@U?$pair@$$CBV?$basic_string@DU?$char_traits@D@std@@V?$allocator@D@2@@std@@PAVfms_config_item_t@@@std@@PAX@std@@@std@@QAE@XZ 100306d0 f i fms_config.obj
 0001:0002f6e0       ??0?$allocator@U?$pair@$$CBHM@std@@@std@@QAE@XZ 100306e0 f i fms_config.obj
 0001:0002f6f0       ??0?$allocator@U?$pair@$$CBV?$basic_string@DU?$char_traits@D@std@@V?$allocator@D@2@@std@@M@std@@@std@@QAE@XZ 100306f0 f i fms_config.obj
 0001:0002f700       ??0?$allocator@U?$pair@$$CBV?$basic_string@DU?$char_traits@D@std@@V?$allocator@D@2@@std@@PAVfms_config_item_t@@@std@@@std@@QAE@XZ 10030700 f i fms_config.obj
 0001:0002f710       ??0?$map@HMU?$less@H@std@@V?$allocator@U?$pair@$$CBHM@std@@@2@@std@@QAE@XZ 10030710 f i fms_config.obj
 0001:0002f740       ??0?$map@V?$basic_string@DU?$char_traits@D@std@@V?$allocator@D@2@@std@@MU?$less@V?$basic_string@DU?$char_traits@D@std@@V?$allocator@D@2@@std@@@2@V?$allocator@U?$pair@$$CBV?$basic_string@DU?$char_traits@D@std@@V?$allocator@D@2@@std@@M@std@@@2@@std@@QAE@XZ 10030740 f i fms_config.obj
 0001:0002f770       ??0?$map@V?$basic_string@DU?$char_traits@D@std@@V?$allocator@D@2@@std@@PAVfms_config_item_t@@U?$less@V?$basic_string@DU?$char_traits@D@std@@V?$allocator@D@2@@std@@@2@V?$allocator@U?$pair@$$CBV?$basic_string@DU?$char_traits@D@std@@V?$allocator@D@2@@std@@PAVfms_config_item_t@@@std@@@2@@std@@QAE@XZ 10030770 f i fms_config.obj
 0001:0002f7a0       ??1?$_Tree@V?$_Tmap_traits@V?$basic_string@DU?$char_traits@D@std@@V?$allocator@D@2@@std@@MU?$less@V?$basic_string@DU?$char_traits@D@std@@V?$allocator@D@2@@std@@@2@V?$allocator@U?$pair@$$CBV?$basic_string@DU?$char_traits@D@std@@V?$allocator@D@2@@std@@M@std@@@2@$0A@@std@@@std@@QAE@XZ 100307a0 f i fms_config.obj
 0001:0002f7c0       ??1?$_Tree@V?$_Tmap_traits@V?$basic_string@DU?$char_traits@D@std@@V?$allocator@D@2@@std@@PAVfms_config_item_t@@U?$less@V?$basic_string@DU?$char_traits@D@std@@V?$allocator@D@2@@std@@@2@V?$allocator@U?$pair@$$CBV?$basic_string@DU?$char_traits@D@std@@V?$allocator@D@2@@std@@PAVfms_config_item_t@@@std@@@2@$0A@@std@@@std@@QAE@XZ 100307c0 f i fms_config.obj
 0001:0002f7e0       ??1?$_Tree_alloc@$0A@U?$_Tree_base_types@U?$pair@$$CBV?$basic_string@DU?$char_traits@D@std@@V?$allocator@D@2@@std@@M@std@@V?$allocator@U?$pair@$$CBV?$basic_string@DU?$char_traits@D@std@@V?$allocator@D@2@@std@@M@std@@@2@@std@@@std@@QAE@XZ 100307e0 f i fms_config.obj
 0001:0002f800       ??1?$_Tree_alloc@$0A@U?$_Tree_base_types@U?$pair@$$CBV?$basic_string@DU?$char_traits@D@std@@V?$allocator@D@2@@std@@PAVfms_config_item_t@@@std@@V?$allocator@U?$pair@$$CBV?$basic_string@DU?$char_traits@D@std@@V?$allocator@D@2@@std@@PAVfms_config_item_t@@@std@@@2@@std@@@std@@QAE@XZ 10030800 f i fms_config.obj
 0001:0002f820       ??1?$_Tree_buy@U?$pair@$$CBV?$basic_string@DU?$char_traits@D@std@@V?$allocator@D@2@@std@@M@std@@V?$allocator@U?$pair@$$CBV?$basic_string@DU?$char_traits@D@std@@V?$allocator@D@2@@std@@M@std@@@2@@std@@QAE@XZ 10030820 f i fms_config.obj
 0001:0002f840       ??1?$_Tree_buy@U?$pair@$$CBV?$basic_string@DU?$char_traits@D@std@@V?$allocator@D@2@@std@@PAVfms_config_item_t@@@std@@V?$allocator@U?$pair@$$CBV?$basic_string@DU?$char_traits@D@std@@V?$allocator@D@2@@std@@PAVfms_config_item_t@@@std@@@2@@std@@QAE@XZ 10030840 f i fms_config.obj
 0001:0002f860       ??1?$_Tree_comp@$0A@V?$_Tmap_traits@V?$basic_string@DU?$char_traits@D@std@@V?$allocator@D@2@@std@@MU?$less@V?$basic_string@DU?$char_traits@D@std@@V?$allocator@D@2@@std@@@2@V?$allocator@U?$pair@$$CBV?$basic_string@DU?$char_traits@D@std@@V?$allocator@D@2@@std@@M@std@@@2@$0A@@std@@@std@@QAE@XZ 10030860 f i fms_config.obj
 0001:0002f880       ??1?$_Tree_comp@$0A@V?$_Tmap_traits@V?$basic_string@DU?$char_traits@D@std@@V?$allocator@D@2@@std@@PAVfms_config_item_t@@U?$less@V?$basic_string@DU?$char_traits@D@std@@V?$allocator@D@2@@std@@@2@V?$allocator@U?$pair@$$CBV?$basic_string@DU?$char_traits@D@std@@V?$allocator@D@2@@std@@PAVfms_config_item_t@@@std@@@2@$0A@@std@@@std@@QAE@XZ 10030880 f i fms_config.obj
 0001:0002f8a0       ??1?$map@V?$basic_string@DU?$char_traits@D@std@@V?$allocator@D@2@@std@@MU?$less@V?$basic_string@DU?$char_traits@D@std@@V?$allocator@D@2@@std@@@2@V?$allocator@U?$pair@$$CBV?$basic_string@DU?$char_traits@D@std@@V?$allocator@D@2@@std@@M@std@@@2@@std@@QAE@XZ 100308a0 f i fms_config.obj
 0001:0002f8c0       ??1?$map@V?$basic_string@DU?$char_traits@D@std@@V?$allocator@D@2@@std@@PAVfms_config_item_t@@U?$less@V?$basic_string@DU?$char_traits@D@std@@V?$allocator@D@2@@std@@@2@V?$allocator@U?$pair@$$CBV?$basic_string@DU?$char_traits@D@std@@V?$allocator@D@2@@std@@PAVfms_config_item_t@@@std@@@2@@std@@QAE@XZ 100308c0 f i fms_config.obj
 0001:0002f8e0       ??1?$pair@$$CBV?$basic_string@DU?$char_traits@D@std@@V?$allocator@D@2@@std@@PAVfms_config_item_t@@@std@@QAE@XZ 100308e0 f i fms_config.obj
 0001:0002f900       ??8?$_Tree_const_iterator@V?$_Tree_val@U?$_Tree_simple_types@U?$pair@$$CBHM@std@@@std@@@std@@@std@@QBE_NABV01@@Z 10030900 f i fms_config.obj
 0001:0002f930       ??8?$_Tree_const_iterator@V?$_Tree_val@U?$_Tree_simple_types@U?$pair@$$CBV?$basic_string@DU?$char_traits@D@std@@V?$allocator@D@2@@std@@PAVfms_config_item_t@@@std@@@std@@@std@@@std@@QBE_NABV01@@Z 10030930 f i fms_config.obj
 0001:0002f960       ??9?$_Tree_const_iterator@V?$_Tree_val@U?$_Tree_simple_types@U?$pair@$$CBHM@std@@@std@@@std@@@std@@QBE_NABV01@@Z 10030960 f i fms_config.obj
 0001:0002f9a0       ??9?$_Tree_const_iterator@V?$_Tree_val@U?$_Tree_simple_types@U?$pair@$$CBV?$basic_string@DU?$char_traits@D@std@@V?$allocator@D@2@@std@@M@std@@@std@@@std@@@std@@QBE_NABV01@@Z 100309a0 f i fms_config.obj
 0001:0002f9e0       ??9?$_Tree_const_iterator@V?$_Tree_val@U?$_Tree_simple_types@U?$pair@$$CBV?$basic_string@DU?$char_traits@D@std@@V?$allocator@D@2@@std@@PAVfms_config_item_t@@@std@@@std@@@std@@@std@@QBE_NABV01@@Z 100309e0 f i fms_config.obj
 0001:0002fa20       ??A?$map@HMU?$less@H@std@@V?$allocator@U?$pair@$$CBHM@std@@@2@@std@@QAEAAMABH@Z 10030a20 f i fms_config.obj
 0001:0002fad0       ??A?$map@V?$basic_string@DU?$char_traits@D@std@@V?$allocator@D@2@@std@@PAVfms_config_item_t@@U?$less@V?$basic_string@DU?$char_traits@D@std@@V?$allocator@D@2@@std@@@2@V?$allocator@U?$pair@$$CBV?$basic_string@DU?$char_traits@D@std@@V?$allocator@D@2@@std@@PAVfms_config_item_t@@@std@@@2@@std@@QAEAAPAVfms_config_item_t@@ABV?$basic_string@DU?$char_traits@D@std@@V?$allocator@D@2@@1@@Z 10030ad0 f i fms_config.obj
 0001:0002fb80       ??C?$_Tree_iterator@V?$_Tree_val@U?$_Tree_simple_types@U?$pair@$$CBHM@std@@@std@@@std@@@std@@QBEPAU?$pair@$$CBHM@1@XZ 10030b80 f i fms_config.obj
 0001:0002fba0       ??C?$_Tree_iterator@V?$_Tree_val@U?$_Tree_simple_types@U?$pair@$$CBV?$basic_string@DU?$char_traits@D@std@@V?$allocator@D@2@@std@@PAVfms_config_item_t@@@std@@@std@@@std@@@std@@QBEPAU?$pair@$$CBV?$basic_string@DU?$char_traits@D@std@@V?$allocator@D@2@@std@@PAVfms_config_item_t@@@1@XZ 10030ba0 f i fms_config.obj
 0001:0002fbc0       ??D?$_Tree_const_iterator@V?$_Tree_val@U?$_Tree_simple_types@U?$pair@$$CBHM@std@@@std@@@std@@@std@@QBEABU?$pair@$$CBHM@1@XZ 10030bc0 f i fms_config.obj
 0001:0002fbe0       ??D?$_Tree_const_iterator@V?$_Tree_val@U?$_Tree_simple_types@U?$pair@$$CBV?$basic_string@DU?$char_traits@D@std@@V?$allocator@D@2@@std@@PAVfms_config_item_t@@@std@@@std@@@std@@@std@@QBEABU?$pair@$$CBV?$basic_string@DU?$char_traits@D@std@@V?$allocator@D@2@@std@@PAVfms_config_item_t@@@1@XZ 10030be0 f i fms_config.obj
 0001:0002fc00       ??D?$_Tree_iterator@V?$_Tree_val@U?$_Tree_simple_types@U?$pair@$$CBHM@std@@@std@@@std@@@std@@QBEAAU?$pair@$$CBHM@1@XZ 10030c00 f i fms_config.obj
 0001:0002fc20       ??D?$_Tree_iterator@V?$_Tree_val@U?$_Tree_simple_types@U?$pair@$$CBV?$basic_string@DU?$char_traits@D@std@@V?$allocator@D@2@@std@@PAVfms_config_item_t@@@std@@@std@@@std@@@std@@QBEAAU?$pair@$$CBV?$basic_string@DU?$char_traits@D@std@@V?$allocator@D@2@@std@@PAVfms_config_item_t@@@1@XZ 10030c20 f i fms_config.obj
 0001:0002fc40       ??E?$_Tree_const_iterator@V?$_Tree_val@U?$_Tree_simple_types@U?$pair@$$CBHM@std@@@std@@@std@@@std@@QAEAAV01@XZ 10030c40 f i fms_config.obj
 0001:0002fc60       ??E?$_Tree_const_iterator@V?$_Tree_val@U?$_Tree_simple_types@U?$pair@$$CBV?$basic_string@DU?$char_traits@D@std@@V?$allocator@D@2@@std@@M@std@@@std@@@std@@@std@@QAE?AV01@H@Z 10030c60 f i fms_config.obj
 0001:0002fc90       ??E?$_Tree_const_iterator@V?$_Tree_val@U?$_Tree_simple_types@U?$pair@$$CBV?$basic_string@DU?$char_traits@D@std@@V?$allocator@D@2@@std@@PAVfms_config_item_t@@@std@@@std@@@std@@@std@@QAE?AV01@H@Z 10030c90 f i fms_config.obj
 0001:0002fcc0       ??E?$_Tree_const_iterator@V?$_Tree_val@U?$_Tree_simple_types@U?$pair@$$CBV?$basic_string@DU?$char_traits@D@std@@V?$allocator@D@2@@std@@PAVfms_config_item_t@@@std@@@std@@@std@@@std@@QAEAAV01@XZ 10030cc0 f i fms_config.obj
 0001:0002fce0       ??E?$_Tree_iterator@V?$_Tree_val@U?$_Tree_simple_types@U?$pair@$$CBHM@std@@@std@@@std@@@std@@QAEAAV01@XZ 10030ce0 f i fms_config.obj
 0001:0002fd00       ??E?$_Tree_unchecked_const_iterator@V?$_Tree_val@U?$_Tree_simple_types@U?$pair@$$CBHM@std@@@std@@@std@@U_Iterator_base0@2@@std@@QAEAAV01@XZ 10030d00 f i fms_config.obj
 0001:0002fdc0       ??E?$_Tree_unchecked_const_iterator@V?$_Tree_val@U?$_Tree_simple_types@U?$pair@$$CBV?$basic_string@DU?$char_traits@D@std@@V?$allocator@D@2@@std@@PAVfms_config_item_t@@@std@@@std@@@std@@U_Iterator_base0@2@@std@@QAEAAV01@XZ 10030dc0 f i fms_config.obj
 0001:0002fe80       ??F?$_Tree_const_iterator@V?$_Tree_val@U?$_Tree_simple_types@U?$pair@$$CBHM@std@@@std@@@std@@@std@@QAEAAV01@XZ 10030e80 f i fms_config.obj
 0001:0002fea0       ??F?$_Tree_const_iterator@V?$_Tree_val@U?$_Tree_simple_types@U?$pair@$$CBV?$basic_string@DU?$char_traits@D@std@@V?$allocator@D@2@@std@@PAVfms_config_item_t@@@std@@@std@@@std@@@std@@QAEAAV01@XZ 10030ea0 f i fms_config.obj
 0001:0002fec0       ??F?$_Tree_iterator@V?$_Tree_val@U?$_Tree_simple_types@U?$pair@$$CBHM@std@@@std@@@std@@@std@@QAEAAV01@XZ 10030ec0 f i fms_config.obj
 0001:0002fee0       ??F?$_Tree_iterator@V?$_Tree_val@U?$_Tree_simple_types@U?$pair@$$CBV?$basic_string@DU?$char_traits@D@std@@V?$allocator@D@2@@std@@PAVfms_config_item_t@@@std@@@std@@@std@@@std@@QAEAAV01@XZ 10030ee0 f i fms_config.obj
 0001:0002ff00       ??F?$_Tree_unchecked_const_iterator@V?$_Tree_val@U?$_Tree_simple_types@U?$pair@$$CBHM@std@@@std@@@std@@U_Iterator_base0@2@@std@@QAEAAV01@XZ 10030f00 f i fms_config.obj
 0001:0002fff0       ??F?$_Tree_unchecked_const_iterator@V?$_Tree_val@U?$_Tree_simple_types@U?$pair@$$CBV?$basic_string@DU?$char_traits@D@std@@V?$allocator@D@2@@std@@PAVfms_config_item_t@@@std@@@std@@@std@@U_Iterator_base0@2@@std@@QAEAAV01@XZ 10030ff0 f i fms_config.obj
 0001:000300e0       ??_G?$pair@$$CBV?$basic_string@DU?$char_traits@D@std@@V?$allocator@D@2@@std@@PAVfms_config_item_t@@@std@@QAEPAXI@Z 100310e0 f i fms_config.obj
 0001:00030110       ?_Buyheadnode@?$_Tree_alloc@$0A@U?$_Tree_base_types@U?$pair@$$CBHM@std@@V?$allocator@U?$pair@$$CBHM@std@@@2@@std@@@std@@QAEPAU?$_Tree_node@U?$pair@$$CBHM@std@@PAX@2@XZ 10031110 f i fms_config.obj
 0001:00030260       ?_Buyheadnode@?$_Tree_alloc@$0A@U?$_Tree_base_types@U?$pair@$$CBV?$basic_string@DU?$char_traits@D@std@@V?$allocator@D@2@@std@@M@std@@V?$allocator@U?$pair@$$CBV?$basic_string@DU?$char_traits@D@std@@V?$allocator@D@2@@std@@M@std@@@2@@std@@@std@@QAEPAU?$_Tree_node@U?$pair@$$CBV?$basic_string@DU?$char_traits@D@std@@V?$allocator@D@2@@std@@M@std@@PAX@2@XZ 10031260 f i fms_config.obj
 0001:000303b0       ?_Buyheadnode@?$_Tree_alloc@$0A@U?$_Tree_base_types@U?$pair@$$CBV?$basic_string@DU?$char_traits@D@std@@V?$allocator@D@2@@std@@PAVfms_config_item_t@@@std@@V?$allocator@U?$pair@$$CBV?$basic_string@DU?$char_traits@D@std@@V?$allocator@D@2@@std@@PAVfms_config_item_t@@@std@@@2@@std@@@std@@QAEPAU?$_Tree_node@U?$pair@$$CBV?$basic_string@DU?$char_traits@D@std@@V?$allocator@D@2@@std@@PAVfms_config_item_t@@@std@@PAX@2@XZ 100313b0 f i fms_config.obj
 0001:00030500       ?_Buynode0@?$_Tree_buy@U?$pair@$$CBHM@std@@V?$allocator@U?$pair@$$CBHM@std@@@2@@std@@QAEPAU?$_Tree_node@U?$pair@$$CBHM@std@@PAX@2@XZ 10031500 f i fms_config.obj
 0001:00030630       ?_Buynode0@?$_Tree_buy@U?$pair@$$CBV?$basic_string@DU?$char_traits@D@std@@V?$allocator@D@2@@std@@PAVfms_config_item_t@@@std@@V?$allocator@U?$pair@$$CBV?$basic_string@DU?$char_traits@D@std@@V?$allocator@D@2@@std@@PAVfms_config_item_t@@@std@@@2@@std@@QAEPAU?$_Tree_node@U?$pair@$$CBV?$basic_string@DU?$char_traits@D@std@@V?$allocator@D@2@@std@@PAVfms_config_item_t@@@std@@PAX@2@XZ 10031630 f i fms_config.obj
 0001:00030760       ?_Color@?$_Tree_val@U?$_Tree_simple_types@U?$pair@$$CBHM@std@@@std@@@std@@SAAADPAU?$_Tree_node@U?$pair@$$CBHM@std@@PAX@2@@Z 10031760 f i fms_config.obj
 0001:00030770       ?_Color@?$_Tree_val@U?$_Tree_simple_types@U?$pair@$$CBV?$basic_string@DU?$char_traits@D@std@@V?$allocator@D@2@@std@@PAVfms_config_item_t@@@std@@@std@@@std@@SAAADPAU?$_Tree_node@U?$pair@$$CBV?$basic_string@DU?$char_traits@D@std@@V?$allocator@D@2@@std@@PAVfms_config_item_t@@@std@@PAX@2@@Z 10031770 f i fms_config.obj
 0001:00030780       ?_Destroy_if_not_nil@?$_Tree@V?$_Tmap_traits@HMU?$less@H@std@@V?$allocator@U?$pair@$$CBHM@std@@@2@$0A@@std@@@std@@IAEXPAU?$_Tree_node@U?$pair@$$CBHM@std@@PAX@2@@Z 10031780 f i fms_config.obj
 0001:000307e0       ?_Destroy_if_not_nil@?$_Tree@V?$_Tmap_traits@V?$basic_string@DU?$char_traits@D@std@@V?$allocator@D@2@@std@@PAVfms_config_item_t@@U?$less@V?$basic_string@DU?$char_traits@D@std@@V?$allocator@D@2@@std@@@2@V?$allocator@U?$pair@$$CBV?$basic_string@DU?$char_traits@D@std@@V?$allocator@D@2@@std@@PAVfms_config_item_t@@@std@@@2@$0A@@std@@@std@@IAEXPAU?$_Tree_node@U?$pair@$$CBV?$basic_string@DU?$char_traits@D@std@@V?$allocator@D@2@@std@@PAVfms_config_item_t@@@std@@PAX@2@@Z 100317e0 f i fms_config.obj
 0001:00030840       ?_Erase@?$_Tree@V?$_Tmap_traits@V?$basic_string@DU?$char_traits@D@std@@V?$allocator@D@2@@std@@MU?$less@V?$basic_string@DU?$char_traits@D@std@@V?$allocator@D@2@@std@@@2@V?$allocator@U?$pair@$$CBV?$basic_string@DU?$char_traits@D@std@@V?$allocator@D@2@@std@@M@std@@@2@$0A@@std@@@std@@IAEXPAU?$_Tree_node@U?$pair@$$CBV?$basic_string@DU?$char_traits@D@std@@V?$allocator@D@2@@std@@M@std@@PAX@2@@Z 10031840 f i fms_config.obj
 0001:000308e0       ?_Erase@?$_Tree@V?$_Tmap_traits@V?$basic_string@DU?$char_traits@D@std@@V?$allocator@D@2@@std@@PAVfms_config_item_t@@U?$less@V?$basic_string@DU?$char_traits@D@std@@V?$allocator@D@2@@std@@@2@V?$allocator@U?$pair@$$CBV?$basic_string@DU?$char_traits@D@std@@V?$allocator@D@2@@std@@PAVfms_config_item_t@@@std@@@2@$0A@@std@@@std@@IAEXPAU?$_Tree_node@U?$pair@$$CBV?$basic_string@DU?$char_traits@D@std@@V?$allocator@D@2@@std@@PAVfms_config_item_t@@@std@@PAX@2@@Z 100318e0 f i fms_config.obj
 0001:00030980       ?_Freeheadnode@?$_Tree_alloc@$0A@U?$_Tree_base_types@U?$pair@$$CBV?$basic_string@DU?$char_traits@D@std@@V?$allocator@D@2@@std@@M@std@@V?$allocator@U?$pair@$$CBV?$basic_string@DU?$char_traits@D@std@@V?$allocator@D@2@@std@@M@std@@@2@@std@@@std@@QAEXPAU?$_Tree_node@U?$pair@$$CBV?$basic_string@DU?$char_traits@D@std@@V?$allocator@D@2@@std@@M@std@@PAX@2@@Z 10031980 f i fms_config.obj
 0001:00030a30       ?_Freeheadnode@?$_Tree_alloc@$0A@U?$_Tree_base_types@U?$pair@$$CBV?$basic_string@DU?$char_traits@D@std@@V?$allocator@D@2@@std@@PAVfms_config_item_t@@@std@@V?$allocator@U?$pair@$$CBV?$basic_string@DU?$char_traits@D@std@@V?$allocator@D@2@@std@@PAVfms_config_item_t@@@std@@@2@@std@@@std@@QAEXPAU?$_Tree_node@U?$pair@$$CBV?$basic_string@DU?$char_traits@D@std@@V?$allocator@D@2@@std@@PAVfms_config_item_t@@@std@@PAX@2@@Z 10031a30 f i fms_config.obj
 0001:00030ae0       ?_Freenode0@?$_Tree_buy@U?$pair@$$CBHM@std@@V?$allocator@U?$pair@$$CBHM@std@@@2@@std@@QAEXPAU?$_Tree_node@U?$pair@$$CBHM@std@@PAX@2@@Z 10031ae0 f i fms_config.obj
 0001:00030b90       ?_Freenode0@?$_Tree_buy@U?$pair@$$CBV?$basic_string@DU?$char_traits@D@std@@V?$allocator@D@2@@std@@PAVfms_config_item_t@@@std@@V?$allocator@U?$pair@$$CBV?$basic_string@DU?$char_traits@D@std@@V?$allocator@D@2@@std@@PAVfms_config_item_t@@@std@@@2@@std@@QAEXPAU?$_Tree_node@U?$pair@$$CBV?$basic_string@DU?$char_traits@D@std@@V?$allocator@D@2@@std@@PAVfms_config_item_t@@@std@@PAX@2@@Z 10031b90 f i fms_config.obj
 0001:00030c40       ?_Getal@?$_Tree_alloc@$0A@U?$_Tree_base_types@U?$pair@$$CBHM@std@@V?$allocator@U?$pair@$$CBHM@std@@@2@@std@@@std@@QBE?AU?$_Wrap_alloc@V?$allocator@U?$_Tree_node@U?$pair@$$CBHM@std@@PAX@std@@@std@@@2@XZ 10031c40 f i fms_config.obj
 0001:00030c60       ?_Getal@?$_Tree_alloc@$0A@U?$_Tree_base_types@U?$pair@$$CBV?$basic_string@DU?$char_traits@D@std@@V?$allocator@D@2@@std@@PAVfms_config_item_t@@@std@@V?$allocator@U?$pair@$$CBV?$basic_string@DU?$char_traits@D@std@@V?$allocator@D@2@@std@@PAVfms_config_item_t@@@std@@@2@@std@@@std@@QBE?AU?$_Wrap_alloc@V?$allocator@U?$_Tree_node@U?$pair@$$CBV?$basic_string@DU?$char_traits@D@std@@V?$allocator@D@2@@std@@PAVfms_config_item_t@@@std@@PAX@std@@@std@@@2@XZ 10031c60 f i fms_config.obj
 0001:00030c80       ?_Getcomp@?$_Tree_comp@$0A@V?$_Tmap_traits@HMU?$less@H@std@@V?$allocator@U?$pair@$$CBHM@std@@@2@$0A@@std@@@std@@QBE?AU?$less@H@2@XZ 10031c80 f i fms_config.obj
 0001:00030c90       ?_Getcomp@?$_Tree_comp@$0A@V?$_Tmap_traits@V?$basic_string@DU?$char_traits@D@std@@V?$allocator@D@2@@std@@PAVfms_config_item_t@@U?$less@V?$basic_string@DU?$char_traits@D@std@@V?$allocator@D@2@@std@@@2@V?$allocator@U?$pair@$$CBV?$basic_string@DU?$char_traits@D@std@@V?$allocator@D@2@@std@@PAVfms_config_item_t@@@std@@@2@$0A@@std@@@std@@QBE?AU?$less@V?$basic_string@DU?$char_traits@D@std@@V?$allocator@D@2@@std@@@2@XZ 10031c90 f i fms_config.obj
 0001:00030ca0       ?_Isnil@?$_Tree_val@U?$_Tree_simple_types@U?$pair@$$CBHM@std@@@std@@@std@@SAAADPAU?$_Tree_node@U?$pair@$$CBHM@std@@PAX@2@@Z 10031ca0 f i fms_config.obj
 0001:00030cb0       ?_Isnil@?$_Tree_val@U?$_Tree_simple_types@U?$pair@$$CBV?$basic_string@DU?$char_traits@D@std@@V?$allocator@D@2@@std@@PAVfms_config_item_t@@@std@@@std@@@std@@SAAADPAU?$_Tree_node@U?$pair@$$CBV?$basic_string@DU?$char_traits@D@std@@V?$allocator@D@2@@std@@PAVfms_config_item_t@@@std@@PAX@2@@Z 10031cb0 f i fms_config.obj
 0001:00030cc0       ?_Key@?$_Tree@V?$_Tmap_traits@HMU?$less@H@std@@V?$allocator@U?$pair@$$CBHM@std@@@2@$0A@@std@@@std@@IBEABHPAU?$_Tree_node@U?$pair@$$CBHM@std@@PAX@2@@Z 10031cc0 f i fms_config.obj
 0001:00030cf0       ?_Key@?$_Tree@V?$_Tmap_traits@V?$basic_string@DU?$char_traits@D@std@@V?$allocator@D@2@@std@@PAVfms_config_item_t@@U?$less@V?$basic_string@DU?$char_traits@D@std@@V?$allocator@D@2@@std@@@2@V?$allocator@U?$pair@$$CBV?$basic_string@DU?$char_traits@D@std@@V?$allocator@D@2@@std@@PAVfms_config_item_t@@@std@@@2@$0A@@std@@@std@@IBEABV?$basic_string@DU?$char_traits@D@std@@V?$allocator@D@2@@2@PAU?$_Tree_node@U?$pair@$$CBV?$basic_string@DU?$char_traits@D@std@@V?$allocator@D@2@@std@@PAVfms_config_item_t@@@std@@PAX@2@@Z 10031cf0 f i fms_config.obj
 0001:00030d20       ?_Kfn@?$_Tree@V?$_Tmap_traits@HMU?$less@H@std@@V?$allocator@U?$pair@$$CBHM@std@@@2@$0A@@std@@@std@@IBEABHABU?$pair@$$CBHM@2@@Z 10031d20 f i fms_config.obj
 0001:00030d40       ?_Kfn@?$_Tree@V?$_Tmap_traits@V?$basic_string@DU?$char_traits@D@std@@V?$allocator@D@2@@std@@PAVfms_config_item_t@@U?$less@V?$basic_string@DU?$char_traits@D@std@@V?$allocator@D@2@@std@@@2@V?$allocator@U?$pair@$$CBV?$basic_string@DU?$char_traits@D@std@@V?$allocator@D@2@@std@@PAVfms_config_item_t@@@std@@@2@$0A@@std@@@std@@IBEABV?$basic_string@DU?$char_traits@D@std@@V?$allocator@D@2@@2@ABU?$pair@$$CBV?$basic_string@DU?$char_traits@D@std@@V?$allocator@D@2@@std@@PAVfms_config_item_t@@@2@@Z 10031d40 f i fms_config.obj
 0001:00030d60       ?_Lbound@?$_Tree@V?$_Tmap_traits@HMU?$less@H@std@@V?$allocator@U?$pair@$$CBHM@std@@@2@$0A@@std@@@std@@IAEPAU?$_Tree_node@U?$pair@$$CBHM@std@@PAX@2@ABH@Z 10031d60 f i fms_config.obj
 0001:00030e00       ?_Lbound@?$_Tree@V?$_Tmap_traits@V?$basic_string@DU?$char_traits@D@std@@V?$allocator@D@2@@std@@PAVfms_config_item_t@@U?$less@V?$basic_string@DU?$char_traits@D@std@@V?$allocator@D@2@@std@@@2@V?$allocator@U?$pair@$$CBV?$basic_string@DU?$char_traits@D@std@@V?$allocator@D@2@@std@@PAVfms_config_item_t@@@std@@@2@$0A@@std@@@std@@IAEPAU?$_Tree_node@U?$pair@$$CBV?$basic_string@DU?$char_traits@D@std@@V?$allocator@D@2@@std@@PAVfms_config_item_t@@@std@@PAX@2@ABV?$basic_string@DU?$char_traits@D@std@@V?$allocator@D@2@@2@@Z 10031e00 f i fms_config.obj
 0001:00030ea0       ?_Left@?$_Tree_val@U?$_Tree_simple_types@U?$pair@$$CBHM@std@@@std@@@std@@SAAAPAU?$_Tree_node@U?$pair@$$CBHM@std@@PAX@2@PAU32@@Z 10031ea0 f i fms_config.obj
 0001:00030eb0       ?_Left@?$_Tree_val@U?$_Tree_simple_types@U?$pair@$$CBV?$basic_string@DU?$char_traits@D@std@@V?$allocator@D@2@@std@@PAVfms_config_item_t@@@std@@@std@@@std@@SAAAPAU?$_Tree_node@U?$pair@$$CBV?$basic_string@DU?$char_traits@D@std@@V?$allocator@D@2@@std@@PAVfms_config_item_t@@@std@@PAX@2@PAU32@@Z 10031eb0 f i fms_config.obj
 0001:00030ec0       ?_Lmost@?$_Tree@V?$_Tmap_traits@HMU?$less@H@std@@V?$allocator@U?$pair@$$CBHM@std@@@2@$0A@@std@@@std@@IBEAAPAU?$_Tree_node@U?$pair@$$CBHM@std@@PAX@2@XZ 10031ec0 f i fms_config.obj
 0001:00030ee0       ?_Lmost@?$_Tree@V?$_Tmap_traits@V?$basic_string@DU?$char_traits@D@std@@V?$allocator@D@2@@std@@PAVfms_config_item_t@@U?$less@V?$basic_string@DU?$char_traits@D@std@@V?$allocator@D@2@@std@@@2@V?$allocator@U?$pair@$$CBV?$basic_string@DU?$char_traits@D@std@@V?$allocator@D@2@@std@@PAVfms_config_item_t@@@std@@@2@$0A@@std@@@std@@IBEAAPAU?$_Tree_node@U?$pair@$$CBV?$basic_string@DU?$char_traits@D@std@@V?$allocator@D@2@@std@@PAVfms_config_item_t@@@std@@PAX@2@XZ 10031ee0 f i fms_config.obj
 0001:00030f00       ?_Lrotate@?$_Tree@V?$_Tmap_traits@HMU?$less@H@std@@V?$allocator@U?$pair@$$CBHM@std@@@2@$0A@@std@@@std@@IAEXPAU?$_Tree_node@U?$pair@$$CBHM@std@@PAX@2@@Z 10031f00 f i fms_config.obj
 0001:00031030       ?_Lrotate@?$_Tree@V?$_Tmap_traits@V?$basic_string@DU?$char_traits@D@std@@V?$allocator@D@2@@std@@PAVfms_config_item_t@@U?$less@V?$basic_string@DU?$char_traits@D@std@@V?$allocator@D@2@@std@@@2@V?$allocator@U?$pair@$$CBV?$basic_string@DU?$char_traits@D@std@@V?$allocator@D@2@@std@@PAVfms_config_item_t@@@std@@@2@$0A@@std@@@std@@IAEXPAU?$_Tree_node@U?$pair@$$CBV?$basic_string@DU?$char_traits@D@std@@V?$allocator@D@2@@std@@PAVfms_config_item_t@@@std@@PAX@2@@Z 10032030 f i fms_config.obj
 0001:00031160       ?_Max@?$_Tree_val@U?$_Tree_simple_types@U?$pair@$$CBHM@std@@@std@@@std@@SAPAU?$_Tree_node@U?$pair@$$CBHM@std@@PAX@2@PAU32@@Z 10032160 f i fms_config.obj
 0001:000311a0       ?_Max@?$_Tree_val@U?$_Tree_simple_types@U?$pair@$$CBV?$basic_string@DU?$char_traits@D@std@@V?$allocator@D@2@@std@@PAVfms_config_item_t@@@std@@@std@@@std@@SAPAU?$_Tree_node@U?$pair@$$CBV?$basic_string@DU?$char_traits@D@std@@V?$allocator@D@2@@std@@PAVfms_config_item_t@@@std@@PAX@2@PAU32@@Z 100321a0 f i fms_config.obj
 0001:000311e0       ?_Min@?$_Tree_val@U?$_Tree_simple_types@U?$pair@$$CBHM@std@@@std@@@std@@SAPAU?$_Tree_node@U?$pair@$$CBHM@std@@PAX@2@PAU32@@Z 100321e0 f i fms_config.obj
 0001:00031220       ?_Min@?$_Tree_val@U?$_Tree_simple_types@U?$pair@$$CBV?$basic_string@DU?$char_traits@D@std@@V?$allocator@D@2@@std@@PAVfms_config_item_t@@@std@@@std@@@std@@SAPAU?$_Tree_node@U?$pair@$$CBV?$basic_string@DU?$char_traits@D@std@@V?$allocator@D@2@@std@@PAVfms_config_item_t@@@std@@PAX@2@PAU32@@Z 10032220 f i fms_config.obj
 0001:00031260       ?_Mynode@?$_Tree_unchecked_const_iterator@V?$_Tree_val@U?$_Tree_simple_types@U?$pair@$$CBHM@std@@@std@@@std@@U_Iterator_base0@2@@std@@QBEPAU?$_Tree_node@U?$pair@$$CBHM@std@@PAX@2@XZ 10032260 f i fms_config.obj
 0001:00031270       ?_Mynode@?$_Tree_unchecked_const_iterator@V?$_Tree_val@U?$_Tree_simple_types@U?$pair@$$CBV?$basic_string@DU?$char_traits@D@std@@V?$allocator@D@2@@std@@PAVfms_config_item_t@@@std@@@std@@@std@@U_Iterator_base0@2@@std@@QBEPAU?$_Tree_node@U?$pair@$$CBV?$basic_string@DU?$char_traits@D@std@@V?$allocator@D@2@@std@@PAVfms_config_item_t@@@std@@PAX@2@XZ 10032270 f i fms_config.obj
 0001:00031280       ?_Myval@?$_Tree_val@U?$_Tree_simple_types@U?$pair@$$CBHM@std@@@std@@@std@@SAAAU?$pair@$$CBHM@2@PAU?$_Tree_node@U?$pair@$$CBHM@std@@PAX@2@@Z 10032280 f i fms_config.obj
 0001:00031290       ?_Myval@?$_Tree_val@U?$_Tree_simple_types@U?$pair@$$CBV?$basic_string@DU?$char_traits@D@std@@V?$allocator@D@2@@std@@PAVfms_config_item_t@@@std@@@std@@@std@@SAAAU?$pair@$$CBV?$basic_string@DU?$char_traits@D@std@@V?$allocator@D@2@@std@@PAVfms_config_item_t@@@2@PAU?$_Tree_node@U?$pair@$$CBV?$basic_string@DU?$char_traits@D@std@@V?$allocator@D@2@@std@@PAVfms_config_item_t@@@std@@PAX@2@@Z 10032290 f i fms_config.obj
 0001:000312a0       ?_Parent@?$_Tree_val@U?$_Tree_simple_types@U?$pair@$$CBHM@std@@@std@@@std@@SAAAPAU?$_Tree_node@U?$pair@$$CBHM@std@@PAX@2@PAU32@@Z 100322a0 f i fms_config.obj
 0001:000312b0       ?_Parent@?$_Tree_val@U?$_Tree_simple_types@U?$pair@$$CBV?$basic_string@DU?$char_traits@D@std@@V?$allocator@D@2@@std@@PAVfms_config_item_t@@@std@@@std@@@std@@SAAAPAU?$_Tree_node@U?$pair@$$CBV?$basic_string@DU?$char_traits@D@std@@V?$allocator@D@2@@std@@PAVfms_config_item_t@@@std@@PAX@2@PAU32@@Z 100322b0 f i fms_config.obj
 0001:000312c0       ?_Right@?$_Tree_val@U?$_Tree_simple_types@U?$pair@$$CBHM@std@@@std@@@std@@SAAAPAU?$_Tree_node@U?$pair@$$CBHM@std@@PAX@2@PAU32@@Z 100322c0 f i fms_config.obj
 0001:000312d0       ?_Right@?$_Tree_val@U?$_Tree_simple_types@U?$pair@$$CBV?$basic_string@DU?$char_traits@D@std@@V?$allocator@D@2@@std@@PAVfms_config_item_t@@@std@@@std@@@std@@SAAAPAU?$_Tree_node@U?$pair@$$CBV?$basic_string@DU?$char_traits@D@std@@V?$allocator@D@2@@std@@PAVfms_config_item_t@@@std@@PAX@2@PAU32@@Z 100322d0 f i fms_config.obj
 0001:000312e0       ?_Rmost@?$_Tree@V?$_Tmap_traits@HMU?$less@H@std@@V?$allocator@U?$pair@$$CBHM@std@@@2@$0A@@std@@@std@@IBEAAPAU?$_Tree_node@U?$pair@$$CBHM@std@@PAX@2@XZ 100322e0 f i fms_config.obj
 0001:00031300       ?_Rmost@?$_Tree@V?$_Tmap_traits@V?$basic_string@DU?$char_traits@D@std@@V?$allocator@D@2@@std@@PAVfms_config_item_t@@U?$less@V?$basic_string@DU?$char_traits@D@std@@V?$allocator@D@2@@std@@@2@V?$allocator@U?$pair@$$CBV?$basic_string@DU?$char_traits@D@std@@V?$allocator@D@2@@std@@PAVfms_config_item_t@@@std@@@2@$0A@@std@@@std@@IBEAAPAU?$_Tree_node@U?$pair@$$CBV?$basic_string@DU?$char_traits@D@std@@V?$allocator@D@2@@std@@PAVfms_config_item_t@@@std@@PAX@2@XZ 10032300 f i fms_config.obj
 0001:00031320       ?_Root@?$_Tree@V?$_Tmap_traits@HMU?$less@H@std@@V?$allocator@U?$pair@$$CBHM@std@@@2@$0A@@std@@@std@@IBEAAPAU?$_Tree_node@U?$pair@$$CBHM@std@@PAX@2@XZ 10032320 f i fms_config.obj
 0001:00031340       ?_Root@?$_Tree@V?$_Tmap_traits@V?$basic_string@DU?$char_traits@D@std@@V?$allocator@D@2@@std@@PAVfms_config_item_t@@U?$less@V?$basic_string@DU?$char_traits@D@std@@V?$allocator@D@2@@std@@@2@V?$allocator@U?$pair@$$CBV?$basic_string@DU?$char_traits@D@std@@V?$allocator@D@2@@std@@PAVfms_config_item_t@@@std@@@2@$0A@@std@@@std@@IBEAAPAU?$_Tree_node@U?$pair@$$CBV?$basic_string@DU?$char_traits@D@std@@V?$allocator@D@2@@std@@PAVfms_config_item_t@@@std@@PAX@2@XZ 10032340 f i fms_config.obj
 0001:00031360       ?_Rrotate@?$_Tree@V?$_Tmap_traits@HMU?$less@H@std@@V?$allocator@U?$pair@$$CBHM@std@@@2@$0A@@std@@@std@@IAEXPAU?$_Tree_node@U?$pair@$$CBHM@std@@PAX@2@@Z 10032360 f i fms_config.obj
 0001:00031490       ?_Rrotate@?$_Tree@V?$_Tmap_traits@V?$basic_string@DU?$char_traits@D@std@@V?$allocator@D@2@@std@@PAVfms_config_item_t@@U?$less@V?$basic_string@DU?$char_traits@D@std@@V?$allocator@D@2@@std@@@2@V?$allocator@U?$pair@$$CBV?$basic_string@DU?$char_traits@D@std@@V?$allocator@D@2@@std@@PAVfms_config_item_t@@@std@@@2@$0A@@std@@@std@@IAEXPAU?$_Tree_node@U?$pair@$$CBV?$basic_string@DU?$char_traits@D@std@@V?$allocator@D@2@@std@@PAVfms_config_item_t@@@std@@PAX@2@@Z 10032490 f i fms_config.obj
 0001:000315c0       ?_Tidy@?$_Tree@V?$_Tmap_traits@V?$basic_string@DU?$char_traits@D@std@@V?$allocator@D@2@@std@@MU?$less@V?$basic_string@DU?$char_traits@D@std@@V?$allocator@D@2@@std@@@2@V?$allocator@U?$pair@$$CBV?$basic_string@DU?$char_traits@D@std@@V?$allocator@D@2@@std@@M@std@@@2@$0A@@std@@@std@@IAEXXZ 100325c0 f i fms_config.obj
 0001:00031610       ?_Tidy@?$_Tree@V?$_Tmap_traits@V?$basic_string@DU?$char_traits@D@std@@V?$allocator@D@2@@std@@PAVfms_config_item_t@@U?$less@V?$basic_string@DU?$char_traits@D@std@@V?$allocator@D@2@@std@@@2@V?$allocator@U?$pair@$$CBV?$basic_string@DU?$char_traits@D@std@@V?$allocator@D@2@@std@@PAVfms_config_item_t@@@std@@@2@$0A@@std@@@std@@IAEXXZ 10032610 f i fms_config.obj
 0001:00031660       ?allocate@?$_Wrap_alloc@V?$allocator@U?$_Tree_node@U?$pair@$$CBHM@std@@PAX@std@@@std@@@std@@QAEPAU?$_Tree_node@U?$pair@$$CBHM@std@@PAX@2@I@Z 10032660 f i fms_config.obj
 0001:00031680       ?allocate@?$_Wrap_alloc@V?$allocator@U?$_Tree_node@U?$pair@$$CBV?$basic_string@DU?$char_traits@D@std@@V?$allocator@D@2@@std@@PAVfms_config_item_t@@@std@@PAX@std@@@std@@@std@@QAEPAU?$_Tree_node@U?$pair@$$CBV?$basic_string@DU?$char_traits@D@std@@V?$allocator@D@2@@std@@PAVfms_config_item_t@@@std@@PAX@2@I@Z 10032680 f i fms_config.obj
 0001:000316a0       ?allocate@?$allocator@U?$_Tree_node@U?$pair@$$CBHM@std@@PAX@std@@@std@@QAEPAU?$_Tree_node@U?$pair@$$CBHM@std@@PAX@2@I@Z 100326a0 f i fms_config.obj
 0001:000316c0       ?allocate@?$allocator@U?$_Tree_node@U?$pair@$$CBV?$basic_string@DU?$char_traits@D@std@@V?$allocator@D@2@@std@@PAVfms_config_item_t@@@std@@PAX@std@@@std@@QAEPAU?$_Tree_node@U?$pair@$$CBV?$basic_string@DU?$char_traits@D@std@@V?$allocator@D@2@@std@@PAVfms_config_item_t@@@std@@PAX@2@I@Z 100326c0 f i fms_config.obj
 0001:000316e0       ?begin@?$_Tree@V?$_Tmap_traits@HMU?$less@H@std@@V?$allocator@U?$pair@$$CBHM@std@@@2@$0A@@std@@@std@@QAE?AV?$_Tree_iterator@V?$_Tree_val@U?$_Tree_simple_types@U?$pair@$$CBHM@std@@@std@@@std@@@2@XZ 100326e0 f i fms_config.obj
 0001:00031710       ?begin@?$_Tree@V?$_Tmap_traits@V?$basic_string@DU?$char_traits@D@std@@V?$allocator@D@2@@std@@PAVfms_config_item_t@@U?$less@V?$basic_string@DU?$char_traits@D@std@@V?$allocator@D@2@@std@@@2@V?$allocator@U?$pair@$$CBV?$basic_string@DU?$char_traits@D@std@@V?$allocator@D@2@@std@@PAVfms_config_item_t@@@std@@@2@$0A@@std@@@std@@QAE?AV?$_Tree_iterator@V?$_Tree_val@U?$_Tree_simple_types@U?$pair@$$CBV?$basic_string@DU?$char_traits@D@std@@V?$allocator@D@2@@std@@PAVfms_config_item_t@@@std@@@std@@@std@@@2@XZ 10032710 f i fms_config.obj
 0001:00031740       ?clear@?$_Tree@V?$_Tmap_traits@V?$basic_string@DU?$char_traits@D@std@@V?$allocator@D@2@@std@@MU?$less@V?$basic_string@DU?$char_traits@D@std@@V?$allocator@D@2@@std@@@2@V?$allocator@U?$pair@$$CBV?$basic_string@DU?$char_traits@D@std@@V?$allocator@D@2@@std@@M@std@@@2@$0A@@std@@@std@@QAEXXZ 10032740 f i fms_config.obj
 0001:000317a0       ?clear@?$_Tree@V?$_Tmap_traits@V?$basic_string@DU?$char_traits@D@std@@V?$allocator@D@2@@std@@PAVfms_config_item_t@@U?$less@V?$basic_string@DU?$char_traits@D@std@@V?$allocator@D@2@@std@@@2@V?$allocator@U?$pair@$$CBV?$basic_string@DU?$char_traits@D@std@@V?$allocator@D@2@@std@@PAVfms_config_item_t@@@std@@@2@$0A@@std@@@std@@QAEXXZ 100327a0 f i fms_config.obj
 0001:00031800       ?deallocate@?$_Wrap_alloc@V?$allocator@U?$_Tree_node@U?$pair@$$CBHM@std@@PAX@std@@@std@@@std@@QAEXPAU?$_Tree_node@U?$pair@$$CBHM@std@@PAX@2@I@Z 10032800 f i fms_config.obj
 0001:00031820       ?deallocate@?$_Wrap_alloc@V?$allocator@U?$_Tree_node@U?$pair@$$CBV?$basic_string@DU?$char_traits@D@std@@V?$allocator@D@2@@std@@PAVfms_config_item_t@@@std@@PAX@std@@@std@@@std@@QAEXPAU?$_Tree_node@U?$pair@$$CBV?$basic_string@DU?$char_traits@D@std@@V?$allocator@D@2@@std@@PAVfms_config_item_t@@@std@@PAX@2@I@Z 10032820 f i fms_config.obj
 0001:00031840       ?deallocate@?$allocator@U?$_Tree_node@U?$pair@$$CBHM@std@@PAX@std@@@std@@QAEXPAU?$_Tree_node@U?$pair@$$CBHM@std@@PAX@2@I@Z 10032840 f i fms_config.obj
 0001:00031860       ?deallocate@?$allocator@U?$_Tree_node@U?$pair@$$CBV?$basic_string@DU?$char_traits@D@std@@V?$allocator@D@2@@std@@PAVfms_config_item_t@@@std@@PAX@std@@@std@@QAEXPAU?$_Tree_node@U?$pair@$$CBV?$basic_string@DU?$char_traits@D@std@@V?$allocator@D@2@@std@@PAVfms_config_item_t@@@std@@PAX@2@I@Z 10032860 f i fms_config.obj
 0001:00031880       ?end@?$_Tree@V?$_Tmap_traits@HMU?$less@H@std@@V?$allocator@U?$pair@$$CBHM@std@@@2@$0A@@std@@@std@@QAE?AV?$_Tree_iterator@V?$_Tree_val@U?$_Tree_simple_types@U?$pair@$$CBHM@std@@@std@@@std@@@2@XZ 10032880 f i fms_config.obj
 0001:000318b0       ?end@?$_Tree@V?$_Tmap_traits@V?$basic_string@DU?$char_traits@D@std@@V?$allocator@D@2@@std@@PAVfms_config_item_t@@U?$less@V?$basic_string@DU?$char_traits@D@std@@V?$allocator@D@2@@std@@@2@V?$allocator@U?$pair@$$CBV?$basic_string@DU?$char_traits@D@std@@V?$allocator@D@2@@std@@PAVfms_config_item_t@@@std@@@2@$0A@@std@@@std@@QAE?AV?$_Tree_iterator@V?$_Tree_val@U?$_Tree_simple_types@U?$pair@$$CBV?$basic_string@DU?$char_traits@D@std@@V?$allocator@D@2@@std@@PAVfms_config_item_t@@@std@@@std@@@std@@@2@XZ 100328b0 f i fms_config.obj
 0001:000318e0       ?erase@?$_Tree@V?$_Tmap_traits@V?$basic_string@DU?$char_traits@D@std@@V?$allocator@D@2@@std@@MU?$less@V?$basic_string@DU?$char_traits@D@std@@V?$allocator@D@2@@std@@@2@V?$allocator@U?$pair@$$CBV?$basic_string@DU?$char_traits@D@std@@V?$allocator@D@2@@std@@M@std@@@2@$0A@@std@@@std@@QAE?AV?$_Tree_iterator@V?$_Tree_val@U?$_Tree_simple_types@U?$pair@$$CBV?$basic_string@DU?$char_traits@D@std@@V?$allocator@D@2@@std@@M@std@@@std@@@std@@@2@V?$_Tree_const_iterator@V?$_Tree_val@U?$_Tree_simple_types@U?$pair@$$CBV?$basic_string@DU?$char_traits@D@std@@V?$allocator@D@2@@std@@M@std@@@std@@@std@@@2@0@Z 100328e0 f i fms_config.obj
 0001:00031990       ?erase@?$_Tree@V?$_Tmap_traits@V?$basic_string@DU?$char_traits@D@std@@V?$allocator@D@2@@std@@MU?$less@V?$basic_string@DU?$char_traits@D@std@@V?$allocator@D@2@@std@@@2@V?$allocator@U?$pair@$$CBV?$basic_string@DU?$char_traits@D@std@@V?$allocator@D@2@@std@@M@std@@@2@$0A@@std@@@std@@QAE?AV?$_Tree_iterator@V?$_Tree_val@U?$_Tree_simple_types@U?$pair@$$CBV?$basic_string@DU?$char_traits@D@std@@V?$allocator@D@2@@std@@M@std@@@std@@@std@@@2@V?$_Tree_const_iterator@V?$_Tree_val@U?$_Tree_simple_types@U?$pair@$$CBV?$basic_string@DU?$char_traits@D@std@@V?$allocator@D@2@@std@@M@std@@@std@@@std@@@2@@Z 10032990 f i fms_config.obj
 0001:00032110       ?erase@?$_Tree@V?$_Tmap_traits@V?$basic_string@DU?$char_traits@D@std@@V?$allocator@D@2@@std@@PAVfms_config_item_t@@U?$less@V?$basic_string@DU?$char_traits@D@std@@V?$allocator@D@2@@std@@@2@V?$allocator@U?$pair@$$CBV?$basic_string@DU?$char_traits@D@std@@V?$allocator@D@2@@std@@PAVfms_config_item_t@@@std@@@2@$0A@@std@@@std@@QAE?AV?$_Tree_iterator@V?$_Tree_val@U?$_Tree_simple_types@U?$pair@$$CBV?$basic_string@DU?$char_traits@D@std@@V?$allocator@D@2@@std@@PAVfms_config_item_t@@@std@@@std@@@std@@@2@V?$_Tree_const_iterator@V?$_Tree_val@U?$_Tree_simple_types@U?$pair@$$CBV?$basic_string@DU?$char_traits@D@std@@V?$allocator@D@2@@std@@PAVfms_config_item_t@@@std@@@std@@@std@@@2@0@Z 10033110 f i fms_config.obj
 0001:000321c0       ?erase@?$_Tree@V?$_Tmap_traits@V?$basic_string@DU?$char_traits@D@std@@V?$allocator@D@2@@std@@PAVfms_config_item_t@@U?$less@V?$basic_string@DU?$char_traits@D@std@@V?$allocator@D@2@@std@@@2@V?$allocator@U?$pair@$$CBV?$basic_string@DU?$char_traits@D@std@@V?$allocator@D@2@@std@@PAVfms_config_item_t@@@std@@@2@$0A@@std@@@std@@QAE?AV?$_Tree_iterator@V?$_Tree_val@U?$_Tree_simple_types@U?$pair@$$CBV?$basic_string@DU?$char_traits@D@std@@V?$allocator@D@2@@std@@PAVfms_config_item_t@@@std@@@std@@@std@@@2@V?$_Tree_const_iterator@V?$_Tree_val@U?$_Tree_simple_types@U?$pair@$$CBV?$basic_string@DU?$char_traits@D@std@@V?$allocator@D@2@@std@@PAVfms_config_item_t@@@std@@@std@@@std@@@2@@Z 100331c0 f i fms_config.obj
 0001:00032940       ?lower_bound@?$_Tree@V?$_Tmap_traits@HMU?$less@H@std@@V?$allocator@U?$pair@$$CBHM@std@@@2@$0A@@std@@@std@@QAE?AV?$_Tree_iterator@V?$_Tree_val@U?$_Tree_simple_types@U?$pair@$$CBHM@std@@@std@@@std@@@2@ABH@Z 10033940 f i fms_config.obj
 0001:00032970       ?lower_bound@?$_Tree@V?$_Tmap_traits@V?$basic_string@DU?$char_traits@D@std@@V?$allocator@D@2@@std@@PAVfms_config_item_t@@U?$less@V?$basic_string@DU?$char_traits@D@std@@V?$allocator@D@2@@std@@@2@V?$allocator@U?$pair@$$CBV?$basic_string@DU?$char_traits@D@std@@V?$allocator@D@2@@std@@PAVfms_config_item_t@@@std@@@2@$0A@@std@@@std@@QAE?AV?$_Tree_iterator@V?$_Tree_val@U?$_Tree_simple_types@U?$pair@$$CBV?$basic_string@DU?$char_traits@D@std@@V?$allocator@D@2@@std@@PAVfms_config_item_t@@@std@@@std@@@std@@@2@ABV?$basic_string@DU?$char_traits@D@std@@V?$allocator@D@2@@2@@Z 10033970 f i fms_config.obj
 0001:000329a0       ?max_size@?$_Tree@V?$_Tmap_traits@HMU?$less@H@std@@V?$allocator@U?$pair@$$CBHM@std@@@2@$0A@@std@@@std@@QBEIXZ 100339a0 f i fms_config.obj
 0001:000329c0       ?max_size@?$_Tree@V?$_Tmap_traits@V?$basic_string@DU?$char_traits@D@std@@V?$allocator@D@2@@std@@PAVfms_config_item_t@@U?$less@V?$basic_string@DU?$char_traits@D@std@@V?$allocator@D@2@@std@@@2@V?$allocator@U?$pair@$$CBV?$basic_string@DU?$char_traits@D@std@@V?$allocator@D@2@@std@@PAVfms_config_item_t@@@std@@@2@$0A@@std@@@std@@QBEIXZ 100339c0 f i fms_config.obj
 0001:000329e0       ?max_size@?$_Wrap_alloc@V?$allocator@U?$_Tree_node@U?$pair@$$CBHM@std@@PAX@std@@@std@@@std@@QBEIXZ 100339e0 f i fms_config.obj
 0001:00032a00       ?max_size@?$_Wrap_alloc@V?$allocator@U?$_Tree_node@U?$pair@$$CBV?$basic_string@DU?$char_traits@D@std@@V?$allocator@D@2@@std@@PAVfms_config_item_t@@@std@@PAX@std@@@std@@@std@@QBEIXZ 10033a00 f i fms_config.obj
 0001:00032a20       ?max_size@?$allocator@U?$_Tree_node@U?$pair@$$CBHM@std@@PAX@std@@@std@@QBEIXZ 10033a20 f i fms_config.obj
 0001:00032a30       ?max_size@?$allocator@U?$_Tree_node@U?$pair@$$CBV?$basic_string@DU?$char_traits@D@std@@V?$allocator@D@2@@std@@PAVfms_config_item_t@@@std@@PAX@std@@@std@@QBEIXZ 10033a30 f i fms_config.obj
 0001:00032a40       ?max_size@?$allocator_traits@V?$allocator@U?$_Tree_node@U?$pair@$$CBHM@std@@PAX@std@@@std@@@std@@SAIABV?$allocator@U?$_Tree_node@U?$pair@$$CBHM@std@@PAX@std@@@2@@Z 10033a40 f i fms_config.obj
 0001:00032a50       ?max_size@?$allocator_traits@V?$allocator@U?$_Tree_node@U?$pair@$$CBV?$basic_string@DU?$char_traits@D@std@@V?$allocator@D@2@@std@@PAVfms_config_item_t@@@std@@PAX@std@@@std@@@std@@SAIABV?$allocator@U?$_Tree_node@U?$pair@$$CBV?$basic_string@DU?$char_traits@D@std@@V?$allocator@D@2@@std@@PAVfms_config_item_t@@@std@@PAX@std@@@2@@Z 10033a50 f i fms_config.obj
 0001:00032a60       ?pointer_to@?$pointer_traits@PAU?$pair@$$CBHM@std@@@std@@SAPAU?$pair@$$CBHM@2@AAU32@@Z 10033a60 f i fms_config.obj
 0001:00032a80       ?pointer_to@?$pointer_traits@PAU?$pair@$$CBV?$basic_string@DU?$char_traits@D@std@@V?$allocator@D@2@@std@@PAVfms_config_item_t@@@std@@@std@@SAPAU?$pair@$$CBV?$basic_string@DU?$char_traits@D@std@@V?$allocator@D@2@@std@@PAVfms_config_item_t@@@2@AAU32@@Z 10033a80 f i fms_config.obj
 0001:00032aa0       ?size@?$_Tree@V?$_Tmap_traits@HMU?$less@H@std@@V?$allocator@U?$pair@$$CBHM@std@@@2@$0A@@std@@@std@@QBEIXZ 10033aa0 f i fms_config.obj
 0001:00032ac0       ?size@?$_Tree@V?$_Tmap_traits@V?$basic_string@DU?$char_traits@D@std@@V?$allocator@D@2@@std@@PAVfms_config_item_t@@U?$less@V?$basic_string@DU?$char_traits@D@std@@V?$allocator@D@2@@std@@@2@V?$allocator@U?$pair@$$CBV?$basic_string@DU?$char_traits@D@std@@V?$allocator@D@2@@std@@PAVfms_config_item_t@@@std@@@2@$0A@@std@@@std@@QBEIXZ 10033ac0 f i fms_config.obj
 0001:00032ae0       ??0fms_fuel_t@@QAE@XZ      10033ae0 f   fms_fuel.obj
 0001:00032b10       ??0fms_fuel_t@@QAE@PAVfms_config_t@@@Z 10033b10 f   fms_fuel.obj
 0001:00032b60       ??1fms_fuel_t@@QAE@XZ      10033b60 f   fms_fuel.obj
 0001:00032b70       ?load@fms_fuel_t@@QAEXXZ   10033b70 f   fms_fuel.obj
 0001:00032ba0       ?remaining@fms_fuel_t@@QAE?AV?$basic_string@DU?$char_traits@D@std@@V?$allocator@D@2@@std@@XZ 10033ba0 f   fms_fuel.obj
 0001:00032ca0       ?fuel_flow@fms_fuel_t@@QAEMXZ 10033ca0 f   fms_fuel.obj
 0001:00032d00       ?num_engines@fms_fuel_t@@AAEHXZ 10033d00 f   fms_fuel.obj
 0001:00032d50       ?lb_to_load@fms_fuel_t@@AAEMXZ 10033d50 f   fms_fuel.obj
 0001:00032fa0       ?fuel_on_board@fms_fuel_t@@AAEMXZ 10033fa0 f   fms_fuel.obj
 0001:00033000       ??0fms_fp_t@@QAE@XZ        10034000 f   fms_fp.obj
 0001:00033050       ??0fms_fp_t@@QAE@PAVfms_config_t@@@Z 10034050 f   fms_fp.obj
 0001:00033130       ??1fms_fp_t@@QAE@XZ        10034130 f   fms_fp.obj
 0001:00033180       ?load@fms_fp_t@@QAEXXZ     10034180 f   fms_fp.obj
 0001:00033d70       ?status2string@fms_fp_t@@QAE?AV?$basic_string@DU?$char_traits@D@std@@V?$allocator@D@2@@std@@H@Z 10034d70 f   fms_fp.obj
 0001:00033eb0       ?has_changed@fms_fp_t@@QAEHV?$basic_string@DU?$char_traits@D@std@@V?$allocator@D@2@@std@@@Z 10034eb0 f   fms_fp.obj
 0001:00034200       ?update_expected_time@fms_fp_t@@QAEXM@Z 10035200 f   fms_fp.obj
 0001:00034300       ?save@fms_fp_t@@AAEXXZ     10035300 f   fms_fp.obj
 0001:00034770       ?num_entries@fms_fp_t@@AAEHXZ 10035770 f   fms_fp.obj
 0001:00034790       ?load_entry@fms_fp_t@@AAEXHPAVfms_fp_item_t@@@Z 10035790 f   fms_fp.obj
 0001:000348d0       ?load_entry_type@fms_fp_t@@AAE?AV?$basic_string@DU?$char_traits@D@std@@V?$allocator@D@2@@std@@H@Z 100358d0 f   fms_fp.obj
 0001:000349f0       ?load_cache@fms_fp_t@@AAEXPAVfms_fp_item_t@@@Z 100359f0 f   fms_fp.obj
 0001:00034ad0       ?load_distance@fms_fp_t@@AAEXPAVfms_fp_item_t@@0@Z 10035ad0 f   fms_fp.obj
 0001:00034ba0       ?load_flight_status@fms_fp_t@@AAEXPAVfms_fp_item_t@@@Z 10035ba0 f   fms_fp.obj
 0001:00034ce0       ?load_time@fms_fp_t@@AAEXPAVfms_fp_item_t@@0@Z 10035ce0 f   fms_fp.obj
 0001:00035770       ?distance_between@fms_fp_t@@AAEMPAVfms_fp_item_t@@0H@Z 10036770 f   fms_fp.obj
 0001:00035870       ?calculate_distance@fms_fp_t@@AAENNNNNH@Z 10036870 f   fms_fp.obj
 0001:00035a40       ??0fms_fp_item_t@@QAE@XZ   10036a40 f   fms_fp.obj
 0001:00035bb0       ??$?0AAV?$_Tree_iterator@V?$_Tree_val@U?$_Tree_simple_types@U?$pair@$$CBV?$basic_string@DU?$char_traits@D@std@@V?$allocator@D@2@@std@@PAVfms_fp_item_t@@@std@@@std@@@std@@@std@@_NX@?$pair@V?$_Tree_iterator@V?$_Tree_val@U?$_Tree_simple_types@U?$pair@$$CBV?$basic_string@DU?$char_traits@D@std@@V?$allocator@D@2@@std@@PAVfms_fp_item_t@@@std@@@std@@@std@@@std@@_N@std@@QAE@AAV?$_Tree_iterator@V?$_Tree_val@U?$_Tree_simple_types@U?$pair@$$CBV?$basic_string@DU?$char_traits@D@std@@V?$allocator@D@2@@std@@PAVfms_fp_item_t@@@std@@@std@@@std@@@1@$$QA_N@Z 10036bb0 f i fms_fp.obj
 0001:00035bf0       ??$?0ABV?$basic_string@DU?$char_traits@D@std@@V?$allocator@D@2@@std@@$$$V@?$pair@$$CBV?$basic_string@DU?$char_traits@D@std@@V?$allocator@D@2@@std@@PAVfms_fp_item_t@@@std@@QAE@Upiecewise_construct_t@1@V?$tuple@ABV?$basic_string@DU?$char_traits@D@std@@V?$allocator@D@2@@std@@@1@V?$tuple@$$$V@1@@Z 10036bf0 f i fms_fp.obj
 0001:00035c30       ??$?0V?$_Tree_iterator@V?$_Tree_val@U?$_Tree_simple_types@U?$pair@$$CBV?$basic_string@DU?$char_traits@D@std@@V?$allocator@D@2@@std@@PAVfms_fp_item_t@@@std@@@std@@@std@@@std@@_NX@?$pair@V?$_Tree_iterator@V?$_Tree_val@U?$_Tree_simple_types@U?$pair@$$CBV?$basic_string@DU?$char_traits@D@std@@V?$allocator@D@2@@std@@PAVfms_fp_item_t@@@std@@@std@@@std@@@std@@_N@std@@QAE@$$QAV?$_Tree_iterator@V?$_Tree_val@U?$_Tree_simple_types@U?$pair@$$CBV?$basic_string@DU?$char_traits@D@std@@V?$allocator@D@2@@std@@PAVfms_fp_item_t@@@std@@@std@@@std@@@1@$$QA_N@Z 10036c30 f i fms_fp.obj
 0001:00035c70       ??$?0V?$tuple@ABV?$basic_string@DU?$char_traits@D@std@@V?$allocator@D@2@@std@@@std@@V?$tuple@$$$V@1@$0A@$S@?$pair@$$CBV?$basic_string@DU?$char_traits@D@std@@V?$allocator@D@2@@std@@PAVfms_fp_item_t@@@std@@QAE@AAV?$tuple@ABV?$basic_string@DU?$char_traits@D@std@@V?$allocator@D@2@@std@@@1@AAV?$tuple@$$$V@1@U?$_Arg_idx@$0A@@1@U?$_Arg_idx@$S@1@@Z 10036c70 f i fms_fp.obj
 0001:00035cb0       ??$_Allocate@U?$_Tree_node@U?$pair@$$CBV?$basic_string@DU?$char_traits@D@std@@V?$allocator@D@2@@std@@PAVfms_fp_item_t@@@std@@PAX@std@@@std@@YAPAU?$_Tree_node@U?$pair@$$CBV?$basic_string@DU?$char_traits@D@std@@V?$allocator@D@2@@std@@PAVfms_fp_item_t@@@std@@PAX@0@IPAU10@@Z 10036cb0 f i fms_fp.obj
 0001:00035cf0       ??$_Buynode@ABUpiecewise_construct_t@std@@V?$tuple@ABV?$basic_string@DU?$char_traits@D@std@@V?$allocator@D@2@@std@@@2@V?$tuple@$$$V@2@@?$_Tree_buy@U?$pair@$$CBV?$basic_string@DU?$char_traits@D@std@@V?$allocator@D@2@@std@@PAVfms_fp_item_t@@@std@@V?$allocator@U?$pair@$$CBV?$basic_string@DU?$char_traits@D@std@@V?$allocator@D@2@@std@@PAVfms_fp_item_t@@@std@@@2@@std@@QAEPAU?$_Tree_node@U?$pair@$$CBV?$basic_string@DU?$char_traits@D@std@@V?$allocator@D@2@@std@@PAVfms_fp_item_t@@@std@@PAX@1@ABUpiecewise_construct_t@1@$$QAV?$tuple@ABV?$basic_string@DU?$char_traits@D@std@@V?$allocator@D@2@@std@@@1@$$QAV?$tuple@$$$V@1@@Z 10036cf0 f i fms_fp.obj
 0001:00035df0       ??$_Buynode_if_nil@AAU?$pair@$$CBV?$basic_string@DU?$char_traits@D@std@@V?$allocator@D@2@@std@@PAVfms_fp_item_t@@@std@@@?$_Tree@V?$_Tmap_traits@V?$basic_string@DU?$char_traits@D@std@@V?$allocator@D@2@@std@@PAVfms_fp_item_t@@U?$less@V?$basic_string@DU?$char_traits@D@std@@V?$allocator@D@2@@std@@@2@V?$allocator@U?$pair@$$CBV?$basic_string@DU?$char_traits@D@std@@V?$allocator@D@2@@std@@PAVfms_fp_item_t@@@std@@@2@$0A@@std@@@std@@IAEPAU?$_Tree_node@U?$pair@$$CBV?$basic_string@DU?$char_traits@D@std@@V?$allocator@D@2@@std@@PAVfms_fp_item_t@@@std@@PAX@1@PAU21@AAU?$pair@$$CBV?$basic_string@DU?$char_traits@D@std@@V?$allocator@D@2@@std@@PAVfms_fp_item_t@@@1@@Z 10036df0 f i fms_fp.obj
 0001:00035e00       ??$_Insert_at@AAU?$pair@$$CBV?$basic_string@DU?$char_traits@D@std@@V?$allocator@D@2@@std@@PAVfms_fp_item_t@@@std@@PAU?$_Tree_node@U?$pair@$$CBV?$basic_string@DU?$char_traits@D@std@@V?$allocator@D@2@@std@@PAVfms_fp_item_t@@@std@@PAX@2@@?$_Tree@V?$_Tmap_traits@V?$basic_string@DU?$char_traits@D@std@@V?$allocator@D@2@@std@@PAVfms_fp_item_t@@U?$less@V?$basic_string@DU?$char_traits@D@std@@V?$allocator@D@2@@std@@@2@V?$allocator@U?$pair@$$CBV?$basic_string@DU?$char_traits@D@std@@V?$allocator@D@2@@std@@PAVfms_fp_item_t@@@std@@@2@$0A@@std@@@std@@IAE?AV?$_Tree_iterator@V?$_Tree_val@U?$_Tree_simple_types@U?$pair@$$CBV?$basic_string@DU?$char_traits@D@std@@V?$allocator@D@2@@std@@PAVfms_fp_item_t@@@std@@@std@@@std@@@1@_NPAU?$_Tree_node@U?$pair@$$CBV?$basic_string@DU?$char_traits@D@std@@V?$allocator@D@2@@std@@PAVfms_fp_item_t@@@std@@PAX@1@AAU?$pair@$$CBV?$basic_string@DU?$char_traits@D@std@@V?$allocator@D@2@@std@@PAVfms_fp_item_t@@@1@1@Z 10036e00 f i fms_fp.obj
 0001:00036230       ??$_Insert_hint@AAU?$pair@$$CBV?$basic_string@DU?$char_traits@D@std@@V?$allocator@D@2@@std@@PAVfms_fp_item_t@@@std@@PAU?$_Tree_node@U?$pair@$$CBV?$basic_string@DU?$char_traits@D@std@@V?$allocator@D@2@@std@@PAVfms_fp_item_t@@@std@@PAX@2@@?$_Tree@V?$_Tmap_traits@V?$basic_string@DU?$char_traits@D@std@@V?$allocator@D@2@@std@@PAVfms_fp_item_t@@U?$less@V?$basic_string@DU?$char_traits@D@std@@V?$allocator@D@2@@std@@@2@V?$allocator@U?$pair@$$CBV?$basic_string@DU?$char_traits@D@std@@V?$allocator@D@2@@std@@PAVfms_fp_item_t@@@std@@@2@$0A@@std@@@std@@IAE?AV?$_Tree_iterator@V?$_Tree_val@U?$_Tree_simple_types@U?$pair@$$CBV?$basic_string@DU?$char_traits@D@std@@V?$allocator@D@2@@std@@PAVfms_fp_item_t@@@std@@@std@@@std@@@1@V?$_Tree_const_iterator@V?$_Tree_val@U?$_Tree_simple_types@U?$pair@$$CBV?$basic_string@DU?$char_traits@D@std@@V?$allocator@D@2@@std@@PAVfms_fp_item_t@@@std@@@std@@@std@@@1@AAU?$pair@$$CBV?$basic_string@DU?$char_traits@D@std@@V?$allocator@D@2@@std@@PAVfms_fp_item_t@@@1@PAU?$_Tree_node@U?$pair@$$CBV?$basic_string@DU?$char_traits@D@std@@V?$allocator@D@2@@std@@PAVfms_fp_item_t@@@std@@PAX@1@@Z 10037230 f i fms_fp.obj
 0001:000369e0       ??$_Insert_nohint@AAU?$pair@$$CBV?$basic_string@DU?$char_traits@D@std@@V?$allocator@D@2@@std@@PAVfms_fp_item_t@@@std@@PAU?$_Tree_node@U?$pair@$$CBV?$basic_string@DU?$char_traits@D@std@@V?$allocator@D@2@@std@@PAVfms_fp_item_t@@@std@@PAX@2@@?$_Tree@V?$_Tmap_traits@V?$basic_string@DU?$char_traits@D@std@@V?$allocator@D@2@@std@@PAVfms_fp_item_t@@U?$less@V?$basic_string@DU?$char_traits@D@std@@V?$allocator@D@2@@std@@@2@V?$allocator@U?$pair@$$CBV?$basic_string@DU?$char_traits@D@std@@V?$allocator@D@2@@std@@PAVfms_fp_item_t@@@std@@@2@$0A@@std@@@std@@IAE?AU?$pair@V?$_Tree_iterator@V?$_Tree_val@U?$_Tree_simple_types@U?$pair@$$CBV?$basic_string@DU?$char_traits@D@std@@V?$allocator@D@2@@std@@PAVfms_fp_item_t@@@std@@@std@@@std@@@std@@_N@1@_NAAU?$pair@$$CBV?$basic_string@DU?$char_traits@D@std@@V?$allocator@D@2@@std@@PAVfms_fp_item_t@@@1@PAU?$_Tree_node@U?$pair@$$CBV?$basic_string@DU?$char_traits@D@std@@V?$allocator@D@2@@std@@PAVfms_fp_item_t@@@std@@PAX@1@@Z 100379e0 f i fms_fp.obj
 0001:00036cb0       ??$_Kfn@$$CBV?$basic_string@DU?$char_traits@D@std@@V?$allocator@D@2@@std@@PAVfms_fp_item_t@@@?$_Tmap_traits@V?$basic_string@DU?$char_traits@D@std@@V?$allocator@D@2@@std@@PAVfms_fp_item_t@@U?$less@V?$basic_string@DU?$char_traits@D@std@@V?$allocator@D@2@@std@@@2@V?$allocator@U?$pair@$$CBV?$basic_string@DU?$char_traits@D@std@@V?$allocator@D@2@@std@@PAVfms_fp_item_t@@@std@@@2@$0A@@std@@SAABV?$basic_string@DU?$char_traits@D@std@@V?$allocator@D@2@@1@ABU?$pair@$$CBV?$basic_string@DU?$char_traits@D@std@@V?$allocator@D@2@@std@@PAVfms_fp_item_t@@@1@@Z 10037cb0 f i fms_fp.obj
 0001:00036cc0       ??$addressof@PAU?$_Tree_node@U?$pair@$$CBV?$basic_string@DU?$char_traits@D@std@@V?$allocator@D@2@@std@@PAVfms_fp_item_t@@@std@@PAX@std@@@std@@YAPAPAU?$_Tree_node@U?$pair@$$CBV?$basic_string@DU?$char_traits@D@std@@V?$allocator@D@2@@std@@PAVfms_fp_item_t@@@std@@PAX@0@AAPAU10@@Z 10037cc0 f i fms_fp.obj
 0001:00036cd0       ??$addressof@U?$pair@$$CBV?$basic_string@DU?$char_traits@D@std@@V?$allocator@D@2@@std@@PAVfms_fp_item_t@@@std@@@std@@YAPAU?$pair@$$CBV?$basic_string@DU?$char_traits@D@std@@V?$allocator@D@2@@std@@PAVfms_fp_item_t@@@0@AAU10@@Z 10037cd0 f i fms_fp.obj
 0001:00036ce0       ??$construct@PAU?$_Tree_node@U?$pair@$$CBV?$basic_string@DU?$char_traits@D@std@@V?$allocator@D@2@@std@@PAVfms_fp_item_t@@@std@@PAX@std@@AAPAU12@@?$_Wrap_alloc@V?$allocator@U?$_Tree_node@U?$pair@$$CBV?$basic_string@DU?$char_traits@D@std@@V?$allocator@D@2@@std@@PAVfms_fp_item_t@@@std@@PAX@std@@@std@@@std@@QAEXPAPAU?$_Tree_node@U?$pair@$$CBV?$basic_string@DU?$char_traits@D@std@@V?$allocator@D@2@@std@@PAVfms_fp_item_t@@@std@@PAX@1@AAPAU21@@Z 10037ce0 f i fms_fp.obj
 0001:00036d10       ??$construct@PAU?$_Tree_node@U?$pair@$$CBV?$basic_string@DU?$char_traits@D@std@@V?$allocator@D@2@@std@@PAVfms_fp_item_t@@@std@@PAX@std@@AAPAU12@@?$allocator@U?$_Tree_node@U?$pair@$$CBV?$basic_string@DU?$char_traits@D@std@@V?$allocator@D@2@@std@@PAVfms_fp_item_t@@@std@@PAX@std@@@std@@QAEXPAPAU?$_Tree_node@U?$pair@$$CBV?$basic_string@DU?$char_traits@D@std@@V?$allocator@D@2@@std@@PAVfms_fp_item_t@@@std@@PAX@1@AAPAU21@@Z 10037d10 f i fms_fp.obj
 0001:00036d60       ??$construct@PAU?$_Tree_node@U?$pair@$$CBV?$basic_string@DU?$char_traits@D@std@@V?$allocator@D@2@@std@@PAVfms_fp_item_t@@@std@@PAX@std@@AAPAU12@@?$allocator_traits@V?$allocator@U?$_Tree_node@U?$pair@$$CBV?$basic_string@DU?$char_traits@D@std@@V?$allocator@D@2@@std@@PAVfms_fp_item_t@@@std@@PAX@std@@@std@@@std@@SAXAAV?$allocator@U?$_Tree_node@U?$pair@$$CBV?$basic_string@DU?$char_traits@D@std@@V?$allocator@D@2@@std@@PAVfms_fp_item_t@@@std@@PAX@std@@@1@PAPAU?$_Tree_node@U?$pair@$$CBV?$basic_string@DU?$char_traits@D@std@@V?$allocator@D@2@@std@@PAVfms_fp_item_t@@@std@@PAX@1@AAPAU31@@Z 10037d60 f i fms_fp.obj
 0001:00036d80       ??$construct@U?$pair@$$CBV?$basic_string@DU?$char_traits@D@std@@V?$allocator@D@2@@std@@PAVfms_fp_item_t@@@std@@ABUpiecewise_construct_t@2@V?$tuple@ABV?$basic_string@DU?$char_traits@D@std@@V?$allocator@D@2@@std@@@2@V?$tuple@$$$V@2@@?$_Wrap_alloc@V?$allocator@U?$_Tree_node@U?$pair@$$CBV?$basic_string@DU?$char_traits@D@std@@V?$allocator@D@2@@std@@PAVfms_fp_item_t@@@std@@PAX@std@@@std@@@std@@QAEXPAU?$pair@$$CBV?$basic_string@DU?$char_traits@D@std@@V?$allocator@D@2@@std@@PAVfms_fp_item_t@@@1@ABUpiecewise_construct_t@1@$$QAV?$tuple@ABV?$basic_string@DU?$char_traits@D@std@@V?$allocator@D@2@@std@@@1@$$QAV?$tuple@$$$V@1@@Z 10037d80 f i fms_fp.obj
 0001:00036dd0       ??$construct@U?$pair@$$CBV?$basic_string@DU?$char_traits@D@std@@V?$allocator@D@2@@std@@PAVfms_fp_item_t@@@std@@ABUpiecewise_construct_t@2@V?$tuple@ABV?$basic_string@DU?$char_traits@D@std@@V?$allocator@D@2@@std@@@2@V?$tuple@$$$V@2@@?$allocator@U?$_Tree_node@U?$pair@$$CBV?$basic_string@DU?$char_traits@D@std@@V?$allocator@D@2@@std@@PAVfms_fp_item_t@@@std@@PAX@std@@@std@@QAEXPAU?$pair@$$CBV?$basic_string@DU?$char_traits@D@std@@V?$allocator@D@2@@std@@PAVfms_fp_item_t@@@1@ABUpiecewise_construct_t@1@$$QAV?$tuple@ABV?$basic_string@DU?$char_traits@D@std@@V?$allocator@D@2@@std@@@1@$$QAV?$tuple@$$$V@1@@Z 10037dd0 f i fms_fp.obj
 0001:00036e40       ??$construct@U?$pair@$$CBV?$basic_string@DU?$char_traits@D@std@@V?$allocator@D@2@@std@@PAVfms_fp_item_t@@@std@@ABUpiecewise_construct_t@2@V?$tuple@ABV?$basic_string@DU?$char_traits@D@std@@V?$allocator@D@2@@std@@@2@V?$tuple@$$$V@2@@?$allocator_traits@V?$allocator@U?$_Tree_node@U?$pair@$$CBV?$basic_string@DU?$char_traits@D@std@@V?$allocator@D@2@@std@@PAVfms_fp_item_t@@@std@@PAX@std@@@std@@@std@@SAXAAV?$allocator@U?$_Tree_node@U?$pair@$$CBV?$basic_string@DU?$char_traits@D@std@@V?$allocator@D@2@@std@@PAVfms_fp_item_t@@@std@@PAX@std@@@1@PAU?$pair@$$CBV?$basic_string@DU?$char_traits@D@std@@V?$allocator@D@2@@std@@PAVfms_fp_item_t@@@1@ABUpiecewise_construct_t@1@$$QAV?$tuple@ABV?$basic_string@DU?$char_traits@D@std@@V?$allocator@D@2@@std@@@1@$$QAV?$tuple@$$$V@1@@Z 10037e40 f i fms_fp.obj
 0001:00036e80       ??$destroy@PAU?$_Tree_node@U?$pair@$$CBV?$basic_string@DU?$char_traits@D@std@@V?$allocator@D@2@@std@@PAVfms_fp_item_t@@@std@@PAX@std@@@?$_Wrap_alloc@V?$allocator@U?$_Tree_node@U?$pair@$$CBV?$basic_string@DU?$char_traits@D@std@@V?$allocator@D@2@@std@@PAVfms_fp_item_t@@@std@@PAX@std@@@std@@@std@@QAEXPAPAU?$_Tree_node@U?$pair@$$CBV?$basic_string@DU?$char_traits@D@std@@V?$allocator@D@2@@std@@PAVfms_fp_item_t@@@std@@PAX@1@@Z 10037e80 f i fms_fp.obj
 0001:00036ea0       ??$destroy@PAU?$_Tree_node@U?$pair@$$CBV?$basic_string@DU?$char_traits@D@std@@V?$allocator@D@2@@std@@PAVfms_fp_item_t@@@std@@PAX@std@@@?$allocator@U?$_Tree_node@U?$pair@$$CBV?$basic_string@DU?$char_traits@D@std@@V?$allocator@D@2@@std@@PAVfms_fp_item_t@@@std@@PAX@std@@@std@@QAEXPAPAU?$_Tree_node@U?$pair@$$CBV?$basic_string@DU?$char_traits@D@std@@V?$allocator@D@2@@std@@PAVfms_fp_item_t@@@std@@PAX@1@@Z 10037ea0 f i fms_fp.obj
 0001:00036eb0       ??$destroy@PAU?$_Tree_node@U?$pair@$$CBV?$basic_string@DU?$char_traits@D@std@@V?$allocator@D@2@@std@@PAVfms_fp_item_t@@@std@@PAX@std@@@?$allocator_traits@V?$allocator@U?$_Tree_node@U?$pair@$$CBV?$basic_string@DU?$char_traits@D@std@@V?$allocator@D@2@@std@@PAVfms_fp_item_t@@@std@@PAX@std@@@std@@@std@@SAXAAV?$allocator@U?$_Tree_node@U?$pair@$$CBV?$basic_string@DU?$char_traits@D@std@@V?$allocator@D@2@@std@@PAVfms_fp_item_t@@@std@@PAX@std@@@1@PAPAU?$_Tree_node@U?$pair@$$CBV?$basic_string@DU?$char_traits@D@std@@V?$allocator@D@2@@std@@PAVfms_fp_item_t@@@std@@PAX@1@@Z 10037eb0 f i fms_fp.obj
 0001:00036ed0       ??$destroy@U?$pair@$$CBV?$basic_string@DU?$char_traits@D@std@@V?$allocator@D@2@@std@@PAVfms_fp_item_t@@@std@@@?$_Wrap_alloc@V?$allocator@U?$_Tree_node@U?$pair@$$CBV?$basic_string@DU?$char_traits@D@std@@V?$allocator@D@2@@std@@PAVfms_fp_item_t@@@std@@PAX@std@@@std@@@std@@QAEXPAU?$pair@$$CBV?$basic_string@DU?$char_traits@D@std@@V?$allocator@D@2@@std@@PAVfms_fp_item_t@@@1@@Z 10037ed0 f i fms_fp.obj
 0001:00036ef0       ??$destroy@U?$pair@$$CBV?$basic_string@DU?$char_traits@D@std@@V?$allocator@D@2@@std@@PAVfms_fp_item_t@@@std@@@?$allocator@U?$_Tree_node@U?$pair@$$CBV?$basic_string@DU?$char_traits@D@std@@V?$allocator@D@2@@std@@PAVfms_fp_item_t@@@std@@PAX@std@@@std@@QAEXPAU?$pair@$$CBV?$basic_string@DU?$char_traits@D@std@@V?$allocator@D@2@@std@@PAVfms_fp_item_t@@@1@@Z 10037ef0 f i fms_fp.obj
 0001:00036f10       ??$destroy@U?$pair@$$CBV?$basic_string@DU?$char_traits@D@std@@V?$allocator@D@2@@std@@PAVfms_fp_item_t@@@std@@@?$allocator_traits@V?$allocator@U?$_Tree_node@U?$pair@$$CBV?$basic_string@DU?$char_traits@D@std@@V?$allocator@D@2@@std@@PAVfms_fp_item_t@@@std@@PAX@std@@@std@@@std@@SAXAAV?$allocator@U?$_Tree_node@U?$pair@$$CBV?$basic_string@DU?$char_traits@D@std@@V?$allocator@D@2@@std@@PAVfms_fp_item_t@@@std@@PAX@std@@@1@PAU?$pair@$$CBV?$basic_string@DU?$char_traits@D@std@@V?$allocator@D@2@@std@@PAVfms_fp_item_t@@@1@@Z 10037f10 f i fms_fp.obj
 0001:00036f30       ??$emplace_hint@ABUpiecewise_construct_t@std@@V?$tuple@ABV?$basic_string@DU?$char_traits@D@std@@V?$allocator@D@2@@std@@@2@V?$tuple@$$$V@2@@?$_Tree@V?$_Tmap_traits@V?$basic_string@DU?$char_traits@D@std@@V?$allocator@D@2@@std@@PAVfms_fp_item_t@@U?$less@V?$basic_string@DU?$char_traits@D@std@@V?$allocator@D@2@@std@@@2@V?$allocator@U?$pair@$$CBV?$basic_string@DU?$char_traits@D@std@@V?$allocator@D@2@@std@@PAVfms_fp_item_t@@@std@@@2@$0A@@std@@@std@@QAE?AV?$_Tree_iterator@V?$_Tree_val@U?$_Tree_simple_types@U?$pair@$$CBV?$basic_string@DU?$char_traits@D@std@@V?$allocator@D@2@@std@@PAVfms_fp_item_t@@@std@@@std@@@std@@@1@V?$_Tree_const_iterator@V?$_Tree_val@U?$_Tree_simple_types@U?$pair@$$CBV?$basic_string@DU?$char_traits@D@std@@V?$allocator@D@2@@std@@PAVfms_fp_item_t@@@std@@@std@@@std@@@1@ABUpiecewise_construct_t@1@$$QAV?$tuple@ABV?$basic_string@DU?$char_traits@D@std@@V?$allocator@D@2@@std@@@1@$$QAV?$tuple@$$$V@1@@Z 10037f30 f i fms_fp.obj
 0001:00036fa0       ??$forward@AAPAU?$_Tree_node@U?$pair@$$CBV?$basic_string@DU?$char_traits@D@std@@V?$allocator@D@2@@std@@PAVfms_fp_item_t@@@std@@PAX@std@@@std@@YAAAPAU?$_Tree_node@U?$pair@$$CBV?$basic_string@DU?$char_traits@D@std@@V?$allocator@D@2@@std@@PAVfms_fp_item_t@@@std@@PAX@0@AAPAU10@@Z 10037fa0 f i fms_fp.obj
 0001:00036fb0       ??$forward@AAU?$pair@$$CBV?$basic_string@DU?$char_traits@D@std@@V?$allocator@D@2@@std@@PAVfms_fp_item_t@@@std@@@std@@YAAAU?$pair@$$CBV?$basic_string@DU?$char_traits@D@std@@V?$allocator@D@2@@std@@PAVfms_fp_item_t@@@0@AAU10@@Z 10037fb0 f i fms_fp.obj
 0001:00036fc0       ??$forward@AAV?$_Tree_iterator@V?$_Tree_val@U?$_Tree_simple_types@U?$pair@$$CBV?$basic_string@DU?$char_traits@D@std@@V?$allocator@D@2@@std@@PAVfms_fp_item_t@@@std@@@std@@@std@@@std@@@std@@YAAAV?$_Tree_iterator@V?$_Tree_val@U?$_Tree_simple_types@U?$pair@$$CBV?$basic_string@DU?$char_traits@D@std@@V?$allocator@D@2@@std@@PAVfms_fp_item_t@@@std@@@std@@@std@@@0@AAV10@@Z 10037fc0 f i fms_fp.obj
 0001:00036fd0       ??$forward@V?$_Tree_iterator@V?$_Tree_val@U?$_Tree_simple_types@U?$pair@$$CBV?$basic_string@DU?$char_traits@D@std@@V?$allocator@D@2@@std@@PAVfms_fp_item_t@@@std@@@std@@@std@@@std@@@std@@YA$$QAV?$_Tree_iterator@V?$_Tree_val@U?$_Tree_simple_types@U?$pair@$$CBV?$basic_string@DU?$char_traits@D@std@@V?$allocator@D@2@@std@@PAVfms_fp_item_t@@@std@@@std@@@std@@@0@AAV10@@Z 10037fd0 f i fms_fp.obj
 0001:00036fe0       ??0?$_Tree@V?$_Tmap_traits@HPAVfms_fp_item_t@@U?$less@H@std@@V?$allocator@U?$pair@$$CBHPAVfms_fp_item_t@@@std@@@3@$0A@@std@@@std@@QAE@ABU?$less@H@1@ABV?$allocator@U?$pair@$$CBHPAVfms_fp_item_t@@@std@@@1@@Z 10037fe0 f i fms_fp.obj
 0001:00037000       ??0?$_Tree@V?$_Tmap_traits@V?$basic_string@DU?$char_traits@D@std@@V?$allocator@D@2@@std@@PAVfms_fp_item_t@@U?$less@V?$basic_string@DU?$char_traits@D@std@@V?$allocator@D@2@@std@@@2@V?$allocator@U?$pair@$$CBV?$basic_string@DU?$char_traits@D@std@@V?$allocator@D@2@@std@@PAVfms_fp_item_t@@@std@@@2@$0A@@std@@@std@@QAE@ABU?$less@V?$basic_string@DU?$char_traits@D@std@@V?$allocator@D@2@@std@@@1@ABV?$allocator@U?$pair@$$CBV?$basic_string@DU?$char_traits@D@std@@V?$allocator@D@2@@std@@PAVfms_fp_item_t@@@std@@@1@@Z 10038000 f i fms_fp.obj
 0001:00037020       ??0?$_Tree_alloc@$0A@U?$_Tree_base_types@U?$pair@$$CBHPAVfms_fp_item_t@@@std@@V?$allocator@U?$pair@$$CBHPAVfms_fp_item_t@@@std@@@2@@std@@@std@@QAE@ABV?$allocator@U?$pair@$$CBHPAVfms_fp_item_t@@@std@@@1@@Z 10038020 f i fms_fp.obj
 0001:00037050       ??0?$_Tree_alloc@$0A@U?$_Tree_base_types@U?$pair@$$CBV?$basic_string@DU?$char_traits@D@std@@V?$allocator@D@2@@std@@PAVfms_fp_item_t@@@std@@V?$allocator@U?$pair@$$CBV?$basic_string@DU?$char_traits@D@std@@V?$allocator@D@2@@std@@PAVfms_fp_item_t@@@std@@@2@@std@@@std@@QAE@ABV?$allocator@U?$pair@$$CBV?$basic_string@DU?$char_traits@D@std@@V?$allocator@D@2@@std@@PAVfms_fp_item_t@@@std@@@1@@Z 10038050 f i fms_fp.obj
 0001:00037080       ??0?$_Tree_buy@U?$pair@$$CBHPAVfms_fp_item_t@@@std@@V?$allocator@U?$pair@$$CBHPAVfms_fp_item_t@@@std@@@2@@std@@QAE@ABV?$allocator@U?$pair@$$CBHPAVfms_fp_item_t@@@std@@@1@@Z 10038080 f i fms_fp.obj
 0001:000370a0       ??0?$_Tree_buy@U?$pair@$$CBV?$basic_string@DU?$char_traits@D@std@@V?$allocator@D@2@@std@@PAVfms_fp_item_t@@@std@@V?$allocator@U?$pair@$$CBV?$basic_string@DU?$char_traits@D@std@@V?$allocator@D@2@@std@@PAVfms_fp_item_t@@@std@@@2@@std@@QAE@ABV?$allocator@U?$pair@$$CBV?$basic_string@DU?$char_traits@D@std@@V?$allocator@D@2@@std@@PAVfms_fp_item_t@@@std@@@1@@Z 100380a0 f i fms_fp.obj
 0001:000370c0       ??0?$_Tree_comp@$0A@V?$_Tmap_traits@HPAVfms_fp_item_t@@U?$less@H@std@@V?$allocator@U?$pair@$$CBHPAVfms_fp_item_t@@@std@@@3@$0A@@std@@@std@@QAE@ABU?$less@H@1@ABV?$allocator@U?$pair@$$CBHPAVfms_fp_item_t@@@std@@@1@@Z 100380c0 f i fms_fp.obj
 0001:000370e0       ??0?$_Tree_comp@$0A@V?$_Tmap_traits@V?$basic_string@DU?$char_traits@D@std@@V?$allocator@D@2@@std@@PAVfms_fp_item_t@@U?$less@V?$basic_string@DU?$char_traits@D@std@@V?$allocator@D@2@@std@@@2@V?$allocator@U?$pair@$$CBV?$basic_string@DU?$char_traits@D@std@@V?$allocator@D@2@@std@@PAVfms_fp_item_t@@@std@@@2@$0A@@std@@@std@@QAE@ABU?$less@V?$basic_string@DU?$char_traits@D@std@@V?$allocator@D@2@@std@@@1@ABV?$allocator@U?$pair@$$CBV?$basic_string@DU?$char_traits@D@std@@V?$allocator@D@2@@std@@PAVfms_fp_item_t@@@std@@@1@@Z 100380e0 f i fms_fp.obj
 0001:00037100       ??0?$_Tree_const_iterator@V?$_Tree_val@U?$_Tree_simple_types@U?$pair@$$CBV?$basic_string@DU?$char_traits@D@std@@V?$allocator@D@2@@std@@PAVfms_fp_item_t@@@std@@@std@@@std@@@std@@QAE@PAU?$_Tree_node@U?$pair@$$CBV?$basic_string@DU?$char_traits@D@std@@V?$allocator@D@2@@std@@PAVfms_fp_item_t@@@std@@PAX@1@PBV?$_Tree_val@U?$_Tree_simple_types@U?$pair@$$CBV?$basic_string@DU?$char_traits@D@std@@V?$allocator@D@2@@std@@PAVfms_fp_item_t@@@std@@@std@@@1@@Z 10038100 f i fms_fp.obj
 0001:00037120       ??0?$_Tree_const_iterator@V?$_Tree_val@U?$_Tree_simple_types@U?$pair@$$CBV?$basic_string@DU?$char_traits@D@std@@V?$allocator@D@2@@std@@PAVfms_fp_item_t@@@std@@@std@@@std@@@std@@QAE@XZ 10038120 f i fms_fp.obj
 0001:00037140       ??0?$_Tree_iterator@V?$_Tree_val@U?$_Tree_simple_types@U?$pair@$$CBV?$basic_string@DU?$char_traits@D@std@@V?$allocator@D@2@@std@@PAVfms_fp_item_t@@@std@@@std@@@std@@@std@@QAE@PAU?$_Tree_node@U?$pair@$$CBV?$basic_string@DU?$char_traits@D@std@@V?$allocator@D@2@@std@@PAVfms_fp_item_t@@@std@@PAX@1@PBV?$_Tree_val@U?$_Tree_simple_types@U?$pair@$$CBV?$basic_string@DU?$char_traits@D@std@@V?$allocator@D@2@@std@@PAVfms_fp_item_t@@@std@@@std@@@1@@Z 10038140 f i fms_fp.obj
 0001:00037160       ??0?$_Tree_unchecked_const_iterator@V?$_Tree_val@U?$_Tree_simple_types@U?$pair@$$CBV?$basic_string@DU?$char_traits@D@std@@V?$allocator@D@2@@std@@PAVfms_fp_item_t@@@std@@@std@@@std@@U_Iterator_base0@2@@std@@QAE@PAU?$_Tree_node@U?$pair@$$CBV?$basic_string@DU?$char_traits@D@std@@V?$allocator@D@2@@std@@PAVfms_fp_item_t@@@std@@PAX@1@PBV?$_Tree_val@U?$_Tree_simple_types@U?$pair@$$CBV?$basic_string@DU?$char_traits@D@std@@V?$allocator@D@2@@std@@PAVfms_fp_item_t@@@std@@@std@@@1@@Z 10038160 f i fms_fp.obj
 0001:00037190       ??0?$_Tree_unchecked_const_iterator@V?$_Tree_val@U?$_Tree_simple_types@U?$pair@$$CBV?$basic_string@DU?$char_traits@D@std@@V?$allocator@D@2@@std@@PAVfms_fp_item_t@@@std@@@std@@@std@@U_Iterator_base0@2@@std@@QAE@XZ 10038190 f i fms_fp.obj
 0001:000371b0       ??0?$_Tree_val@U?$_Tree_simple_types@U?$pair@$$CBHPAVfms_fp_item_t@@@std@@@std@@@std@@QAE@XZ 100381b0 f i fms_fp.obj
 0001:000371e0       ??0?$_Tree_val@U?$_Tree_simple_types@U?$pair@$$CBV?$basic_string@DU?$char_traits@D@std@@V?$allocator@D@2@@std@@PAVfms_fp_item_t@@@std@@@std@@@std@@QAE@XZ 100381e0 f i fms_fp.obj
 0001:00037210       ??0?$_Wrap_alloc@V?$allocator@U?$_Tree_node@U?$pair@$$CBV?$basic_string@DU?$char_traits@D@std@@V?$allocator@D@2@@std@@PAVfms_fp_item_t@@@std@@PAX@std@@@std@@@std@@QAE@XZ 10038210 f i fms_fp.obj
 0001:00037230       ??0?$allocator@U?$_Tree_node@U?$pair@$$CBV?$basic_string@DU?$char_traits@D@std@@V?$allocator@D@2@@std@@PAVfms_fp_item_t@@@std@@PAX@std@@@std@@QAE@XZ 10038230 f i fms_fp.obj
 0001:00037240       ??0?$allocator@U?$pair@$$CBHPAVfms_fp_item_t@@@std@@@std@@QAE@XZ 10038240 f i fms_fp.obj
 0001:00037250       ??0?$allocator@U?$pair@$$CBV?$basic_string@DU?$char_traits@D@std@@V?$allocator@D@2@@std@@PAVfms_fp_item_t@@@std@@@std@@QAE@XZ 10038250 f i fms_fp.obj
 0001:00037260       ??0?$map@HPAVfms_fp_item_t@@U?$less@H@std@@V?$allocator@U?$pair@$$CBHPAVfms_fp_item_t@@@std@@@3@@std@@QAE@XZ 10038260 f i fms_fp.obj
 0001:00037290       ??0?$map@V?$basic_string@DU?$char_traits@D@std@@V?$allocator@D@2@@std@@PAVfms_fp_item_t@@U?$less@V?$basic_string@DU?$char_traits@D@std@@V?$allocator@D@2@@std@@@2@V?$allocator@U?$pair@$$CBV?$basic_string@DU?$char_traits@D@std@@V?$allocator@D@2@@std@@PAVfms_fp_item_t@@@std@@@2@@std@@QAE@XZ 10038290 f i fms_fp.obj
 0001:000372c0       ??1?$_Tree@V?$_Tmap_traits@HPAVfms_fp_item_t@@U?$less@H@std@@V?$allocator@U?$pair@$$CBHPAVfms_fp_item_t@@@std@@@3@$0A@@std@@@std@@QAE@XZ 100382c0 f i fms_fp.obj
 0001:000372e0       ??1?$_Tree@V?$_Tmap_traits@V?$basic_string@DU?$char_traits@D@std@@V?$allocator@D@2@@std@@PAVfms_fp_item_t@@U?$less@V?$basic_string@DU?$char_traits@D@std@@V?$allocator@D@2@@std@@@2@V?$allocator@U?$pair@$$CBV?$basic_string@DU?$char_traits@D@std@@V?$allocator@D@2@@std@@PAVfms_fp_item_t@@@std@@@2@$0A@@std@@@std@@QAE@XZ 100382e0 f i fms_fp.obj
 0001:00037300       ??1?$_Tree_alloc@$0A@U?$_Tree_base_types@U?$pair@$$CBHPAVfms_fp_item_t@@@std@@V?$allocator@U?$pair@$$CBHPAVfms_fp_item_t@@@std@@@2@@std@@@std@@QAE@XZ 10038300 f i fms_fp.obj
 0001:00037320       ??1?$_Tree_alloc@$0A@U?$_Tree_base_types@U?$pair@$$CBV?$basic_string@DU?$char_traits@D@std@@V?$allocator@D@2@@std@@PAVfms_fp_item_t@@@std@@V?$allocator@U?$pair@$$CBV?$basic_string@DU?$char_traits@D@std@@V?$allocator@D@2@@std@@PAVfms_fp_item_t@@@std@@@2@@std@@@std@@QAE@XZ 10038320 f i fms_fp.obj
 0001:00037340       ??1?$_Tree_buy@U?$pair@$$CBHPAVfms_fp_item_t@@@std@@V?$allocator@U?$pair@$$CBHPAVfms_fp_item_t@@@std@@@2@@std@@QAE@XZ 10038340 f i fms_fp.obj
 0001:00037360       ??1?$_Tree_buy@U?$pair@$$CBV?$basic_string@DU?$char_traits@D@std@@V?$allocator@D@2@@std@@PAVfms_fp_item_t@@@std@@V?$allocator@U?$pair@$$CBV?$basic_string@DU?$char_traits@D@std@@V?$allocator@D@2@@std@@PAVfms_fp_item_t@@@std@@@2@@std@@QAE@XZ 10038360 f i fms_fp.obj
 0001:00037380       ??1?$_Tree_comp@$0A@V?$_Tmap_traits@HPAVfms_fp_item_t@@U?$less@H@std@@V?$allocator@U?$pair@$$CBHPAVfms_fp_item_t@@@std@@@3@$0A@@std@@@std@@QAE@XZ 10038380 f i fms_fp.obj
 0001:000373a0       ??1?$_Tree_comp@$0A@V?$_Tmap_traits@V?$basic_string@DU?$char_traits@D@std@@V?$allocator@D@2@@std@@PAVfms_fp_item_t@@U?$less@V?$basic_string@DU?$char_traits@D@std@@V?$allocator@D@2@@std@@@2@V?$allocator@U?$pair@$$CBV?$basic_string@DU?$char_traits@D@std@@V?$allocator@D@2@@std@@PAVfms_fp_item_t@@@std@@@2@$0A@@std@@@std@@QAE@XZ 100383a0 f i fms_fp.obj
 0001:000373c0       ??1?$map@HPAVfms_fp_item_t@@U?$less@H@std@@V?$allocator@U?$pair@$$CBHPAVfms_fp_item_t@@@std@@@3@@std@@QAE@XZ 100383c0 f i fms_fp.obj
 0001:000373e0       ??1?$map@V?$basic_string@DU?$char_traits@D@std@@V?$allocator@D@2@@std@@PAVfms_fp_item_t@@U?$less@V?$basic_string@DU?$char_traits@D@std@@V?$allocator@D@2@@std@@@2@V?$allocator@U?$pair@$$CBV?$basic_string@DU?$char_traits@D@std@@V?$allocator@D@2@@std@@PAVfms_fp_item_t@@@std@@@2@@std@@QAE@XZ 100383e0 f i fms_fp.obj
 0001:00037400       ??1?$pair@$$CBV?$basic_string@DU?$char_traits@D@std@@V?$allocator@D@2@@std@@PAVfms_fp_item_t@@@std@@QAE@XZ 10038400 f i fms_fp.obj
 0001:00037420       ??8?$_Tree_const_iterator@V?$_Tree_val@U?$_Tree_simple_types@U?$pair@$$CBV?$basic_string@DU?$char_traits@D@std@@V?$allocator@D@2@@std@@PAVfms_fp_item_t@@@std@@@std@@@std@@@std@@QBE_NABV01@@Z 10038420 f i fms_fp.obj
 0001:00037450       ??9?$_Tree_const_iterator@V?$_Tree_val@U?$_Tree_simple_types@U?$pair@$$CBHPAVfms_fp_item_t@@@std@@@std@@@std@@@std@@QBE_NABV01@@Z 10038450 f i fms_fp.obj
 0001:00037490       ??9?$_Tree_const_iterator@V?$_Tree_val@U?$_Tree_simple_types@U?$pair@$$CBV?$basic_string@DU?$char_traits@D@std@@V?$allocator@D@2@@std@@PAVfms_fp_item_t@@@std@@@std@@@std@@@std@@QBE_NABV01@@Z 10038490 f i fms_fp.obj
 0001:000374d0       ??A?$map@V?$basic_string@DU?$char_traits@D@std@@V?$allocator@D@2@@std@@PAVfms_fp_item_t@@U?$less@V?$basic_string@DU?$char_traits@D@std@@V?$allocator@D@2@@std@@@2@V?$allocator@U?$pair@$$CBV?$basic_string@DU?$char_traits@D@std@@V?$allocator@D@2@@std@@PAVfms_fp_item_t@@@std@@@2@@std@@QAEAAPAVfms_fp_item_t@@ABV?$basic_string@DU?$char_traits@D@std@@V?$allocator@D@2@@1@@Z 100384d0 f i fms_fp.obj
 0001:00037580       ??C?$_Tree_iterator@V?$_Tree_val@U?$_Tree_simple_types@U?$pair@$$CBV?$basic_string@DU?$char_traits@D@std@@V?$allocator@D@2@@std@@PAVfms_fp_item_t@@@std@@@std@@@std@@@std@@QBEPAU?$pair@$$CBV?$basic_string@DU?$char_traits@D@std@@V?$allocator@D@2@@std@@PAVfms_fp_item_t@@@1@XZ 10038580 f i fms_fp.obj
 0001:000375a0       ??D?$_Tree_const_iterator@V?$_Tree_val@U?$_Tree_simple_types@U?$pair@$$CBV?$basic_string@DU?$char_traits@D@std@@V?$allocator@D@2@@std@@PAVfms_fp_item_t@@@std@@@std@@@std@@@std@@QBEABU?$pair@$$CBV?$basic_string@DU?$char_traits@D@std@@V?$allocator@D@2@@std@@PAVfms_fp_item_t@@@1@XZ 100385a0 f i fms_fp.obj
 0001:000375c0       ??D?$_Tree_iterator@V?$_Tree_val@U?$_Tree_simple_types@U?$pair@$$CBV?$basic_string@DU?$char_traits@D@std@@V?$allocator@D@2@@std@@PAVfms_fp_item_t@@@std@@@std@@@std@@@std@@QBEAAU?$pair@$$CBV?$basic_string@DU?$char_traits@D@std@@V?$allocator@D@2@@std@@PAVfms_fp_item_t@@@1@XZ 100385c0 f i fms_fp.obj
 0001:000375e0       ??E?$_Tree_const_iterator@V?$_Tree_val@U?$_Tree_simple_types@U?$pair@$$CBHPAVfms_fp_item_t@@@std@@@std@@@std@@@std@@QAE?AV01@H@Z 100385e0 f i fms_fp.obj
 0001:00037610       ??E?$_Tree_const_iterator@V?$_Tree_val@U?$_Tree_simple_types@U?$pair@$$CBV?$basic_string@DU?$char_traits@D@std@@V?$allocator@D@2@@std@@PAVfms_fp_item_t@@@std@@@std@@@std@@@std@@QAE?AV01@H@Z 10038610 f i fms_fp.obj
 0001:00037640       ??E?$_Tree_const_iterator@V?$_Tree_val@U?$_Tree_simple_types@U?$pair@$$CBV?$basic_string@DU?$char_traits@D@std@@V?$allocator@D@2@@std@@PAVfms_fp_item_t@@@std@@@std@@@std@@@std@@QAEAAV01@XZ 10038640 f i fms_fp.obj
 0001:00037660       ??E?$_Tree_iterator@V?$_Tree_val@U?$_Tree_simple_types@U?$pair@$$CBHPAVfms_fp_item_t@@@std@@@std@@@std@@@std@@QAEAAV01@XZ 10038660 f i fms_fp.obj
 0001:00037680       ??E?$_Tree_unchecked_const_iterator@V?$_Tree_val@U?$_Tree_simple_types@U?$pair@$$CBV?$basic_string@DU?$char_traits@D@std@@V?$allocator@D@2@@std@@PAVfms_fp_item_t@@@std@@@std@@@std@@U_Iterator_base0@2@@std@@QAEAAV01@XZ 10038680 f i fms_fp.obj
 0001:00037740       ??F?$_Tree_const_iterator@V?$_Tree_val@U?$_Tree_simple_types@U?$pair@$$CBV?$basic_string@DU?$char_traits@D@std@@V?$allocator@D@2@@std@@PAVfms_fp_item_t@@@std@@@std@@@std@@@std@@QAEAAV01@XZ 10038740 f i fms_fp.obj
 0001:00037760       ??F?$_Tree_iterator@V?$_Tree_val@U?$_Tree_simple_types@U?$pair@$$CBV?$basic_string@DU?$char_traits@D@std@@V?$allocator@D@2@@std@@PAVfms_fp_item_t@@@std@@@std@@@std@@@std@@QAEAAV01@XZ 10038760 f i fms_fp.obj
 0001:00037780       ??F?$_Tree_unchecked_const_iterator@V?$_Tree_val@U?$_Tree_simple_types@U?$pair@$$CBV?$basic_string@DU?$char_traits@D@std@@V?$allocator@D@2@@std@@PAVfms_fp_item_t@@@std@@@std@@@std@@U_Iterator_base0@2@@std@@QAEAAV01@XZ 10038780 f i fms_fp.obj
 0001:00037870       ??_G?$pair@$$CBV?$basic_string@DU?$char_traits@D@std@@V?$allocator@D@2@@std@@PAVfms_fp_item_t@@@std@@QAEPAXI@Z 10038870 f i fms_fp.obj
 0001:000378a0       ?_Buyheadnode@?$_Tree_alloc@$0A@U?$_Tree_base_types@U?$pair@$$CBHPAVfms_fp_item_t@@@std@@V?$allocator@U?$pair@$$CBHPAVfms_fp_item_t@@@std@@@2@@std@@@std@@QAEPAU?$_Tree_node@U?$pair@$$CBHPAVfms_fp_item_t@@@std@@PAX@2@XZ 100388a0 f i fms_fp.obj
 0001:000379f0       ?_Buyheadnode@?$_Tree_alloc@$0A@U?$_Tree_base_types@U?$pair@$$CBV?$basic_string@DU?$char_traits@D@std@@V?$allocator@D@2@@std@@PAVfms_fp_item_t@@@std@@V?$allocator@U?$pair@$$CBV?$basic_string@DU?$char_traits@D@std@@V?$allocator@D@2@@std@@PAVfms_fp_item_t@@@std@@@2@@std@@@std@@QAEPAU?$_Tree_node@U?$pair@$$CBV?$basic_string@DU?$char_traits@D@std@@V?$allocator@D@2@@std@@PAVfms_fp_item_t@@@std@@PAX@2@XZ 100389f0 f i fms_fp.obj
 0001:00037b40       ?_Buynode0@?$_Tree_buy@U?$pair@$$CBV?$basic_string@DU?$char_traits@D@std@@V?$allocator@D@2@@std@@PAVfms_fp_item_t@@@std@@V?$allocator@U?$pair@$$CBV?$basic_string@DU?$char_traits@D@std@@V?$allocator@D@2@@std@@PAVfms_fp_item_t@@@std@@@2@@std@@QAEPAU?$_Tree_node@U?$pair@$$CBV?$basic_string@DU?$char_traits@D@std@@V?$allocator@D@2@@std@@PAVfms_fp_item_t@@@std@@PAX@2@XZ 10038b40 f i fms_fp.obj
 0001:00037c70       ?_Color@?$_Tree_val@U?$_Tree_simple_types@U?$pair@$$CBV?$basic_string@DU?$char_traits@D@std@@V?$allocator@D@2@@std@@PAVfms_fp_item_t@@@std@@@std@@@std@@SAAADPAU?$_Tree_node@U?$pair@$$CBV?$basic_string@DU?$char_traits@D@std@@V?$allocator@D@2@@std@@PAVfms_fp_item_t@@@std@@PAX@2@@Z 10038c70 f i fms_fp.obj
 0001:00037c80       ?_Destroy_if_not_nil@?$_Tree@V?$_Tmap_traits@V?$basic_string@DU?$char_traits@D@std@@V?$allocator@D@2@@std@@PAVfms_fp_item_t@@U?$less@V?$basic_string@DU?$char_traits@D@std@@V?$allocator@D@2@@std@@@2@V?$allocator@U?$pair@$$CBV?$basic_string@DU?$char_traits@D@std@@V?$allocator@D@2@@std@@PAVfms_fp_item_t@@@std@@@2@$0A@@std@@@std@@IAEXPAU?$_Tree_node@U?$pair@$$CBV?$basic_string@DU?$char_traits@D@std@@V?$allocator@D@2@@std@@PAVfms_fp_item_t@@@std@@PAX@2@@Z 10038c80 f i fms_fp.obj
 0001:00037ce0       ?_Erase@?$_Tree@V?$_Tmap_traits@HPAVfms_fp_item_t@@U?$less@H@std@@V?$allocator@U?$pair@$$CBHPAVfms_fp_item_t@@@std@@@3@$0A@@std@@@std@@IAEXPAU?$_Tree_node@U?$pair@$$CBHPAVfms_fp_item_t@@@std@@PAX@2@@Z 10038ce0 f i fms_fp.obj
 0001:00037d80       ?_Erase@?$_Tree@V?$_Tmap_traits@V?$basic_string@DU?$char_traits@D@std@@V?$allocator@D@2@@std@@PAVfms_fp_item_t@@U?$less@V?$basic_string@DU?$char_traits@D@std@@V?$allocator@D@2@@std@@@2@V?$allocator@U?$pair@$$CBV?$basic_string@DU?$char_traits@D@std@@V?$allocator@D@2@@std@@PAVfms_fp_item_t@@@std@@@2@$0A@@std@@@std@@IAEXPAU?$_Tree_node@U?$pair@$$CBV?$basic_string@DU?$char_traits@D@std@@V?$allocator@D@2@@std@@PAVfms_fp_item_t@@@std@@PAX@2@@Z 10038d80 f i fms_fp.obj
 0001:00037e20       ?_Freeheadnode@?$_Tree_alloc@$0A@U?$_Tree_base_types@U?$pair@$$CBHPAVfms_fp_item_t@@@std@@V?$allocator@U?$pair@$$CBHPAVfms_fp_item_t@@@std@@@2@@std@@@std@@QAEXPAU?$_Tree_node@U?$pair@$$CBHPAVfms_fp_item_t@@@std@@PAX@2@@Z 10038e20 f i fms_fp.obj
 0001:00037ed0       ?_Freeheadnode@?$_Tree_alloc@$0A@U?$_Tree_base_types@U?$pair@$$CBV?$basic_string@DU?$char_traits@D@std@@V?$allocator@D@2@@std@@PAVfms_fp_item_t@@@std@@V?$allocator@U?$pair@$$CBV?$basic_string@DU?$char_traits@D@std@@V?$allocator@D@2@@std@@PAVfms_fp_item_t@@@std@@@2@@std@@@std@@QAEXPAU?$_Tree_node@U?$pair@$$CBV?$basic_string@DU?$char_traits@D@std@@V?$allocator@D@2@@std@@PAVfms_fp_item_t@@@std@@PAX@2@@Z 10038ed0 f i fms_fp.obj
 0001:00037f80       ?_Freenode0@?$_Tree_buy@U?$pair@$$CBV?$basic_string@DU?$char_traits@D@std@@V?$allocator@D@2@@std@@PAVfms_fp_item_t@@@std@@V?$allocator@U?$pair@$$CBV?$basic_string@DU?$char_traits@D@std@@V?$allocator@D@2@@std@@PAVfms_fp_item_t@@@std@@@2@@std@@QAEXPAU?$_Tree_node@U?$pair@$$CBV?$basic_string@DU?$char_traits@D@std@@V?$allocator@D@2@@std@@PAVfms_fp_item_t@@@std@@PAX@2@@Z 10038f80 f i fms_fp.obj
 0001:00038030       ?_Getal@?$_Tree_alloc@$0A@U?$_Tree_base_types@U?$pair@$$CBV?$basic_string@DU?$char_traits@D@std@@V?$allocator@D@2@@std@@PAVfms_fp_item_t@@@std@@V?$allocator@U?$pair@$$CBV?$basic_string@DU?$char_traits@D@std@@V?$allocator@D@2@@std@@PAVfms_fp_item_t@@@std@@@2@@std@@@std@@QBE?AU?$_Wrap_alloc@V?$allocator@U?$_Tree_node@U?$pair@$$CBV?$basic_string@DU?$char_traits@D@std@@V?$allocator@D@2@@std@@PAVfms_fp_item_t@@@std@@PAX@std@@@std@@@2@XZ 10039030 f i fms_fp.obj
 0001:00038050       ?_Getcomp@?$_Tree_comp@$0A@V?$_Tmap_traits@V?$basic_string@DU?$char_traits@D@std@@V?$allocator@D@2@@std@@PAVfms_fp_item_t@@U?$less@V?$basic_string@DU?$char_traits@D@std@@V?$allocator@D@2@@std@@@2@V?$allocator@U?$pair@$$CBV?$basic_string@DU?$char_traits@D@std@@V?$allocator@D@2@@std@@PAVfms_fp_item_t@@@std@@@2@$0A@@std@@@std@@QBE?AU?$less@V?$basic_string@DU?$char_traits@D@std@@V?$allocator@D@2@@std@@@2@XZ 10039050 f i fms_fp.obj
 0001:00038060       ?_Isnil@?$_Tree_val@U?$_Tree_simple_types@U?$pair@$$CBV?$basic_string@DU?$char_traits@D@std@@V?$allocator@D@2@@std@@PAVfms_fp_item_t@@@std@@@std@@@std@@SAAADPAU?$_Tree_node@U?$pair@$$CBV?$basic_string@DU?$char_traits@D@std@@V?$allocator@D@2@@std@@PAVfms_fp_item_t@@@std@@PAX@2@@Z 10039060 f i fms_fp.obj
 0001:00038070       ?_Key@?$_Tree@V?$_Tmap_traits@V?$basic_string@DU?$char_traits@D@std@@V?$allocator@D@2@@std@@PAVfms_fp_item_t@@U?$less@V?$basic_string@DU?$char_traits@D@std@@V?$allocator@D@2@@std@@@2@V?$allocator@U?$pair@$$CBV?$basic_string@DU?$char_traits@D@std@@V?$allocator@D@2@@std@@PAVfms_fp_item_t@@@std@@@2@$0A@@std@@@std@@IBEABV?$basic_string@DU?$char_traits@D@std@@V?$allocator@D@2@@2@PAU?$_Tree_node@U?$pair@$$CBV?$basic_string@DU?$char_traits@D@std@@V?$allocator@D@2@@std@@PAVfms_fp_item_t@@@std@@PAX@2@@Z 10039070 f i fms_fp.obj
 0001:000380a0       ?_Kfn@?$_Tree@V?$_Tmap_traits@V?$basic_string@DU?$char_traits@D@std@@V?$allocator@D@2@@std@@PAVfms_fp_item_t@@U?$less@V?$basic_string@DU?$char_traits@D@std@@V?$allocator@D@2@@std@@@2@V?$allocator@U?$pair@$$CBV?$basic_string@DU?$char_traits@D@std@@V?$allocator@D@2@@std@@PAVfms_fp_item_t@@@std@@@2@$0A@@std@@@std@@IBEABV?$basic_string@DU?$char_traits@D@std@@V?$allocator@D@2@@2@ABU?$pair@$$CBV?$basic_string@DU?$char_traits@D@std@@V?$allocator@D@2@@std@@PAVfms_fp_item_t@@@2@@Z 100390a0 f i fms_fp.obj
 0001:000380c0       ?_Lbound@?$_Tree@V?$_Tmap_traits@V?$basic_string@DU?$char_traits@D@std@@V?$allocator@D@2@@std@@PAVfms_fp_item_t@@U?$less@V?$basic_string@DU?$char_traits@D@std@@V?$allocator@D@2@@std@@@2@V?$allocator@U?$pair@$$CBV?$basic_string@DU?$char_traits@D@std@@V?$allocator@D@2@@std@@PAVfms_fp_item_t@@@std@@@2@$0A@@std@@@std@@IAEPAU?$_Tree_node@U?$pair@$$CBV?$basic_string@DU?$char_traits@D@std@@V?$allocator@D@2@@std@@PAVfms_fp_item_t@@@std@@PAX@2@ABV?$basic_string@DU?$char_traits@D@std@@V?$allocator@D@2@@2@@Z 100390c0 f i fms_fp.obj
 0001:00038160       ?_Left@?$_Tree_val@U?$_Tree_simple_types@U?$pair@$$CBV?$basic_string@DU?$char_traits@D@std@@V?$allocator@D@2@@std@@PAVfms_fp_item_t@@@std@@@std@@@std@@SAAAPAU?$_Tree_node@U?$pair@$$CBV?$basic_string@DU?$char_traits@D@std@@V?$allocator@D@2@@std@@PAVfms_fp_item_t@@@std@@PAX@2@PAU32@@Z 10039160 f i fms_fp.obj
 0001:00038170       ?_Lmost@?$_Tree@V?$_Tmap_traits@V?$basic_string@DU?$char_traits@D@std@@V?$allocator@D@2@@std@@PAVfms_fp_item_t@@U?$less@V?$basic_string@DU?$char_traits@D@std@@V?$allocator@D@2@@std@@@2@V?$allocator@U?$pair@$$CBV?$basic_string@DU?$char_traits@D@std@@V?$allocator@D@2@@std@@PAVfms_fp_item_t@@@std@@@2@$0A@@std@@@std@@IBEAAPAU?$_Tree_node@U?$pair@$$CBV?$basic_string@DU?$char_traits@D@std@@V?$allocator@D@2@@std@@PAVfms_fp_item_t@@@std@@PAX@2@XZ 10039170 f i fms_fp.obj
 0001:00038190       ?_Lrotate@?$_Tree@V?$_Tmap_traits@V?$basic_string@DU?$char_traits@D@std@@V?$allocator@D@2@@std@@PAVfms_fp_item_t@@U?$less@V?$basic_string@DU?$char_traits@D@std@@V?$allocator@D@2@@std@@@2@V?$allocator@U?$pair@$$CBV?$basic_string@DU?$char_traits@D@std@@V?$allocator@D@2@@std@@PAVfms_fp_item_t@@@std@@@2@$0A@@std@@@std@@IAEXPAU?$_Tree_node@U?$pair@$$CBV?$basic_string@DU?$char_traits@D@std@@V?$allocator@D@2@@std@@PAVfms_fp_item_t@@@std@@PAX@2@@Z 10039190 f i fms_fp.obj
 0001:000382c0       ?_Max@?$_Tree_val@U?$_Tree_simple_types@U?$pair@$$CBV?$basic_string@DU?$char_traits@D@std@@V?$allocator@D@2@@std@@PAVfms_fp_item_t@@@std@@@std@@@std@@SAPAU?$_Tree_node@U?$pair@$$CBV?$basic_string@DU?$char_traits@D@std@@V?$allocator@D@2@@std@@PAVfms_fp_item_t@@@std@@PAX@2@PAU32@@Z 100392c0 f i fms_fp.obj
 0001:00038300       ?_Min@?$_Tree_val@U?$_Tree_simple_types@U?$pair@$$CBV?$basic_string@DU?$char_traits@D@std@@V?$allocator@D@2@@std@@PAVfms_fp_item_t@@@std@@@std@@@std@@SAPAU?$_Tree_node@U?$pair@$$CBV?$basic_string@DU?$char_traits@D@std@@V?$allocator@D@2@@std@@PAVfms_fp_item_t@@@std@@PAX@2@PAU32@@Z 10039300 f i fms_fp.obj
 0001:00038340       ?_Mynode@?$_Tree_unchecked_const_iterator@V?$_Tree_val@U?$_Tree_simple_types@U?$pair@$$CBV?$basic_string@DU?$char_traits@D@std@@V?$allocator@D@2@@std@@PAVfms_fp_item_t@@@std@@@std@@@std@@U_Iterator_base0@2@@std@@QBEPAU?$_Tree_node@U?$pair@$$CBV?$basic_string@DU?$char_traits@D@std@@V?$allocator@D@2@@std@@PAVfms_fp_item_t@@@std@@PAX@2@XZ 10039340 f i fms_fp.obj
 0001:00038350       ?_Myval@?$_Tree_val@U?$_Tree_simple_types@U?$pair@$$CBV?$basic_string@DU?$char_traits@D@std@@V?$allocator@D@2@@std@@PAVfms_fp_item_t@@@std@@@std@@@std@@SAAAU?$pair@$$CBV?$basic_string@DU?$char_traits@D@std@@V?$allocator@D@2@@std@@PAVfms_fp_item_t@@@2@PAU?$_Tree_node@U?$pair@$$CBV?$basic_string@DU?$char_traits@D@std@@V?$allocator@D@2@@std@@PAVfms_fp_item_t@@@std@@PAX@2@@Z 10039350 f i fms_fp.obj
 0001:00038360       ?_Parent@?$_Tree_val@U?$_Tree_simple_types@U?$pair@$$CBV?$basic_string@DU?$char_traits@D@std@@V?$allocator@D@2@@std@@PAVfms_fp_item_t@@@std@@@std@@@std@@SAAAPAU?$_Tree_node@U?$pair@$$CBV?$basic_string@DU?$char_traits@D@std@@V?$allocator@D@2@@std@@PAVfms_fp_item_t@@@std@@PAX@2@PAU32@@Z 10039360 f i fms_fp.obj
 0001:00038370       ?_Right@?$_Tree_val@U?$_Tree_simple_types@U?$pair@$$CBV?$basic_string@DU?$char_traits@D@std@@V?$allocator@D@2@@std@@PAVfms_fp_item_t@@@std@@@std@@@std@@SAAAPAU?$_Tree_node@U?$pair@$$CBV?$basic_string@DU?$char_traits@D@std@@V?$allocator@D@2@@std@@PAVfms_fp_item_t@@@std@@PAX@2@PAU32@@Z 10039370 f i fms_fp.obj
 0001:00038380       ?_Rmost@?$_Tree@V?$_Tmap_traits@V?$basic_string@DU?$char_traits@D@std@@V?$allocator@D@2@@std@@PAVfms_fp_item_t@@U?$less@V?$basic_string@DU?$char_traits@D@std@@V?$allocator@D@2@@std@@@2@V?$allocator@U?$pair@$$CBV?$basic_string@DU?$char_traits@D@std@@V?$allocator@D@2@@std@@PAVfms_fp_item_t@@@std@@@2@$0A@@std@@@std@@IBEAAPAU?$_Tree_node@U?$pair@$$CBV?$basic_string@DU?$char_traits@D@std@@V?$allocator@D@2@@std@@PAVfms_fp_item_t@@@std@@PAX@2@XZ 10039380 f i fms_fp.obj
 0001:000383a0       ?_Root@?$_Tree@V?$_Tmap_traits@V?$basic_string@DU?$char_traits@D@std@@V?$allocator@D@2@@std@@PAVfms_fp_item_t@@U?$less@V?$basic_string@DU?$char_traits@D@std@@V?$allocator@D@2@@std@@@2@V?$allocator@U?$pair@$$CBV?$basic_string@DU?$char_traits@D@std@@V?$allocator@D@2@@std@@PAVfms_fp_item_t@@@std@@@2@$0A@@std@@@std@@IBEAAPAU?$_Tree_node@U?$pair@$$CBV?$basic_string@DU?$char_traits@D@std@@V?$allocator@D@2@@std@@PAVfms_fp_item_t@@@std@@PAX@2@XZ 100393a0 f i fms_fp.obj
 0001:000383c0       ?_Rrotate@?$_Tree@V?$_Tmap_traits@V?$basic_string@DU?$char_traits@D@std@@V?$allocator@D@2@@std@@PAVfms_fp_item_t@@U?$less@V?$basic_string@DU?$char_traits@D@std@@V?$allocator@D@2@@std@@@2@V?$allocator@U?$pair@$$CBV?$basic_string@DU?$char_traits@D@std@@V?$allocator@D@2@@std@@PAVfms_fp_item_t@@@std@@@2@$0A@@std@@@std@@IAEXPAU?$_Tree_node@U?$pair@$$CBV?$basic_string@DU?$char_traits@D@std@@V?$allocator@D@2@@std@@PAVfms_fp_item_t@@@std@@PAX@2@@Z 100393c0 f i fms_fp.obj
 0001:000384f0       ?_Tidy@?$_Tree@V?$_Tmap_traits@HPAVfms_fp_item_t@@U?$less@H@std@@V?$allocator@U?$pair@$$CBHPAVfms_fp_item_t@@@std@@@3@$0A@@std@@@std@@IAEXXZ 100394f0 f i fms_fp.obj
 0001:00038540       ?_Tidy@?$_Tree@V?$_Tmap_traits@V?$basic_string@DU?$char_traits@D@std@@V?$allocator@D@2@@std@@PAVfms_fp_item_t@@U?$less@V?$basic_string@DU?$char_traits@D@std@@V?$allocator@D@2@@std@@@2@V?$allocator@U?$pair@$$CBV?$basic_string@DU?$char_traits@D@std@@V?$allocator@D@2@@std@@PAVfms_fp_item_t@@@std@@@2@$0A@@std@@@std@@IAEXXZ 10039540 f i fms_fp.obj
 0001:00038590       ?allocate@?$_Wrap_alloc@V?$allocator@U?$_Tree_node@U?$pair@$$CBV?$basic_string@DU?$char_traits@D@std@@V?$allocator@D@2@@std@@PAVfms_fp_item_t@@@std@@PAX@std@@@std@@@std@@QAEPAU?$_Tree_node@U?$pair@$$CBV?$basic_string@DU?$char_traits@D@std@@V?$allocator@D@2@@std@@PAVfms_fp_item_t@@@std@@PAX@2@I@Z 10039590 f i fms_fp.obj
 0001:000385b0       ?allocate@?$allocator@U?$_Tree_node@U?$pair@$$CBV?$basic_string@DU?$char_traits@D@std@@V?$allocator@D@2@@std@@PAVfms_fp_item_t@@@std@@PAX@std@@@std@@QAEPAU?$_Tree_node@U?$pair@$$CBV?$basic_string@DU?$char_traits@D@std@@V?$allocator@D@2@@std@@PAVfms_fp_item_t@@@std@@PAX@2@I@Z 100395b0 f i fms_fp.obj
 0001:000385d0       ?begin@?$_Tree@V?$_Tmap_traits@V?$basic_string@DU?$char_traits@D@std@@V?$allocator@D@2@@std@@PAVfms_fp_item_t@@U?$less@V?$basic_string@DU?$char_traits@D@std@@V?$allocator@D@2@@std@@@2@V?$allocator@U?$pair@$$CBV?$basic_string@DU?$char_traits@D@std@@V?$allocator@D@2@@std@@PAVfms_fp_item_t@@@std@@@2@$0A@@std@@@std@@QAE?AV?$_Tree_iterator@V?$_Tree_val@U?$_Tree_simple_types@U?$pair@$$CBV?$basic_string@DU?$char_traits@D@std@@V?$allocator@D@2@@std@@PAVfms_fp_item_t@@@std@@@std@@@std@@@2@XZ 100395d0 f i fms_fp.obj
 0001:00038600       ?clear@?$_Tree@V?$_Tmap_traits@HPAVfms_fp_item_t@@U?$less@H@std@@V?$allocator@U?$pair@$$CBHPAVfms_fp_item_t@@@std@@@3@$0A@@std@@@std@@QAEXXZ 10039600 f i fms_fp.obj
 0001:00038660       ?clear@?$_Tree@V?$_Tmap_traits@V?$basic_string@DU?$char_traits@D@std@@V?$allocator@D@2@@std@@PAVfms_fp_item_t@@U?$less@V?$basic_string@DU?$char_traits@D@std@@V?$allocator@D@2@@std@@@2@V?$allocator@U?$pair@$$CBV?$basic_string@DU?$char_traits@D@std@@V?$allocator@D@2@@std@@PAVfms_fp_item_t@@@std@@@2@$0A@@std@@@std@@QAEXXZ 10039660 f i fms_fp.obj
 0001:000386c0       ?deallocate@?$_Wrap_alloc@V?$allocator@U?$_Tree_node@U?$pair@$$CBV?$basic_string@DU?$char_traits@D@std@@V?$allocator@D@2@@std@@PAVfms_fp_item_t@@@std@@PAX@std@@@std@@@std@@QAEXPAU?$_Tree_node@U?$pair@$$CBV?$basic_string@DU?$char_traits@D@std@@V?$allocator@D@2@@std@@PAVfms_fp_item_t@@@std@@PAX@2@I@Z 100396c0 f i fms_fp.obj
 0001:000386e0       ?deallocate@?$allocator@U?$_Tree_node@U?$pair@$$CBV?$basic_string@DU?$char_traits@D@std@@V?$allocator@D@2@@std@@PAVfms_fp_item_t@@@std@@PAX@std@@@std@@QAEXPAU?$_Tree_node@U?$pair@$$CBV?$basic_string@DU?$char_traits@D@std@@V?$allocator@D@2@@std@@PAVfms_fp_item_t@@@std@@PAX@2@I@Z 100396e0 f i fms_fp.obj
 0001:00038700       ?empty@?$_Tree@V?$_Tmap_traits@HPAVfms_fp_item_t@@U?$less@H@std@@V?$allocator@U?$pair@$$CBHPAVfms_fp_item_t@@@std@@@3@$0A@@std@@@std@@QBE_NXZ 10039700 f i fms_fp.obj
 0001:00038730       ?end@?$_Tree@V?$_Tmap_traits@V?$basic_string@DU?$char_traits@D@std@@V?$allocator@D@2@@std@@PAVfms_fp_item_t@@U?$less@V?$basic_string@DU?$char_traits@D@std@@V?$allocator@D@2@@std@@@2@V?$allocator@U?$pair@$$CBV?$basic_string@DU?$char_traits@D@std@@V?$allocator@D@2@@std@@PAVfms_fp_item_t@@@std@@@2@$0A@@std@@@std@@QAE?AV?$_Tree_iterator@V?$_Tree_val@U?$_Tree_simple_types@U?$pair@$$CBV?$basic_string@DU?$char_traits@D@std@@V?$allocator@D@2@@std@@PAVfms_fp_item_t@@@std@@@std@@@std@@@2@XZ 10039730 f i fms_fp.obj
 0001:00038760       ?erase@?$_Tree@V?$_Tmap_traits@HPAVfms_fp_item_t@@U?$less@H@std@@V?$allocator@U?$pair@$$CBHPAVfms_fp_item_t@@@std@@@3@$0A@@std@@@std@@QAE?AV?$_Tree_iterator@V?$_Tree_val@U?$_Tree_simple_types@U?$pair@$$CBHPAVfms_fp_item_t@@@std@@@std@@@std@@@2@V?$_Tree_const_iterator@V?$_Tree_val@U?$_Tree_simple_types@U?$pair@$$CBHPAVfms_fp_item_t@@@std@@@std@@@std@@@2@0@Z 10039760 f i fms_fp.obj
 0001:00038810       ?erase@?$_Tree@V?$_Tmap_traits@HPAVfms_fp_item_t@@U?$less@H@std@@V?$allocator@U?$pair@$$CBHPAVfms_fp_item_t@@@std@@@3@$0A@@std@@@std@@QAE?AV?$_Tree_iterator@V?$_Tree_val@U?$_Tree_simple_types@U?$pair@$$CBHPAVfms_fp_item_t@@@std@@@std@@@std@@@2@V?$_Tree_const_iterator@V?$_Tree_val@U?$_Tree_simple_types@U?$pair@$$CBHPAVfms_fp_item_t@@@std@@@std@@@std@@@2@@Z 10039810 f i fms_fp.obj
 0001:00038f90       ?erase@?$_Tree@V?$_Tmap_traits@V?$basic_string@DU?$char_traits@D@std@@V?$allocator@D@2@@std@@PAVfms_fp_item_t@@U?$less@V?$basic_string@DU?$char_traits@D@std@@V?$allocator@D@2@@std@@@2@V?$allocator@U?$pair@$$CBV?$basic_string@DU?$char_traits@D@std@@V?$allocator@D@2@@std@@PAVfms_fp_item_t@@@std@@@2@$0A@@std@@@std@@QAE?AV?$_Tree_iterator@V?$_Tree_val@U?$_Tree_simple_types@U?$pair@$$CBV?$basic_string@DU?$char_traits@D@std@@V?$allocator@D@2@@std@@PAVfms_fp_item_t@@@std@@@std@@@std@@@2@V?$_Tree_const_iterator@V?$_Tree_val@U?$_Tree_simple_types@U?$pair@$$CBV?$basic_string@DU?$char_traits@D@std@@V?$allocator@D@2@@std@@PAVfms_fp_item_t@@@std@@@std@@@std@@@2@0@Z 10039f90 f i fms_fp.obj
 0001:00039040       ?erase@?$_Tree@V?$_Tmap_traits@V?$basic_string@DU?$char_traits@D@std@@V?$allocator@D@2@@std@@PAVfms_fp_item_t@@U?$less@V?$basic_string@DU?$char_traits@D@std@@V?$allocator@D@2@@std@@@2@V?$allocator@U?$pair@$$CBV?$basic_string@DU?$char_traits@D@std@@V?$allocator@D@2@@std@@PAVfms_fp_item_t@@@std@@@2@$0A@@std@@@std@@QAE?AV?$_Tree_iterator@V?$_Tree_val@U?$_Tree_simple_types@U?$pair@$$CBV?$basic_string@DU?$char_traits@D@std@@V?$allocator@D@2@@std@@PAVfms_fp_item_t@@@std@@@std@@@std@@@2@V?$_Tree_const_iterator@V?$_Tree_val@U?$_Tree_simple_types@U?$pair@$$CBV?$basic_string@DU?$char_traits@D@std@@V?$allocator@D@2@@std@@PAVfms_fp_item_t@@@std@@@std@@@std@@@2@@Z 1003a040 f i fms_fp.obj
 0001:000397c0       ?lower_bound@?$_Tree@V?$_Tmap_traits@V?$basic_string@DU?$char_traits@D@std@@V?$allocator@D@2@@std@@PAVfms_fp_item_t@@U?$less@V?$basic_string@DU?$char_traits@D@std@@V?$allocator@D@2@@std@@@2@V?$allocator@U?$pair@$$CBV?$basic_string@DU?$char_traits@D@std@@V?$allocator@D@2@@std@@PAVfms_fp_item_t@@@std@@@2@$0A@@std@@@std@@QAE?AV?$_Tree_iterator@V?$_Tree_val@U?$_Tree_simple_types@U?$pair@$$CBV?$basic_string@DU?$char_traits@D@std@@V?$allocator@D@2@@std@@PAVfms_fp_item_t@@@std@@@std@@@std@@@2@ABV?$basic_string@DU?$char_traits@D@std@@V?$allocator@D@2@@2@@Z 1003a7c0 f i fms_fp.obj
 0001:000397f0       ?max_size@?$_Tree@V?$_Tmap_traits@V?$basic_string@DU?$char_traits@D@std@@V?$allocator@D@2@@std@@PAVfms_fp_item_t@@U?$less@V?$basic_string@DU?$char_traits@D@std@@V?$allocator@D@2@@std@@@2@V?$allocator@U?$pair@$$CBV?$basic_string@DU?$char_traits@D@std@@V?$allocator@D@2@@std@@PAVfms_fp_item_t@@@std@@@2@$0A@@std@@@std@@QBEIXZ 1003a7f0 f i fms_fp.obj
 0001:00039810       ?max_size@?$_Wrap_alloc@V?$allocator@U?$_Tree_node@U?$pair@$$CBV?$basic_string@DU?$char_traits@D@std@@V?$allocator@D@2@@std@@PAVfms_fp_item_t@@@std@@PAX@std@@@std@@@std@@QBEIXZ 1003a810 f i fms_fp.obj
 0001:00039830       ?max_size@?$allocator@U?$_Tree_node@U?$pair@$$CBV?$basic_string@DU?$char_traits@D@std@@V?$allocator@D@2@@std@@PAVfms_fp_item_t@@@std@@PAX@std@@@std@@QBEIXZ 1003a830 f i fms_fp.obj
 0001:00039840       ?max_size@?$allocator_traits@V?$allocator@U?$_Tree_node@U?$pair@$$CBV?$basic_string@DU?$char_traits@D@std@@V?$allocator@D@2@@std@@PAVfms_fp_item_t@@@std@@PAX@std@@@std@@@std@@SAIABV?$allocator@U?$_Tree_node@U?$pair@$$CBV?$basic_string@DU?$char_traits@D@std@@V?$allocator@D@2@@std@@PAVfms_fp_item_t@@@std@@PAX@std@@@2@@Z 1003a840 f i fms_fp.obj
 0001:00039850       ?pointer_to@?$pointer_traits@PAU?$pair@$$CBV?$basic_string@DU?$char_traits@D@std@@V?$allocator@D@2@@std@@PAVfms_fp_item_t@@@std@@@std@@SAPAU?$pair@$$CBV?$basic_string@DU?$char_traits@D@std@@V?$allocator@D@2@@std@@PAVfms_fp_item_t@@@2@AAU32@@Z 1003a850 f i fms_fp.obj
 0001:00039870       ?size@?$_Tree@V?$_Tmap_traits@V?$basic_string@DU?$char_traits@D@std@@V?$allocator@D@2@@std@@PAVfms_fp_item_t@@U?$less@V?$basic_string@DU?$char_traits@D@std@@V?$allocator@D@2@@std@@@2@V?$allocator@U?$pair@$$CBV?$basic_string@DU?$char_traits@D@std@@V?$allocator@D@2@@std@@PAVfms_fp_item_t@@@std@@@2@$0A@@std@@@std@@QBEIXZ 1003a870 f i fms_fp.obj
 0001:00039890       ??0fms_utils_t@@QAE@XZ     1003a890 f   fms_utils.obj
 0001:000398a0       ?time2minutes@fms_utils_t@@QAEMV?$basic_string@DU?$char_traits@D@std@@V?$allocator@D@2@@std@@@Z 1003a8a0 f   fms_utils.obj
 0001:00039910       ?minutes2time@fms_utils_t@@QAE?AV?$basic_string@DU?$char_traits@D@std@@V?$allocator@D@2@@std@@M@Z 1003a910 f   fms_utils.obj
 0001:00039a40       ?zulu2time@fms_utils_t@@QAE?AV?$basic_string@DU?$char_traits@D@std@@V?$allocator@D@2@@std@@M@Z 1003aa40 f   fms_utils.obj
 0001:00039a80       ?zulu2minutes@fms_utils_t@@QAEMM@Z 1003aa80 f   fms_utils.obj
 0001:00039af0       ?kts2kmm@fms_utils_t@@QAEMM@Z 1003aaf0 f   fms_utils.obj
 0001:00039b20       ?ms2kts@fms_utils_t@@QAEMM@Z 1003ab20 f   fms_utils.obj
 0001:00039b50       ?nm2km@fms_utils_t@@QAEMM@Z 1003ab50 f   fms_utils.obj
 0001:00039b80       ?deg2rad@fms_utils_t@@QAENN@Z 1003ab80 f   fms_utils.obj
 0001:00039bb0       ?rad2deg@fms_utils_t@@QAENN@Z 1003abb0 f   fms_utils.obj
 0001:00039be0       ?altitude2string@fms_utils_t@@QAE?AV?$basic_string@DU?$char_traits@D@std@@V?$allocator@D@2@@std@@M@Z 1003abe0 f   fms_utils.obj
 0001:00039d50       ?delay2string@fms_utils_t@@QAE?AV?$basic_string@DU?$char_traits@D@std@@V?$allocator@D@2@@std@@M@Z 1003ad50 f   fms_utils.obj
 0001:00039f00       ?getInstance@config_t@@SAPAV1@XZ 1003af00 f   config.obj
 0001:00039f70       ?read_config@config_t@@QAEXXZ 1003af70 f   config.obj
 0001:00039f90       ?read_config_main@config_t@@QAEXXZ 1003af90 f   config.obj
 0001:00039fd0       ?read_config_fms@config_t@@QAEXXZ 1003afd0 f   config.obj
 0001:0003a080       ?get_config@config_t@@QAE?AV?$map@V?$basic_string@DU?$char_traits@D@std@@V?$allocator@D@2@@std@@V12@U?$less@V?$basic_string@DU?$char_traits@D@std@@V?$allocator@D@2@@std@@@2@V?$allocator@U?$pair@$$CBV?$basic_string@DU?$char_traits@D@std@@V?$allocator@D@2@@std@@V12@@std@@@2@@std@@XZ 1003b080 f   config.obj
 0001:0003a0a0       ?get_config_fms@config_t@@QAE?AV?$map@V?$basic_string@DU?$char_traits@D@std@@V?$allocator@D@2@@std@@V12@U?$less@V?$basic_string@DU?$char_traits@D@std@@V?$allocator@D@2@@std@@@2@V?$allocator@U?$pair@$$CBV?$basic_string@DU?$char_traits@D@std@@V?$allocator@D@2@@std@@V12@@std@@@2@@std@@XZ 1003b0a0 f   config.obj
 0001:0003a0c0       ?set_fms_config@config_t@@QAEXV?$basic_string@DU?$char_traits@D@std@@V?$allocator@D@2@@std@@00@Z 1003b0c0 f   config.obj
 0001:0003a1c0       ?get_fms_local_path@config_t@@AAE?AV?$basic_string@DU?$char_traits@D@std@@V?$allocator@D@2@@std@@XZ 1003b1c0 f   config.obj
 0001:0003a320       ?do_read_config@config_t@@AAE?AV?$map@V?$basic_string@DU?$char_traits@D@std@@V?$allocator@D@2@@std@@V12@U?$less@V?$basic_string@DU?$char_traits@D@std@@V?$allocator@D@2@@std@@@2@V?$allocator@U?$pair@$$CBV?$basic_string@DU?$char_traits@D@std@@V?$allocator@D@2@@std@@V12@@std@@@2@@std@@PAD@Z 1003b320 f   config.obj
 0001:0003a5e0       ?debug_out@config_t@@AAAXHPBDZZ 1003b5e0 f   config.obj
