 win_32.xpl

 Timestamp is 53e65ff7 (Sat Aug 09 19:52:55 2014)

 Preferred load address is 10000000

 Start         Length     Name                   Class
 0001:00000000 000006a9H .text$di                CODE
 0001:000006b0 0002640eH .text$mn                CODE
 0001:00026ac0 0000050bH .text$x                 CODE
 0001:00026fd0 00000039H .text$yd                CODE
 0002:00000000 00000304H .idata$5                DATA
 0002:00000304 00000004H .CRT$XCA                DATA
 0002:00000308 00000004H .CRT$XCL                DATA
 0002:0000030c 00000194H .CRT$XCU                DATA
 0002:000004a0 00000004H .CRT$XCZ                DATA
 0002:000004a4 00000004H .CRT$XIA                DATA
 0002:000004a8 00000004H .CRT$XIAA               DATA
 0002:000004ac 00000008H .CRT$XIC                DATA
 0002:000004b4 00000004H .CRT$XIZ                DATA
 0002:000004b8 00004ed8H .rdata                  DATA
 0002:00005390 00000ab8H .rdata$r                DATA
 0002:00005e50 000000a4H .rdata$sxdata           DATA
 0002:00005ef4 00000004H .rtc$IAA                DATA
 0002:00005ef8 00000004H .rtc$IZZ                DATA
 0002:00005efc 00000004H .rtc$TAA                DATA
 0002:00005f00 00000004H .rtc$TZZ                DATA
 0002:00005f08 00000fdcH .xdata$x                DATA
 0002:00006ef0 000000b5H .edata                  DATA
 0002:00006fa8 00000078H .idata$2                DATA
 0002:00007020 00000014H .idata$3                DATA
 0002:00007034 00000304H .idata$4                DATA
 0002:00007338 0000179cH .idata$6                DATA
 0003:00000000 00000018H .data                   DATA
 0003:00000018 000005ccH .data$r                 DATA
 0003:000005e8 00000468H .bss                    DATA

  Address         Publics by Value              Rva+Base       Lib:Object

 0000:00000000       ___guard_fids_count        00000000     <absolute>
 0000:00000000       ___guard_flags             00000000     <absolute>
 0000:00000000       __except_list              00000000     <absolute>
 0000:00000000       ___guard_fids_table        00000000     <absolute>
 0000:00000029       ___safe_se_handler_count   00000029     <absolute>
 0000:00009876       __ldused                   00009876     <absolute>
 0000:00009876       __fltused                  00009876     <absolute>
 0000:00000000       ___ImageBase               10000000     <linker-defined>
 0001:000006b0       _XPluginStart              100016b0 f   main.obj
 0001:000007f0       _XPluginEnable             100017f0 f   main.obj
 0001:00000820       _XPluginDisable            10001820 f   main.obj
 0001:00000840       _XPluginStop               10001840 f   main.obj
 0001:00000880       _XPluginReceiveMessage     10001880 f   main.obj
 0001:00000890       _DllMain@12                10001890 f   main.obj
 0001:000008b0       ??$_Allocate@D@std@@YAPADIPAD@Z 100018b0 f i main.obj
 0001:000008f0       ??$destroy@U?$pair@$$CBHM@std@@@?$allocator@U?$_Tree_node@U?$pair@$$CBHM@std@@PAX@std@@@std@@QAEXPAU?$pair@$$CBHM@1@@Z 100018f0 f i fms_config.obj
 0001:000008f0       ??$destroy@PAU?$_Tree_node@PAVmfdpage_t@@PAX@std@@@?$allocator@U?$_Tree_node@PAVmfdpage_t@@PAX@std@@@std@@QAEXPAPAU?$_Tree_node@PAVmfdpage_t@@PAX@1@@Z 100018f0 f i in.obj
 0001:000008f0       ??$destroy@PAU?$_Tree_node@U?$pair@$$CBV?$basic_string@DU?$char_traits@D@std@@V?$allocator@D@2@@std@@D@std@@PAX@std@@@?$allocator@U?$_Tree_node@U?$pair@$$CBV?$basic_string@DU?$char_traits@D@std@@V?$allocator@D@2@@std@@D@std@@PAX@std@@@std@@QAEXPAPAU?$_Tree_node@U?$pair@$$CBV?$basic_string@DU?$char_traits@D@std@@V?$allocator@D@2@@std@@D@std@@PAX@1@@Z 100018f0 f i mfdpage.obj
 0001:000008f0       ??$destroy@PAU?$_Tree_node@U?$pair@$$CBV?$basic_string@DU?$char_traits@D@std@@V?$allocator@D@2@@std@@PAVfms_fp_item_t@@@std@@PAX@std@@@?$allocator@U?$_Tree_node@U?$pair@$$CBV?$basic_string@DU?$char_traits@D@std@@V?$allocator@D@2@@std@@PAVfms_fp_item_t@@@std@@PAX@std@@@std@@QAEXPAPAU?$_Tree_node@U?$pair@$$CBV?$basic_string@DU?$char_traits@D@std@@V?$allocator@D@2@@std@@PAVfms_fp_item_t@@@std@@PAX@1@@Z 100018f0 f i fms_fp.obj
 0001:000008f0       ??$destroy@PAVlistener_t@@@?$allocator@U?$_Tree_node@PAVlistener_t@@PAX@std@@@std@@QAEXPAPAVlistener_t@@@Z 100018f0 f i data.obj
 0001:000008f0       ??$destroy@PAU?$_Tree_node@U?$pair@$$CBV?$basic_string@DU?$char_traits@D@std@@V?$allocator@D@2@@std@@V12@@std@@PAX@std@@@?$allocator@U?$_Tree_node@U?$pair@$$CBV?$basic_string@DU?$char_traits@D@std@@V?$allocator@D@2@@std@@V12@@std@@PAX@std@@@std@@QAEXPAPAU?$_Tree_node@U?$pair@$$CBV?$basic_string@DU?$char_traits@D@std@@V?$allocator@D@2@@std@@V12@@std@@PAX@1@@Z 100018f0 f i tools.obj
 0001:000008f0       ?_Destroy_if_not_nil@?$_Tree@V?$_Tset_traits@PAVmfdpage_t@@U?$less@PAVmfdpage_t@@@std@@V?$allocator@PAVmfdpage_t@@@3@$0A@@std@@@std@@IAEXU_Nil@2@@Z 100018f0 f i in.obj
 0001:000008f0       ??$destroy@PAU?$_Tree_node@PAVobject_t@@PAX@std@@@?$allocator@U?$_Tree_node@PAVobject_t@@PAX@std@@@std@@QAEXPAPAU?$_Tree_node@PAVobject_t@@PAX@1@@Z 100018f0 f i data.obj
 0001:000008f0       ??$destroy@PAU?$_Tree_node@PAVlistener_t@@PAX@std@@@?$allocator@U?$_Tree_node@PAVlistener_t@@PAX@std@@@std@@QAEXPAPAU?$_Tree_node@PAVlistener_t@@PAX@1@@Z 100018f0 f i data.obj
 0001:000008f0       ??$destroy@PAU?$_Tree_node@U?$pair@$$CBV?$basic_string@DU?$char_traits@D@std@@V?$allocator@D@2@@std@@M@std@@PAX@std@@@?$allocator@U?$_Tree_node@U?$pair@$$CBV?$basic_string@DU?$char_traits@D@std@@V?$allocator@D@2@@std@@M@std@@PAX@std@@@std@@QAEXPAPAU?$_Tree_node@U?$pair@$$CBV?$basic_string@DU?$char_traits@D@std@@V?$allocator@D@2@@std@@M@std@@PAX@1@@Z 100018f0 f i mfdpage_fms.obj
 0001:000008f0       ?_Compat@?$_String_const_iterator@V?$_String_val@U?$_Simple_types@D@std@@@std@@@std@@QBEXABV12@@Z 100018f0 f i mfdpage.obj
 0001:000008f0       ?_Destroy_if_not_nil@?$_Tree@V?$_Tset_traits@PAVobject_t@@U?$less@PAVobject_t@@@std@@V?$allocator@PAVobject_t@@@3@$0A@@std@@@std@@IAEXU_Nil@2@@Z 100018f0 f i data.obj
 0001:000008f0       ??$destroy@PAD@?$allocator@D@std@@QAEXPAPAD@Z 100018f0 f i main.obj
 0001:000008f0       ?_Change_alloc@?$_String_alloc@$0A@U?$_String_base_types@DV?$allocator@D@std@@@std@@@std@@QAEXABU?$_Wrap_alloc@V?$allocator@D@std@@@2@@Z 100018f0 f i data.obj
 0001:000008f0       ??$destroy@PAU?$_Tree_node@U?$pair@$$CBHPAVobject_t@@@std@@PAX@std@@@?$allocator@U?$_Tree_node@U?$pair@$$CBHPAVobject_t@@@std@@PAX@std@@@std@@QAEXPAPAU?$_Tree_node@U?$pair@$$CBHPAVobject_t@@@std@@PAX@1@@Z 100018f0 f i mfdpage.obj
 0001:000008f0       ??$destroy@PAU?$_Tree_node@U?$pair@$$CBHV?$basic_string@DU?$char_traits@D@std@@V?$allocator@D@2@@std@@@std@@PAX@std@@@?$allocator@U?$_Tree_node@U?$pair@$$CBHV?$basic_string@DU?$char_traits@D@std@@V?$allocator@D@2@@std@@@std@@PAX@std@@@std@@QAEXPAPAU?$_Tree_node@U?$pair@$$CBHV?$basic_string@DU?$char_traits@D@std@@V?$allocator@D@2@@std@@@std@@PAX@1@@Z 100018f0 f i out_saitek.obj
 0001:000008f0       ??$destroy@U?$pair@$$CBHPAVobject_t@@@std@@@?$allocator@U?$_Tree_node@U?$pair@$$CBHPAVobject_t@@@std@@PAX@std@@@std@@QAEXPAU?$pair@$$CBHPAVobject_t@@@1@@Z 100018f0 f i mfdpage.obj
 0001:000008f0       ?_Swapcomp@?$_Tree_comp@$0A@V?$_Tmap_traits@V?$basic_string@DU?$char_traits@D@std@@V?$allocator@D@2@@std@@V12@U?$less@V?$basic_string@DU?$char_traits@D@std@@V?$allocator@D@2@@std@@@2@V?$allocator@U?$pair@$$CBV?$basic_string@DU?$char_traits@D@std@@V?$allocator@D@2@@std@@V12@@std@@@2@$0A@@std@@@std@@QAEXABU?$less@V?$basic_string@DU?$char_traits@D@std@@V?$allocator@D@2@@std@@@2@@Z 100018f0 f i mfdpage_led.obj
 0001:000008f0       ??$destroy@PAVobject_t@@@?$allocator@U?$_Tree_node@PAVobject_t@@PAX@std@@@std@@QAEXPAPAVobject_t@@@Z 100018f0 f i data.obj
 0001:000008f0       ??$destroy@PAU?$_Tree_node@U?$pair@$$CBHM@std@@PAX@std@@@?$allocator@U?$_Tree_node@U?$pair@$$CBHM@std@@PAX@std@@@std@@QAEXPAPAU?$_Tree_node@U?$pair@$$CBHM@std@@PAX@1@@Z 100018f0 f i fms_config.obj
 0001:000008f0       ??$destroy@PAU?$_Tree_node@U?$pair@$$CBHPAVfms_fp_item_t@@@std@@PAX@std@@@?$allocator@U?$_Tree_node@U?$pair@$$CBHPAVfms_fp_item_t@@@std@@PAX@std@@@std@@QAEXPAPAU?$_Tree_node@U?$pair@$$CBHPAVfms_fp_item_t@@@std@@PAX@1@@Z 100018f0 f i mfdpage_fms.obj
 0001:000008f0       ??$destroy@PAVmfdpage_t@@@?$allocator@U?$_Tree_node@PAVmfdpage_t@@PAX@std@@@std@@QAEXPAPAVmfdpage_t@@@Z 100018f0 f i in.obj
 0001:000008f0       ??$destroy@PAU?$_Tree_node@U?$pair@$$CBV?$basic_string@DU?$char_traits@D@std@@V?$allocator@D@2@@std@@H@std@@PAX@std@@@?$allocator@U?$_Tree_node@U?$pair@$$CBV?$basic_string@DU?$char_traits@D@std@@V?$allocator@D@2@@std@@H@std@@PAX@std@@@std@@QAEXPAPAU?$_Tree_node@U?$pair@$$CBV?$basic_string@DU?$char_traits@D@std@@V?$allocator@D@2@@std@@H@std@@PAX@1@@Z 100018f0 f i mfdpage.obj
 0001:000008f0       ??$destroy@PAU?$_Tree_node@U?$pair@$$CBV?$basic_string@DU?$char_traits@D@std@@V?$allocator@D@2@@std@@PAVfms_config_item_t@@@std@@PAX@std@@@?$allocator@U?$_Tree_node@U?$pair@$$CBV?$basic_string@DU?$char_traits@D@std@@V?$allocator@D@2@@std@@PAVfms_config_item_t@@@std@@PAX@std@@@std@@QAEXPAPAU?$_Tree_node@U?$pair@$$CBV?$basic_string@DU?$char_traits@D@std@@V?$allocator@D@2@@std@@PAVfms_config_item_t@@@std@@PAX@1@@Z 100018f0 f i fms_config.obj
 0001:000008f0       ?_Destroy_if_not_nil@?$_Tree@V?$_Tset_traits@PAVlistener_t@@U?$less@PAVlistener_t@@@std@@V?$allocator@PAVlistener_t@@@3@$0A@@std@@@std@@IAEXU_Nil@2@@Z 100018f0 f i data.obj
 0001:000008f0       ??$destroy@U?$pair@$$CBHPAVfms_fp_item_t@@@std@@@?$allocator@U?$_Tree_node@U?$pair@$$CBHPAVfms_fp_item_t@@@std@@PAX@std@@@std@@QAEXPAU?$pair@$$CBHPAVfms_fp_item_t@@@1@@Z 100018f0 f i mfdpage_fms.obj
 0001:000008f0       ?_Change_alloc@?$_Tree_alloc@$0A@U?$_Tree_base_types@U?$pair@$$CBV?$basic_string@DU?$char_traits@D@std@@V?$allocator@D@2@@std@@V12@@std@@V?$allocator@U?$pair@$$CBV?$basic_string@DU?$char_traits@D@std@@V?$allocator@D@2@@std@@V12@@std@@@2@@std@@@std@@QAEXABU?$_Wrap_alloc@V?$allocator@U?$_Tree_node@U?$pair@$$CBV?$basic_string@DU?$char_traits@D@std@@V?$allocator@D@2@@std@@V12@@std@@PAX@std@@@std@@@2@@Z 100018f0 f i mfdpage_led.obj
 0001:000008f0       ?_Adopt@_Iterator_base0@std@@QAEXPBX@Z 100018f0 f i tools.obj
 0001:00000900       ??0?$_String_alloc@$0A@U?$_String_base_types@DV?$allocator@D@std@@@std@@@std@@QAE@ABV?$allocator@D@1@@Z 10001900 f i main.obj
 0001:00000920       ??0?$_String_val@U?$_Simple_types@D@std@@@std@@QAE@XZ 10001920 f i main.obj
 0001:00000950       ??0?$_Wrap_alloc@V?$allocator@U?$_Tree_node@U?$pair@$$CBV?$basic_string@DU?$char_traits@D@std@@V?$allocator@D@2@@std@@PAVfms_config_item_t@@@std@@PAX@std@@@std@@@std@@QAE@XZ 10001950 f i fms_config.obj
 0001:00000950       ??0?$_Wrap_alloc@V?$allocator@U?$_Tree_node@PAVobject_t@@PAX@std@@@std@@@std@@QAE@XZ 10001950 f i data.obj
 0001:00000950       ??0?$_Wrap_alloc@V?$allocator@U?$_Tree_node@U?$pair@$$CBHV?$basic_string@DU?$char_traits@D@std@@V?$allocator@D@2@@std@@@std@@PAX@std@@@std@@@std@@QAE@XZ 10001950 f i out_saitek.obj
 0001:00000950       ??0?$_Wrap_alloc@V?$allocator@U?$_Tree_node@U?$pair@$$CBHPAVobject_t@@@std@@PAX@std@@@std@@@std@@QAE@XZ 10001950 f i mfdpage.obj
 0001:00000950       ??0?$_Wrap_alloc@V?$allocator@U?$_Tree_node@U?$pair@$$CBHPAVfms_fp_item_t@@@std@@PAX@std@@@std@@@std@@QAE@XZ 10001950 f i mfdpage_fms.obj
 0001:00000950       ??0?$_Wrap_alloc@V?$allocator@U?$_Tree_node@U?$pair@$$CBV?$basic_string@DU?$char_traits@D@std@@V?$allocator@D@2@@std@@H@std@@PAX@std@@@std@@@std@@QAE@XZ 10001950 f i mfdpage.obj
 0001:00000950       ??0?$_Wrap_alloc@V?$allocator@U?$_Tree_node@U?$pair@$$CBV?$basic_string@DU?$char_traits@D@std@@V?$allocator@D@2@@std@@V12@@std@@PAX@std@@@std@@@std@@QAE@XZ 10001950 f i tools.obj
 0001:00000950       ??0?$_Wrap_alloc@V?$allocator@U?$_Tree_node@U?$pair@$$CBV?$basic_string@DU?$char_traits@D@std@@V?$allocator@D@2@@std@@PAVfms_fp_item_t@@@std@@PAX@std@@@std@@@std@@QAE@XZ 10001950 f i fms_fp.obj
 0001:00000950       ??0?$_Wrap_alloc@V?$allocator@U?$_Tree_node@U?$pair@$$CBV?$basic_string@DU?$char_traits@D@std@@V?$allocator@D@2@@std@@D@std@@PAX@std@@@std@@@std@@QAE@XZ 10001950 f i mfdpage.obj
 0001:00000950       ??0?$_Wrap_alloc@V?$allocator@U?$_Tree_node@U?$pair@$$CBHM@std@@PAX@std@@@std@@@std@@QAE@XZ 10001950 f i fms_config.obj
 0001:00000950       ??0?$_Wrap_alloc@V?$allocator@U?$_Tree_node@PAVlistener_t@@PAX@std@@@std@@@std@@QAE@XZ 10001950 f i data.obj
 0001:00000950       ??0?$_Wrap_alloc@V?$allocator@U?$_Tree_node@PAVmfdpage_t@@PAX@std@@@std@@@std@@QAE@XZ 10001950 f i in.obj
 0001:00000950       ??0?$_Wrap_alloc@V?$allocator@U?$_Tree_node@U?$pair@$$CBV?$basic_string@DU?$char_traits@D@std@@V?$allocator@D@2@@std@@M@std@@PAX@std@@@std@@@std@@QAE@XZ 10001950 f i mfdpage_fms.obj
 0001:00000950       ??0?$_Wrap_alloc@V?$allocator@D@std@@@std@@QAE@XZ 10001950 f i main.obj
 0001:00000970       ??0?$basic_string@DU?$char_traits@D@std@@V?$allocator@D@2@@std@@QAE@PBD@Z 10001970 f i main.obj
 0001:000009b0       ??0_Generic_error_category@std@@QAE@XZ 100019b0 f i main.obj
 0001:000009d0       ??0_Iostream_error_category@std@@QAE@XZ 100019d0 f i main.obj
 0001:000009f0       ??0_System_error_category@std@@QAE@XZ 100019f0 f i main.obj
 0001:00000a10       ??0error_category@std@@QAE@XZ 10001a10 f i main.obj
 0001:00000a30       ??0error_condition@std@@QAE@HABVerror_category@1@@Z 10001a30 f i main.obj
 0001:00000a60       ??1_Generic_error_category@std@@UAE@XZ 10001a60 f i main.obj
 0001:00000a80       ??1_Iostream_error_category@std@@UAE@XZ 10001a80 f i main.obj
 0001:00000a80       ??1_System_error_category@std@@UAE@XZ 10001a80 f i main.obj
 0001:00000aa0       ??1error_category@std@@UAE@XZ 10001aa0 f i main.obj
 0001:00000ac0       ??2@YAPAXIPAX@Z            10001ac0 f i main.obj
 0001:00000ad0       ??8error_category@std@@QBE_NABV01@@Z 10001ad0 f i main.obj
 0001:00000b00       ??8error_condition@std@@QBE_NABV01@@Z 10001b00 f i main.obj
 0001:00000b60       ??_G_Generic_error_category@std@@UAEPAXI@Z 10001b60 f i main.obj
 0001:00000b60       ??_E_Generic_error_category@std@@UAEPAXI@Z 10001b60 f i main.obj
 0001:00000b90       ??_G_System_error_category@std@@UAEPAXI@Z 10001b90 f i main.obj
 0001:00000b90       ??_E_Iostream_error_category@std@@UAEPAXI@Z 10001b90 f i main.obj
 0001:00000b90       ??_G_Iostream_error_category@std@@UAEPAXI@Z 10001b90 f i main.obj
 0001:00000b90       ??_E_System_error_category@std@@UAEPAXI@Z 10001b90 f i main.obj
 0001:00000bc0       ??_Eerror_category@std@@UAEPAXI@Z 10001bc0 f i main.obj
 0001:00000bc0       ??_Gerror_category@std@@UAEPAXI@Z 10001bc0 f i main.obj
 0001:00000bf0       ??_Gsession_t@@QAEPAXI@Z   10001bf0 f i main.obj
 0001:00000c20       ?_Copy@?$basic_string@DU?$char_traits@D@std@@V?$allocator@D@2@@std@@QAEXII@Z 10001c20 f i main.obj
 0001:00000dd0       ?_Eos@?$basic_string@DU?$char_traits@D@std@@V?$allocator@D@2@@std@@QAEXI@Z 10001dd0 f i main.obj
 0001:00000e10       ?_Grow@?$basic_string@DU?$char_traits@D@std@@V?$allocator@D@2@@std@@QAE_NI_N@Z 10001e10 f i main.obj
 0001:00000ec0       ?_Inside@?$basic_string@DU?$char_traits@D@std@@V?$allocator@D@2@@std@@QAE_NPBD@Z 10001ec0 f i main.obj
 0001:00000f00       ?_Myptr@?$_String_val@U?$_Simple_types@D@std@@@std@@QAEPADXZ 10001f00 f i main.obj
 0001:00000f00       ?_Myptr@?$_String_val@U?$_Simple_types@D@std@@@std@@QBEPBDXZ 10001f00 f i main.obj
 0001:00000f40       ?_Tidy@?$basic_string@DU?$char_traits@D@std@@V?$allocator@D@2@@std@@QAEX_NI@Z 10001f40 f i main.obj
 0001:00000fe0       ?_Xlen@?$basic_string@DU?$char_traits@D@std@@V?$allocator@D@2@@std@@QBEXXZ 10001fe0 f i main.obj
 0001:00001000       ?_Xran@?$basic_string@DU?$char_traits@D@std@@V?$allocator@D@2@@std@@QBEXXZ 10002000 f i main.obj
 0001:00001020       ?allocate@?$_Wrap_alloc@V?$allocator@D@std@@@std@@QAEPADI@Z 10002020 f i main.obj
 0001:00001040       ?allocate@?$allocator@D@std@@QAEPADI@Z 10002040 f i main.obj
 0001:00001060       ?assign@?$basic_string@DU?$char_traits@D@std@@V?$allocator@D@2@@std@@QAEAAV12@ABV12@II@Z 10002060 f i main.obj
 0001:00001110       ?assign@?$basic_string@DU?$char_traits@D@std@@V?$allocator@D@2@@std@@QAEAAV12@PBD@Z 10002110 f i main.obj
 0001:00001140       ?assign@?$basic_string@DU?$char_traits@D@std@@V?$allocator@D@2@@std@@QAEAAV12@PBDI@Z 10002140 f i main.obj
 0001:000011c0       ?assign@?$char_traits@D@std@@SAXAADABD@Z 100021c0 f i main.obj
 0001:000011d0       ?copy@?$char_traits@D@std@@SAPADPADPBDI@Z 100021d0 f i main.obj
 0001:00001200       ?deallocate@?$_Wrap_alloc@V?$allocator@U?$_Tree_node@U?$pair@$$CBHPAVobject_t@@@std@@PAX@std@@@std@@@std@@QAEXPAU?$_Tree_node@U?$pair@$$CBHPAVobject_t@@@std@@PAX@2@I@Z 10002200 f i mfdpage.obj
 0001:00001200       ?deallocate@?$_Wrap_alloc@V?$allocator@U?$_Tree_node@U?$pair@$$CBV?$basic_string@DU?$char_traits@D@std@@V?$allocator@D@2@@std@@M@std@@PAX@std@@@std@@@std@@QAEXPAU?$_Tree_node@U?$pair@$$CBV?$basic_string@DU?$char_traits@D@std@@V?$allocator@D@2@@std@@M@std@@PAX@2@I@Z 10002200 f i mfdpage_fms.obj
 0001:00001200       ?deallocate@?$_Wrap_alloc@V?$allocator@U?$_Tree_node@PAVmfdpage_t@@PAX@std@@@std@@@std@@QAEXPAU?$_Tree_node@PAVmfdpage_t@@PAX@2@I@Z 10002200 f i in.obj
 0001:00001200       ?deallocate@?$_Wrap_alloc@V?$allocator@U?$_Tree_node@PAVobject_t@@PAX@std@@@std@@@std@@QAEXPAU?$_Tree_node@PAVobject_t@@PAX@2@I@Z 10002200 f i data.obj
 0001:00001200       ?deallocate@?$_Wrap_alloc@V?$allocator@U?$_Tree_node@U?$pair@$$CBV?$basic_string@DU?$char_traits@D@std@@V?$allocator@D@2@@std@@PAVfms_fp_item_t@@@std@@PAX@std@@@std@@@std@@QAEXPAU?$_Tree_node@U?$pair@$$CBV?$basic_string@DU?$char_traits@D@std@@V?$allocator@D@2@@std@@PAVfms_fp_item_t@@@std@@PAX@2@I@Z 10002200 f i fms_fp.obj
 0001:00001200       ?deallocate@?$_Wrap_alloc@V?$allocator@U?$_Tree_node@PAVlistener_t@@PAX@std@@@std@@@std@@QAEXPAU?$_Tree_node@PAVlistener_t@@PAX@2@I@Z 10002200 f i data.obj
 0001:00001200       ?deallocate@?$_Wrap_alloc@V?$allocator@U?$_Tree_node@U?$pair@$$CBHPAVfms_fp_item_t@@@std@@PAX@std@@@std@@@std@@QAEXPAU?$_Tree_node@U?$pair@$$CBHPAVfms_fp_item_t@@@std@@PAX@2@I@Z 10002200 f i mfdpage_fms.obj
 0001:00001200       ?deallocate@?$_Wrap_alloc@V?$allocator@U?$_Tree_node@U?$pair@$$CBHV?$basic_string@DU?$char_traits@D@std@@V?$allocator@D@2@@std@@@std@@PAX@std@@@std@@@std@@QAEXPAU?$_Tree_node@U?$pair@$$CBHV?$basic_string@DU?$char_traits@D@std@@V?$allocator@D@2@@std@@@std@@PAX@2@I@Z 10002200 f i out_saitek.obj
 0001:00001200       ?deallocate@?$_Wrap_alloc@V?$allocator@U?$_Tree_node@U?$pair@$$CBV?$basic_string@DU?$char_traits@D@std@@V?$allocator@D@2@@std@@V12@@std@@PAX@std@@@std@@@std@@QAEXPAU?$_Tree_node@U?$pair@$$CBV?$basic_string@DU?$char_traits@D@std@@V?$allocator@D@2@@std@@V12@@std@@PAX@2@I@Z 10002200 f i tools.obj
 0001:00001200       ?deallocate@?$_Wrap_alloc@V?$allocator@U?$_Tree_node@U?$pair@$$CBV?$basic_string@DU?$char_traits@D@std@@V?$allocator@D@2@@std@@D@std@@PAX@std@@@std@@@std@@QAEXPAU?$_Tree_node@U?$pair@$$CBV?$basic_string@DU?$char_traits@D@std@@V?$allocator@D@2@@std@@D@std@@PAX@2@I@Z 10002200 f i mfdpage.obj
 0001:00001200       ?deallocate@?$_Wrap_alloc@V?$allocator@U?$_Tree_node@U?$pair@$$CBV?$basic_string@DU?$char_traits@D@std@@V?$allocator@D@2@@std@@PAVfms_config_item_t@@@std@@PAX@std@@@std@@@std@@QAEXPAU?$_Tree_node@U?$pair@$$CBV?$basic_string@DU?$char_traits@D@std@@V?$allocator@D@2@@std@@PAVfms_config_item_t@@@std@@PAX@2@I@Z 10002200 f i fms_config.obj
 0001:00001200       ?deallocate@?$_Wrap_alloc@V?$allocator@D@std@@@std@@QAEXPADI@Z 10002200 f i main.obj
 0001:00001200       ?deallocate@?$_Wrap_alloc@V?$allocator@U?$_Tree_node@U?$pair@$$CBHM@std@@PAX@std@@@std@@@std@@QAEXPAU?$_Tree_node@U?$pair@$$CBHM@std@@PAX@2@I@Z 10002200 f i fms_config.obj
 0001:00001200       ?deallocate@?$_Wrap_alloc@V?$allocator@U?$_Tree_node@U?$pair@$$CBV?$basic_string@DU?$char_traits@D@std@@V?$allocator@D@2@@std@@H@std@@PAX@std@@@std@@@std@@QAEXPAU?$_Tree_node@U?$pair@$$CBV?$basic_string@DU?$char_traits@D@std@@V?$allocator@D@2@@std@@H@std@@PAX@2@I@Z 10002200 f i mfdpage.obj
 0001:00001220       ?deallocate@?$allocator@U?$_Tree_node@PAVobject_t@@PAX@std@@@std@@QAEXPAU?$_Tree_node@PAVobject_t@@PAX@2@I@Z 10002220 f i data.obj
 0001:00001220       ?deallocate@?$allocator@U?$_Tree_node@U?$pair@$$CBV?$basic_string@DU?$char_traits@D@std@@V?$allocator@D@2@@std@@V12@@std@@PAX@std@@@std@@QAEXPAU?$_Tree_node@U?$pair@$$CBV?$basic_string@DU?$char_traits@D@std@@V?$allocator@D@2@@std@@V12@@std@@PAX@2@I@Z 10002220 f i tools.obj
 0001:00001220       ?deallocate@?$allocator@U?$_Tree_node@PAVlistener_t@@PAX@std@@@std@@QAEXPAU?$_Tree_node@PAVlistener_t@@PAX@2@I@Z 10002220 f i data.obj
 0001:00001220       ?deallocate@?$allocator@U?$_Tree_node@U?$pair@$$CBHM@std@@PAX@std@@@std@@QAEXPAU?$_Tree_node@U?$pair@$$CBHM@std@@PAX@2@I@Z 10002220 f i fms_config.obj
 0001:00001220       ?deallocate@?$allocator@U?$_Tree_node@U?$pair@$$CBV?$basic_string@DU?$char_traits@D@std@@V?$allocator@D@2@@std@@D@std@@PAX@std@@@std@@QAEXPAU?$_Tree_node@U?$pair@$$CBV?$basic_string@DU?$char_traits@D@std@@V?$allocator@D@2@@std@@D@std@@PAX@2@I@Z 10002220 f i mfdpage.obj
 0001:00001220       ?deallocate@?$allocator@U?$_Tree_node@PAVmfdpage_t@@PAX@std@@@std@@QAEXPAU?$_Tree_node@PAVmfdpage_t@@PAX@2@I@Z 10002220 f i in.obj
 0001:00001220       ?deallocate@?$allocator@U?$_Tree_node@U?$pair@$$CBHV?$basic_string@DU?$char_traits@D@std@@V?$allocator@D@2@@std@@@std@@PAX@std@@@std@@QAEXPAU?$_Tree_node@U?$pair@$$CBHV?$basic_string@DU?$char_traits@D@std@@V?$allocator@D@2@@std@@@std@@PAX@2@I@Z 10002220 f i out_saitek.obj
 0001:00001220       ?deallocate@?$allocator@U?$_Tree_node@U?$pair@$$CBV?$basic_string@DU?$char_traits@D@std@@V?$allocator@D@2@@std@@PAVfms_config_item_t@@@std@@PAX@std@@@std@@QAEXPAU?$_Tree_node@U?$pair@$$CBV?$basic_string@DU?$char_traits@D@std@@V?$allocator@D@2@@std@@PAVfms_config_item_t@@@std@@PAX@2@I@Z 10002220 f i fms_config.obj
 0001:00001220       ?deallocate@?$allocator@U?$_Tree_node@U?$pair@$$CBV?$basic_string@DU?$char_traits@D@std@@V?$allocator@D@2@@std@@PAVfms_fp_item_t@@@std@@PAX@std@@@std@@QAEXPAU?$_Tree_node@U?$pair@$$CBV?$basic_string@DU?$char_traits@D@std@@V?$allocator@D@2@@std@@PAVfms_fp_item_t@@@std@@PAX@2@I@Z 10002220 f i fms_fp.obj
 0001:00001220       ?deallocate@?$allocator@D@std@@QAEXPADI@Z 10002220 f i main.obj
 0001:00001220       ?deallocate@?$allocator@U?$_Tree_node@U?$pair@$$CBV?$basic_string@DU?$char_traits@D@std@@V?$allocator@D@2@@std@@H@std@@PAX@std@@@std@@QAEXPAU?$_Tree_node@U?$pair@$$CBV?$basic_string@DU?$char_traits@D@std@@V?$allocator@D@2@@std@@H@std@@PAX@2@I@Z 10002220 f i mfdpage.obj
 0001:00001220       ?deallocate@?$allocator@U?$_Tree_node@U?$pair@$$CBHPAVobject_t@@@std@@PAX@std@@@std@@QAEXPAU?$_Tree_node@U?$pair@$$CBHPAVobject_t@@@std@@PAX@2@I@Z 10002220 f i mfdpage.obj
 0001:00001220       ?deallocate@?$allocator@U?$_Tree_node@U?$pair@$$CBHPAVfms_fp_item_t@@@std@@PAX@std@@@std@@QAEXPAU?$_Tree_node@U?$pair@$$CBHPAVfms_fp_item_t@@@std@@PAX@2@I@Z 10002220 f i mfdpage_fms.obj
 0001:00001220       ?deallocate@?$allocator@U?$_Tree_node@U?$pair@$$CBV?$basic_string@DU?$char_traits@D@std@@V?$allocator@D@2@@std@@M@std@@PAX@std@@@std@@QAEXPAU?$_Tree_node@U?$pair@$$CBV?$basic_string@DU?$char_traits@D@std@@V?$allocator@D@2@@std@@M@std@@PAX@2@I@Z 10002220 f i mfdpage_fms.obj
 0001:00001240       ?default_error_condition@_System_error_category@std@@UBE?AVerror_condition@2@H@Z 10002240 f i main.obj
 0001:00001290       ?default_error_condition@error_category@std@@UBE?AVerror_condition@2@H@Z 10002290 f i main.obj
 0001:000012b0       ?equivalent@error_category@std@@UBE_NABVerror_code@2@H@Z 100022b0 f i main.obj
 0001:00001300       ?equivalent@error_category@std@@UBE_NHABVerror_condition@2@@Z 10002300 f i main.obj
 0001:00001330       ?erase@?$basic_string@DU?$char_traits@D@std@@V?$allocator@D@2@@std@@QAEAAV12@I@Z 10002330 f i main.obj
 0001:00001360       ?erase@?$basic_string@DU?$char_traits@D@std@@V?$allocator@D@2@@std@@QAEAAV12@II@Z 10002360 f i main.obj
 0001:000013f0       ?generic_category@std@@YAABVerror_category@1@XZ 100023f0 f i main.obj
 0001:00001400       ?length@?$char_traits@D@std@@SAIPBD@Z 10002400 f i main.obj
 0001:00001430       ?max_size@?$_Wrap_alloc@V?$allocator@D@std@@@std@@QBEIXZ 10002430 f i main.obj
 0001:00001450       ?max_size@?$allocator@D@std@@QBEIXZ 10002450 f i main.obj
 0001:00001460       ?max_size@?$allocator_traits@V?$allocator@D@std@@@std@@SAIABV?$allocator@D@2@@Z 10002460 f i main.obj
 0001:00001470       ?max_size@?$basic_string@DU?$char_traits@D@std@@V?$allocator@D@2@@std@@QBEIXZ 10002470 f i main.obj
 0001:000014b0       ?message@_Generic_error_category@std@@UBE?AV?$basic_string@DU?$char_traits@D@std@@V?$allocator@D@2@@2@H@Z 100024b0 f i main.obj
 0001:00001500       ?message@_Iostream_error_category@std@@UBE?AV?$basic_string@DU?$char_traits@D@std@@V?$allocator@D@2@@2@H@Z 10002500 f i main.obj
 0001:00001540       ?message@_System_error_category@std@@UBE?AV?$basic_string@DU?$char_traits@D@std@@V?$allocator@D@2@@2@H@Z 10002540 f i main.obj
 0001:00001590       ?move@?$char_traits@D@std@@SAPADPADPBDI@Z 10002590 f i main.obj
 0001:000015d0       ?name@_Generic_error_category@std@@UBEPBDXZ 100025d0 f i main.obj
 0001:000015e0       ?name@_Iostream_error_category@std@@UBEPBDXZ 100025e0 f i main.obj
 0001:000015f0       ?name@_System_error_category@std@@UBEPBDXZ 100025f0 f i main.obj
 0001:00001600       ?system_category@std@@YAABVerror_category@1@XZ 10002600 f i main.obj
 0001:00001610       ??0session_t@@QAE@XZ       10002610 f   session.obj
 0001:00001820       ??1session_t@@QAE@XZ       10002820 f   session.obj
 0001:00001960       ?enable@session_t@@QAEHXZ  10002960 f   session.obj
 0001:00001990       ?disable@session_t@@QAEXXZ 10002990 f   session.obj
 0001:000019b0       ??_Gfms_t@@QAEPAXI@Z       100029b0 f i session.obj
 0001:000019e0       ??_Ggui_t@@QAEPAXI@Z       100029e0 f i session.obj
 0001:00001a10       ??_Gin_t@@QAEPAXI@Z        10002a10 f i session.obj
 0001:00001a40       ??_Gmfdpages_t@@QAEPAXI@Z  10002a40 f i session.obj
 0001:00001a70       ??_Gout_t@@QAEPAXI@Z       10002a70 f i session.obj
 0001:00001ae0       ??0tools_t@@QAE@XZ         10002ae0 f   tools.obj
 0001:00001af0       ?debug_out@tools_t@@QAAXHPBDZZ 10002af0 f   tools.obj
 0001:00001d20       ?debug_out@tools_t@@SAXPBDZZ 10002d20 f   tools.obj
 0001:00001da0       ??$?0$$QAV?$basic_string@DU?$char_traits@D@std@@V?$allocator@D@2@@std@@$$$V@?$pair@$$CBV?$basic_string@DU?$char_traits@D@std@@V?$allocator@D@2@@std@@V12@@std@@QAE@Upiecewise_construct_t@1@V?$tuple@$$QAV?$basic_string@DU?$char_traits@D@std@@V?$allocator@D@2@@std@@@1@V?$tuple@$$$V@1@@Z 10002da0 f i tools.obj
 0001:00001de0       ??$?0ABHPAPAX@?$tuple@ABH@std@@QAE@$$QAV01@@Z 10002de0 f i out_saitek.obj
 0001:00001de0       ??$?0$$QAHPAPAX@?$tuple@$$QAH@std@@QAE@$$QAV01@@Z 10002de0 f i mfdpage_fms.obj
 0001:00001de0       ??$?0$$QAV?$basic_string@DU?$char_traits@D@std@@V?$allocator@D@2@@std@@PAPAX@?$tuple@$$QAV?$basic_string@DU?$char_traits@D@std@@V?$allocator@D@2@@std@@@std@@QAE@$$QAV01@@Z 10002de0 f i tools.obj
 0001:00001de0       ??$?0ABV?$basic_string@DU?$char_traits@D@std@@V?$allocator@D@2@@std@@PAPAX@?$tuple@ABV?$basic_string@DU?$char_traits@D@std@@V?$allocator@D@2@@std@@@std@@QAE@$$QAV01@@Z 10002de0 f i mfdpage.obj
 0001:00001e30       ??$?0V?$basic_string@DU?$char_traits@D@std@@V?$allocator@D@2@@std@@@?$_Tuple_val@$$QAV?$basic_string@DU?$char_traits@D@std@@V?$allocator@D@2@@std@@@std@@QAE@$$QAV?$basic_string@DU?$char_traits@D@std@@V?$allocator@D@2@@1@@Z 10002e30 f i tools.obj
 0001:00001e30       ??$?0H@?$_Tuple_val@$$QAH@std@@QAE@$$QAH@Z 10002e30 f i mfdpage_fms.obj
 0001:00001e30       ??$?0ABH@?$_Tuple_val@ABH@std@@QAE@ABH@Z 10002e30 f i out_saitek.obj
 0001:00001e30       ??$?0ABV?$basic_string@DU?$char_traits@D@std@@V?$allocator@D@2@@std@@@?$_Tuple_val@ABV?$basic_string@DU?$char_traits@D@std@@V?$allocator@D@2@@std@@@std@@QAE@ABV?$basic_string@DU?$char_traits@D@std@@V?$allocator@D@2@@1@@Z 10002e30 f i mfdpage.obj
 0001:00001e60       ??$?0V?$tuple@$$QAV?$basic_string@DU?$char_traits@D@std@@V?$allocator@D@2@@std@@@std@@V?$tuple@$$$V@1@$0A@$S@?$pair@$$CBV?$basic_string@DU?$char_traits@D@std@@V?$allocator@D@2@@std@@V12@@std@@QAE@AAV?$tuple@$$QAV?$basic_string@DU?$char_traits@D@std@@V?$allocator@D@2@@std@@@1@AAV?$tuple@$$$V@1@U?$_Arg_idx@$0A@@1@U?$_Arg_idx@$S@1@@Z 10002e60 f i tools.obj
 0001:00001ea0       ??$?MDU?$char_traits@D@std@@V?$allocator@D@1@@std@@YA_NABV?$basic_string@DU?$char_traits@D@std@@V?$allocator@D@2@@0@0@Z 10002ea0 f i tools.obj
 0001:00001ed0       ??$_Allocate@U?$_Tree_node@U?$pair@$$CBV?$basic_string@DU?$char_traits@D@std@@V?$allocator@D@2@@std@@V12@@std@@PAX@std@@@std@@YAPAU?$_Tree_node@U?$pair@$$CBV?$basic_string@DU?$char_traits@D@std@@V?$allocator@D@2@@std@@V12@@std@@PAX@0@IPAU10@@Z 10002ed0 f i tools.obj
 0001:00001f20       ??$_Buynode@ABUpiecewise_construct_t@std@@V?$tuple@$$QAV?$basic_string@DU?$char_traits@D@std@@V?$allocator@D@2@@std@@@2@V?$tuple@$$$V@2@@?$_Tree_buy@U?$pair@$$CBV?$basic_string@DU?$char_traits@D@std@@V?$allocator@D@2@@std@@V12@@std@@V?$allocator@U?$pair@$$CBV?$basic_string@DU?$char_traits@D@std@@V?$allocator@D@2@@std@@V12@@std@@@2@@std@@QAEPAU?$_Tree_node@U?$pair@$$CBV?$basic_string@DU?$char_traits@D@std@@V?$allocator@D@2@@std@@V12@@std@@PAX@1@ABUpiecewise_construct_t@1@$$QAV?$tuple@$$QAV?$basic_string@DU?$char_traits@D@std@@V?$allocator@D@2@@std@@@1@$$QAV?$tuple@$$$V@1@@Z 10002f20 f i tools.obj
 0001:00002020       ??$_Insert_at@AAU?$pair@$$CBV?$basic_string@DU?$char_traits@D@std@@V?$allocator@D@2@@std@@V12@@std@@PAU?$_Tree_node@U?$pair@$$CBV?$basic_string@DU?$char_traits@D@std@@V?$allocator@D@2@@std@@V12@@std@@PAX@2@@?$_Tree@V?$_Tmap_traits@V?$basic_string@DU?$char_traits@D@std@@V?$allocator@D@2@@std@@V12@U?$less@V?$basic_string@DU?$char_traits@D@std@@V?$allocator@D@2@@std@@@2@V?$allocator@U?$pair@$$CBV?$basic_string@DU?$char_traits@D@std@@V?$allocator@D@2@@std@@V12@@std@@@2@$0A@@std@@@std@@IAE?AV?$_Tree_iterator@V?$_Tree_val@U?$_Tree_simple_types@U?$pair@$$CBV?$basic_string@DU?$char_traits@D@std@@V?$allocator@D@2@@std@@V12@@std@@@std@@@std@@@1@_NPAU?$_Tree_node@U?$pair@$$CBV?$basic_string@DU?$char_traits@D@std@@V?$allocator@D@2@@std@@V12@@std@@PAX@1@AAU?$pair@$$CBV?$basic_string@DU?$char_traits@D@std@@V?$allocator@D@2@@std@@V12@@1@1@Z 10003020 f i tools.obj
 0001:00002450       ??$_Insert_hint@AAU?$pair@$$CBV?$basic_string@DU?$char_traits@D@std@@V?$allocator@D@2@@std@@V12@@std@@PAU?$_Tree_node@U?$pair@$$CBV?$basic_string@DU?$char_traits@D@std@@V?$allocator@D@2@@std@@V12@@std@@PAX@2@@?$_Tree@V?$_Tmap_traits@V?$basic_string@DU?$char_traits@D@std@@V?$allocator@D@2@@std@@V12@U?$less@V?$basic_string@DU?$char_traits@D@std@@V?$allocator@D@2@@std@@@2@V?$allocator@U?$pair@$$CBV?$basic_string@DU?$char_traits@D@std@@V?$allocator@D@2@@std@@V12@@std@@@2@$0A@@std@@@std@@IAE?AV?$_Tree_iterator@V?$_Tree_val@U?$_Tree_simple_types@U?$pair@$$CBV?$basic_string@DU?$char_traits@D@std@@V?$allocator@D@2@@std@@V12@@std@@@std@@@std@@@1@V?$_Tree_const_iterator@V?$_Tree_val@U?$_Tree_simple_types@U?$pair@$$CBV?$basic_string@DU?$char_traits@D@std@@V?$allocator@D@2@@std@@V12@@std@@@std@@@std@@@1@AAU?$pair@$$CBV?$basic_string@DU?$char_traits@D@std@@V?$allocator@D@2@@std@@V12@@1@PAU?$_Tree_node@U?$pair@$$CBV?$basic_string@DU?$char_traits@D@std@@V?$allocator@D@2@@std@@V12@@std@@PAX@1@@Z 10003450 f i tools.obj
 0001:00002c00       ??$_Insert_nohint@AAU?$pair@$$CBV?$basic_string@DU?$char_traits@D@std@@V?$allocator@D@2@@std@@V12@@std@@PAU?$_Tree_node@U?$pair@$$CBV?$basic_string@DU?$char_traits@D@std@@V?$allocator@D@2@@std@@V12@@std@@PAX@2@@?$_Tree@V?$_Tmap_traits@V?$basic_string@DU?$char_traits@D@std@@V?$allocator@D@2@@std@@V12@U?$less@V?$basic_string@DU?$char_traits@D@std@@V?$allocator@D@2@@std@@@2@V?$allocator@U?$pair@$$CBV?$basic_string@DU?$char_traits@D@std@@V?$allocator@D@2@@std@@V12@@std@@@2@$0A@@std@@@std@@IAE?AU?$pair@V?$_Tree_iterator@V?$_Tree_val@U?$_Tree_simple_types@U?$pair@$$CBV?$basic_string@DU?$char_traits@D@std@@V?$allocator@D@2@@std@@V12@@std@@@std@@@std@@@std@@_N@1@_NAAU?$pair@$$CBV?$basic_string@DU?$char_traits@D@std@@V?$allocator@D@2@@std@@V12@@1@PAU?$_Tree_node@U?$pair@$$CBV?$basic_string@DU?$char_traits@D@std@@V?$allocator@D@2@@std@@V12@@std@@PAX@1@@Z 10003c00 f i tools.obj
 0001:00002ed0       ??$construct@U?$pair@$$CBV?$basic_string@DU?$char_traits@D@std@@V?$allocator@D@2@@std@@V12@@std@@ABUpiecewise_construct_t@2@V?$tuple@$$QAV?$basic_string@DU?$char_traits@D@std@@V?$allocator@D@2@@std@@@2@V?$tuple@$$$V@2@@?$_Wrap_alloc@V?$allocator@U?$_Tree_node@U?$pair@$$CBV?$basic_string@DU?$char_traits@D@std@@V?$allocator@D@2@@std@@V12@@std@@PAX@std@@@std@@@std@@QAEXPAU?$pair@$$CBV?$basic_string@DU?$char_traits@D@std@@V?$allocator@D@2@@std@@V12@@1@ABUpiecewise_construct_t@1@$$QAV?$tuple@$$QAV?$basic_string@DU?$char_traits@D@std@@V?$allocator@D@2@@std@@@1@$$QAV?$tuple@$$$V@1@@Z 10003ed0 f i tools.obj
 0001:00002f20       ??$construct@U?$pair@$$CBV?$basic_string@DU?$char_traits@D@std@@V?$allocator@D@2@@std@@V12@@std@@ABUpiecewise_construct_t@2@V?$tuple@$$QAV?$basic_string@DU?$char_traits@D@std@@V?$allocator@D@2@@std@@@2@V?$tuple@$$$V@2@@?$allocator@U?$_Tree_node@U?$pair@$$CBV?$basic_string@DU?$char_traits@D@std@@V?$allocator@D@2@@std@@V12@@std@@PAX@std@@@std@@QAEXPAU?$pair@$$CBV?$basic_string@DU?$char_traits@D@std@@V?$allocator@D@2@@std@@V12@@1@ABUpiecewise_construct_t@1@$$QAV?$tuple@$$QAV?$basic_string@DU?$char_traits@D@std@@V?$allocator@D@2@@std@@@1@$$QAV?$tuple@$$$V@1@@Z 10003f20 f i tools.obj
 0001:00002f90       ??$construct@U?$pair@$$CBV?$basic_string@DU?$char_traits@D@std@@V?$allocator@D@2@@std@@V12@@std@@ABUpiecewise_construct_t@2@V?$tuple@$$QAV?$basic_string@DU?$char_traits@D@std@@V?$allocator@D@2@@std@@@2@V?$tuple@$$$V@2@@?$allocator_traits@V?$allocator@U?$_Tree_node@U?$pair@$$CBV?$basic_string@DU?$char_traits@D@std@@V?$allocator@D@2@@std@@V12@@std@@PAX@std@@@std@@@std@@SAXAAV?$allocator@U?$_Tree_node@U?$pair@$$CBV?$basic_string@DU?$char_traits@D@std@@V?$allocator@D@2@@std@@V12@@std@@PAX@std@@@1@PAU?$pair@$$CBV?$basic_string@DU?$char_traits@D@std@@V?$allocator@D@2@@std@@V12@@1@ABUpiecewise_construct_t@1@$$QAV?$tuple@$$QAV?$basic_string@DU?$char_traits@D@std@@V?$allocator@D@2@@std@@@1@$$QAV?$tuple@$$$V@1@@Z 10003f90 f i tools.obj
 0001:00002fd0       ??$destroy@U?$pair@$$CBV?$basic_string@DU?$char_traits@D@std@@V?$allocator@D@2@@std@@V12@@std@@@?$_Wrap_alloc@V?$allocator@U?$_Tree_node@U?$pair@$$CBV?$basic_string@DU?$char_traits@D@std@@V?$allocator@D@2@@std@@V12@@std@@PAX@std@@@std@@@std@@QAEXPAU?$pair@$$CBV?$basic_string@DU?$char_traits@D@std@@V?$allocator@D@2@@std@@V12@@1@@Z 10003fd0 f i tools.obj
 0001:00002ff0       ??$destroy@U?$pair@$$CBV?$basic_string@DU?$char_traits@D@std@@V?$allocator@D@2@@std@@V12@@std@@@?$allocator@U?$_Tree_node@U?$pair@$$CBV?$basic_string@DU?$char_traits@D@std@@V?$allocator@D@2@@std@@V12@@std@@PAX@std@@@std@@QAEXPAU?$pair@$$CBV?$basic_string@DU?$char_traits@D@std@@V?$allocator@D@2@@std@@V12@@1@@Z 10003ff0 f i tools.obj
 0001:00003010       ??$destroy@U?$pair@$$CBV?$basic_string@DU?$char_traits@D@std@@V?$allocator@D@2@@std@@V12@@std@@@?$allocator_traits@V?$allocator@U?$_Tree_node@U?$pair@$$CBV?$basic_string@DU?$char_traits@D@std@@V?$allocator@D@2@@std@@V12@@std@@PAX@std@@@std@@@std@@SAXAAV?$allocator@U?$_Tree_node@U?$pair@$$CBV?$basic_string@DU?$char_traits@D@std@@V?$allocator@D@2@@std@@V12@@std@@PAX@std@@@1@PAU?$pair@$$CBV?$basic_string@DU?$char_traits@D@std@@V?$allocator@D@2@@std@@V12@@1@@Z 10004010 f i tools.obj
 0001:00003030       ??$emplace_hint@ABUpiecewise_construct_t@std@@V?$tuple@$$QAV?$basic_string@DU?$char_traits@D@std@@V?$allocator@D@2@@std@@@2@V?$tuple@$$$V@2@@?$_Tree@V?$_Tmap_traits@V?$basic_string@DU?$char_traits@D@std@@V?$allocator@D@2@@std@@V12@U?$less@V?$basic_string@DU?$char_traits@D@std@@V?$allocator@D@2@@std@@@2@V?$allocator@U?$pair@$$CBV?$basic_string@DU?$char_traits@D@std@@V?$allocator@D@2@@std@@V12@@std@@@2@$0A@@std@@@std@@QAE?AV?$_Tree_iterator@V?$_Tree_val@U?$_Tree_simple_types@U?$pair@$$CBV?$basic_string@DU?$char_traits@D@std@@V?$allocator@D@2@@std@@V12@@std@@@std@@@std@@@1@V?$_Tree_const_iterator@V?$_Tree_val@U?$_Tree_simple_types@U?$pair@$$CBV?$basic_string@DU?$char_traits@D@std@@V?$allocator@D@2@@std@@V12@@std@@@std@@@std@@@1@ABUpiecewise_construct_t@1@$$QAV?$tuple@$$QAV?$basic_string@DU?$char_traits@D@std@@V?$allocator@D@2@@std@@@1@$$QAV?$tuple@$$$V@1@@Z 10004030 f i tools.obj
 0001:000030a0       ??$swap@D@std@@YAXAAD0@Z   100040a0 f i tools.obj
 0001:000030e0       ??0?$basic_string@DU?$char_traits@D@std@@V?$allocator@D@2@@std@@QAE@$$QAV01@@Z 100040e0 f i tools.obj
 0001:00003130       ??0?$basic_string@DU?$char_traits@D@std@@V?$allocator@D@2@@std@@QAE@XZ 10004130 f i tools.obj
 0001:00003160       ??1?$_Tree@V?$_Tmap_traits@V?$basic_string@DU?$char_traits@D@std@@V?$allocator@D@2@@std@@V12@U?$less@V?$basic_string@DU?$char_traits@D@std@@V?$allocator@D@2@@std@@@2@V?$allocator@U?$pair@$$CBV?$basic_string@DU?$char_traits@D@std@@V?$allocator@D@2@@std@@V12@@std@@@2@$0A@@std@@@std@@QAE@XZ 10004160 f i tools.obj
 0001:00003180       ??1?$basic_string@DU?$char_traits@D@std@@V?$allocator@D@2@@std@@QAE@XZ 10004180 f i tools.obj
 0001:000031a0       ??1?$map@V?$basic_string@DU?$char_traits@D@std@@V?$allocator@D@2@@std@@V12@U?$less@V?$basic_string@DU?$char_traits@D@std@@V?$allocator@D@2@@std@@@2@V?$allocator@U?$pair@$$CBV?$basic_string@DU?$char_traits@D@std@@V?$allocator@D@2@@std@@V12@@std@@@2@@std@@QAE@XZ 100041a0 f i tools.obj
 0001:000031c0       ??1?$pair@$$CBV?$basic_string@DU?$char_traits@D@std@@V?$allocator@D@2@@std@@V12@@std@@QAE@XZ 100041c0 f i tools.obj
 0001:000031e0       ??A?$map@V?$basic_string@DU?$char_traits@D@std@@V?$allocator@D@2@@std@@V12@U?$less@V?$basic_string@DU?$char_traits@D@std@@V?$allocator@D@2@@std@@@2@V?$allocator@U?$pair@$$CBV?$basic_string@DU?$char_traits@D@std@@V?$allocator@D@2@@std@@V12@@std@@@2@@std@@QAEAAV?$basic_string@DU?$char_traits@D@std@@V?$allocator@D@2@@1@$$QAV21@@Z 100041e0 f i tools.obj
 0001:000032a0       ??C?$_Tree_iterator@V?$_Tree_val@U?$_Tree_simple_types@U?$pair@$$CBV?$basic_string@DU?$char_traits@D@std@@V?$allocator@D@2@@std@@V12@@std@@@std@@@std@@@std@@QBEPAU?$pair@$$CBV?$basic_string@DU?$char_traits@D@std@@V?$allocator@D@2@@std@@V12@@1@XZ 100042a0 f i tools.obj
 0001:000032a0       ??C?$_Tree_iterator@V?$_Tree_val@U?$_Tree_simple_types@U?$pair@$$CBV?$basic_string@DU?$char_traits@D@std@@V?$allocator@D@2@@std@@PAVfms_fp_item_t@@@std@@@std@@@std@@@std@@QBEPAU?$pair@$$CBV?$basic_string@DU?$char_traits@D@std@@V?$allocator@D@2@@std@@PAVfms_fp_item_t@@@1@XZ 100042a0 f i fms_fp.obj
 0001:000032a0       ??C?$_Tree_iterator@V?$_Tree_val@U?$_Tree_simple_types@U?$pair@$$CBV?$basic_string@DU?$char_traits@D@std@@V?$allocator@D@2@@std@@PAVfms_config_item_t@@@std@@@std@@@std@@@std@@QBEPAU?$pair@$$CBV?$basic_string@DU?$char_traits@D@std@@V?$allocator@D@2@@std@@PAVfms_config_item_t@@@1@XZ 100042a0 f i fms_config.obj
 0001:000032a0       ??C?$_Tree_iterator@V?$_Tree_val@U?$_Tree_simple_types@U?$pair@$$CBV?$basic_string@DU?$char_traits@D@std@@V?$allocator@D@2@@std@@H@std@@@std@@@std@@@std@@QBEPAU?$pair@$$CBV?$basic_string@DU?$char_traits@D@std@@V?$allocator@D@2@@std@@H@1@XZ 100042a0 f i mfdpage.obj
 0001:000032a0       ??C?$_Tree_iterator@V?$_Tree_val@U?$_Tree_simple_types@U?$pair@$$CBHM@std@@@std@@@std@@@std@@QBEPAU?$pair@$$CBHM@1@XZ 100042a0 f i fms_config.obj
 0001:000032a0       ??C?$_Tree_iterator@V?$_Tree_val@U?$_Tree_simple_types@U?$pair@$$CBHPAVfms_fp_item_t@@@std@@@std@@@std@@@std@@QBEPAU?$pair@$$CBHPAVfms_fp_item_t@@@1@XZ 100042a0 f i mfdpage_fms.obj
 0001:000032a0       ??C?$_Tree_iterator@V?$_Tree_val@U?$_Tree_simple_types@U?$pair@$$CBV?$basic_string@DU?$char_traits@D@std@@V?$allocator@D@2@@std@@D@std@@@std@@@std@@@std@@QBEPAU?$pair@$$CBV?$basic_string@DU?$char_traits@D@std@@V?$allocator@D@2@@std@@D@1@XZ 100042a0 f i mfdpage.obj
 0001:000032a0       ??C?$_Tree_iterator@V?$_Tree_val@U?$_Tree_simple_types@U?$pair@$$CBV?$basic_string@DU?$char_traits@D@std@@V?$allocator@D@2@@std@@M@std@@@std@@@std@@@std@@QBEPAU?$pair@$$CBV?$basic_string@DU?$char_traits@D@std@@V?$allocator@D@2@@std@@M@1@XZ 100042a0 f i mfdpage_fms.obj
 0001:000032a0       ??C?$_Tree_iterator@V?$_Tree_val@U?$_Tree_simple_types@U?$pair@$$CBHPAVobject_t@@@std@@@std@@@std@@@std@@QBEPAU?$pair@$$CBHPAVobject_t@@@1@XZ 100042a0 f i mfdpage.obj
 0001:000032a0       ??C?$_Tree_iterator@V?$_Tree_val@U?$_Tree_simple_types@U?$pair@$$CBHV?$basic_string@DU?$char_traits@D@std@@V?$allocator@D@2@@std@@@std@@@std@@@std@@@std@@QBEPAU?$pair@$$CBHV?$basic_string@DU?$char_traits@D@std@@V?$allocator@D@2@@std@@@1@XZ 100042a0 f i out_saitek.obj
 0001:000032c0       ??R?$less@V?$basic_string@DU?$char_traits@D@std@@V?$allocator@D@2@@std@@@std@@QBE_NABV?$basic_string@DU?$char_traits@D@std@@V?$allocator@D@2@@1@0@Z 100042c0 f i tools.obj
 0001:000032e0       ??_G?$pair@$$CBV?$basic_string@DU?$char_traits@D@std@@V?$allocator@D@2@@std@@V12@@std@@QAEPAXI@Z 100042e0 f i tools.obj
 0001:00003310       ?_Assign_rv@?$basic_string@DU?$char_traits@D@std@@V?$allocator@D@2@@std@@QAEX$$QAV12@@Z 10004310 f i tools.obj
 0001:00003390       ?_Buynode0@?$_Tree_buy@U?$pair@$$CBV?$basic_string@DU?$char_traits@D@std@@V?$allocator@D@2@@std@@V12@@std@@V?$allocator@U?$pair@$$CBV?$basic_string@DU?$char_traits@D@std@@V?$allocator@D@2@@std@@V12@@std@@@2@@std@@QAEPAU?$_Tree_node@U?$pair@$$CBV?$basic_string@DU?$char_traits@D@std@@V?$allocator@D@2@@std@@V12@@std@@PAX@2@XZ 10004390 f i tools.obj
 0001:000034c0       ?_Destroy_if_not_nil@?$_Tree@V?$_Tmap_traits@V?$basic_string@DU?$char_traits@D@std@@V?$allocator@D@2@@std@@V12@U?$less@V?$basic_string@DU?$char_traits@D@std@@V?$allocator@D@2@@std@@@2@V?$allocator@U?$pair@$$CBV?$basic_string@DU?$char_traits@D@std@@V?$allocator@D@2@@std@@V12@@std@@@2@$0A@@std@@@std@@IAEXPAU?$_Tree_node@U?$pair@$$CBV?$basic_string@DU?$char_traits@D@std@@V?$allocator@D@2@@std@@V12@@std@@PAX@2@@Z 100044c0 f i tools.obj
 0001:00003520       ?_Erase@?$_Tree@V?$_Tmap_traits@V?$basic_string@DU?$char_traits@D@std@@V?$allocator@D@2@@std@@V12@U?$less@V?$basic_string@DU?$char_traits@D@std@@V?$allocator@D@2@@std@@@2@V?$allocator@U?$pair@$$CBV?$basic_string@DU?$char_traits@D@std@@V?$allocator@D@2@@std@@V12@@std@@@2@$0A@@std@@@std@@IAEXPAU?$_Tree_node@U?$pair@$$CBV?$basic_string@DU?$char_traits@D@std@@V?$allocator@D@2@@std@@V12@@std@@PAX@2@@Z 10004520 f i tools.obj
 0001:000035c0       ?_Myval@?$_Tree_val@U?$_Tree_simple_types@U?$pair@$$CBV?$basic_string@DU?$char_traits@D@std@@V?$allocator@D@2@@std@@V12@@std@@@std@@@std@@SAAAU?$pair@$$CBV?$basic_string@DU?$char_traits@D@std@@V?$allocator@D@2@@std@@V12@@2@PAU?$_Tree_node@U?$pair@$$CBV?$basic_string@DU?$char_traits@D@std@@V?$allocator@D@2@@std@@V12@@std@@PAX@2@@Z 100045c0 f i tools.obj
 0001:000035c0       ?_Myval@?$_Tree_val@U?$_Tree_simple_types@U?$pair@$$CBHV?$basic_string@DU?$char_traits@D@std@@V?$allocator@D@2@@std@@@std@@@std@@@std@@SAAAU?$pair@$$CBHV?$basic_string@DU?$char_traits@D@std@@V?$allocator@D@2@@std@@@2@PAU?$_Tree_node@U?$pair@$$CBHV?$basic_string@DU?$char_traits@D@std@@V?$allocator@D@2@@std@@@std@@PAX@2@@Z 100045c0 f i out_saitek.obj
 0001:000035c0       ?_Myval@?$_Tree_val@U?$_Tree_simple_types@PAVmfdpage_t@@@std@@@std@@SAAAPAVmfdpage_t@@PAU?$_Tree_node@PAVmfdpage_t@@PAX@2@@Z 100045c0 f i in.obj
 0001:000035c0       ?_Myval@?$_Tree_val@U?$_Tree_simple_types@U?$pair@$$CBHPAVfms_fp_item_t@@@std@@@std@@@std@@SAAAU?$pair@$$CBHPAVfms_fp_item_t@@@2@PAU?$_Tree_node@U?$pair@$$CBHPAVfms_fp_item_t@@@std@@PAX@2@@Z 100045c0 f i mfdpage_fms.obj
 0001:000035c0       ?_Myval@?$_Tree_val@U?$_Tree_simple_types@U?$pair@$$CBV?$basic_string@DU?$char_traits@D@std@@V?$allocator@D@2@@std@@PAVfms_config_item_t@@@std@@@std@@@std@@SAAAU?$pair@$$CBV?$basic_string@DU?$char_traits@D@std@@V?$allocator@D@2@@std@@PAVfms_config_item_t@@@2@PAU?$_Tree_node@U?$pair@$$CBV?$basic_string@DU?$char_traits@D@std@@V?$allocator@D@2@@std@@PAVfms_config_item_t@@@std@@PAX@2@@Z 100045c0 f i fms_config.obj
 0001:000035c0       ?_Myval@?$_Tree_val@U?$_Tree_simple_types@U?$pair@$$CBHPAVobject_t@@@std@@@std@@@std@@SAAAU?$pair@$$CBHPAVobject_t@@@2@PAU?$_Tree_node@U?$pair@$$CBHPAVobject_t@@@std@@PAX@2@@Z 100045c0 f i mfdpage.obj
 0001:000035c0       ?_Myval@?$_Tree_val@U?$_Tree_simple_types@U?$pair@$$CBHM@std@@@std@@@std@@SAAAU?$pair@$$CBHM@2@PAU?$_Tree_node@U?$pair@$$CBHM@std@@PAX@2@@Z 100045c0 f i fms_config.obj
 0001:000035c0       ?_Myval@?$_Tree_val@U?$_Tree_simple_types@PAVobject_t@@@std@@@std@@SAAAPAVobject_t@@PAU?$_Tree_node@PAVobject_t@@PAX@2@@Z 100045c0 f i data.obj
 0001:000035c0       ?_Myval@?$_Tree_val@U?$_Tree_simple_types@U?$pair@$$CBV?$basic_string@DU?$char_traits@D@std@@V?$allocator@D@2@@std@@D@std@@@std@@@std@@SAAAU?$pair@$$CBV?$basic_string@DU?$char_traits@D@std@@V?$allocator@D@2@@std@@D@2@PAU?$_Tree_node@U?$pair@$$CBV?$basic_string@DU?$char_traits@D@std@@V?$allocator@D@2@@std@@D@std@@PAX@2@@Z 100045c0 f i mfdpage.obj
 0001:000035c0       ?_Myval@?$_Tree_val@U?$_Tree_simple_types@U?$pair@$$CBV?$basic_string@DU?$char_traits@D@std@@V?$allocator@D@2@@std@@M@std@@@std@@@std@@SAAAU?$pair@$$CBV?$basic_string@DU?$char_traits@D@std@@V?$allocator@D@2@@std@@M@2@PAU?$_Tree_node@U?$pair@$$CBV?$basic_string@DU?$char_traits@D@std@@V?$allocator@D@2@@std@@M@std@@PAX@2@@Z 100045c0 f i mfdpage_fms.obj
 0001:000035c0       ?_Myval@?$_Tree_val@U?$_Tree_simple_types@PAVlistener_t@@@std@@@std@@SAAAPAVlistener_t@@PAU?$_Tree_node@PAVlistener_t@@PAX@2@@Z 100045c0 f i data.obj
 0001:000035c0       ?_Myval@?$_Tree_val@U?$_Tree_simple_types@U?$pair@$$CBV?$basic_string@DU?$char_traits@D@std@@V?$allocator@D@2@@std@@H@std@@@std@@@std@@SAAAU?$pair@$$CBV?$basic_string@DU?$char_traits@D@std@@V?$allocator@D@2@@std@@H@2@PAU?$_Tree_node@U?$pair@$$CBV?$basic_string@DU?$char_traits@D@std@@V?$allocator@D@2@@std@@H@std@@PAX@2@@Z 100045c0 f i mfdpage.obj
 0001:000035c0       ?_Myval@?$_Tree_val@U?$_Tree_simple_types@U?$pair@$$CBV?$basic_string@DU?$char_traits@D@std@@V?$allocator@D@2@@std@@PAVfms_fp_item_t@@@std@@@std@@@std@@SAAAU?$pair@$$CBV?$basic_string@DU?$char_traits@D@std@@V?$allocator@D@2@@std@@PAVfms_fp_item_t@@@2@PAU?$_Tree_node@U?$pair@$$CBV?$basic_string@DU?$char_traits@D@std@@V?$allocator@D@2@@std@@PAVfms_fp_item_t@@@std@@PAX@2@@Z 100045c0 f i fms_fp.obj
 0001:000035d0       ?_Tidy@?$_Tree@V?$_Tmap_traits@V?$basic_string@DU?$char_traits@D@std@@V?$allocator@D@2@@std@@V12@U?$less@V?$basic_string@DU?$char_traits@D@std@@V?$allocator@D@2@@std@@@2@V?$allocator@U?$pair@$$CBV?$basic_string@DU?$char_traits@D@std@@V?$allocator@D@2@@std@@V12@@std@@@2@$0A@@std@@@std@@IAEXXZ 100045d0 f i tools.obj
 0001:00003620       ?allocate@?$_Wrap_alloc@V?$allocator@U?$_Tree_node@U?$pair@$$CBV?$basic_string@DU?$char_traits@D@std@@V?$allocator@D@2@@std@@V12@@std@@PAX@std@@@std@@@std@@QAEPAU?$_Tree_node@U?$pair@$$CBV?$basic_string@DU?$char_traits@D@std@@V?$allocator@D@2@@std@@V12@@std@@PAX@2@I@Z 10004620 f i tools.obj
 0001:00003640       ?allocate@?$allocator@U?$_Tree_node@U?$pair@$$CBV?$basic_string@DU?$char_traits@D@std@@V?$allocator@D@2@@std@@V12@@std@@PAX@std@@@std@@QAEPAU?$_Tree_node@U?$pair@$$CBV?$basic_string@DU?$char_traits@D@std@@V?$allocator@D@2@@std@@V12@@std@@PAX@2@I@Z 10004640 f i tools.obj
 0001:00003660       ?c_str@?$basic_string@DU?$char_traits@D@std@@V?$allocator@D@2@@std@@QBEPBDXZ 10004660 f i tools.obj
 0001:00003680       ?clear@?$_Tree@V?$_Tmap_traits@V?$basic_string@DU?$char_traits@D@std@@V?$allocator@D@2@@std@@V12@U?$less@V?$basic_string@DU?$char_traits@D@std@@V?$allocator@D@2@@std@@@2@V?$allocator@U?$pair@$$CBV?$basic_string@DU?$char_traits@D@std@@V?$allocator@D@2@@std@@V12@@std@@@2@$0A@@std@@@std@@QAEXXZ 10004680 f i tools.obj
 0001:000036e0       ?compare@?$basic_string@DU?$char_traits@D@std@@V?$allocator@D@2@@std@@QBEHABV12@@Z 100046e0 f i tools.obj
 0001:00003710       ?compare@?$basic_string@DU?$char_traits@D@std@@V?$allocator@D@2@@std@@QBEHIIPBDI@Z 10004710 f i tools.obj
 0001:000037d0       ?compare@?$char_traits@D@std@@SAHPBD0I@Z 100047d0 f i tools.obj
 0001:00003810       ?erase@?$_Tree@V?$_Tmap_traits@V?$basic_string@DU?$char_traits@D@std@@V?$allocator@D@2@@std@@V12@U?$less@V?$basic_string@DU?$char_traits@D@std@@V?$allocator@D@2@@std@@@2@V?$allocator@U?$pair@$$CBV?$basic_string@DU?$char_traits@D@std@@V?$allocator@D@2@@std@@V12@@std@@@2@$0A@@std@@@std@@QAE?AV?$_Tree_iterator@V?$_Tree_val@U?$_Tree_simple_types@U?$pair@$$CBV?$basic_string@DU?$char_traits@D@std@@V?$allocator@D@2@@std@@V12@@std@@@std@@@std@@@2@V?$_Tree_const_iterator@V?$_Tree_val@U?$_Tree_simple_types@U?$pair@$$CBV?$basic_string@DU?$char_traits@D@std@@V?$allocator@D@2@@std@@V12@@std@@@std@@@std@@@2@0@Z 10004810 f i tools.obj
 0001:000038c0       ?erase@?$_Tree@V?$_Tmap_traits@V?$basic_string@DU?$char_traits@D@std@@V?$allocator@D@2@@std@@V12@U?$less@V?$basic_string@DU?$char_traits@D@std@@V?$allocator@D@2@@std@@@2@V?$allocator@U?$pair@$$CBV?$basic_string@DU?$char_traits@D@std@@V?$allocator@D@2@@std@@V12@@std@@@2@$0A@@std@@@std@@QAE?AV?$_Tree_iterator@V?$_Tree_val@U?$_Tree_simple_types@U?$pair@$$CBV?$basic_string@DU?$char_traits@D@std@@V?$allocator@D@2@@std@@V12@@std@@@std@@@std@@@2@V?$_Tree_const_iterator@V?$_Tree_val@U?$_Tree_simple_types@U?$pair@$$CBV?$basic_string@DU?$char_traits@D@std@@V?$allocator@D@2@@std@@V12@@std@@@std@@@std@@@2@@Z 100048c0 f i tools.obj
 0001:00004040       ?max_size@?$_Tree@V?$_Tmap_traits@V?$basic_string@DU?$char_traits@D@std@@V?$allocator@D@2@@std@@V12@U?$less@V?$basic_string@DU?$char_traits@D@std@@V?$allocator@D@2@@std@@@2@V?$allocator@U?$pair@$$CBV?$basic_string@DU?$char_traits@D@std@@V?$allocator@D@2@@std@@V12@@std@@@2@$0A@@std@@@std@@QBEIXZ 10005040 f i tools.obj
 0001:00004060       ?max_size@?$_Wrap_alloc@V?$allocator@U?$_Tree_node@U?$pair@$$CBV?$basic_string@DU?$char_traits@D@std@@V?$allocator@D@2@@std@@V12@@std@@PAX@std@@@std@@@std@@QBEIXZ 10005060 f i tools.obj
 0001:00004080       ?max_size@?$allocator@U?$_Tree_node@U?$pair@$$CBV?$basic_string@DU?$char_traits@D@std@@V?$allocator@D@2@@std@@V12@@std@@PAX@std@@@std@@QBEIXZ 10005080 f i tools.obj
 0001:00004090       ?max_size@?$allocator_traits@V?$allocator@U?$_Tree_node@U?$pair@$$CBV?$basic_string@DU?$char_traits@D@std@@V?$allocator@D@2@@std@@V12@@std@@PAX@std@@@std@@@std@@SAIABV?$allocator@U?$_Tree_node@U?$pair@$$CBV?$basic_string@DU?$char_traits@D@std@@V?$allocator@D@2@@std@@V12@@std@@PAX@std@@@2@@Z 10005090 f i tools.obj
 0001:000040a0       ?pointer_to@?$pointer_traits@PAU?$pair@$$CBV?$basic_string@DU?$char_traits@D@std@@V?$allocator@D@2@@std@@PAVfms_config_item_t@@@std@@@std@@SAPAU?$pair@$$CBV?$basic_string@DU?$char_traits@D@std@@V?$allocator@D@2@@std@@PAVfms_config_item_t@@@2@AAU32@@Z 100050a0 f i fms_config.obj
 0001:000040a0       ?pointer_to@?$pointer_traits@PAU?$pair@$$CBV?$basic_string@DU?$char_traits@D@std@@V?$allocator@D@2@@std@@PAVfms_fp_item_t@@@std@@@std@@SAPAU?$pair@$$CBV?$basic_string@DU?$char_traits@D@std@@V?$allocator@D@2@@std@@PAVfms_fp_item_t@@@2@AAU32@@Z 100050a0 f i fms_fp.obj
 0001:000040a0       ?pointer_to@?$pointer_traits@PAU?$pair@$$CBHPAVfms_fp_item_t@@@std@@@std@@SAPAU?$pair@$$CBHPAVfms_fp_item_t@@@2@AAU32@@Z 100050a0 f i mfdpage_fms.obj
 0001:000040a0       ?pointer_to@?$pointer_traits@PAU?$pair@$$CBV?$basic_string@DU?$char_traits@D@std@@V?$allocator@D@2@@std@@H@std@@@std@@SAPAU?$pair@$$CBV?$basic_string@DU?$char_traits@D@std@@V?$allocator@D@2@@std@@H@2@AAU32@@Z 100050a0 f i mfdpage.obj
 0001:000040a0       ?pointer_to@?$pointer_traits@PAU?$pair@$$CBHPAVobject_t@@@std@@@std@@SAPAU?$pair@$$CBHPAVobject_t@@@2@AAU32@@Z 100050a0 f i mfdpage.obj
 0001:000040a0       ?pointer_to@?$pointer_traits@PAU?$pair@$$CBV?$basic_string@DU?$char_traits@D@std@@V?$allocator@D@2@@std@@D@std@@@std@@SAPAU?$pair@$$CBV?$basic_string@DU?$char_traits@D@std@@V?$allocator@D@2@@std@@D@2@AAU32@@Z 100050a0 f i mfdpage.obj
 0001:000040a0       ?pointer_to@?$pointer_traits@PAU?$pair@$$CBHM@std@@@std@@SAPAU?$pair@$$CBHM@2@AAU32@@Z 100050a0 f i fms_config.obj
 0001:000040a0       ?pointer_to@?$pointer_traits@PAU?$pair@$$CBV?$basic_string@DU?$char_traits@D@std@@V?$allocator@D@2@@std@@M@std@@@std@@SAPAU?$pair@$$CBV?$basic_string@DU?$char_traits@D@std@@V?$allocator@D@2@@std@@M@2@AAU32@@Z 100050a0 f i mfdpage_fms.obj
 0001:000040a0       ?pointer_to@?$pointer_traits@PAU?$pair@$$CBHV?$basic_string@DU?$char_traits@D@std@@V?$allocator@D@2@@std@@@std@@@std@@SAPAU?$pair@$$CBHV?$basic_string@DU?$char_traits@D@std@@V?$allocator@D@2@@std@@@2@AAU32@@Z 100050a0 f i out_saitek.obj
 0001:000040a0       ?pointer_to@?$pointer_traits@PAU?$pair@$$CBV?$basic_string@DU?$char_traits@D@std@@V?$allocator@D@2@@std@@V12@@std@@@std@@SAPAU?$pair@$$CBV?$basic_string@DU?$char_traits@D@std@@V?$allocator@D@2@@std@@V12@@2@AAU32@@Z 100050a0 f i tools.obj
 0001:000040c0       ?size@?$_Tree@V?$_Tmap_traits@V?$basic_string@DU?$char_traits@D@std@@V?$allocator@D@2@@std@@HU?$less@V?$basic_string@DU?$char_traits@D@std@@V?$allocator@D@2@@std@@@2@V?$allocator@U?$pair@$$CBV?$basic_string@DU?$char_traits@D@std@@V?$allocator@D@2@@std@@H@std@@@2@$0A@@std@@@std@@QBEIXZ 100050c0 f i mfdpage.obj
 0001:000040c0       ?category@error_condition@std@@QBEABVerror_category@2@XZ 100050c0 f i main.obj
 0001:000040c0       ?size@?$_Tree@V?$_Tmap_traits@HPAVfms_fp_item_t@@U?$less@H@std@@V?$allocator@U?$pair@$$CBHPAVfms_fp_item_t@@@std@@@3@$0A@@std@@@std@@QBEIXZ 100050c0 f i mfdpage_fms.obj
 0001:000040c0       ?size@?$_Tree@V?$_Tmap_traits@HPAVobject_t@@U?$less@H@std@@V?$allocator@U?$pair@$$CBHPAVobject_t@@@std@@@3@$0A@@std@@@std@@QBEIXZ 100050c0 f i mfdpage.obj
 0001:000040c0       ?size@?$_Tree@V?$_Tmap_traits@V?$basic_string@DU?$char_traits@D@std@@V?$allocator@D@2@@std@@MU?$less@V?$basic_string@DU?$char_traits@D@std@@V?$allocator@D@2@@std@@@2@V?$allocator@U?$pair@$$CBV?$basic_string@DU?$char_traits@D@std@@V?$allocator@D@2@@std@@M@std@@@2@$0A@@std@@@std@@QBEIXZ 100050c0 f i mfdpage_fms.obj
 0001:000040c0       ?size@?$_Tree@V?$_Tmap_traits@HV?$basic_string@DU?$char_traits@D@std@@V?$allocator@D@2@@std@@U?$less@H@2@V?$allocator@U?$pair@$$CBHV?$basic_string@DU?$char_traits@D@std@@V?$allocator@D@2@@std@@@std@@@2@$0A@@std@@@std@@QBEIXZ 100050c0 f i out_saitek.obj
 0001:000040c0       ?size@?$_Tree@V?$_Tmap_traits@V?$basic_string@DU?$char_traits@D@std@@V?$allocator@D@2@@std@@V12@U?$less@V?$basic_string@DU?$char_traits@D@std@@V?$allocator@D@2@@std@@@2@V?$allocator@U?$pair@$$CBV?$basic_string@DU?$char_traits@D@std@@V?$allocator@D@2@@std@@V12@@std@@@2@$0A@@std@@@std@@QBEIXZ 100050c0 f i tools.obj
 0001:000040c0       ?size@?$_Tree@V?$_Tmap_traits@HMU?$less@H@std@@V?$allocator@U?$pair@$$CBHM@std@@@2@$0A@@std@@@std@@QBEIXZ 100050c0 f i fms_config.obj
 0001:000040c0       ?size@?$_Tree@V?$_Tset_traits@PAVmfdpage_t@@U?$less@PAVmfdpage_t@@@std@@V?$allocator@PAVmfdpage_t@@@3@$0A@@std@@@std@@QBEIXZ 100050c0 f i in.obj
 0001:000040c0       ?size@?$_Tree@V?$_Tmap_traits@V?$basic_string@DU?$char_traits@D@std@@V?$allocator@D@2@@std@@PAVfms_fp_item_t@@U?$less@V?$basic_string@DU?$char_traits@D@std@@V?$allocator@D@2@@std@@@2@V?$allocator@U?$pair@$$CBV?$basic_string@DU?$char_traits@D@std@@V?$allocator@D@2@@std@@PAVfms_fp_item_t@@@std@@@2@$0A@@std@@@std@@QBEIXZ 100050c0 f i fms_fp.obj
 0001:000040c0       ?size@?$_Tree@V?$_Tmap_traits@V?$basic_string@DU?$char_traits@D@std@@V?$allocator@D@2@@std@@DU?$less@V?$basic_string@DU?$char_traits@D@std@@V?$allocator@D@2@@std@@@2@V?$allocator@U?$pair@$$CBV?$basic_string@DU?$char_traits@D@std@@V?$allocator@D@2@@std@@D@std@@@2@$0A@@std@@@std@@QBEIXZ 100050c0 f i mfdpage.obj
 0001:000040c0       ?size@?$_Tree@V?$_Tmap_traits@V?$basic_string@DU?$char_traits@D@std@@V?$allocator@D@2@@std@@PAVfms_config_item_t@@U?$less@V?$basic_string@DU?$char_traits@D@std@@V?$allocator@D@2@@std@@@2@V?$allocator@U?$pair@$$CBV?$basic_string@DU?$char_traits@D@std@@V?$allocator@D@2@@std@@PAVfms_config_item_t@@@std@@@2@$0A@@std@@@std@@QBEIXZ 100050c0 f i fms_config.obj
 0001:000040c0       ?category@error_code@std@@QBEABVerror_category@2@XZ 100050c0 f i main.obj
 0001:000040e0       ??0datasource_t@@QAE@PBD@Z 100050e0 f   data.obj
 0001:000041d0       ??1datasource_t@@UAE@XZ    100051d0 f   data.obj
 0001:00004230       ?name@datasource_t@@UAEABV?$basic_string@DU?$char_traits@D@std@@V?$allocator@D@2@@std@@XZ 10005230 f   data.obj
 0001:00004250       ?newdata_available@datasource_t@@QAE_NXZ 10005250 f   data.obj
 0001:00004270       ?mark_dirty@datasource_t@@UAEXXZ 10005270 f   data.obj
 0001:00004290       ??Bdatasource_t@@UAEHXZ    10005290 f   data.obj
 0001:000042e0       ??Bdatasource_t@@UAEMXZ    100052e0 f   data.obj
 0001:00004340       ??Bdatasource_t@@UAENXZ    10005340 f   data.obj
 0001:00004390       ??Bdatasource_t@@UAEABV?$basic_string@DU?$char_traits@D@std@@V?$allocator@D@2@@std@@XZ 10005390 f   data.obj
 0001:000044d0       ??Bdatasource_t@@UAEPBDXZ  100054d0 f   data.obj
 0001:00004610       ?refresh@datasource_t@@UAE_NXZ 10005610 f   data.obj
 0001:00004ac0       ?getType@datasource_t@@UAEHXZ 10005ac0 f   data.obj
 0001:00004ae0       ??0data_t@@QAE@XZ          10005ae0 f   data.obj
 0001:00004b30       ??1data_t@@UAE@XZ          10005b30 f   data.obj
 0001:00004c00       ?add_listener@data_t@@QAEXPAVlistener_t@@@Z 10005c00 f   data.obj
 0001:00004c70       ?remove_listener@data_t@@QAEXPAVlistener_t@@@Z 10005c70 f   data.obj
 0001:00004cd0       ?add_datasource@data_t@@QAEPAVobject_t@@PBD@Z 10005cd0 f   data.obj
 0001:00004e30       ?remove_datasource@data_t@@QAEXPAVobject_t@@@Z 10005e30 f   data.obj
 0001:00004ec0       ?remove_datasource@data_t@@QAEXPBD@Z 10005ec0 f   data.obj
 0001:00004f60       ?connect@data_t@@QAEXM@Z   10005f60 f   data.obj
 0001:00004fc0       ?disconnect@data_t@@QAEXXZ 10005fc0 f   data.obj
 0001:00005000       ?upd_interval@data_t@@QAEABMXZ 10006000 f   data.obj
 0001:00005020       ?update@data_t@@CAMMMHPAX@Z 10006020 f   data.obj
 0001:00005050       ?refresh_datasources@data_t@@EAEXXZ 10006050 f   data.obj
 0001:000051b0       ?refresh_listeners@data_t@@EAEXPAVobject_t@@@Z 100061b0 f   data.obj
 0001:00005280       ??$?0AAV?$_Tree_const_iterator@V?$_Tree_val@U?$_Tree_simple_types@PAVlistener_t@@@std@@@std@@@std@@AAV01@X@?$pair@V?$_Tree_const_iterator@V?$_Tree_val@U?$_Tree_simple_types@PAVlistener_t@@@std@@@std@@@std@@V12@@std@@QAE@AAV?$_Tree_const_iterator@V?$_Tree_val@U?$_Tree_simple_types@PAVlistener_t@@@std@@@std@@@1@0@Z 10006280 f i data.obj
 0001:00005280       ??$?0AAV?$_Tree_const_iterator@V?$_Tree_val@U?$_Tree_simple_types@PAVobject_t@@@std@@@std@@@std@@AAV01@X@?$pair@V?$_Tree_const_iterator@V?$_Tree_val@U?$_Tree_simple_types@PAVobject_t@@@std@@@std@@@std@@V12@@std@@QAE@AAV?$_Tree_const_iterator@V?$_Tree_val@U?$_Tree_simple_types@PAVobject_t@@@std@@@std@@@1@0@Z 10006280 f i data.obj
 0001:000052c0       ??$?8DD@std@@YA_NABV?$allocator@D@0@0@Z 100062c0 f i data.obj
 0001:000052c0       ??$?8U?$pair@$$CBV?$basic_string@DU?$char_traits@D@std@@V?$allocator@D@2@@std@@V12@@std@@U01@@std@@YA_NABV?$allocator@U?$pair@$$CBV?$basic_string@DU?$char_traits@D@std@@V?$allocator@D@2@@std@@V12@@std@@@0@0@Z 100062c0 f i mfdpage_led.obj
 0001:000052d0       ??$?8DU?$char_traits@D@std@@V?$allocator@D@1@@std@@YA_NABV?$basic_string@DU?$char_traits@D@std@@V?$allocator@D@2@@0@0@Z 100062d0 f i data.obj
 0001:00005300       ??$?8DU?$char_traits@D@std@@V?$allocator@D@1@@std@@YA_NABV?$basic_string@DU?$char_traits@D@std@@V?$allocator@D@2@@0@PBD@Z 10006300 f i data.obj
 0001:00005330       ??$?8DU?$char_traits@D@std@@V?$allocator@D@1@@std@@YA_NPBDABV?$basic_string@DU?$char_traits@D@std@@V?$allocator@D@2@@0@@Z 10006330 f i data.obj
 0001:00005360       ??$?8V?$allocator@D@std@@V01@@std@@YA_NABU?$_Wrap_alloc@V?$allocator@D@std@@@0@0@Z 10006360 f i data.obj
 0001:00005390       ??$?9DD@std@@YA_NABV?$allocator@D@0@0@Z 10006390 f i data.obj
 0001:000053d0       ??$?9DU?$char_traits@D@std@@V?$allocator@D@1@@std@@YA_NABV?$basic_string@DU?$char_traits@D@std@@V?$allocator@D@2@@0@0@Z 100063d0 f i data.obj
 0001:00005410       ??$?9V?$allocator@D@std@@V01@@std@@YA_NABU?$_Wrap_alloc@V?$allocator@D@std@@@0@0@Z 10006410 f i data.obj
 0001:00005450       ??$_Allocate@U?$_Tree_node@PAVlistener_t@@PAX@std@@@std@@YAPAU?$_Tree_node@PAVlistener_t@@PAX@0@IPAU10@@Z 10006450 f i data.obj
 0001:00005450       ??$_Allocate@U?$_Tree_node@PAVmfdpage_t@@PAX@std@@@std@@YAPAU?$_Tree_node@PAVmfdpage_t@@PAX@0@IPAU10@@Z 10006450 f i in.obj
 0001:00005450       ??$_Allocate@U?$_Tree_node@PAVobject_t@@PAX@std@@@std@@YAPAU?$_Tree_node@PAVobject_t@@PAX@0@IPAU10@@Z 10006450 f i data.obj
 0001:00005490       ??$_Buynode@ABQAVlistener_t@@@?$_Tree_buy@PAVlistener_t@@V?$allocator@PAVlistener_t@@@std@@@std@@QAEPAU?$_Tree_node@PAVlistener_t@@PAX@1@ABQAVlistener_t@@@Z 10006490 f i data.obj
 0001:00005490       ??$_Buynode@ABQAVobject_t@@@?$_Tree_buy@PAVobject_t@@V?$allocator@PAVobject_t@@@std@@@std@@QAEPAU?$_Tree_node@PAVobject_t@@PAX@1@ABQAVobject_t@@@Z 10006490 f i data.obj
 0001:00005490       ??$_Buynode@ABQAVmfdpage_t@@@?$_Tree_buy@PAVmfdpage_t@@V?$allocator@PAVmfdpage_t@@@std@@@std@@QAEPAU?$_Tree_node@PAVmfdpage_t@@PAX@1@ABQAVmfdpage_t@@@Z 10006490 f i in.obj
 0001:00005570       ??$_Buynode_if_nil@ABQAVobject_t@@@?$_Tree@V?$_Tset_traits@PAVobject_t@@U?$less@PAVobject_t@@@std@@V?$allocator@PAVobject_t@@@3@$0A@@std@@@std@@IAEPAU?$_Tree_node@PAVobject_t@@PAX@1@U_Nil@1@ABQAVobject_t@@@Z 10006570 f i data.obj
 0001:00005570       ??$_Buynode_if_nil@ABQAVmfdpage_t@@@?$_Tree@V?$_Tset_traits@PAVmfdpage_t@@U?$less@PAVmfdpage_t@@@std@@V?$allocator@PAVmfdpage_t@@@3@$0A@@std@@@std@@IAEPAU?$_Tree_node@PAVmfdpage_t@@PAX@1@U_Nil@1@ABQAVmfdpage_t@@@Z 10006570 f i in.obj
 0001:00005570       ??$_Buynode_if_nil@ABQAVlistener_t@@@?$_Tree@V?$_Tset_traits@PAVlistener_t@@U?$less@PAVlistener_t@@@std@@V?$allocator@PAVlistener_t@@@3@$0A@@std@@@std@@IAEPAU?$_Tree_node@PAVlistener_t@@PAX@1@U_Nil@1@ABQAVlistener_t@@@Z 10006570 f i data.obj
 0001:000055a0       ??$_Distance2@V?$_Tree_const_iterator@V?$_Tree_val@U?$_Tree_simple_types@PAVobject_t@@@std@@@std@@@std@@I@std@@YAXV?$_Tree_const_iterator@V?$_Tree_val@U?$_Tree_simple_types@PAVobject_t@@@std@@@std@@@0@0AAIUbidirectional_iterator_tag@0@@Z 100065a0 f i data.obj
 0001:000055a0       ??$_Distance2@V?$_Tree_const_iterator@V?$_Tree_val@U?$_Tree_simple_types@PAVlistener_t@@@std@@@std@@@std@@I@std@@YAXV?$_Tree_const_iterator@V?$_Tree_val@U?$_Tree_simple_types@PAVlistener_t@@@std@@@std@@@0@0AAIUbidirectional_iterator_tag@0@@Z 100065a0 f i data.obj
 0001:000055e0       ??$_Distance@V?$_Tree_const_iterator@V?$_Tree_val@U?$_Tree_simple_types@PAVlistener_t@@@std@@@std@@@std@@I@std@@YAXV?$_Tree_const_iterator@V?$_Tree_val@U?$_Tree_simple_types@PAVlistener_t@@@std@@@std@@@0@0AAI@Z 100065e0 f i data.obj
 0001:000055e0       ??$_Distance@V?$_Tree_const_iterator@V?$_Tree_val@U?$_Tree_simple_types@PAVobject_t@@@std@@@std@@@std@@I@std@@YAXV?$_Tree_const_iterator@V?$_Tree_val@U?$_Tree_simple_types@PAVobject_t@@@std@@@std@@@0@0AAI@Z 100065e0 f i data.obj
 0001:00005620       ??$_Insert_at@ABQAVobject_t@@U_Nil@std@@@?$_Tree@V?$_Tset_traits@PAVobject_t@@U?$less@PAVobject_t@@@std@@V?$allocator@PAVobject_t@@@3@$0A@@std@@@std@@IAE?AV?$_Tree_const_iterator@V?$_Tree_val@U?$_Tree_simple_types@PAVobject_t@@@std@@@std@@@1@_NPAU?$_Tree_node@PAVobject_t@@PAX@1@ABQAVobject_t@@U_Nil@1@@Z 10006620 f i data.obj
 0001:00005620       ??$_Insert_at@ABQAVmfdpage_t@@U_Nil@std@@@?$_Tree@V?$_Tset_traits@PAVmfdpage_t@@U?$less@PAVmfdpage_t@@@std@@V?$allocator@PAVmfdpage_t@@@3@$0A@@std@@@std@@IAE?AV?$_Tree_const_iterator@V?$_Tree_val@U?$_Tree_simple_types@PAVmfdpage_t@@@std@@@std@@@1@_NPAU?$_Tree_node@PAVmfdpage_t@@PAX@1@ABQAVmfdpage_t@@U_Nil@1@@Z 10006620 f i in.obj
 0001:00005620       ??$_Insert_at@ABQAVlistener_t@@U_Nil@std@@@?$_Tree@V?$_Tset_traits@PAVlistener_t@@U?$less@PAVlistener_t@@@std@@V?$allocator@PAVlistener_t@@@3@$0A@@std@@@std@@IAE?AV?$_Tree_const_iterator@V?$_Tree_val@U?$_Tree_simple_types@PAVlistener_t@@@std@@@std@@@1@_NPAU?$_Tree_node@PAVlistener_t@@PAX@1@ABQAVlistener_t@@U_Nil@1@@Z 10006620 f i data.obj
 0001:00005a50       ??$_Insert_nohint@ABQAVlistener_t@@U_Nil@std@@@?$_Tree@V?$_Tset_traits@PAVlistener_t@@U?$less@PAVlistener_t@@@std@@V?$allocator@PAVlistener_t@@@3@$0A@@std@@@std@@IAE?AU?$pair@V?$_Tree_const_iterator@V?$_Tree_val@U?$_Tree_simple_types@PAVlistener_t@@@std@@@std@@@std@@_N@1@_NABQAVlistener_t@@U_Nil@1@@Z 10006a50 f i data.obj
 0001:00005a50       ??$_Insert_nohint@ABQAVobject_t@@U_Nil@std@@@?$_Tree@V?$_Tset_traits@PAVobject_t@@U?$less@PAVobject_t@@@std@@V?$allocator@PAVobject_t@@@3@$0A@@std@@@std@@IAE?AU?$pair@V?$_Tree_const_iterator@V?$_Tree_val@U?$_Tree_simple_types@PAVobject_t@@@std@@@std@@@std@@_N@1@_NABQAVobject_t@@U_Nil@1@@Z 10006a50 f i data.obj
 0001:00005a50       ??$_Insert_nohint@ABQAVmfdpage_t@@U_Nil@std@@@?$_Tree@V?$_Tset_traits@PAVmfdpage_t@@U?$less@PAVmfdpage_t@@@std@@V?$allocator@PAVmfdpage_t@@@3@$0A@@std@@@std@@IAE?AU?$pair@V?$_Tree_const_iterator@V?$_Tree_val@U?$_Tree_simple_types@PAVmfdpage_t@@@std@@@std@@@std@@_N@1@_NABQAVmfdpage_t@@U_Nil@1@@Z 10006a50 f i in.obj
 0001:00005d20       ??$_Iter_cat@V?$_Tree_const_iterator@V?$_Tree_val@U?$_Tree_simple_types@PAVobject_t@@@std@@@std@@@std@@@std@@YA?AUbidirectional_iterator_tag@0@ABV?$_Tree_const_iterator@V?$_Tree_val@U?$_Tree_simple_types@PAVobject_t@@@std@@@std@@@0@@Z 10006d20 f i data.obj
 0001:00005d20       ??$_Iter_cat@V?$_Tree_const_iterator@V?$_Tree_val@U?$_Tree_simple_types@PAVlistener_t@@@std@@@std@@@std@@@std@@YA?AUbidirectional_iterator_tag@0@ABV?$_Tree_const_iterator@V?$_Tree_val@U?$_Tree_simple_types@PAVlistener_t@@@std@@@std@@@0@@Z 10006d20 f i data.obj
 0001:00005d40       ??0?$_Tree@V?$_Tset_traits@PAVlistener_t@@U?$less@PAVlistener_t@@@std@@V?$allocator@PAVlistener_t@@@3@$0A@@std@@@std@@QAE@ABU?$less@PAVlistener_t@@@1@ABV?$allocator@PAVlistener_t@@@1@@Z 10006d40 f i data.obj
 0001:00005d40       ??0?$_Tree@V?$_Tset_traits@PAVobject_t@@U?$less@PAVobject_t@@@std@@V?$allocator@PAVobject_t@@@3@$0A@@std@@@std@@QAE@ABU?$less@PAVobject_t@@@1@ABV?$allocator@PAVobject_t@@@1@@Z 10006d40 f i data.obj
 0001:00005d40       ??0?$_Tree@V?$_Tset_traits@PAVmfdpage_t@@U?$less@PAVmfdpage_t@@@std@@V?$allocator@PAVmfdpage_t@@@3@$0A@@std@@@std@@QAE@ABU?$less@PAVmfdpage_t@@@1@ABV?$allocator@PAVmfdpage_t@@@1@@Z 10006d40 f i in.obj
 0001:00005d60       ??0?$_Tree_alloc@$0A@U?$_Tree_base_types@PAVlistener_t@@V?$allocator@PAVlistener_t@@@std@@@std@@@std@@QAE@ABV?$allocator@PAVlistener_t@@@1@@Z 10006d60 f i data.obj
 0001:00005d60       ??0?$_Tree_alloc@$0A@U?$_Tree_base_types@PAVobject_t@@V?$allocator@PAVobject_t@@@std@@@std@@@std@@QAE@ABV?$allocator@PAVobject_t@@@1@@Z 10006d60 f i data.obj
 0001:00005d60       ??0?$_Tree_alloc@$0A@U?$_Tree_base_types@PAVmfdpage_t@@V?$allocator@PAVmfdpage_t@@@std@@@std@@@std@@QAE@ABV?$allocator@PAVmfdpage_t@@@1@@Z 10006d60 f i in.obj
 0001:00005d90       ??0?$_Tree_buy@PAVmfdpage_t@@V?$allocator@PAVmfdpage_t@@@std@@@std@@QAE@ABV?$allocator@PAVmfdpage_t@@@1@@Z 10006d90 f i in.obj
 0001:00005d90       ??0?$_Tree_buy@PAVobject_t@@V?$allocator@PAVobject_t@@@std@@@std@@QAE@ABV?$allocator@PAVobject_t@@@1@@Z 10006d90 f i data.obj
 0001:00005d90       ??0?$_Tree_buy@PAVlistener_t@@V?$allocator@PAVlistener_t@@@std@@@std@@QAE@ABV?$allocator@PAVlistener_t@@@1@@Z 10006d90 f i data.obj
 0001:00005db0       ??0?$_Tree_const_iterator@V?$_Tree_val@U?$_Tree_simple_types@U?$pair@$$CBHM@std@@@std@@@std@@@std@@QAE@PAU?$_Tree_node@U?$pair@$$CBHM@std@@PAX@1@PBV?$_Tree_val@U?$_Tree_simple_types@U?$pair@$$CBHM@std@@@std@@@1@@Z 10006db0 f i fms_config.obj
 0001:00005db0       ??0?$_Tree_const_iterator@V?$_Tree_val@U?$_Tree_simple_types@U?$pair@$$CBHPAVfms_fp_item_t@@@std@@@std@@@std@@@std@@QAE@PAU?$_Tree_node@U?$pair@$$CBHPAVfms_fp_item_t@@@std@@PAX@1@PBV?$_Tree_val@U?$_Tree_simple_types@U?$pair@$$CBHPAVfms_fp_item_t@@@std@@@std@@@1@@Z 10006db0 f i mfdpage_fms.obj
 0001:00005db0       ??0?$_Tree_const_iterator@V?$_Tree_val@U?$_Tree_simple_types@U?$pair@$$CBV?$basic_string@DU?$char_traits@D@std@@V?$allocator@D@2@@std@@D@std@@@std@@@std@@@std@@QAE@PAU?$_Tree_node@U?$pair@$$CBV?$basic_string@DU?$char_traits@D@std@@V?$allocator@D@2@@std@@D@std@@PAX@1@PBV?$_Tree_val@U?$_Tree_simple_types@U?$pair@$$CBV?$basic_string@DU?$char_traits@D@std@@V?$allocator@D@2@@std@@D@std@@@std@@@1@@Z 10006db0 f i mfdpage.obj
 0001:00005db0       ??0?$_Tree_const_iterator@V?$_Tree_val@U?$_Tree_simple_types@U?$pair@$$CBHPAVobject_t@@@std@@@std@@@std@@@std@@QAE@PAU?$_Tree_node@U?$pair@$$CBHPAVobject_t@@@std@@PAX@1@PBV?$_Tree_val@U?$_Tree_simple_types@U?$pair@$$CBHPAVobject_t@@@std@@@std@@@1@@Z 10006db0 f i mfdpage.obj
 0001:00005db0       ??0?$_Tree_const_iterator@V?$_Tree_val@U?$_Tree_simple_types@U?$pair@$$CBV?$basic_string@DU?$char_traits@D@std@@V?$allocator@D@2@@std@@M@std@@@std@@@std@@@std@@QAE@PAU?$_Tree_node@U?$pair@$$CBV?$basic_string@DU?$char_traits@D@std@@V?$allocator@D@2@@std@@M@std@@PAX@1@PBV?$_Tree_val@U?$_Tree_simple_types@U?$pair@$$CBV?$basic_string@DU?$char_traits@D@std@@V?$allocator@D@2@@std@@M@std@@@std@@@1@@Z 10006db0 f i mfdpage_fms.obj
 0001:00005db0       ??0?$_Tree_const_iterator@V?$_Tree_val@U?$_Tree_simple_types@PAVobject_t@@@std@@@std@@@std@@QAE@PAU?$_Tree_node@PAVobject_t@@PAX@1@PBV?$_Tree_val@U?$_Tree_simple_types@PAVobject_t@@@std@@@1@@Z 10006db0 f i data.obj
 0001:00005db0       ??0?$_Tree_const_iterator@V?$_Tree_val@U?$_Tree_simple_types@U?$pair@$$CBHV?$basic_string@DU?$char_traits@D@std@@V?$allocator@D@2@@std@@@std@@@std@@@std@@@std@@QAE@PAU?$_Tree_node@U?$pair@$$CBHV?$basic_string@DU?$char_traits@D@std@@V?$allocator@D@2@@std@@@std@@PAX@1@PBV?$_Tree_val@U?$_Tree_simple_types@U?$pair@$$CBHV?$basic_string@DU?$char_traits@D@std@@V?$allocator@D@2@@std@@@std@@@std@@@1@@Z 10006db0 f i out_saitek.obj
 0001:00005db0       ??0?$_Tree_const_iterator@V?$_Tree_val@U?$_Tree_simple_types@U?$pair@$$CBV?$basic_string@DU?$char_traits@D@std@@V?$allocator@D@2@@std@@V12@@std@@@std@@@std@@@std@@QAE@PAU?$_Tree_node@U?$pair@$$CBV?$basic_string@DU?$char_traits@D@std@@V?$allocator@D@2@@std@@V12@@std@@PAX@1@PBV?$_Tree_val@U?$_Tree_simple_types@U?$pair@$$CBV?$basic_string@DU?$char_traits@D@std@@V?$allocator@D@2@@std@@V12@@std@@@std@@@1@@Z 10006db0 f i tools.obj
 0001:00005db0       ??0?$_Tree_const_iterator@V?$_Tree_val@U?$_Tree_simple_types@U?$pair@$$CBV?$basic_string@DU?$char_traits@D@std@@V?$allocator@D@2@@std@@H@std@@@std@@@std@@@std@@QAE@PAU?$_Tree_node@U?$pair@$$CBV?$basic_string@DU?$char_traits@D@std@@V?$allocator@D@2@@std@@H@std@@PAX@1@PBV?$_Tree_val@U?$_Tree_simple_types@U?$pair@$$CBV?$basic_string@DU?$char_traits@D@std@@V?$allocator@D@2@@std@@H@std@@@std@@@1@@Z 10006db0 f i mfdpage.obj
 0001:00005db0       ??0?$_Tree_const_iterator@V?$_Tree_val@U?$_Tree_simple_types@PAVlistener_t@@@std@@@std@@@std@@QAE@PAU?$_Tree_node@PAVlistener_t@@PAX@1@PBV?$_Tree_val@U?$_Tree_simple_types@PAVlistener_t@@@std@@@1@@Z 10006db0 f i data.obj
 0001:00005db0       ??0?$_Tree_const_iterator@V?$_Tree_val@U?$_Tree_simple_types@U?$pair@$$CBV?$basic_string@DU?$char_traits@D@std@@V?$allocator@D@2@@std@@PAVfms_fp_item_t@@@std@@@std@@@std@@@std@@QAE@PAU?$_Tree_node@U?$pair@$$CBV?$basic_string@DU?$char_traits@D@std@@V?$allocator@D@2@@std@@PAVfms_fp_item_t@@@std@@PAX@1@PBV?$_Tree_val@U?$_Tree_simple_types@U?$pair@$$CBV?$basic_string@DU?$char_traits@D@std@@V?$allocator@D@2@@std@@PAVfms_fp_item_t@@@std@@@std@@@1@@Z 10006db0 f i fms_fp.obj
 0001:00005db0       ??0?$_Tree_const_iterator@V?$_Tree_val@U?$_Tree_simple_types@U?$pair@$$CBV?$basic_string@DU?$char_traits@D@std@@V?$allocator@D@2@@std@@PAVfms_config_item_t@@@std@@@std@@@std@@@std@@QAE@PAU?$_Tree_node@U?$pair@$$CBV?$basic_string@DU?$char_traits@D@std@@V?$allocator@D@2@@std@@PAVfms_config_item_t@@@std@@PAX@1@PBV?$_Tree_val@U?$_Tree_simple_types@U?$pair@$$CBV?$basic_string@DU?$char_traits@D@std@@V?$allocator@D@2@@std@@PAVfms_config_item_t@@@std@@@std@@@1@@Z 10006db0 f i fms_config.obj
 0001:00005db0       ??0?$_Tree_const_iterator@V?$_Tree_val@U?$_Tree_simple_types@PAVmfdpage_t@@@std@@@std@@@std@@QAE@PAU?$_Tree_node@PAVmfdpage_t@@PAX@1@PBV?$_Tree_val@U?$_Tree_simple_types@PAVmfdpage_t@@@std@@@1@@Z 10006db0 f i in.obj
 0001:00005dd0       ??0?$_Tree_unchecked_const_iterator@V?$_Tree_val@U?$_Tree_simple_types@U?$pair@$$CBHM@std@@@std@@@std@@U_Iterator_base0@2@@std@@QAE@PAU?$_Tree_node@U?$pair@$$CBHM@std@@PAX@1@PBV?$_Tree_val@U?$_Tree_simple_types@U?$pair@$$CBHM@std@@@std@@@1@@Z 10006dd0 f i fms_config.obj
 0001:00005dd0       ??0?$_Tree_unchecked_const_iterator@V?$_Tree_val@U?$_Tree_simple_types@U?$pair@$$CBV?$basic_string@DU?$char_traits@D@std@@V?$allocator@D@2@@std@@H@std@@@std@@@std@@U_Iterator_base0@2@@std@@QAE@PAU?$_Tree_node@U?$pair@$$CBV?$basic_string@DU?$char_traits@D@std@@V?$allocator@D@2@@std@@H@std@@PAX@1@PBV?$_Tree_val@U?$_Tree_simple_types@U?$pair@$$CBV?$basic_string@DU?$char_traits@D@std@@V?$allocator@D@2@@std@@H@std@@@std@@@1@@Z 10006dd0 f i mfdpage.obj
 0001:00005dd0       ??0?$_Tree_unchecked_const_iterator@V?$_Tree_val@U?$_Tree_simple_types@PAVlistener_t@@@std@@@std@@U_Iterator_base0@2@@std@@QAE@PAU?$_Tree_node@PAVlistener_t@@PAX@1@PBV?$_Tree_val@U?$_Tree_simple_types@PAVlistener_t@@@std@@@1@@Z 10006dd0 f i data.obj
 0001:00005dd0       ??0?$_Tree_unchecked_const_iterator@V?$_Tree_val@U?$_Tree_simple_types@U?$pair@$$CBHV?$basic_string@DU?$char_traits@D@std@@V?$allocator@D@2@@std@@@std@@@std@@@std@@U_Iterator_base0@2@@std@@QAE@PAU?$_Tree_node@U?$pair@$$CBHV?$basic_string@DU?$char_traits@D@std@@V?$allocator@D@2@@std@@@std@@PAX@1@PBV?$_Tree_val@U?$_Tree_simple_types@U?$pair@$$CBHV?$basic_string@DU?$char_traits@D@std@@V?$allocator@D@2@@std@@@std@@@std@@@1@@Z 10006dd0 f i out_saitek.obj
 0001:00005dd0       ??0?$_Tree_unchecked_const_iterator@V?$_Tree_val@U?$_Tree_simple_types@U?$pair@$$CBV?$basic_string@DU?$char_traits@D@std@@V?$allocator@D@2@@std@@M@std@@@std@@@std@@U_Iterator_base0@2@@std@@QAE@PAU?$_Tree_node@U?$pair@$$CBV?$basic_string@DU?$char_traits@D@std@@V?$allocator@D@2@@std@@M@std@@PAX@1@PBV?$_Tree_val@U?$_Tree_simple_types@U?$pair@$$CBV?$basic_string@DU?$char_traits@D@std@@V?$allocator@D@2@@std@@M@std@@@std@@@1@@Z 10006dd0 f i mfdpage_fms.obj
 0001:00005dd0       ??0?$_Tree_unchecked_const_iterator@V?$_Tree_val@U?$_Tree_simple_types@U?$pair@$$CBHPAVfms_fp_item_t@@@std@@@std@@@std@@U_Iterator_base0@2@@std@@QAE@PAU?$_Tree_node@U?$pair@$$CBHPAVfms_fp_item_t@@@std@@PAX@1@PBV?$_Tree_val@U?$_Tree_simple_types@U?$pair@$$CBHPAVfms_fp_item_t@@@std@@@std@@@1@@Z 10006dd0 f i mfdpage_fms.obj
 0001:00005dd0       ??0?$_Tree_unchecked_const_iterator@V?$_Tree_val@U?$_Tree_simple_types@U?$pair@$$CBV?$basic_string@DU?$char_traits@D@std@@V?$allocator@D@2@@std@@V12@@std@@@std@@@std@@U_Iterator_base0@2@@std@@QAE@PAU?$_Tree_node@U?$pair@$$CBV?$basic_string@DU?$char_traits@D@std@@V?$allocator@D@2@@std@@V12@@std@@PAX@1@PBV?$_Tree_val@U?$_Tree_simple_types@U?$pair@$$CBV?$basic_string@DU?$char_traits@D@std@@V?$allocator@D@2@@std@@V12@@std@@@std@@@1@@Z 10006dd0 f i tools.obj
 0001:00005dd0       ??0?$_Tree_unchecked_const_iterator@V?$_Tree_val@U?$_Tree_simple_types@PAVobject_t@@@std@@@std@@U_Iterator_base0@2@@std@@QAE@PAU?$_Tree_node@PAVobject_t@@PAX@1@PBV?$_Tree_val@U?$_Tree_simple_types@PAVobject_t@@@std@@@1@@Z 10006dd0 f i data.obj
 0001:00005dd0       ??0?$_Tree_unchecked_const_iterator@V?$_Tree_val@U?$_Tree_simple_types@PAVmfdpage_t@@@std@@@std@@U_Iterator_base0@2@@std@@QAE@PAU?$_Tree_node@PAVmfdpage_t@@PAX@1@PBV?$_Tree_val@U?$_Tree_simple_types@PAVmfdpage_t@@@std@@@1@@Z 10006dd0 f i in.obj
 0001:00005dd0       ??0?$_Tree_unchecked_const_iterator@V?$_Tree_val@U?$_Tree_simple_types@U?$pair@$$CBV?$basic_string@DU?$char_traits@D@std@@V?$allocator@D@2@@std@@D@std@@@std@@@std@@U_Iterator_base0@2@@std@@QAE@PAU?$_Tree_node@U?$pair@$$CBV?$basic_string@DU?$char_traits@D@std@@V?$allocator@D@2@@std@@D@std@@PAX@1@PBV?$_Tree_val@U?$_Tree_simple_types@U?$pair@$$CBV?$basic_string@DU?$char_traits@D@std@@V?$allocator@D@2@@std@@D@std@@@std@@@1@@Z 10006dd0 f i mfdpage.obj
 0001:00005dd0       ??0?$_Tree_unchecked_const_iterator@V?$_Tree_val@U?$_Tree_simple_types@U?$pair@$$CBV?$basic_string@DU?$char_traits@D@std@@V?$allocator@D@2@@std@@PAVfms_fp_item_t@@@std@@@std@@@std@@U_Iterator_base0@2@@std@@QAE@PAU?$_Tree_node@U?$pair@$$CBV?$basic_string@DU?$char_traits@D@std@@V?$allocator@D@2@@std@@PAVfms_fp_item_t@@@std@@PAX@1@PBV?$_Tree_val@U?$_Tree_simple_types@U?$pair@$$CBV?$basic_string@DU?$char_traits@D@std@@V?$allocator@D@2@@std@@PAVfms_fp_item_t@@@std@@@std@@@1@@Z 10006dd0 f i fms_fp.obj
 0001:00005dd0       ??0?$_Tree_unchecked_const_iterator@V?$_Tree_val@U?$_Tree_simple_types@U?$pair@$$CBV?$basic_string@DU?$char_traits@D@std@@V?$allocator@D@2@@std@@PAVfms_config_item_t@@@std@@@std@@@std@@U_Iterator_base0@2@@std@@QAE@PAU?$_Tree_node@U?$pair@$$CBV?$basic_string@DU?$char_traits@D@std@@V?$allocator@D@2@@std@@PAVfms_config_item_t@@@std@@PAX@1@PBV?$_Tree_val@U?$_Tree_simple_types@U?$pair@$$CBV?$basic_string@DU?$char_traits@D@std@@V?$allocator@D@2@@std@@PAVfms_config_item_t@@@std@@@std@@@1@@Z 10006dd0 f i fms_config.obj
 0001:00005dd0       ??0?$_Tree_unchecked_const_iterator@V?$_Tree_val@U?$_Tree_simple_types@U?$pair@$$CBHPAVobject_t@@@std@@@std@@@std@@U_Iterator_base0@2@@std@@QAE@PAU?$_Tree_node@U?$pair@$$CBHPAVobject_t@@@std@@PAX@1@PBV?$_Tree_val@U?$_Tree_simple_types@U?$pair@$$CBHPAVobject_t@@@std@@@std@@@1@@Z 10006dd0 f i mfdpage.obj
 0001:00005e00       ??0?$_Tree_val@U?$_Tree_simple_types@U?$pair@$$CBV?$basic_string@DU?$char_traits@D@std@@V?$allocator@D@2@@std@@H@std@@@std@@@std@@QAE@XZ 10006e00 f i mfdpage.obj
 0001:00005e00       ??0?$_Tree_val@U?$_Tree_simple_types@U?$pair@$$CBV?$basic_string@DU?$char_traits@D@std@@V?$allocator@D@2@@std@@PAVfms_config_item_t@@@std@@@std@@@std@@QAE@XZ 10006e00 f i fms_config.obj
 0001:00005e00       ??0?$_Tree_val@U?$_Tree_simple_types@U?$pair@$$CBV?$basic_string@DU?$char_traits@D@std@@V?$allocator@D@2@@std@@PAVfms_fp_item_t@@@std@@@std@@@std@@QAE@XZ 10006e00 f i fms_fp.obj
 0001:00005e00       ??0?$_Tree_val@U?$_Tree_simple_types@U?$pair@$$CBHPAVfms_fp_item_t@@@std@@@std@@@std@@QAE@XZ 10006e00 f i fms_fp.obj
 0001:00005e00       ??0?$_Tree_val@U?$_Tree_simple_types@U?$pair@$$CBHM@std@@@std@@@std@@QAE@XZ 10006e00 f i fms_config.obj
 0001:00005e00       ??0?$_Tree_val@U?$_Tree_simple_types@PAVobject_t@@@std@@@std@@QAE@XZ 10006e00 f i data.obj
 0001:00005e00       ??0?$_Tree_val@U?$_Tree_simple_types@PAVlistener_t@@@std@@@std@@QAE@XZ 10006e00 f i data.obj
 0001:00005e00       ??0?$_Tree_val@U?$_Tree_simple_types@U?$pair@$$CBHV?$basic_string@DU?$char_traits@D@std@@V?$allocator@D@2@@std@@@std@@@std@@@std@@QAE@XZ 10006e00 f i out_saitek.obj
 0001:00005e00       ??0?$_Tree_val@U?$_Tree_simple_types@PAVmfdpage_t@@@std@@@std@@QAE@XZ 10006e00 f i in.obj
 0001:00005e00       ??0?$_Tree_val@U?$_Tree_simple_types@U?$pair@$$CBV?$basic_string@DU?$char_traits@D@std@@V?$allocator@D@2@@std@@D@std@@@std@@@std@@QAE@XZ 10006e00 f i mfdpage_fms.obj
 0001:00005e00       ??0?$_Tree_val@U?$_Tree_simple_types@U?$pair@$$CBHPAVobject_t@@@std@@@std@@@std@@QAE@XZ 10006e00 f i mfdpage.obj
 0001:00005e00       ??0?$_Tree_val@U?$_Tree_simple_types@U?$pair@$$CBV?$basic_string@DU?$char_traits@D@std@@V?$allocator@D@2@@std@@V12@@std@@@std@@@std@@QAE@XZ 10006e00 f i mfdpage_led.obj
 0001:00005e00       ??0?$_Tree_val@U?$_Tree_simple_types@U?$pair@$$CBV?$basic_string@DU?$char_traits@D@std@@V?$allocator@D@2@@std@@M@std@@@std@@@std@@QAE@XZ 10006e00 f i fms_config.obj
 0001:00005e30       ??0?$basic_ostringstream@DU?$char_traits@D@std@@V?$allocator@D@2@@std@@QAE@H@Z 10006e30 f i data.obj
 0001:00005ec0       ??0?$basic_string@DU?$char_traits@D@std@@V?$allocator@D@2@@std@@QAE@PBDI@Z 10006ec0 f i data.obj
 0001:00005f00       ??0?$basic_stringbuf@DU?$char_traits@D@std@@V?$allocator@D@2@@std@@QAE@H@Z 10006f00 f i data.obj
 0001:00005f50       ??0?$fpos@H@std@@QAE@_J@Z  10006f50 f i data.obj
 0001:00005f90       ??0object_t@@QAE@XZ        10006f90 f i data.obj
 0001:00005fb0       ??0provider_t@@QAE@XZ      10006fb0 f i data.obj
 0001:00005fd0       ??1?$_Tree@V?$_Tset_traits@PAVlistener_t@@U?$less@PAVlistener_t@@@std@@V?$allocator@PAVlistener_t@@@3@$0A@@std@@@std@@QAE@XZ 10006fd0 f i data.obj
 0001:00005fd0       ??1?$_Tree@V?$_Tset_traits@PAVmfdpage_t@@U?$less@PAVmfdpage_t@@@std@@V?$allocator@PAVmfdpage_t@@@3@$0A@@std@@@std@@QAE@XZ 10006fd0 f i in.obj
 0001:00005fd0       ??1?$_Tree@V?$_Tset_traits@PAVobject_t@@U?$less@PAVobject_t@@@std@@V?$allocator@PAVobject_t@@@3@$0A@@std@@@std@@QAE@XZ 10006fd0 f i data.obj
 0001:00005ff0       ??1?$basic_ostringstream@DU?$char_traits@D@std@@V?$allocator@D@2@@std@@UAE@XZ 10006ff0 f i data.obj
 0001:00006050       ??1?$basic_stringbuf@DU?$char_traits@D@std@@V?$allocator@D@2@@std@@UAE@XZ 10007050 f i data.obj
 0001:00006080       ??1?$set@PAVlistener_t@@U?$less@PAVlistener_t@@@std@@V?$allocator@PAVlistener_t@@@3@@std@@QAE@XZ 10007080 f i data.obj
 0001:00006080       ??1?$set@PAVmfdpage_t@@U?$less@PAVmfdpage_t@@@std@@V?$allocator@PAVmfdpage_t@@@3@@std@@QAE@XZ 10007080 f i in.obj
 0001:00006080       ??1?$set@PAVobject_t@@U?$less@PAVobject_t@@@std@@V?$allocator@PAVobject_t@@@3@@std@@QAE@XZ 10007080 f i data.obj
 0001:000060a0       ??1object_t@@UAE@XZ        100070a0 f i data.obj
 0001:000060c0       ??1provider_t@@UAE@XZ      100070c0 f i data.obj
 0001:000060e0       ??4?$basic_string@DU?$char_traits@D@std@@V?$allocator@D@2@@std@@QAEAAV01@ABV01@@Z 100070e0 f i data.obj
 0001:00006160       ??B?$fpos@H@std@@QBE_JXZ   10007160 f i data.obj
 0001:00006190       ??R?$less@PAVobject_t@@@std@@QBE_NABQAVobject_t@@0@Z 10007190 f i data.obj
 0001:00006190       ??R?$less@PAVlistener_t@@@std@@QBE_NABQAVlistener_t@@0@Z 10007190 f i data.obj
 0001:00006190       ??R?$less@PAVmfdpage_t@@@std@@QBE_NABQAVmfdpage_t@@0@Z 10007190 f i in.obj
 0001:000061c0       ??_D?$basic_ostringstream@DU?$char_traits@D@std@@V?$allocator@D@2@@std@@QAEXXZ 100071c0 f i data.obj
 0001:000061e2       ??_E?$basic_ostringstream@DU?$char_traits@D@std@@V?$allocator@D@2@@std@@$4PPPPPPPM@A@AEPAXI@Z 100071e2 f i data.obj
 0001:000061f0       ??_G?$basic_ostringstream@DU?$char_traits@D@std@@V?$allocator@D@2@@std@@UAEPAXI@Z 100071f0 f i data.obj
 0001:000061f0       ??_E?$basic_ostringstream@DU?$char_traits@D@std@@V?$allocator@D@2@@std@@UAEPAXI@Z 100071f0 f i data.obj
 0001:00006230       ??_E?$basic_stringbuf@DU?$char_traits@D@std@@V?$allocator@D@2@@std@@UAEPAXI@Z 10007230 f i data.obj
 0001:00006230       ??_G?$basic_stringbuf@DU?$char_traits@D@std@@V?$allocator@D@2@@std@@UAEPAXI@Z 10007230 f i data.obj
 0001:00006260       ??_Edata_t@@UAEPAXI@Z      10007260 f i data.obj
 0001:00006260       ??_Gdata_t@@UAEPAXI@Z      10007260 f i data.obj
 0001:00006290       ??_Edatasource_t@@UAEPAXI@Z 10007290 f i data.obj
 0001:00006290       ??_Gdatasource_t@@UAEPAXI@Z 10007290 f i data.obj
 0001:000062c0       ??_Eobject_t@@UAEPAXI@Z    100072c0 f i data.obj
 0001:000062c0       ??_Gobject_t@@UAEPAXI@Z    100072c0 f i data.obj
 0001:000062f0       ??_Eprovider_t@@UAEPAXI@Z  100072f0 f i data.obj
 0001:000062f0       ??_Gprovider_t@@UAEPAXI@Z  100072f0 f i data.obj
 0001:00006320       ?_Buyheadnode@?$_Tree_alloc@$0A@U?$_Tree_base_types@PAVlistener_t@@V?$allocator@PAVlistener_t@@@std@@@std@@@std@@QAEPAU?$_Tree_node@PAVlistener_t@@PAX@2@XZ 10007320 f i data.obj
 0001:00006320       ?_Buyheadnode@?$_Tree_alloc@$0A@U?$_Tree_base_types@PAVmfdpage_t@@V?$allocator@PAVmfdpage_t@@@std@@@std@@@std@@QAEPAU?$_Tree_node@PAVmfdpage_t@@PAX@2@XZ 10007320 f i in.obj
 0001:00006320       ?_Buyheadnode@?$_Tree_alloc@$0A@U?$_Tree_base_types@PAVobject_t@@V?$allocator@PAVobject_t@@@std@@@std@@@std@@QAEPAU?$_Tree_node@PAVobject_t@@PAX@2@XZ 10007320 f i data.obj
 0001:00006470       ?_Eqrange@?$_Tree@V?$_Tset_traits@PAVobject_t@@U?$less@PAVobject_t@@@std@@V?$allocator@PAVobject_t@@@3@$0A@@std@@@std@@IAE?AU?$pair@V?$_Tree_const_iterator@V?$_Tree_val@U?$_Tree_simple_types@PAVobject_t@@@std@@@std@@@std@@V12@@2@ABQAVobject_t@@@Z 10007470 f i data.obj
 0001:00006470       ?_Eqrange@?$_Tree@V?$_Tset_traits@PAVlistener_t@@U?$less@PAVlistener_t@@@std@@V?$allocator@PAVlistener_t@@@3@$0A@@std@@@std@@IAE?AU?$pair@V?$_Tree_const_iterator@V?$_Tree_val@U?$_Tree_simple_types@PAVlistener_t@@@std@@@std@@@std@@V12@@2@ABQAVlistener_t@@@Z 10007470 f i data.obj
 0001:00006630       ?_Erase@?$_Tree@V?$_Tmap_traits@HPAVfms_fp_item_t@@U?$less@H@std@@V?$allocator@U?$pair@$$CBHPAVfms_fp_item_t@@@std@@@3@$0A@@std@@@std@@IAEXPAU?$_Tree_node@U?$pair@$$CBHPAVfms_fp_item_t@@@std@@PAX@2@@Z 10007630 f i fms_fp.obj
 0001:00006630       ?_Erase@?$_Tree@V?$_Tmap_traits@HPAVobject_t@@U?$less@H@std@@V?$allocator@U?$pair@$$CBHPAVobject_t@@@std@@@3@$0A@@std@@@std@@IAEXPAU?$_Tree_node@U?$pair@$$CBHPAVobject_t@@@std@@PAX@2@@Z 10007630 f i mfdpage.obj
 0001:00006630       ?_Erase@?$_Tree@V?$_Tset_traits@PAVobject_t@@U?$less@PAVobject_t@@@std@@V?$allocator@PAVobject_t@@@3@$0A@@std@@@std@@IAEXPAU?$_Tree_node@PAVobject_t@@PAX@2@@Z 10007630 f i data.obj
 0001:00006630       ?_Erase@?$_Tree@V?$_Tset_traits@PAVlistener_t@@U?$less@PAVlistener_t@@@std@@V?$allocator@PAVlistener_t@@@3@$0A@@std@@@std@@IAEXPAU?$_Tree_node@PAVlistener_t@@PAX@2@@Z 10007630 f i data.obj
 0001:00006630       ?_Erase@?$_Tree@V?$_Tset_traits@PAVmfdpage_t@@U?$less@PAVmfdpage_t@@@std@@V?$allocator@PAVmfdpage_t@@@3@$0A@@std@@@std@@IAEXPAU?$_Tree_node@PAVmfdpage_t@@PAX@2@@Z 10007630 f i in.obj
 0001:000066d0       ?_Getstate@?$basic_stringbuf@DU?$char_traits@D@std@@V?$allocator@D@2@@std@@AAEHH@Z 100076d0 f i data.obj
 0001:00006730       ?_Init@?$basic_stringbuf@DU?$char_traits@D@std@@V?$allocator@D@2@@std@@IAEXPBDIH@Z 10007730 f i data.obj
 0001:00006840       ?_Kfn@?$_Tree@V?$_Tmap_traits@V?$basic_string@DU?$char_traits@D@std@@V?$allocator@D@2@@std@@V12@U?$less@V?$basic_string@DU?$char_traits@D@std@@V?$allocator@D@2@@std@@@2@V?$allocator@U?$pair@$$CBV?$basic_string@DU?$char_traits@D@std@@V?$allocator@D@2@@std@@V12@@std@@@2@$0A@@std@@@std@@IBEABV?$basic_string@DU?$char_traits@D@std@@V?$allocator@D@2@@2@ABU?$pair@$$CBV?$basic_string@DU?$char_traits@D@std@@V?$allocator@D@2@@std@@V12@@2@@Z 10007840 f i tools.obj
 0001:00006840       ?_Kfn@?$_Tree@V?$_Tset_traits@PAVmfdpage_t@@U?$less@PAVmfdpage_t@@@std@@V?$allocator@PAVmfdpage_t@@@3@$0A@@std@@@std@@IBEABQAVmfdpage_t@@ABQAV3@@Z 10007840 f i in.obj
 0001:00006840       ?_Kfn@?$_Tree@V?$_Tset_traits@PAVlistener_t@@U?$less@PAVlistener_t@@@std@@V?$allocator@PAVlistener_t@@@3@$0A@@std@@@std@@IBEABQAVlistener_t@@ABQAV3@@Z 10007840 f i data.obj
 0001:00006840       ?_Kfn@?$_Tree@V?$_Tmap_traits@V?$basic_string@DU?$char_traits@D@std@@V?$allocator@D@2@@std@@MU?$less@V?$basic_string@DU?$char_traits@D@std@@V?$allocator@D@2@@std@@@2@V?$allocator@U?$pair@$$CBV?$basic_string@DU?$char_traits@D@std@@V?$allocator@D@2@@std@@M@std@@@2@$0A@@std@@@std@@IBEABV?$basic_string@DU?$char_traits@D@std@@V?$allocator@D@2@@2@ABU?$pair@$$CBV?$basic_string@DU?$char_traits@D@std@@V?$allocator@D@2@@std@@M@2@@Z 10007840 f i mfdpage_fms.obj
 0001:00006840       ?_Kfn@?$_Tree@V?$_Tset_traits@PAVobject_t@@U?$less@PAVobject_t@@@std@@V?$allocator@PAVobject_t@@@3@$0A@@std@@@std@@IBEABQAVobject_t@@ABQAV3@@Z 10007840 f i data.obj
 0001:00006840       ?_Kfn@?$_Tree@V?$_Tmap_traits@V?$basic_string@DU?$char_traits@D@std@@V?$allocator@D@2@@std@@HU?$less@V?$basic_string@DU?$char_traits@D@std@@V?$allocator@D@2@@std@@@2@V?$allocator@U?$pair@$$CBV?$basic_string@DU?$char_traits@D@std@@V?$allocator@D@2@@std@@H@std@@@2@$0A@@std@@@std@@IBEABV?$basic_string@DU?$char_traits@D@std@@V?$allocator@D@2@@2@ABU?$pair@$$CBV?$basic_string@DU?$char_traits@D@std@@V?$allocator@D@2@@std@@H@2@@Z 10007840 f i mfdpage.obj
 0001:00006840       ?_Kfn@?$_Tree@V?$_Tmap_traits@HMU?$less@H@std@@V?$allocator@U?$pair@$$CBHM@std@@@2@$0A@@std@@@std@@IBEABHABU?$pair@$$CBHM@2@@Z 10007840 f i fms_config.obj
 0001:00006840       ?_Kfn@?$_Tree@V?$_Tmap_traits@HPAVfms_fp_item_t@@U?$less@H@std@@V?$allocator@U?$pair@$$CBHPAVfms_fp_item_t@@@std@@@3@$0A@@std@@@std@@IBEABHABU?$pair@$$CBHPAVfms_fp_item_t@@@2@@Z 10007840 f i mfdpage_fms.obj
 0001:00006840       ?_Kfn@?$_Tree@V?$_Tmap_traits@V?$basic_string@DU?$char_traits@D@std@@V?$allocator@D@2@@std@@DU?$less@V?$basic_string@DU?$char_traits@D@std@@V?$allocator@D@2@@std@@@2@V?$allocator@U?$pair@$$CBV?$basic_string@DU?$char_traits@D@std@@V?$allocator@D@2@@std@@D@std@@@2@$0A@@std@@@std@@IBEABV?$basic_string@DU?$char_traits@D@std@@V?$allocator@D@2@@2@ABU?$pair@$$CBV?$basic_string@DU?$char_traits@D@std@@V?$allocator@D@2@@std@@D@2@@Z 10007840 f i mfdpage.obj
 0001:00006840       ?_Kfn@?$_Tree@V?$_Tmap_traits@HV?$basic_string@DU?$char_traits@D@std@@V?$allocator@D@2@@std@@U?$less@H@2@V?$allocator@U?$pair@$$CBHV?$basic_string@DU?$char_traits@D@std@@V?$allocator@D@2@@std@@@std@@@2@$0A@@std@@@std@@IBEABHABU?$pair@$$CBHV?$basic_string@DU?$char_traits@D@std@@V?$allocator@D@2@@std@@@2@@Z 10007840 f i out_saitek.obj
 0001:00006840       ?_Kfn@?$_Tree@V?$_Tmap_traits@V?$basic_string@DU?$char_traits@D@std@@V?$allocator@D@2@@std@@PAVfms_fp_item_t@@U?$less@V?$basic_string@DU?$char_traits@D@std@@V?$allocator@D@2@@std@@@2@V?$allocator@U?$pair@$$CBV?$basic_string@DU?$char_traits@D@std@@V?$allocator@D@2@@std@@PAVfms_fp_item_t@@@std@@@2@$0A@@std@@@std@@IBEABV?$basic_string@DU?$char_traits@D@std@@V?$allocator@D@2@@2@ABU?$pair@$$CBV?$basic_string@DU?$char_traits@D@std@@V?$allocator@D@2@@std@@PAVfms_fp_item_t@@@2@@Z 10007840 f i fms_fp.obj
 0001:00006840       ?_Kfn@?$_Tree@V?$_Tmap_traits@HPAVobject_t@@U?$less@H@std@@V?$allocator@U?$pair@$$CBHPAVobject_t@@@std@@@3@$0A@@std@@@std@@IBEABHABU?$pair@$$CBHPAVobject_t@@@2@@Z 10007840 f i mfdpage.obj
 0001:00006840       ?_Kfn@?$_Tree@V?$_Tmap_traits@V?$basic_string@DU?$char_traits@D@std@@V?$allocator@D@2@@std@@PAVfms_config_item_t@@U?$less@V?$basic_string@DU?$char_traits@D@std@@V?$allocator@D@2@@std@@@2@V?$allocator@U?$pair@$$CBV?$basic_string@DU?$char_traits@D@std@@V?$allocator@D@2@@std@@PAVfms_config_item_t@@@std@@@2@$0A@@std@@@std@@IBEABV?$basic_string@DU?$char_traits@D@std@@V?$allocator@D@2@@2@ABU?$pair@$$CBV?$basic_string@DU?$char_traits@D@std@@V?$allocator@D@2@@std@@PAVfms_config_item_t@@@2@@Z 10007840 f i fms_config.obj
 0001:00006860       ?_Rmost@?$_Tree@V?$_Tmap_traits@V?$basic_string@DU?$char_traits@D@std@@V?$allocator@D@2@@std@@V12@U?$less@V?$basic_string@DU?$char_traits@D@std@@V?$allocator@D@2@@std@@@2@V?$allocator@U?$pair@$$CBV?$basic_string@DU?$char_traits@D@std@@V?$allocator@D@2@@std@@V12@@std@@@2@$0A@@std@@@std@@IBEAAPAU?$_Tree_node@U?$pair@$$CBV?$basic_string@DU?$char_traits@D@std@@V?$allocator@D@2@@std@@V12@@std@@PAX@2@XZ 10007860 f i tools.obj
 0001:00006860       ?_Rmost@?$_Tree@V?$_Tmap_traits@HPAVfms_fp_item_t@@U?$less@H@std@@V?$allocator@U?$pair@$$CBHPAVfms_fp_item_t@@@std@@@3@$0A@@std@@@std@@IBEAAPAU?$_Tree_node@U?$pair@$$CBHPAVfms_fp_item_t@@@std@@PAX@2@XZ 10007860 f i mfdpage_fms.obj
 0001:00006860       ?_Rmost@?$_Tree@V?$_Tmap_traits@HV?$basic_string@DU?$char_traits@D@std@@V?$allocator@D@2@@std@@U?$less@H@2@V?$allocator@U?$pair@$$CBHV?$basic_string@DU?$char_traits@D@std@@V?$allocator@D@2@@std@@@std@@@2@$0A@@std@@@std@@IBEAAPAU?$_Tree_node@U?$pair@$$CBHV?$basic_string@DU?$char_traits@D@std@@V?$allocator@D@2@@std@@@std@@PAX@2@XZ 10007860 f i out_saitek.obj
 0001:00006860       ?_Rmost@?$_Tree@V?$_Tmap_traits@HPAVobject_t@@U?$less@H@std@@V?$allocator@U?$pair@$$CBHPAVobject_t@@@std@@@3@$0A@@std@@@std@@IBEAAPAU?$_Tree_node@U?$pair@$$CBHPAVobject_t@@@std@@PAX@2@XZ 10007860 f i mfdpage.obj
 0001:00006860       ?_Rmost@?$_Tree@V?$_Tmap_traits@V?$basic_string@DU?$char_traits@D@std@@V?$allocator@D@2@@std@@PAVfms_config_item_t@@U?$less@V?$basic_string@DU?$char_traits@D@std@@V?$allocator@D@2@@std@@@2@V?$allocator@U?$pair@$$CBV?$basic_string@DU?$char_traits@D@std@@V?$allocator@D@2@@std@@PAVfms_config_item_t@@@std@@@2@$0A@@std@@@std@@IBEAAPAU?$_Tree_node@U?$pair@$$CBV?$basic_string@DU?$char_traits@D@std@@V?$allocator@D@2@@std@@PAVfms_config_item_t@@@std@@PAX@2@XZ 10007860 f i fms_config.obj
 0001:00006860       ?_Rmost@?$_Tree@V?$_Tmap_traits@V?$basic_string@DU?$char_traits@D@std@@V?$allocator@D@2@@std@@DU?$less@V?$basic_string@DU?$char_traits@D@std@@V?$allocator@D@2@@std@@@2@V?$allocator@U?$pair@$$CBV?$basic_string@DU?$char_traits@D@std@@V?$allocator@D@2@@std@@D@std@@@2@$0A@@std@@@std@@IBEAAPAU?$_Tree_node@U?$pair@$$CBV?$basic_string@DU?$char_traits@D@std@@V?$allocator@D@2@@std@@D@std@@PAX@2@XZ 10007860 f i mfdpage.obj
 0001:00006860       ?_Rmost@?$_Tree@V?$_Tmap_traits@V?$basic_string@DU?$char_traits@D@std@@V?$allocator@D@2@@std@@MU?$less@V?$basic_string@DU?$char_traits@D@std@@V?$allocator@D@2@@std@@@2@V?$allocator@U?$pair@$$CBV?$basic_string@DU?$char_traits@D@std@@V?$allocator@D@2@@std@@M@std@@@2@$0A@@std@@@std@@IBEAAPAU?$_Tree_node@U?$pair@$$CBV?$basic_string@DU?$char_traits@D@std@@V?$allocator@D@2@@std@@M@std@@PAX@2@XZ 10007860 f i mfdpage_fms.obj
 0001:00006860       ?_Rmost@?$_Tree@V?$_Tset_traits@PAVmfdpage_t@@U?$less@PAVmfdpage_t@@@std@@V?$allocator@PAVmfdpage_t@@@3@$0A@@std@@@std@@IBEAAPAU?$_Tree_node@PAVmfdpage_t@@PAX@2@XZ 10007860 f i in.obj
 0001:00006860       ?_Rmost@?$_Tree@V?$_Tmap_traits@HMU?$less@H@std@@V?$allocator@U?$pair@$$CBHM@std@@@2@$0A@@std@@@std@@IBEAAPAU?$_Tree_node@U?$pair@$$CBHM@std@@PAX@2@XZ 10007860 f i fms_config.obj
 0001:00006860       ?_Rmost@?$_Tree@V?$_Tset_traits@PAVobject_t@@U?$less@PAVobject_t@@@std@@V?$allocator@PAVobject_t@@@3@$0A@@std@@@std@@IBEAAPAU?$_Tree_node@PAVobject_t@@PAX@2@XZ 10007860 f i data.obj
 0001:00006860       ?_Rmost@?$_Tree@V?$_Tset_traits@PAVlistener_t@@U?$less@PAVlistener_t@@@std@@V?$allocator@PAVlistener_t@@@3@$0A@@std@@@std@@IBEAAPAU?$_Tree_node@PAVlistener_t@@PAX@2@XZ 10007860 f i data.obj
 0001:00006860       ?_Rmost@?$_Tree@V?$_Tmap_traits@V?$basic_string@DU?$char_traits@D@std@@V?$allocator@D@2@@std@@HU?$less@V?$basic_string@DU?$char_traits@D@std@@V?$allocator@D@2@@std@@@2@V?$allocator@U?$pair@$$CBV?$basic_string@DU?$char_traits@D@std@@V?$allocator@D@2@@std@@H@std@@@2@$0A@@std@@@std@@IBEAAPAU?$_Tree_node@U?$pair@$$CBV?$basic_string@DU?$char_traits@D@std@@V?$allocator@D@2@@std@@H@std@@PAX@2@XZ 10007860 f i mfdpage.obj
 0001:00006860       ?_Rmost@?$_Tree@V?$_Tmap_traits@V?$basic_string@DU?$char_traits@D@std@@V?$allocator@D@2@@std@@PAVfms_fp_item_t@@U?$less@V?$basic_string@DU?$char_traits@D@std@@V?$allocator@D@2@@std@@@2@V?$allocator@U?$pair@$$CBV?$basic_string@DU?$char_traits@D@std@@V?$allocator@D@2@@std@@PAVfms_fp_item_t@@@std@@@2@$0A@@std@@@std@@IBEAAPAU?$_Tree_node@U?$pair@$$CBV?$basic_string@DU?$char_traits@D@std@@V?$allocator@D@2@@std@@PAVfms_fp_item_t@@@std@@PAX@2@XZ 10007860 f i fms_fp.obj
 0001:00006880       ?_Root@?$_Tree@V?$_Tmap_traits@HMU?$less@H@std@@V?$allocator@U?$pair@$$CBHM@std@@@2@$0A@@std@@@std@@IBEAAPAU?$_Tree_node@U?$pair@$$CBHM@std@@PAX@2@XZ 10007880 f i fms_config.obj
 0001:00006880       ?_Root@?$_Tree@V?$_Tmap_traits@V?$basic_string@DU?$char_traits@D@std@@V?$allocator@D@2@@std@@PAVfms_config_item_t@@U?$less@V?$basic_string@DU?$char_traits@D@std@@V?$allocator@D@2@@std@@@2@V?$allocator@U?$pair@$$CBV?$basic_string@DU?$char_traits@D@std@@V?$allocator@D@2@@std@@PAVfms_config_item_t@@@std@@@2@$0A@@std@@@std@@IBEAAPAU?$_Tree_node@U?$pair@$$CBV?$basic_string@DU?$char_traits@D@std@@V?$allocator@D@2@@std@@PAVfms_config_item_t@@@std@@PAX@2@XZ 10007880 f i fms_config.obj
 0001:00006880       ?_Root@?$_Tree@V?$_Tmap_traits@V?$basic_string@DU?$char_traits@D@std@@V?$allocator@D@2@@std@@PAVfms_fp_item_t@@U?$less@V?$basic_string@DU?$char_traits@D@std@@V?$allocator@D@2@@std@@@2@V?$allocator@U?$pair@$$CBV?$basic_string@DU?$char_traits@D@std@@V?$allocator@D@2@@std@@PAVfms_fp_item_t@@@std@@@2@$0A@@std@@@std@@IBEAAPAU?$_Tree_node@U?$pair@$$CBV?$basic_string@DU?$char_traits@D@std@@V?$allocator@D@2@@std@@PAVfms_fp_item_t@@@std@@PAX@2@XZ 10007880 f i fms_fp.obj
 0001:00006880       ?_Root@?$_Tree@V?$_Tmap_traits@HV?$basic_string@DU?$char_traits@D@std@@V?$allocator@D@2@@std@@U?$less@H@2@V?$allocator@U?$pair@$$CBHV?$basic_string@DU?$char_traits@D@std@@V?$allocator@D@2@@std@@@std@@@2@$0A@@std@@@std@@IBEAAPAU?$_Tree_node@U?$pair@$$CBHV?$basic_string@DU?$char_traits@D@std@@V?$allocator@D@2@@std@@@std@@PAX@2@XZ 10007880 f i out_saitek.obj
 0001:00006880       ?_Root@?$_Tree@V?$_Tset_traits@PAVmfdpage_t@@U?$less@PAVmfdpage_t@@@std@@V?$allocator@PAVmfdpage_t@@@3@$0A@@std@@@std@@IBEAAPAU?$_Tree_node@PAVmfdpage_t@@PAX@2@XZ 10007880 f i in.obj
 0001:00006880       ?_Root@?$_Tree@V?$_Tmap_traits@V?$basic_string@DU?$char_traits@D@std@@V?$allocator@D@2@@std@@V12@U?$less@V?$basic_string@DU?$char_traits@D@std@@V?$allocator@D@2@@std@@@2@V?$allocator@U?$pair@$$CBV?$basic_string@DU?$char_traits@D@std@@V?$allocator@D@2@@std@@V12@@std@@@2@$0A@@std@@@std@@IBEAAPAU?$_Tree_node@U?$pair@$$CBV?$basic_string@DU?$char_traits@D@std@@V?$allocator@D@2@@std@@V12@@std@@PAX@2@XZ 10007880 f i tools.obj
 0001:00006880       ?_Root@?$_Tree@V?$_Tmap_traits@V?$basic_string@DU?$char_traits@D@std@@V?$allocator@D@2@@std@@MU?$less@V?$basic_string@DU?$char_traits@D@std@@V?$allocator@D@2@@std@@@2@V?$allocator@U?$pair@$$CBV?$basic_string@DU?$char_traits@D@std@@V?$allocator@D@2@@std@@M@std@@@2@$0A@@std@@@std@@IBEAAPAU?$_Tree_node@U?$pair@$$CBV?$basic_string@DU?$char_traits@D@std@@V?$allocator@D@2@@std@@M@std@@PAX@2@XZ 10007880 f i mfdpage_fms.obj
 0001:00006880       ?_Root@?$_Tree@V?$_Tset_traits@PAVobject_t@@U?$less@PAVobject_t@@@std@@V?$allocator@PAVobject_t@@@3@$0A@@std@@@std@@IBEAAPAU?$_Tree_node@PAVobject_t@@PAX@2@XZ 10007880 f i data.obj
 0001:00006880       ?_Root@?$_Tree@V?$_Tset_traits@PAVlistener_t@@U?$less@PAVlistener_t@@@std@@V?$allocator@PAVlistener_t@@@3@$0A@@std@@@std@@IBEAAPAU?$_Tree_node@PAVlistener_t@@PAX@2@XZ 10007880 f i data.obj
 0001:00006880       ?_Root@?$_Tree@V?$_Tmap_traits@V?$basic_string@DU?$char_traits@D@std@@V?$allocator@D@2@@std@@DU?$less@V?$basic_string@DU?$char_traits@D@std@@V?$allocator@D@2@@std@@@2@V?$allocator@U?$pair@$$CBV?$basic_string@DU?$char_traits@D@std@@V?$allocator@D@2@@std@@D@std@@@2@$0A@@std@@@std@@IBEAAPAU?$_Tree_node@U?$pair@$$CBV?$basic_string@DU?$char_traits@D@std@@V?$allocator@D@2@@std@@D@std@@PAX@2@XZ 10007880 f i mfdpage.obj
 0001:00006880       ?_Root@?$_Tree@V?$_Tmap_traits@HPAVfms_fp_item_t@@U?$less@H@std@@V?$allocator@U?$pair@$$CBHPAVfms_fp_item_t@@@std@@@3@$0A@@std@@@std@@IBEAAPAU?$_Tree_node@U?$pair@$$CBHPAVfms_fp_item_t@@@std@@PAX@2@XZ 10007880 f i mfdpage_fms.obj
 0001:00006880       ?_Root@?$_Tree@V?$_Tmap_traits@HPAVobject_t@@U?$less@H@std@@V?$allocator@U?$pair@$$CBHPAVobject_t@@@std@@@3@$0A@@std@@@std@@IBEAAPAU?$_Tree_node@U?$pair@$$CBHPAVobject_t@@@std@@PAX@2@XZ 10007880 f i mfdpage.obj
 0001:00006880       ?_Root@?$_Tree@V?$_Tmap_traits@V?$basic_string@DU?$char_traits@D@std@@V?$allocator@D@2@@std@@HU?$less@V?$basic_string@DU?$char_traits@D@std@@V?$allocator@D@2@@std@@@2@V?$allocator@U?$pair@$$CBV?$basic_string@DU?$char_traits@D@std@@V?$allocator@D@2@@std@@H@std@@@2@$0A@@std@@@std@@IBEAAPAU?$_Tree_node@U?$pair@$$CBV?$basic_string@DU?$char_traits@D@std@@V?$allocator@D@2@@std@@H@std@@PAX@2@XZ 10007880 f i mfdpage.obj
 0001:000068a0       ?_Tidy@?$_Tree@V?$_Tset_traits@PAVlistener_t@@U?$less@PAVlistener_t@@@std@@V?$allocator@PAVlistener_t@@@3@$0A@@std@@@std@@IAEXXZ 100078a0 f i data.obj
 0001:000068a0       ?_Tidy@?$_Tree@V?$_Tset_traits@PAVmfdpage_t@@U?$less@PAVmfdpage_t@@@std@@V?$allocator@PAVmfdpage_t@@@3@$0A@@std@@@std@@IAEXXZ 100078a0 f i in.obj
 0001:000068a0       ?_Tidy@?$_Tree@V?$_Tset_traits@PAVobject_t@@U?$less@PAVobject_t@@@std@@V?$allocator@PAVobject_t@@@3@$0A@@std@@@std@@IAEXXZ 100078a0 f i data.obj
 0001:000068e0       ?_Tidy@?$basic_stringbuf@DU?$char_traits@D@std@@V?$allocator@D@2@@std@@IAEXXZ 100078e0 f i data.obj
 0001:00006980       ?allocate@?$_Wrap_alloc@V?$allocator@U?$_Tree_node@PAVmfdpage_t@@PAX@std@@@std@@@std@@QAEPAU?$_Tree_node@PAVmfdpage_t@@PAX@2@I@Z 10007980 f i in.obj
 0001:00006980       ?allocate@?$_Wrap_alloc@V?$allocator@U?$_Tree_node@PAVlistener_t@@PAX@std@@@std@@@std@@QAEPAU?$_Tree_node@PAVlistener_t@@PAX@2@I@Z 10007980 f i data.obj
 0001:00006980       ?allocate@?$_Wrap_alloc@V?$allocator@U?$_Tree_node@PAVobject_t@@PAX@std@@@std@@@std@@QAEPAU?$_Tree_node@PAVobject_t@@PAX@2@I@Z 10007980 f i data.obj
 0001:000069a0       ?allocate@?$allocator@U?$_Tree_node@PAVmfdpage_t@@PAX@std@@@std@@QAEPAU?$_Tree_node@PAVmfdpage_t@@PAX@2@I@Z 100079a0 f i in.obj
 0001:000069a0       ?allocate@?$allocator@U?$_Tree_node@PAVlistener_t@@PAX@std@@@std@@QAEPAU?$_Tree_node@PAVlistener_t@@PAX@2@I@Z 100079a0 f i data.obj
 0001:000069a0       ?allocate@?$allocator@U?$_Tree_node@PAVobject_t@@PAX@std@@@std@@QAEPAU?$_Tree_node@PAVobject_t@@PAX@2@I@Z 100079a0 f i data.obj
 0001:000069c0       ?assign@?$basic_string@DU?$char_traits@D@std@@V?$allocator@D@2@@std@@QAEAAV12@$$QAV12@@Z 100079c0 f i data.obj
 0001:00006a40       ?assign@?$basic_string@DU?$char_traits@D@std@@V?$allocator@D@2@@std@@QAEAAV12@ABV12@@Z 10007a40 f i data.obj
 0001:00006a70       ?begin@?$_Tree@V?$_Tset_traits@PAVmfdpage_t@@U?$less@PAVmfdpage_t@@@std@@V?$allocator@PAVmfdpage_t@@@3@$0A@@std@@@std@@QAE?AV?$_Tree_const_iterator@V?$_Tree_val@U?$_Tree_simple_types@PAVmfdpage_t@@@std@@@std@@@2@XZ 10007a70 f i in.obj
 0001:00006a70       ?begin@?$_Tree@V?$_Tset_traits@PAVlistener_t@@U?$less@PAVlistener_t@@@std@@V?$allocator@PAVlistener_t@@@3@$0A@@std@@@std@@QAE?AV?$_Tree_const_iterator@V?$_Tree_val@U?$_Tree_simple_types@PAVlistener_t@@@std@@@std@@@2@XZ 10007a70 f i data.obj
 0001:00006a70       ?begin@?$_Tree@V?$_Tset_traits@PAVobject_t@@U?$less@PAVobject_t@@@std@@V?$allocator@PAVobject_t@@@3@$0A@@std@@@std@@QAE?AV?$_Tree_const_iterator@V?$_Tree_val@U?$_Tree_simple_types@PAVobject_t@@@std@@@std@@@2@XZ 10007a70 f i data.obj
 0001:00006aa0       ?clear@?$_Tree@V?$_Tmap_traits@HPAVfms_fp_item_t@@U?$less@H@std@@V?$allocator@U?$pair@$$CBHPAVfms_fp_item_t@@@std@@@3@$0A@@std@@@std@@QAEXXZ 10007aa0 f i fms_fp.obj
 0001:00006aa0       ?clear@?$_Tree@V?$_Tset_traits@PAVlistener_t@@U?$less@PAVlistener_t@@@std@@V?$allocator@PAVlistener_t@@@3@$0A@@std@@@std@@QAEXXZ 10007aa0 f i data.obj
 0001:00006aa0       ?clear@?$_Tree@V?$_Tset_traits@PAVmfdpage_t@@U?$less@PAVmfdpage_t@@@std@@V?$allocator@PAVmfdpage_t@@@3@$0A@@std@@@std@@QAEXXZ 10007aa0 f i in.obj
 0001:00006aa0       ?clear@?$_Tree@V?$_Tset_traits@PAVobject_t@@U?$less@PAVobject_t@@@std@@V?$allocator@PAVobject_t@@@3@$0A@@std@@@std@@QAEXXZ 10007aa0 f i data.obj
 0001:00006aa0       ?clear@?$_Tree@V?$_Tmap_traits@HPAVobject_t@@U?$less@H@std@@V?$allocator@U?$pair@$$CBHPAVobject_t@@@std@@@3@$0A@@std@@@std@@QAEXXZ 10007aa0 f i mfdpage.obj
 0001:00006b00       ?clear@?$basic_string@DU?$char_traits@D@std@@V?$allocator@D@2@@std@@QAEXXZ 10007b00 f i data.obj
 0001:00006b20       ?compare@?$basic_string@DU?$char_traits@D@std@@V?$allocator@D@2@@std@@QBEHPBD@Z 10007b20 f i data.obj
 0001:00006b50       ?end@?$_Tree@V?$_Tset_traits@PAVmfdpage_t@@U?$less@PAVmfdpage_t@@@std@@V?$allocator@PAVmfdpage_t@@@3@$0A@@std@@@std@@QAE?AV?$_Tree_const_iterator@V?$_Tree_val@U?$_Tree_simple_types@PAVmfdpage_t@@@std@@@std@@@2@XZ 10007b50 f i in.obj
 0001:00006b50       ?end@?$_Tree@V?$_Tset_traits@PAVlistener_t@@U?$less@PAVlistener_t@@@std@@V?$allocator@PAVlistener_t@@@3@$0A@@std@@@std@@QAE?AV?$_Tree_const_iterator@V?$_Tree_val@U?$_Tree_simple_types@PAVlistener_t@@@std@@@std@@@2@XZ 10007b50 f i data.obj
 0001:00006b50       ?end@?$_Tree@V?$_Tset_traits@PAVobject_t@@U?$less@PAVobject_t@@@std@@V?$allocator@PAVobject_t@@@3@$0A@@std@@@std@@QAE?AV?$_Tree_const_iterator@V?$_Tree_val@U?$_Tree_simple_types@PAVobject_t@@@std@@@std@@@2@XZ 10007b50 f i data.obj
 0001:00006b80       ?eof@?$char_traits@D@std@@SAHXZ 10007b80 f i data.obj
 0001:00006b90       ?eq@?$char_traits@D@std@@SA_NABD0@Z 10007b90 f i data.obj
 0001:00006bc0       ?eq_int_type@?$char_traits@D@std@@SA_NABH0@Z 10007bc0 f i data.obj
 0001:00006bf0       ?equal_range@?$_Tree@V?$_Tset_traits@PAVobject_t@@U?$less@PAVobject_t@@@std@@V?$allocator@PAVobject_t@@@3@$0A@@std@@@std@@QAE?AU?$pair@V?$_Tree_const_iterator@V?$_Tree_val@U?$_Tree_simple_types@PAVobject_t@@@std@@@std@@@std@@V12@@2@ABQAVobject_t@@@Z 10007bf0 f i data.obj
 0001:00006bf0       ?equal_range@?$_Tree@V?$_Tset_traits@PAVlistener_t@@U?$less@PAVlistener_t@@@std@@V?$allocator@PAVlistener_t@@@3@$0A@@std@@@std@@QAE?AU?$pair@V?$_Tree_const_iterator@V?$_Tree_val@U?$_Tree_simple_types@PAVlistener_t@@@std@@@std@@@std@@V12@@2@ABQAVlistener_t@@@Z 10007bf0 f i data.obj
 0001:00006c10       ?erase@?$_Tree@V?$_Tset_traits@PAVlistener_t@@U?$less@PAVlistener_t@@@std@@V?$allocator@PAVlistener_t@@@3@$0A@@std@@@std@@QAE?AV?$_Tree_const_iterator@V?$_Tree_val@U?$_Tree_simple_types@PAVlistener_t@@@std@@@std@@@2@V32@0@Z 10007c10 f i data.obj
 0001:00006c10       ?erase@?$_Tree@V?$_Tset_traits@PAVobject_t@@U?$less@PAVobject_t@@@std@@V?$allocator@PAVobject_t@@@3@$0A@@std@@@std@@QAE?AV?$_Tree_const_iterator@V?$_Tree_val@U?$_Tree_simple_types@PAVobject_t@@@std@@@std@@@2@V32@0@Z 10007c10 f i data.obj
 0001:00006c10       ?erase@?$_Tree@V?$_Tset_traits@PAVmfdpage_t@@U?$less@PAVmfdpage_t@@@std@@V?$allocator@PAVmfdpage_t@@@3@$0A@@std@@@std@@QAE?AV?$_Tree_const_iterator@V?$_Tree_val@U?$_Tree_simple_types@PAVmfdpage_t@@@std@@@std@@@2@V32@0@Z 10007c10 f i in.obj
 0001:00006cc0       ?erase@?$_Tree@V?$_Tset_traits@PAVmfdpage_t@@U?$less@PAVmfdpage_t@@@std@@V?$allocator@PAVmfdpage_t@@@3@$0A@@std@@@std@@QAE?AV?$_Tree_const_iterator@V?$_Tree_val@U?$_Tree_simple_types@PAVmfdpage_t@@@std@@@std@@@2@V32@@Z 10007cc0 f i in.obj
 0001:00006cc0       ?erase@?$_Tree@V?$_Tset_traits@PAVobject_t@@U?$less@PAVobject_t@@@std@@V?$allocator@PAVobject_t@@@3@$0A@@std@@@std@@QAE?AV?$_Tree_const_iterator@V?$_Tree_val@U?$_Tree_simple_types@PAVobject_t@@@std@@@std@@@2@V32@@Z 10007cc0 f i data.obj
 0001:00006cc0       ?erase@?$_Tree@V?$_Tset_traits@PAVlistener_t@@U?$less@PAVlistener_t@@@std@@V?$allocator@PAVlistener_t@@@3@$0A@@std@@@std@@QAE?AV?$_Tree_const_iterator@V?$_Tree_val@U?$_Tree_simple_types@PAVlistener_t@@@std@@@std@@@2@V32@@Z 10007cc0 f i data.obj
 0001:00007440       ?erase@?$_Tree@V?$_Tset_traits@PAVlistener_t@@U?$less@PAVlistener_t@@@std@@V?$allocator@PAVlistener_t@@@3@$0A@@std@@@std@@QAEIABQAVlistener_t@@@Z 10008440 f i data.obj
 0001:00007440       ?erase@?$_Tree@V?$_Tset_traits@PAVobject_t@@U?$less@PAVobject_t@@@std@@V?$allocator@PAVobject_t@@@3@$0A@@std@@@std@@QAEIABQAVobject_t@@@Z 10008440 f i data.obj
 0001:000074a0       ?get_allocator@?$_Tree@V?$_Tmap_traits@V?$basic_string@DU?$char_traits@D@std@@V?$allocator@D@2@@std@@V12@U?$less@V?$basic_string@DU?$char_traits@D@std@@V?$allocator@D@2@@std@@@2@V?$allocator@U?$pair@$$CBV?$basic_string@DU?$char_traits@D@std@@V?$allocator@D@2@@std@@V12@@std@@@2@$0A@@std@@@std@@QBE?AV?$allocator@U?$pair@$$CBV?$basic_string@DU?$char_traits@D@std@@V?$allocator@D@2@@std@@V12@@std@@@2@XZ 100084a0 f i mfdpage_led.obj
 0001:000074a0       ?get_allocator@?$basic_string@DU?$char_traits@D@std@@V?$allocator@D@2@@std@@QBE?AV?$allocator@D@2@XZ 100084a0 f i data.obj
 0001:000074d0       ?insert@?$_Tree@V?$_Tset_traits@PAVlistener_t@@U?$less@PAVlistener_t@@@std@@V?$allocator@PAVlistener_t@@@3@$0A@@std@@@std@@QAE?AU?$pair@V?$_Tree_const_iterator@V?$_Tree_val@U?$_Tree_simple_types@PAVlistener_t@@@std@@@std@@@std@@_N@2@ABQAVlistener_t@@@Z 100084d0 f i data.obj
 0001:000074d0       ?insert@?$_Tree@V?$_Tset_traits@PAVobject_t@@U?$less@PAVobject_t@@@std@@V?$allocator@PAVobject_t@@@3@$0A@@std@@@std@@QAE?AU?$pair@V?$_Tree_const_iterator@V?$_Tree_val@U?$_Tree_simple_types@PAVobject_t@@@std@@@std@@@std@@_N@2@ABQAVobject_t@@@Z 100084d0 f i data.obj
 0001:00007500       ?insert@?$set@PAVlistener_t@@U?$less@PAVlistener_t@@@std@@V?$allocator@PAVlistener_t@@@3@@std@@QAE?AU?$pair@V?$_Tree_const_iterator@V?$_Tree_val@U?$_Tree_simple_types@PAVlistener_t@@@std@@@std@@@std@@_N@2@ABQAVlistener_t@@@Z 10008500 f i data.obj
 0001:00007500       ?insert@?$set@PAVobject_t@@U?$less@PAVobject_t@@@std@@V?$allocator@PAVobject_t@@@3@@std@@QAE?AU?$pair@V?$_Tree_const_iterator@V?$_Tree_val@U?$_Tree_simple_types@PAVobject_t@@@std@@@std@@@std@@_N@2@ABQAVobject_t@@@Z 10008500 f i data.obj
 0001:00007520       ?max_size@?$allocator@U?$_Tree_node@PAVlistener_t@@PAX@std@@@std@@QBEIXZ 10008520 f i data.obj
 0001:00007520       ?max_size@?$allocator@U?$_Tree_node@PAVobject_t@@PAX@std@@@std@@QBEIXZ 10008520 f i data.obj
 0001:00007520       ?max_size@?$allocator@U?$_Tree_node@PAVmfdpage_t@@PAX@std@@@std@@QBEIXZ 10008520 f i in.obj
 0001:00007530       ?max_size@?$allocator_traits@V?$allocator@U?$_Tree_node@PAVmfdpage_t@@PAX@std@@@std@@@std@@SAIABV?$allocator@U?$_Tree_node@PAVmfdpage_t@@PAX@std@@@2@@Z 10008530 f i in.obj
 0001:00007530       ?max_size@?$allocator_traits@V?$allocator@U?$_Tree_node@PAVlistener_t@@PAX@std@@@std@@@std@@SAIABV?$allocator@U?$_Tree_node@PAVlistener_t@@PAX@std@@@2@@Z 10008530 f i data.obj
 0001:00007530       ?max_size@?$allocator_traits@V?$allocator@U?$_Tree_node@PAVobject_t@@PAX@std@@@std@@@std@@SAIABV?$allocator@U?$_Tree_node@PAVobject_t@@PAX@std@@@2@@Z 10008530 f i data.obj
 0001:00007540       ?not_eof@?$char_traits@D@std@@SAHABH@Z 10008540 f i data.obj
 0001:00007590       ?overflow@?$basic_stringbuf@DU?$char_traits@D@std@@V?$allocator@D@2@@std@@MAEHH@Z 10008590 f i data.obj
 0001:00007890       ?pbackfail@?$basic_stringbuf@DU?$char_traits@D@std@@V?$allocator@D@2@@std@@MAEHH@Z 10008890 f i data.obj
 0001:00007980       ?seekoff@?$basic_stringbuf@DU?$char_traits@D@std@@V?$allocator@D@2@@std@@MAE?AV?$fpos@H@2@_JHH@Z 10008980 f i data.obj
 0001:00007c40       ?seekpos@?$basic_stringbuf@DU?$char_traits@D@std@@V?$allocator@D@2@@std@@MAE?AV?$fpos@H@2@V32@H@Z 10008c40 f i data.obj
 0001:00007e40       ?str@?$basic_ostringstream@DU?$char_traits@D@std@@V?$allocator@D@2@@std@@QBE?AV?$basic_string@DU?$char_traits@D@std@@V?$allocator@D@2@@2@XZ 10008e40 f i data.obj
 0001:00007e60       ?str@?$basic_stringbuf@DU?$char_traits@D@std@@V?$allocator@D@2@@std@@QBE?AV?$basic_string@DU?$char_traits@D@std@@V?$allocator@D@2@@2@XZ 10008e60 f i data.obj
 0001:00007f80       ?to_char_type@?$char_traits@D@std@@SADABH@Z 10008f80 f i data.obj
 0001:00007f90       ?to_int_type@?$char_traits@D@std@@SAHABD@Z 10008f90 f i data.obj
 0001:00007fa0       ?underflow@?$basic_stringbuf@DU?$char_traits@D@std@@V?$allocator@D@2@@std@@MAEHXZ 10008fa0 f i data.obj
 0001:000080a0       ??0out_t@@QAE@XZ           100090a0 f   out.obj
 0001:00008100       ??1out_t@@QAE@XZ           10009100 f   out.obj
 0001:00008120       ??0out_saitek_t@@QAE@XZ    10009120 f   out_saitek.obj
 0001:00008180       ?init@out_saitek_t@@UAEXXZ 10009180 f   out_saitek.obj
 0001:00008220       ?deinit@out_saitek_t@@UAEXXZ 10009220 f   out_saitek.obj
 0001:00008250       ?set_display_brightness@out_saitek_t@@UAEXD@Z 10009250 f   out_saitek.obj
 0001:000082e0       ?set_led_brightness@out_saitek_t@@UAEXD@Z 100092e0 f   out_saitek.obj
 0001:00008370       ?set_textdata@out_saitek_t@@UAEXPBD@Z 10009370 f   out_saitek.obj
 0001:00008390       ?get_text@out_saitek_t@@UAE?AV?$basic_string@DU?$char_traits@D@std@@V?$allocator@D@2@@std@@H@Z 10009390 f   out_saitek.obj
 0001:000083c0       ?set_led@out_saitek_t@@UAEXHH@Z 100093c0 f   out_saitek.obj
 0001:00008430       ?set_time@out_saitek_t@@UAEX_NHH@Z 10009430 f   out_saitek.obj
 0001:000084c0       ?set_date@out_saitek_t@@UAEXHHH@Z 100094c0 f   out_saitek.obj
 0001:00008590       ?print@out_saitek_t@@UAEXXZ 10009590 f   out_saitek.obj
 0001:000085c0       ?search@out_saitek_t@@AAE_NXZ 100095c0 f   out_saitek.obj
 0001:000087a0       ?attach@out_saitek_t@@AAE_NXZ 100097a0 f   out_saitek.obj
 0001:000087f0       ?detach@out_saitek_t@@AAE_NXZ 100097f0 f   out_saitek.obj
 0001:000088d0       ?print@out_saitek_t@@AAAXPBDZZ 100098d0 f   out_saitek.obj
 0001:00008a40       ?print_line@out_saitek_t@@AAEXHPBDH@Z 10009a40 f   out_saitek.obj
 0001:00008b20       ?clear_line@out_saitek_t@@AAEXH@Z 10009b20 f   out_saitek.obj
 0001:00008b80       ?send_usb@out_saitek_t@@AAEHHH@Z 10009b80 f   out_saitek.obj
 0001:00008c00       ?usb_error@out_saitek_t@@AAEPADH@Z 10009c00 f   out_saitek.obj
 0001:00008c20       ??$_Buynode@ABUpiecewise_construct_t@std@@V?$tuple@ABH@2@V?$tuple@$$$V@2@@?$_Tree_buy@U?$pair@$$CBHV?$basic_string@DU?$char_traits@D@std@@V?$allocator@D@2@@std@@@std@@V?$allocator@U?$pair@$$CBHV?$basic_string@DU?$char_traits@D@std@@V?$allocator@D@2@@std@@@std@@@2@@std@@QAEPAU?$_Tree_node@U?$pair@$$CBHV?$basic_string@DU?$char_traits@D@std@@V?$allocator@D@2@@std@@@std@@PAX@1@ABUpiecewise_construct_t@1@$$QAV?$tuple@ABH@1@$$QAV?$tuple@$$$V@1@@Z 10009c20 f i out_saitek.obj
 0001:00008c20       ??$_Buynode@ABUpiecewise_construct_t@std@@V?$tuple@$$QAH@2@V?$tuple@$$$V@2@@?$_Tree_buy@U?$pair@$$CBHV?$basic_string@DU?$char_traits@D@std@@V?$allocator@D@2@@std@@@std@@V?$allocator@U?$pair@$$CBHV?$basic_string@DU?$char_traits@D@std@@V?$allocator@D@2@@std@@@std@@@2@@std@@QAEPAU?$_Tree_node@U?$pair@$$CBHV?$basic_string@DU?$char_traits@D@std@@V?$allocator@D@2@@std@@@std@@PAX@1@ABUpiecewise_construct_t@1@$$QAV?$tuple@$$QAH@1@$$QAV?$tuple@$$$V@1@@Z 10009c20 f i mfdpage_fms.obj
 0001:00008d20       ??$_Insert_at@AAU?$pair@$$CBHV?$basic_string@DU?$char_traits@D@std@@V?$allocator@D@2@@std@@@std@@PAU?$_Tree_node@U?$pair@$$CBHV?$basic_string@DU?$char_traits@D@std@@V?$allocator@D@2@@std@@@std@@PAX@2@@?$_Tree@V?$_Tmap_traits@HV?$basic_string@DU?$char_traits@D@std@@V?$allocator@D@2@@std@@U?$less@H@2@V?$allocator@U?$pair@$$CBHV?$basic_string@DU?$char_traits@D@std@@V?$allocator@D@2@@std@@@std@@@2@$0A@@std@@@std@@IAE?AV?$_Tree_iterator@V?$_Tree_val@U?$_Tree_simple_types@U?$pair@$$CBHV?$basic_string@DU?$char_traits@D@std@@V?$allocator@D@2@@std@@@std@@@std@@@std@@@1@_NPAU?$_Tree_node@U?$pair@$$CBHV?$basic_string@DU?$char_traits@D@std@@V?$allocator@D@2@@std@@@std@@PAX@1@AAU?$pair@$$CBHV?$basic_string@DU?$char_traits@D@std@@V?$allocator@D@2@@std@@@1@1@Z 10009d20 f i out_saitek.obj
 0001:00009150       ??$_Insert_hint@AAU?$pair@$$CBHV?$basic_string@DU?$char_traits@D@std@@V?$allocator@D@2@@std@@@std@@PAU?$_Tree_node@U?$pair@$$CBHV?$basic_string@DU?$char_traits@D@std@@V?$allocator@D@2@@std@@@std@@PAX@2@@?$_Tree@V?$_Tmap_traits@HV?$basic_string@DU?$char_traits@D@std@@V?$allocator@D@2@@std@@U?$less@H@2@V?$allocator@U?$pair@$$CBHV?$basic_string@DU?$char_traits@D@std@@V?$allocator@D@2@@std@@@std@@@2@$0A@@std@@@std@@IAE?AV?$_Tree_iterator@V?$_Tree_val@U?$_Tree_simple_types@U?$pair@$$CBHV?$basic_string@DU?$char_traits@D@std@@V?$allocator@D@2@@std@@@std@@@std@@@std@@@1@V?$_Tree_const_iterator@V?$_Tree_val@U?$_Tree_simple_types@U?$pair@$$CBHV?$basic_string@DU?$char_traits@D@std@@V?$allocator@D@2@@std@@@std@@@std@@@std@@@1@AAU?$pair@$$CBHV?$basic_string@DU?$char_traits@D@std@@V?$allocator@D@2@@std@@@1@PAU?$_Tree_node@U?$pair@$$CBHV?$basic_string@DU?$char_traits@D@std@@V?$allocator@D@2@@std@@@std@@PAX@1@@Z 1000a150 f i out_saitek.obj
 0001:00009900       ??$_Insert_nohint@AAU?$pair@$$CBHV?$basic_string@DU?$char_traits@D@std@@V?$allocator@D@2@@std@@@std@@PAU?$_Tree_node@U?$pair@$$CBHV?$basic_string@DU?$char_traits@D@std@@V?$allocator@D@2@@std@@@std@@PAX@2@@?$_Tree@V?$_Tmap_traits@HV?$basic_string@DU?$char_traits@D@std@@V?$allocator@D@2@@std@@U?$less@H@2@V?$allocator@U?$pair@$$CBHV?$basic_string@DU?$char_traits@D@std@@V?$allocator@D@2@@std@@@std@@@2@$0A@@std@@@std@@IAE?AU?$pair@V?$_Tree_iterator@V?$_Tree_val@U?$_Tree_simple_types@U?$pair@$$CBHV?$basic_string@DU?$char_traits@D@std@@V?$allocator@D@2@@std@@@std@@@std@@@std@@@std@@_N@1@_NAAU?$pair@$$CBHV?$basic_string@DU?$char_traits@D@std@@V?$allocator@D@2@@std@@@1@PAU?$_Tree_node@U?$pair@$$CBHV?$basic_string@DU?$char_traits@D@std@@V?$allocator@D@2@@std@@@std@@PAX@1@@Z 1000a900 f i out_saitek.obj
 0001:00009bd0       ??$construct@PAU?$_Tree_node@U?$pair@$$CBHPAVfms_fp_item_t@@@std@@PAX@std@@AAPAU12@@?$_Wrap_alloc@V?$allocator@U?$_Tree_node@U?$pair@$$CBHPAVfms_fp_item_t@@@std@@PAX@std@@@std@@@std@@QAEXPAPAU?$_Tree_node@U?$pair@$$CBHPAVfms_fp_item_t@@@std@@PAX@1@AAPAU21@@Z 1000abd0 f i mfdpage_fms.obj
 0001:00009bd0       ??$construct@PAU?$_Tree_node@U?$pair@$$CBV?$basic_string@DU?$char_traits@D@std@@V?$allocator@D@2@@std@@PAVfms_fp_item_t@@@std@@PAX@std@@AAPAU12@@?$_Wrap_alloc@V?$allocator@U?$_Tree_node@U?$pair@$$CBV?$basic_string@DU?$char_traits@D@std@@V?$allocator@D@2@@std@@PAVfms_fp_item_t@@@std@@PAX@std@@@std@@@std@@QAEXPAPAU?$_Tree_node@U?$pair@$$CBV?$basic_string@DU?$char_traits@D@std@@V?$allocator@D@2@@std@@PAVfms_fp_item_t@@@std@@PAX@1@AAPAU21@@Z 1000abd0 f i fms_fp.obj
 0001:00009bd0       ??$construct@PAU?$_Tree_node@U?$pair@$$CBHV?$basic_string@DU?$char_traits@D@std@@V?$allocator@D@2@@std@@@std@@PAX@std@@AAPAU12@@?$_Wrap_alloc@V?$allocator@U?$_Tree_node@U?$pair@$$CBHV?$basic_string@DU?$char_traits@D@std@@V?$allocator@D@2@@std@@@std@@PAX@std@@@std@@@std@@QAEXPAPAU?$_Tree_node@U?$pair@$$CBHV?$basic_string@DU?$char_traits@D@std@@V?$allocator@D@2@@std@@@std@@PAX@1@AAPAU21@@Z 1000abd0 f i out_saitek.obj
 0001:00009bd0       ??$construct@PAU?$_Tree_node@PAVobject_t@@PAX@std@@AAPAU12@@?$_Wrap_alloc@V?$allocator@U?$_Tree_node@PAVobject_t@@PAX@std@@@std@@@std@@QAEXPAPAU?$_Tree_node@PAVobject_t@@PAX@1@AAPAU21@@Z 1000abd0 f i data.obj
 0001:00009bd0       ??$construct@PAU?$_Tree_node@PAVlistener_t@@PAX@std@@AAPAU12@@?$_Wrap_alloc@V?$allocator@U?$_Tree_node@PAVlistener_t@@PAX@std@@@std@@@std@@QAEXPAPAU?$_Tree_node@PAVlistener_t@@PAX@1@AAPAU21@@Z 1000abd0 f i data.obj
 0001:00009bd0       ??$construct@PAVlistener_t@@ABQAV1@@?$_Wrap_alloc@V?$allocator@U?$_Tree_node@PAVlistener_t@@PAX@std@@@std@@@std@@QAEXPAPAVlistener_t@@ABQAV2@@Z 1000abd0 f i data.obj
 0001:00009bd0       ??$construct@PAVobject_t@@ABQAV1@@?$_Wrap_alloc@V?$allocator@U?$_Tree_node@PAVobject_t@@PAX@std@@@std@@@std@@QAEXPAPAVobject_t@@ABQAV2@@Z 1000abd0 f i data.obj
 0001:00009bd0       ??$construct@PAU?$_Tree_node@U?$pair@$$CBV?$basic_string@DU?$char_traits@D@std@@V?$allocator@D@2@@std@@H@std@@PAX@std@@AAPAU12@@?$_Wrap_alloc@V?$allocator@U?$_Tree_node@U?$pair@$$CBV?$basic_string@DU?$char_traits@D@std@@V?$allocator@D@2@@std@@H@std@@PAX@std@@@std@@@std@@QAEXPAPAU?$_Tree_node@U?$pair@$$CBV?$basic_string@DU?$char_traits@D@std@@V?$allocator@D@2@@std@@H@std@@PAX@1@AAPAU21@@Z 1000abd0 f i mfdpage.obj
 0001:00009bd0       ??$construct@PAU?$_Tree_node@PAVmfdpage_t@@PAX@std@@AAPAU12@@?$_Wrap_alloc@V?$allocator@U?$_Tree_node@PAVmfdpage_t@@PAX@std@@@std@@@std@@QAEXPAPAU?$_Tree_node@PAVmfdpage_t@@PAX@1@AAPAU21@@Z 1000abd0 f i in.obj
 0001:00009bd0       ??$construct@PAU?$_Tree_node@U?$pair@$$CBHM@std@@PAX@std@@AAPAU12@@?$_Wrap_alloc@V?$allocator@U?$_Tree_node@U?$pair@$$CBHM@std@@PAX@std@@@std@@@std@@QAEXPAPAU?$_Tree_node@U?$pair@$$CBHM@std@@PAX@1@AAPAU21@@Z 1000abd0 f i fms_config.obj
 0001:00009bd0       ??$construct@PAU?$_Tree_node@U?$pair@$$CBV?$basic_string@DU?$char_traits@D@std@@V?$allocator@D@2@@std@@M@std@@PAX@std@@AAPAU12@@?$_Wrap_alloc@V?$allocator@U?$_Tree_node@U?$pair@$$CBV?$basic_string@DU?$char_traits@D@std@@V?$allocator@D@2@@std@@M@std@@PAX@std@@@std@@@std@@QAEXPAPAU?$_Tree_node@U?$pair@$$CBV?$basic_string@DU?$char_traits@D@std@@V?$allocator@D@2@@std@@M@std@@PAX@1@AAPAU21@@Z 1000abd0 f i mfdpage_fms.obj
 0001:00009bd0       ??$construct@PAU?$_Tree_node@U?$pair@$$CBV?$basic_string@DU?$char_traits@D@std@@V?$allocator@D@2@@std@@D@std@@PAX@std@@AAPAU12@@?$_Wrap_alloc@V?$allocator@U?$_Tree_node@U?$pair@$$CBV?$basic_string@DU?$char_traits@D@std@@V?$allocator@D@2@@std@@D@std@@PAX@std@@@std@@@std@@QAEXPAPAU?$_Tree_node@U?$pair@$$CBV?$basic_string@DU?$char_traits@D@std@@V?$allocator@D@2@@std@@D@std@@PAX@1@AAPAU21@@Z 1000abd0 f i mfdpage.obj
 0001:00009bd0       ??$construct@PAU?$_Tree_node@U?$pair@$$CBV?$basic_string@DU?$char_traits@D@std@@V?$allocator@D@2@@std@@V12@@std@@PAX@std@@AAPAU12@@?$_Wrap_alloc@V?$allocator@U?$_Tree_node@U?$pair@$$CBV?$basic_string@DU?$char_traits@D@std@@V?$allocator@D@2@@std@@V12@@std@@PAX@std@@@std@@@std@@QAEXPAPAU?$_Tree_node@U?$pair@$$CBV?$basic_string@DU?$char_traits@D@std@@V?$allocator@D@2@@std@@V12@@std@@PAX@1@AAPAU21@@Z 1000abd0 f i tools.obj
 0001:00009bd0       ??$construct@PAU?$_Tree_node@U?$pair@$$CBV?$basic_string@DU?$char_traits@D@std@@V?$allocator@D@2@@std@@PAVfms_config_item_t@@@std@@PAX@std@@AAPAU12@@?$_Wrap_alloc@V?$allocator@U?$_Tree_node@U?$pair@$$CBV?$basic_string@DU?$char_traits@D@std@@V?$allocator@D@2@@std@@PAVfms_config_item_t@@@std@@PAX@std@@@std@@@std@@QAEXPAPAU?$_Tree_node@U?$pair@$$CBV?$basic_string@DU?$char_traits@D@std@@V?$allocator@D@2@@std@@PAVfms_config_item_t@@@std@@PAX@1@AAPAU21@@Z 1000abd0 f i fms_config.obj
 0001:00009bd0       ??$construct@PAVmfdpage_t@@ABQAV1@@?$_Wrap_alloc@V?$allocator@U?$_Tree_node@PAVmfdpage_t@@PAX@std@@@std@@@std@@QAEXPAPAVmfdpage_t@@ABQAV2@@Z 1000abd0 f i in.obj
 0001:00009bd0       ??$construct@PAU?$_Tree_node@U?$pair@$$CBHPAVobject_t@@@std@@PAX@std@@AAPAU12@@?$_Wrap_alloc@V?$allocator@U?$_Tree_node@U?$pair@$$CBHPAVobject_t@@@std@@PAX@std@@@std@@@std@@QAEXPAPAU?$_Tree_node@U?$pair@$$CBHPAVobject_t@@@std@@PAX@1@AAPAU21@@Z 1000abd0 f i mfdpage.obj
 0001:00009bd0       ??$construct@PADAAPAD@?$_Wrap_alloc@V?$allocator@D@std@@@std@@QAEXPAPADAAPAD@Z 1000abd0 f i main.obj
 0001:00009c00       ??$construct@PAU?$_Tree_node@U?$pair@$$CBHV?$basic_string@DU?$char_traits@D@std@@V?$allocator@D@2@@std@@@std@@PAX@std@@AAPAU12@@?$allocator@U?$_Tree_node@U?$pair@$$CBHV?$basic_string@DU?$char_traits@D@std@@V?$allocator@D@2@@std@@@std@@PAX@std@@@std@@QAEXPAPAU?$_Tree_node@U?$pair@$$CBHV?$basic_string@DU?$char_traits@D@std@@V?$allocator@D@2@@std@@@std@@PAX@1@AAPAU21@@Z 1000ac00 f i out_saitek.obj
 0001:00009c00       ??$construct@PAVmfdpage_t@@ABQAV1@@?$allocator@U?$_Tree_node@PAVmfdpage_t@@PAX@std@@@std@@QAEXPAPAVmfdpage_t@@ABQAV2@@Z 1000ac00 f i in.obj
 0001:00009c00       ??$construct@PAU?$_Tree_node@U?$pair@$$CBV?$basic_string@DU?$char_traits@D@std@@V?$allocator@D@2@@std@@V12@@std@@PAX@std@@AAPAU12@@?$allocator@U?$_Tree_node@U?$pair@$$CBV?$basic_string@DU?$char_traits@D@std@@V?$allocator@D@2@@std@@V12@@std@@PAX@std@@@std@@QAEXPAPAU?$_Tree_node@U?$pair@$$CBV?$basic_string@DU?$char_traits@D@std@@V?$allocator@D@2@@std@@V12@@std@@PAX@1@AAPAU21@@Z 1000ac00 f i tools.obj
 0001:00009c00       ??$construct@PAU?$_Tree_node@PAVmfdpage_t@@PAX@std@@AAPAU12@@?$allocator@U?$_Tree_node@PAVmfdpage_t@@PAX@std@@@std@@QAEXPAPAU?$_Tree_node@PAVmfdpage_t@@PAX@1@AAPAU21@@Z 1000ac00 f i in.obj
 0001:00009c00       ??$construct@PAU?$_Tree_node@U?$pair@$$CBV?$basic_string@DU?$char_traits@D@std@@V?$allocator@D@2@@std@@H@std@@PAX@std@@AAPAU12@@?$allocator@U?$_Tree_node@U?$pair@$$CBV?$basic_string@DU?$char_traits@D@std@@V?$allocator@D@2@@std@@H@std@@PAX@std@@@std@@QAEXPAPAU?$_Tree_node@U?$pair@$$CBV?$basic_string@DU?$char_traits@D@std@@V?$allocator@D@2@@std@@H@std@@PAX@1@AAPAU21@@Z 1000ac00 f i mfdpage.obj
 0001:00009c00       ??$construct@PAU?$_Tree_node@U?$pair@$$CBHPAVobject_t@@@std@@PAX@std@@AAPAU12@@?$allocator@U?$_Tree_node@U?$pair@$$CBHPAVobject_t@@@std@@PAX@std@@@std@@QAEXPAPAU?$_Tree_node@U?$pair@$$CBHPAVobject_t@@@std@@PAX@1@AAPAU21@@Z 1000ac00 f i mfdpage.obj
 0001:00009c00       ??$construct@PAU?$_Tree_node@U?$pair@$$CBV?$basic_string@DU?$char_traits@D@std@@V?$allocator@D@2@@std@@PAVfms_config_item_t@@@std@@PAX@std@@AAPAU12@@?$allocator@U?$_Tree_node@U?$pair@$$CBV?$basic_string@DU?$char_traits@D@std@@V?$allocator@D@2@@std@@PAVfms_config_item_t@@@std@@PAX@std@@@std@@QAEXPAPAU?$_Tree_node@U?$pair@$$CBV?$basic_string@DU?$char_traits@D@std@@V?$allocator@D@2@@std@@PAVfms_config_item_t@@@std@@PAX@1@AAPAU21@@Z 1000ac00 f i fms_config.obj
 0001:00009c00       ??$construct@PAU?$_Tree_node@PAVlistener_t@@PAX@std@@AAPAU12@@?$allocator@U?$_Tree_node@PAVlistener_t@@PAX@std@@@std@@QAEXPAPAU?$_Tree_node@PAVlistener_t@@PAX@1@AAPAU21@@Z 1000ac00 f i data.obj
 0001:00009c00       ??$construct@PAU?$_Tree_node@U?$pair@$$CBV?$basic_string@DU?$char_traits@D@std@@V?$allocator@D@2@@std@@M@std@@PAX@std@@AAPAU12@@?$allocator@U?$_Tree_node@U?$pair@$$CBV?$basic_string@DU?$char_traits@D@std@@V?$allocator@D@2@@std@@M@std@@PAX@std@@@std@@QAEXPAPAU?$_Tree_node@U?$pair@$$CBV?$basic_string@DU?$char_traits@D@std@@V?$allocator@D@2@@std@@M@std@@PAX@1@AAPAU21@@Z 1000ac00 f i mfdpage_fms.obj
 0001:00009c00       ??$construct@PAU?$_Tree_node@U?$pair@$$CBV?$basic_string@DU?$char_traits@D@std@@V?$allocator@D@2@@std@@D@std@@PAX@std@@AAPAU12@@?$allocator@U?$_Tree_node@U?$pair@$$CBV?$basic_string@DU?$char_traits@D@std@@V?$allocator@D@2@@std@@D@std@@PAX@std@@@std@@QAEXPAPAU?$_Tree_node@U?$pair@$$CBV?$basic_string@DU?$char_traits@D@std@@V?$allocator@D@2@@std@@D@std@@PAX@1@AAPAU21@@Z 1000ac00 f i mfdpage.obj
 0001:00009c00       ??$construct@PAVlistener_t@@ABQAV1@@?$allocator@U?$_Tree_node@PAVlistener_t@@PAX@std@@@std@@QAEXPAPAVlistener_t@@ABQAV2@@Z 1000ac00 f i data.obj
 0001:00009c00       ??$construct@PAU?$_Tree_node@PAVobject_t@@PAX@std@@AAPAU12@@?$allocator@U?$_Tree_node@PAVobject_t@@PAX@std@@@std@@QAEXPAPAU?$_Tree_node@PAVobject_t@@PAX@1@AAPAU21@@Z 1000ac00 f i data.obj
 0001:00009c00       ??$construct@PAU?$_Tree_node@U?$pair@$$CBHPAVfms_fp_item_t@@@std@@PAX@std@@AAPAU12@@?$allocator@U?$_Tree_node@U?$pair@$$CBHPAVfms_fp_item_t@@@std@@PAX@std@@@std@@QAEXPAPAU?$_Tree_node@U?$pair@$$CBHPAVfms_fp_item_t@@@std@@PAX@1@AAPAU21@@Z 1000ac00 f i mfdpage_fms.obj
 0001:00009c00       ??$construct@PADAAPAD@?$allocator@D@std@@QAEXPAPADAAPAD@Z 1000ac00 f i main.obj
 0001:00009c00       ??$construct@PAVobject_t@@ABQAV1@@?$allocator@U?$_Tree_node@PAVobject_t@@PAX@std@@@std@@QAEXPAPAVobject_t@@ABQAV2@@Z 1000ac00 f i data.obj
 0001:00009c00       ??$construct@PAU?$_Tree_node@U?$pair@$$CBHM@std@@PAX@std@@AAPAU12@@?$allocator@U?$_Tree_node@U?$pair@$$CBHM@std@@PAX@std@@@std@@QAEXPAPAU?$_Tree_node@U?$pair@$$CBHM@std@@PAX@1@AAPAU21@@Z 1000ac00 f i fms_config.obj
 0001:00009c00       ??$construct@PAU?$_Tree_node@U?$pair@$$CBV?$basic_string@DU?$char_traits@D@std@@V?$allocator@D@2@@std@@PAVfms_fp_item_t@@@std@@PAX@std@@AAPAU12@@?$allocator@U?$_Tree_node@U?$pair@$$CBV?$basic_string@DU?$char_traits@D@std@@V?$allocator@D@2@@std@@PAVfms_fp_item_t@@@std@@PAX@std@@@std@@QAEXPAPAU?$_Tree_node@U?$pair@$$CBV?$basic_string@DU?$char_traits@D@std@@V?$allocator@D@2@@std@@PAVfms_fp_item_t@@@std@@PAX@1@AAPAU21@@Z 1000ac00 f i fms_fp.obj
 0001:00009c50       ??$construct@PAU?$_Tree_node@U?$pair@$$CBHPAVobject_t@@@std@@PAX@std@@AAPAU12@@?$allocator_traits@V?$allocator@U?$_Tree_node@U?$pair@$$CBHPAVobject_t@@@std@@PAX@std@@@std@@@std@@SAXAAV?$allocator@U?$_Tree_node@U?$pair@$$CBHPAVobject_t@@@std@@PAX@std@@@1@PAPAU?$_Tree_node@U?$pair@$$CBHPAVobject_t@@@std@@PAX@1@AAPAU31@@Z 1000ac50 f i mfdpage.obj
 0001:00009c50       ??$construct@PAU?$_Tree_node@U?$pair@$$CBV?$basic_string@DU?$char_traits@D@std@@V?$allocator@D@2@@std@@PAVfms_config_item_t@@@std@@PAX@std@@AAPAU12@@?$allocator_traits@V?$allocator@U?$_Tree_node@U?$pair@$$CBV?$basic_string@DU?$char_traits@D@std@@V?$allocator@D@2@@std@@PAVfms_config_item_t@@@std@@PAX@std@@@std@@@std@@SAXAAV?$allocator@U?$_Tree_node@U?$pair@$$CBV?$basic_string@DU?$char_traits@D@std@@V?$allocator@D@2@@std@@PAVfms_config_item_t@@@std@@PAX@std@@@1@PAPAU?$_Tree_node@U?$pair@$$CBV?$basic_string@DU?$char_traits@D@std@@V?$allocator@D@2@@std@@PAVfms_config_item_t@@@std@@PAX@1@AAPAU31@@Z 1000ac50 f i fms_config.obj
 0001:00009c50       ??$construct@PAVlistener_t@@ABQAV1@@?$allocator_traits@V?$allocator@U?$_Tree_node@PAVlistener_t@@PAX@std@@@std@@@std@@SAXAAV?$allocator@U?$_Tree_node@PAVlistener_t@@PAX@std@@@1@PAPAVlistener_t@@ABQAV3@@Z 1000ac50 f i data.obj
 0001:00009c50       ??$construct@PAVobject_t@@ABQAV1@@?$allocator_traits@V?$allocator@U?$_Tree_node@PAVobject_t@@PAX@std@@@std@@@std@@SAXAAV?$allocator@U?$_Tree_node@PAVobject_t@@PAX@std@@@1@PAPAVobject_t@@ABQAV3@@Z 1000ac50 f i data.obj
 0001:00009c50       ??$construct@PAU?$_Tree_node@PAVlistener_t@@PAX@std@@AAPAU12@@?$allocator_traits@V?$allocator@U?$_Tree_node@PAVlistener_t@@PAX@std@@@std@@@std@@SAXAAV?$allocator@U?$_Tree_node@PAVlistener_t@@PAX@std@@@1@PAPAU?$_Tree_node@PAVlistener_t@@PAX@1@AAPAU31@@Z 1000ac50 f i data.obj
 0001:00009c50       ??$construct@PAU?$_Tree_node@U?$pair@$$CBHM@std@@PAX@std@@AAPAU12@@?$allocator_traits@V?$allocator@U?$_Tree_node@U?$pair@$$CBHM@std@@PAX@std@@@std@@@std@@SAXAAV?$allocator@U?$_Tree_node@U?$pair@$$CBHM@std@@PAX@std@@@1@PAPAU?$_Tree_node@U?$pair@$$CBHM@std@@PAX@1@AAPAU31@@Z 1000ac50 f i fms_config.obj
 0001:00009c50       ??$construct@PAU?$_Tree_node@U?$pair@$$CBV?$basic_string@DU?$char_traits@D@std@@V?$allocator@D@2@@std@@V12@@std@@PAX@std@@AAPAU12@@?$allocator_traits@V?$allocator@U?$_Tree_node@U?$pair@$$CBV?$basic_string@DU?$char_traits@D@std@@V?$allocator@D@2@@std@@V12@@std@@PAX@std@@@std@@@std@@SAXAAV?$allocator@U?$_Tree_node@U?$pair@$$CBV?$basic_string@DU?$char_traits@D@std@@V?$allocator@D@2@@std@@V12@@std@@PAX@std@@@1@PAPAU?$_Tree_node@U?$pair@$$CBV?$basic_string@DU?$char_traits@D@std@@V?$allocator@D@2@@std@@V12@@std@@PAX@1@AAPAU31@@Z 1000ac50 f i tools.obj
 0001:00009c50       ??$construct@PAU?$_Tree_node@U?$pair@$$CBV?$basic_string@DU?$char_traits@D@std@@V?$allocator@D@2@@std@@M@std@@PAX@std@@AAPAU12@@?$allocator_traits@V?$allocator@U?$_Tree_node@U?$pair@$$CBV?$basic_string@DU?$char_traits@D@std@@V?$allocator@D@2@@std@@M@std@@PAX@std@@@std@@@std@@SAXAAV?$allocator@U?$_Tree_node@U?$pair@$$CBV?$basic_string@DU?$char_traits@D@std@@V?$allocator@D@2@@std@@M@std@@PAX@std@@@1@PAPAU?$_Tree_node@U?$pair@$$CBV?$basic_string@DU?$char_traits@D@std@@V?$allocator@D@2@@std@@M@std@@PAX@1@AAPAU31@@Z 1000ac50 f i mfdpage_fms.obj
 0001:00009c50       ??$construct@PAU?$_Tree_node@PAVmfdpage_t@@PAX@std@@AAPAU12@@?$allocator_traits@V?$allocator@U?$_Tree_node@PAVmfdpage_t@@PAX@std@@@std@@@std@@SAXAAV?$allocator@U?$_Tree_node@PAVmfdpage_t@@PAX@std@@@1@PAPAU?$_Tree_node@PAVmfdpage_t@@PAX@1@AAPAU31@@Z 1000ac50 f i in.obj
 0001:00009c50       ??$construct@PAU?$_Tree_node@U?$pair@$$CBHPAVfms_fp_item_t@@@std@@PAX@std@@AAPAU12@@?$allocator_traits@V?$allocator@U?$_Tree_node@U?$pair@$$CBHPAVfms_fp_item_t@@@std@@PAX@std@@@std@@@std@@SAXAAV?$allocator@U?$_Tree_node@U?$pair@$$CBHPAVfms_fp_item_t@@@std@@PAX@std@@@1@PAPAU?$_Tree_node@U?$pair@$$CBHPAVfms_fp_item_t@@@std@@PAX@1@AAPAU31@@Z 1000ac50 f i mfdpage_fms.obj
 0001:00009c50       ??$construct@PADAAPAD@?$allocator_traits@V?$allocator@D@std@@@std@@SAXAAV?$allocator@D@1@PAPADAAPAD@Z 1000ac50 f i main.obj
 0001:00009c50       ??$construct@PAU?$_Tree_node@U?$pair@$$CBV?$basic_string@DU?$char_traits@D@std@@V?$allocator@D@2@@std@@D@std@@PAX@std@@AAPAU12@@?$allocator_traits@V?$allocator@U?$_Tree_node@U?$pair@$$CBV?$basic_string@DU?$char_traits@D@std@@V?$allocator@D@2@@std@@D@std@@PAX@std@@@std@@@std@@SAXAAV?$allocator@U?$_Tree_node@U?$pair@$$CBV?$basic_string@DU?$char_traits@D@std@@V?$allocator@D@2@@std@@D@std@@PAX@std@@@1@PAPAU?$_Tree_node@U?$pair@$$CBV?$basic_string@DU?$char_traits@D@std@@V?$allocator@D@2@@std@@D@std@@PAX@1@AAPAU31@@Z 1000ac50 f i mfdpage.obj
 0001:00009c50       ??$construct@PAU?$_Tree_node@PAVobject_t@@PAX@std@@AAPAU12@@?$allocator_traits@V?$allocator@U?$_Tree_node@PAVobject_t@@PAX@std@@@std@@@std@@SAXAAV?$allocator@U?$_Tree_node@PAVobject_t@@PAX@std@@@1@PAPAU?$_Tree_node@PAVobject_t@@PAX@1@AAPAU31@@Z 1000ac50 f i data.obj
 0001:00009c50       ??$construct@PAVmfdpage_t@@ABQAV1@@?$allocator_traits@V?$allocator@U?$_Tree_node@PAVmfdpage_t@@PAX@std@@@std@@@std@@SAXAAV?$allocator@U?$_Tree_node@PAVmfdpage_t@@PAX@std@@@1@PAPAVmfdpage_t@@ABQAV3@@Z 1000ac50 f i in.obj
 0001:00009c50       ??$construct@PAU?$_Tree_node@U?$pair@$$CBV?$basic_string@DU?$char_traits@D@std@@V?$allocator@D@2@@std@@PAVfms_fp_item_t@@@std@@PAX@std@@AAPAU12@@?$allocator_traits@V?$allocator@U?$_Tree_node@U?$pair@$$CBV?$basic_string@DU?$char_traits@D@std@@V?$allocator@D@2@@std@@PAVfms_fp_item_t@@@std@@PAX@std@@@std@@@std@@SAXAAV?$allocator@U?$_Tree_node@U?$pair@$$CBV?$basic_string@DU?$char_traits@D@std@@V?$allocator@D@2@@std@@PAVfms_fp_item_t@@@std@@PAX@std@@@1@PAPAU?$_Tree_node@U?$pair@$$CBV?$basic_string@DU?$char_traits@D@std@@V?$allocator@D@2@@std@@PAVfms_fp_item_t@@@std@@PAX@1@AAPAU31@@Z 1000ac50 f i fms_fp.obj
 0001:00009c50       ??$construct@PAU?$_Tree_node@U?$pair@$$CBV?$basic_string@DU?$char_traits@D@std@@V?$allocator@D@2@@std@@H@std@@PAX@std@@AAPAU12@@?$allocator_traits@V?$allocator@U?$_Tree_node@U?$pair@$$CBV?$basic_string@DU?$char_traits@D@std@@V?$allocator@D@2@@std@@H@std@@PAX@std@@@std@@@std@@SAXAAV?$allocator@U?$_Tree_node@U?$pair@$$CBV?$basic_string@DU?$char_traits@D@std@@V?$allocator@D@2@@std@@H@std@@PAX@std@@@1@PAPAU?$_Tree_node@U?$pair@$$CBV?$basic_string@DU?$char_traits@D@std@@V?$allocator@D@2@@std@@H@std@@PAX@1@AAPAU31@@Z 1000ac50 f i mfdpage.obj
 0001:00009c50       ??$construct@PAU?$_Tree_node@U?$pair@$$CBHV?$basic_string@DU?$char_traits@D@std@@V?$allocator@D@2@@std@@@std@@PAX@std@@AAPAU12@@?$allocator_traits@V?$allocator@U?$_Tree_node@U?$pair@$$CBHV?$basic_string@DU?$char_traits@D@std@@V?$allocator@D@2@@std@@@std@@PAX@std@@@std@@@std@@SAXAAV?$allocator@U?$_Tree_node@U?$pair@$$CBHV?$basic_string@DU?$char_traits@D@std@@V?$allocator@D@2@@std@@@std@@PAX@std@@@1@PAPAU?$_Tree_node@U?$pair@$$CBHV?$basic_string@DU?$char_traits@D@std@@V?$allocator@D@2@@std@@@std@@PAX@1@AAPAU31@@Z 1000ac50 f i out_saitek.obj
 0001:00009c70       ??$construct@U?$pair@$$CBHV?$basic_string@DU?$char_traits@D@std@@V?$allocator@D@2@@std@@@std@@ABUpiecewise_construct_t@2@V?$tuple@$$QAH@2@V?$tuple@$$$V@2@@?$_Wrap_alloc@V?$allocator@U?$_Tree_node@U?$pair@$$CBHV?$basic_string@DU?$char_traits@D@std@@V?$allocator@D@2@@std@@@std@@PAX@std@@@std@@@std@@QAEXPAU?$pair@$$CBHV?$basic_string@DU?$char_traits@D@std@@V?$allocator@D@2@@std@@@1@ABUpiecewise_construct_t@1@$$QAV?$tuple@$$QAH@1@$$QAV?$tuple@$$$V@1@@Z 1000ac70 f i mfdpage_fms.obj
 0001:00009c70       ??$construct@U?$pair@$$CBHV?$basic_string@DU?$char_traits@D@std@@V?$allocator@D@2@@std@@@std@@ABUpiecewise_construct_t@2@V?$tuple@ABH@2@V?$tuple@$$$V@2@@?$_Wrap_alloc@V?$allocator@U?$_Tree_node@U?$pair@$$CBHV?$basic_string@DU?$char_traits@D@std@@V?$allocator@D@2@@std@@@std@@PAX@std@@@std@@@std@@QAEXPAU?$pair@$$CBHV?$basic_string@DU?$char_traits@D@std@@V?$allocator@D@2@@std@@@1@ABUpiecewise_construct_t@1@$$QAV?$tuple@ABH@1@$$QAV?$tuple@$$$V@1@@Z 1000ac70 f i out_saitek.obj
 0001:00009cc0       ??$construct@U?$pair@$$CBHV?$basic_string@DU?$char_traits@D@std@@V?$allocator@D@2@@std@@@std@@ABUpiecewise_construct_t@2@V?$tuple@$$QAH@2@V?$tuple@$$$V@2@@?$allocator@U?$_Tree_node@U?$pair@$$CBHV?$basic_string@DU?$char_traits@D@std@@V?$allocator@D@2@@std@@@std@@PAX@std@@@std@@QAEXPAU?$pair@$$CBHV?$basic_string@DU?$char_traits@D@std@@V?$allocator@D@2@@std@@@1@ABUpiecewise_construct_t@1@$$QAV?$tuple@$$QAH@1@$$QAV?$tuple@$$$V@1@@Z 1000acc0 f i mfdpage_fms.obj
 0001:00009cc0       ??$construct@U?$pair@$$CBHV?$basic_string@DU?$char_traits@D@std@@V?$allocator@D@2@@std@@@std@@ABUpiecewise_construct_t@2@V?$tuple@ABH@2@V?$tuple@$$$V@2@@?$allocator@U?$_Tree_node@U?$pair@$$CBHV?$basic_string@DU?$char_traits@D@std@@V?$allocator@D@2@@std@@@std@@PAX@std@@@std@@QAEXPAU?$pair@$$CBHV?$basic_string@DU?$char_traits@D@std@@V?$allocator@D@2@@std@@@1@ABUpiecewise_construct_t@1@$$QAV?$tuple@ABH@1@$$QAV?$tuple@$$$V@1@@Z 1000acc0 f i out_saitek.obj
 0001:00009d30       ??$construct@U?$pair@$$CBHV?$basic_string@DU?$char_traits@D@std@@V?$allocator@D@2@@std@@@std@@ABUpiecewise_construct_t@2@V?$tuple@$$QAH@2@V?$tuple@$$$V@2@@?$allocator_traits@V?$allocator@U?$_Tree_node@U?$pair@$$CBHV?$basic_string@DU?$char_traits@D@std@@V?$allocator@D@2@@std@@@std@@PAX@std@@@std@@@std@@SAXAAV?$allocator@U?$_Tree_node@U?$pair@$$CBHV?$basic_string@DU?$char_traits@D@std@@V?$allocator@D@2@@std@@@std@@PAX@std@@@1@PAU?$pair@$$CBHV?$basic_string@DU?$char_traits@D@std@@V?$allocator@D@2@@std@@@1@ABUpiecewise_construct_t@1@$$QAV?$tuple@$$QAH@1@$$QAV?$tuple@$$$V@1@@Z 1000ad30 f i mfdpage_fms.obj
 0001:00009d30       ??$construct@U?$pair@$$CBHV?$basic_string@DU?$char_traits@D@std@@V?$allocator@D@2@@std@@@std@@ABUpiecewise_construct_t@2@V?$tuple@ABH@2@V?$tuple@$$$V@2@@?$allocator_traits@V?$allocator@U?$_Tree_node@U?$pair@$$CBHV?$basic_string@DU?$char_traits@D@std@@V?$allocator@D@2@@std@@@std@@PAX@std@@@std@@@std@@SAXAAV?$allocator@U?$_Tree_node@U?$pair@$$CBHV?$basic_string@DU?$char_traits@D@std@@V?$allocator@D@2@@std@@@std@@PAX@std@@@1@PAU?$pair@$$CBHV?$basic_string@DU?$char_traits@D@std@@V?$allocator@D@2@@std@@@1@ABUpiecewise_construct_t@1@$$QAV?$tuple@ABH@1@$$QAV?$tuple@$$$V@1@@Z 1000ad30 f i out_saitek.obj
 0001:00009d70       ??$destroy@U?$pair@$$CBHV?$basic_string@DU?$char_traits@D@std@@V?$allocator@D@2@@std@@@std@@@?$_Wrap_alloc@V?$allocator@U?$_Tree_node@U?$pair@$$CBHV?$basic_string@DU?$char_traits@D@std@@V?$allocator@D@2@@std@@@std@@PAX@std@@@std@@@std@@QAEXPAU?$pair@$$CBHV?$basic_string@DU?$char_traits@D@std@@V?$allocator@D@2@@std@@@1@@Z 1000ad70 f i out_saitek.obj
 0001:00009d90       ??$destroy@U?$pair@$$CBHV?$basic_string@DU?$char_traits@D@std@@V?$allocator@D@2@@std@@@std@@@?$allocator@U?$_Tree_node@U?$pair@$$CBHV?$basic_string@DU?$char_traits@D@std@@V?$allocator@D@2@@std@@@std@@PAX@std@@@std@@QAEXPAU?$pair@$$CBHV?$basic_string@DU?$char_traits@D@std@@V?$allocator@D@2@@std@@@1@@Z 1000ad90 f i out_saitek.obj
 0001:00009db0       ??$destroy@U?$pair@$$CBHV?$basic_string@DU?$char_traits@D@std@@V?$allocator@D@2@@std@@@std@@@?$allocator_traits@V?$allocator@U?$_Tree_node@U?$pair@$$CBHV?$basic_string@DU?$char_traits@D@std@@V?$allocator@D@2@@std@@@std@@PAX@std@@@std@@@std@@SAXAAV?$allocator@U?$_Tree_node@U?$pair@$$CBHV?$basic_string@DU?$char_traits@D@std@@V?$allocator@D@2@@std@@@std@@PAX@std@@@1@PAU?$pair@$$CBHV?$basic_string@DU?$char_traits@D@std@@V?$allocator@D@2@@std@@@1@@Z 1000adb0 f i out_saitek.obj
 0001:00009dd0       ??0?$_Tree_alloc@$0A@U?$_Tree_base_types@U?$pair@$$CBV?$basic_string@DU?$char_traits@D@std@@V?$allocator@D@2@@std@@M@std@@V?$allocator@U?$pair@$$CBV?$basic_string@DU?$char_traits@D@std@@V?$allocator@D@2@@std@@M@std@@@2@@std@@@std@@QAE@ABV?$allocator@U?$pair@$$CBV?$basic_string@DU?$char_traits@D@std@@V?$allocator@D@2@@std@@M@std@@@1@@Z 1000add0 f i fms_config.obj
 0001:00009dd0       ??0?$_Tree_alloc@$0A@U?$_Tree_base_types@U?$pair@$$CBV?$basic_string@DU?$char_traits@D@std@@V?$allocator@D@2@@std@@H@std@@V?$allocator@U?$pair@$$CBV?$basic_string@DU?$char_traits@D@std@@V?$allocator@D@2@@std@@H@std@@@2@@std@@@std@@QAE@ABV?$allocator@U?$pair@$$CBV?$basic_string@DU?$char_traits@D@std@@V?$allocator@D@2@@std@@H@std@@@1@@Z 1000add0 f i mfdpage.obj
 0001:00009dd0       ??0?$_Tree_alloc@$0A@U?$_Tree_base_types@U?$pair@$$CBHV?$basic_string@DU?$char_traits@D@std@@V?$allocator@D@2@@std@@@std@@V?$allocator@U?$pair@$$CBHV?$basic_string@DU?$char_traits@D@std@@V?$allocator@D@2@@std@@@std@@@2@@std@@@std@@QAE@ABV?$allocator@U?$pair@$$CBHV?$basic_string@DU?$char_traits@D@std@@V?$allocator@D@2@@std@@@std@@@1@@Z 1000add0 f i out_saitek.obj
 0001:00009dd0       ??0?$_Tree_alloc@$0A@U?$_Tree_base_types@U?$pair@$$CBV?$basic_string@DU?$char_traits@D@std@@V?$allocator@D@2@@std@@PAVfms_config_item_t@@@std@@V?$allocator@U?$pair@$$CBV?$basic_string@DU?$char_traits@D@std@@V?$allocator@D@2@@std@@PAVfms_config_item_t@@@std@@@2@@std@@@std@@QAE@ABV?$allocator@U?$pair@$$CBV?$basic_string@DU?$char_traits@D@std@@V?$allocator@D@2@@std@@PAVfms_config_item_t@@@std@@@1@@Z 1000add0 f i fms_config.obj
 0001:00009dd0       ??0?$_Tree_alloc@$0A@U?$_Tree_base_types@U?$pair@$$CBV?$basic_string@DU?$char_traits@D@std@@V?$allocator@D@2@@std@@D@std@@V?$allocator@U?$pair@$$CBV?$basic_string@DU?$char_traits@D@std@@V?$allocator@D@2@@std@@D@std@@@2@@std@@@std@@QAE@ABV?$allocator@U?$pair@$$CBV?$basic_string@DU?$char_traits@D@std@@V?$allocator@D@2@@std@@D@std@@@1@@Z 1000add0 f i mfdpage_fms.obj
 0001:00009dd0       ??0?$_Tree_alloc@$0A@U?$_Tree_base_types@U?$pair@$$CBV?$basic_string@DU?$char_traits@D@std@@V?$allocator@D@2@@std@@PAVfms_fp_item_t@@@std@@V?$allocator@U?$pair@$$CBV?$basic_string@DU?$char_traits@D@std@@V?$allocator@D@2@@std@@PAVfms_fp_item_t@@@std@@@2@@std@@@std@@QAE@ABV?$allocator@U?$pair@$$CBV?$basic_string@DU?$char_traits@D@std@@V?$allocator@D@2@@std@@PAVfms_fp_item_t@@@std@@@1@@Z 1000add0 f i fms_fp.obj
 0001:00009e00       ??0?$_Tree_buy@U?$pair@$$CBV?$basic_string@DU?$char_traits@D@std@@V?$allocator@D@2@@std@@PAVfms_fp_item_t@@@std@@V?$allocator@U?$pair@$$CBV?$basic_string@DU?$char_traits@D@std@@V?$allocator@D@2@@std@@PAVfms_fp_item_t@@@std@@@2@@std@@QAE@ABV?$allocator@U?$pair@$$CBV?$basic_string@DU?$char_traits@D@std@@V?$allocator@D@2@@std@@PAVfms_fp_item_t@@@std@@@1@@Z 1000ae00 f i fms_fp.obj
 0001:00009e00       ??0?$_Tree_buy@U?$pair@$$CBV?$basic_string@DU?$char_traits@D@std@@V?$allocator@D@2@@std@@M@std@@V?$allocator@U?$pair@$$CBV?$basic_string@DU?$char_traits@D@std@@V?$allocator@D@2@@std@@M@std@@@2@@std@@QAE@ABV?$allocator@U?$pair@$$CBV?$basic_string@DU?$char_traits@D@std@@V?$allocator@D@2@@std@@M@std@@@1@@Z 1000ae00 f i fms_config.obj
 0001:00009e00       ??0?$_Tree_buy@U?$pair@$$CBHV?$basic_string@DU?$char_traits@D@std@@V?$allocator@D@2@@std@@@std@@V?$allocator@U?$pair@$$CBHV?$basic_string@DU?$char_traits@D@std@@V?$allocator@D@2@@std@@@std@@@2@@std@@QAE@ABV?$allocator@U?$pair@$$CBHV?$basic_string@DU?$char_traits@D@std@@V?$allocator@D@2@@std@@@std@@@1@@Z 1000ae00 f i out_saitek.obj
 0001:00009e00       ??0?$_Tree_buy@U?$pair@$$CBV?$basic_string@DU?$char_traits@D@std@@V?$allocator@D@2@@std@@PAVfms_config_item_t@@@std@@V?$allocator@U?$pair@$$CBV?$basic_string@DU?$char_traits@D@std@@V?$allocator@D@2@@std@@PAVfms_config_item_t@@@std@@@2@@std@@QAE@ABV?$allocator@U?$pair@$$CBV?$basic_string@DU?$char_traits@D@std@@V?$allocator@D@2@@std@@PAVfms_config_item_t@@@std@@@1@@Z 1000ae00 f i fms_config.obj
 0001:00009e00       ??0?$_Tree_buy@U?$pair@$$CBV?$basic_string@DU?$char_traits@D@std@@V?$allocator@D@2@@std@@D@std@@V?$allocator@U?$pair@$$CBV?$basic_string@DU?$char_traits@D@std@@V?$allocator@D@2@@std@@D@std@@@2@@std@@QAE@ABV?$allocator@U?$pair@$$CBV?$basic_string@DU?$char_traits@D@std@@V?$allocator@D@2@@std@@D@std@@@1@@Z 1000ae00 f i mfdpage_fms.obj
 0001:00009e00       ??0?$_Tree_buy@U?$pair@$$CBV?$basic_string@DU?$char_traits@D@std@@V?$allocator@D@2@@std@@H@std@@V?$allocator@U?$pair@$$CBV?$basic_string@DU?$char_traits@D@std@@V?$allocator@D@2@@std@@H@std@@@2@@std@@QAE@ABV?$allocator@U?$pair@$$CBV?$basic_string@DU?$char_traits@D@std@@V?$allocator@D@2@@std@@H@std@@@1@@Z 1000ae00 f i mfdpage.obj
 0001:00009e20       ??0?$_Wrap_alloc@V?$allocator@D@std@@@std@@QAE@ABV?$allocator@D@1@@Z 1000ae20 f i out_saitek.obj
 0001:00009e20       ??0?$_Wrap_alloc@V?$allocator@U?$_Tree_node@U?$pair@$$CBV?$basic_string@DU?$char_traits@D@std@@V?$allocator@D@2@@std@@V12@@std@@PAX@std@@@std@@@std@@QAE@ABV?$allocator@U?$_Tree_node@U?$pair@$$CBV?$basic_string@DU?$char_traits@D@std@@V?$allocator@D@2@@std@@V12@@std@@PAX@std@@@1@@Z 1000ae20 f i config.obj
 0001:00009e20       ??0?$_Wrap_alloc@V?$allocator@U?$_Tree_node@U?$pair@$$CBHPAVobject_t@@@std@@PAX@std@@@std@@@std@@QAE@ABV?$allocator@U?$_Tree_node@U?$pair@$$CBHPAVobject_t@@@std@@PAX@std@@@1@@Z 1000ae20 f i mfdpage.obj
 0001:00009e40       ??0?$basic_string@DU?$char_traits@D@std@@V?$allocator@D@2@@std@@QAE@ABV01@@Z 1000ae40 f i out_saitek.obj
 0001:00009ea0       ??0out_joystick_t@@QAE@XZ  1000aea0 f i out_saitek.obj
 0001:00009ec0       ??1?$pair@$$CBHV?$basic_string@DU?$char_traits@D@std@@V?$allocator@D@2@@std@@@std@@QAE@XZ 1000aec0 f i out_saitek.obj
 0001:00009ee0       ??A?$map@HV?$basic_string@DU?$char_traits@D@std@@V?$allocator@D@2@@std@@U?$less@H@2@V?$allocator@U?$pair@$$CBHV?$basic_string@DU?$char_traits@D@std@@V?$allocator@D@2@@std@@@std@@@2@@std@@QAEAAV?$basic_string@DU?$char_traits@D@std@@V?$allocator@D@2@@1@ABH@Z 1000aee0 f i out_saitek.obj
 0001:00009f90       ??F?$_Tree_const_iterator@V?$_Tree_val@U?$_Tree_simple_types@U?$pair@$$CBHPAVobject_t@@@std@@@std@@@std@@@std@@QAEAAV01@XZ 1000af90 f i mfdpage.obj
 0001:00009f90       ??F?$_Tree_const_iterator@V?$_Tree_val@U?$_Tree_simple_types@U?$pair@$$CBHPAVfms_fp_item_t@@@std@@@std@@@std@@@std@@QAEAAV01@XZ 1000af90 f i mfdpage_fms.obj
 0001:00009f90       ??F?$_Tree_const_iterator@V?$_Tree_val@U?$_Tree_simple_types@PAVmfdpage_t@@@std@@@std@@@std@@QAEAAV01@XZ 1000af90 f i in.obj
 0001:00009f90       ??F?$_Tree_const_iterator@V?$_Tree_val@U?$_Tree_simple_types@U?$pair@$$CBV?$basic_string@DU?$char_traits@D@std@@V?$allocator@D@2@@std@@M@std@@@std@@@std@@@std@@QAEAAV01@XZ 1000af90 f i mfdpage_fms.obj
 0001:00009f90       ??F?$_Tree_const_iterator@V?$_Tree_val@U?$_Tree_simple_types@U?$pair@$$CBV?$basic_string@DU?$char_traits@D@std@@V?$allocator@D@2@@std@@H@std@@@std@@@std@@@std@@QAEAAV01@XZ 1000af90 f i mfdpage.obj
 0001:00009f90       ??F?$_Tree_const_iterator@V?$_Tree_val@U?$_Tree_simple_types@U?$pair@$$CBHV?$basic_string@DU?$char_traits@D@std@@V?$allocator@D@2@@std@@@std@@@std@@@std@@@std@@QAEAAV01@XZ 1000af90 f i out_saitek.obj
 0001:00009f90       ??F?$_Tree_const_iterator@V?$_Tree_val@U?$_Tree_simple_types@U?$pair@$$CBV?$basic_string@DU?$char_traits@D@std@@V?$allocator@D@2@@std@@V12@@std@@@std@@@std@@@std@@QAEAAV01@XZ 1000af90 f i tools.obj
 0001:00009f90       ??F?$_Tree_const_iterator@V?$_Tree_val@U?$_Tree_simple_types@PAVlistener_t@@@std@@@std@@@std@@QAEAAV01@XZ 1000af90 f i data.obj
 0001:00009f90       ??F?$_Tree_const_iterator@V?$_Tree_val@U?$_Tree_simple_types@U?$pair@$$CBV?$basic_string@DU?$char_traits@D@std@@V?$allocator@D@2@@std@@D@std@@@std@@@std@@@std@@QAEAAV01@XZ 1000af90 f i mfdpage.obj
 0001:00009f90       ??F?$_Tree_const_iterator@V?$_Tree_val@U?$_Tree_simple_types@U?$pair@$$CBHM@std@@@std@@@std@@@std@@QAEAAV01@XZ 1000af90 f i fms_config.obj
 0001:00009f90       ??F?$_Tree_const_iterator@V?$_Tree_val@U?$_Tree_simple_types@PAVobject_t@@@std@@@std@@@std@@QAEAAV01@XZ 1000af90 f i data.obj
 0001:00009f90       ??F?$_Tree_const_iterator@V?$_Tree_val@U?$_Tree_simple_types@U?$pair@$$CBV?$basic_string@DU?$char_traits@D@std@@V?$allocator@D@2@@std@@PAVfms_config_item_t@@@std@@@std@@@std@@@std@@QAEAAV01@XZ 1000af90 f i fms_config.obj
 0001:00009f90       ??F?$_Tree_const_iterator@V?$_Tree_val@U?$_Tree_simple_types@U?$pair@$$CBV?$basic_string@DU?$char_traits@D@std@@V?$allocator@D@2@@std@@PAVfms_fp_item_t@@@std@@@std@@@std@@@std@@QAEAAV01@XZ 1000af90 f i fms_fp.obj
 0001:00009fb0       ??F?$_Tree_iterator@V?$_Tree_val@U?$_Tree_simple_types@U?$pair@$$CBV?$basic_string@DU?$char_traits@D@std@@V?$allocator@D@2@@std@@PAVfms_config_item_t@@@std@@@std@@@std@@@std@@QAEAAV01@XZ 1000afb0 f i fms_config.obj
 0001:00009fb0       ??F?$_Tree_iterator@V?$_Tree_val@U?$_Tree_simple_types@U?$pair@$$CBV?$basic_string@DU?$char_traits@D@std@@V?$allocator@D@2@@std@@V12@@std@@@std@@@std@@@std@@QAEAAV01@XZ 1000afb0 f i tools.obj
 0001:00009fb0       ??F?$_Tree_iterator@V?$_Tree_val@U?$_Tree_simple_types@U?$pair@$$CBHM@std@@@std@@@std@@@std@@QAEAAV01@XZ 1000afb0 f i fms_config.obj
 0001:00009fb0       ??F?$_Tree_iterator@V?$_Tree_val@U?$_Tree_simple_types@U?$pair@$$CBV?$basic_string@DU?$char_traits@D@std@@V?$allocator@D@2@@std@@H@std@@@std@@@std@@@std@@QAEAAV01@XZ 1000afb0 f i mfdpage.obj
 0001:00009fb0       ??F?$_Tree_iterator@V?$_Tree_val@U?$_Tree_simple_types@U?$pair@$$CBHV?$basic_string@DU?$char_traits@D@std@@V?$allocator@D@2@@std@@@std@@@std@@@std@@@std@@QAEAAV01@XZ 1000afb0 f i out_saitek.obj
 0001:00009fb0       ??F?$_Tree_iterator@V?$_Tree_val@U?$_Tree_simple_types@U?$pair@$$CBV?$basic_string@DU?$char_traits@D@std@@V?$allocator@D@2@@std@@M@std@@@std@@@std@@@std@@QAEAAV01@XZ 1000afb0 f i mfdpage_fms.obj
 0001:00009fb0       ??F?$_Tree_iterator@V?$_Tree_val@U?$_Tree_simple_types@U?$pair@$$CBV?$basic_string@DU?$char_traits@D@std@@V?$allocator@D@2@@std@@D@std@@@std@@@std@@@std@@QAEAAV01@XZ 1000afb0 f i mfdpage.obj
 0001:00009fb0       ??F?$_Tree_iterator@V?$_Tree_val@U?$_Tree_simple_types@U?$pair@$$CBHPAVfms_fp_item_t@@@std@@@std@@@std@@@std@@QAEAAV01@XZ 1000afb0 f i mfdpage_fms.obj
 0001:00009fb0       ??F?$_Tree_iterator@V?$_Tree_val@U?$_Tree_simple_types@U?$pair@$$CBHPAVobject_t@@@std@@@std@@@std@@@std@@QAEAAV01@XZ 1000afb0 f i mfdpage.obj
 0001:00009fb0       ??F?$_Tree_iterator@V?$_Tree_val@U?$_Tree_simple_types@U?$pair@$$CBV?$basic_string@DU?$char_traits@D@std@@V?$allocator@D@2@@std@@PAVfms_fp_item_t@@@std@@@std@@@std@@@std@@QAEAAV01@XZ 1000afb0 f i fms_fp.obj
 0001:00009fd0       ??F?$_Tree_unchecked_const_iterator@V?$_Tree_val@U?$_Tree_simple_types@U?$pair@$$CBHV?$basic_string@DU?$char_traits@D@std@@V?$allocator@D@2@@std@@@std@@@std@@@std@@U_Iterator_base0@2@@std@@QAEAAV01@XZ 1000afd0 f i out_saitek.obj
 0001:00009fd0       ??F?$_Tree_unchecked_const_iterator@V?$_Tree_val@U?$_Tree_simple_types@U?$pair@$$CBV?$basic_string@DU?$char_traits@D@std@@V?$allocator@D@2@@std@@PAVfms_config_item_t@@@std@@@std@@@std@@U_Iterator_base0@2@@std@@QAEAAV01@XZ 1000afd0 f i fms_config.obj
 0001:00009fd0       ??F?$_Tree_unchecked_const_iterator@V?$_Tree_val@U?$_Tree_simple_types@U?$pair@$$CBHPAVfms_fp_item_t@@@std@@@std@@@std@@U_Iterator_base0@2@@std@@QAEAAV01@XZ 1000afd0 f i mfdpage_fms.obj
 0001:00009fd0       ??F?$_Tree_unchecked_const_iterator@V?$_Tree_val@U?$_Tree_simple_types@PAVobject_t@@@std@@@std@@U_Iterator_base0@2@@std@@QAEAAV01@XZ 1000afd0 f i data.obj
 0001:00009fd0       ??F?$_Tree_unchecked_const_iterator@V?$_Tree_val@U?$_Tree_simple_types@U?$pair@$$CBV?$basic_string@DU?$char_traits@D@std@@V?$allocator@D@2@@std@@PAVfms_fp_item_t@@@std@@@std@@@std@@U_Iterator_base0@2@@std@@QAEAAV01@XZ 1000afd0 f i fms_fp.obj
 0001:00009fd0       ??F?$_Tree_unchecked_const_iterator@V?$_Tree_val@U?$_Tree_simple_types@U?$pair@$$CBHM@std@@@std@@@std@@U_Iterator_base0@2@@std@@QAEAAV01@XZ 1000afd0 f i fms_config.obj
 0001:00009fd0       ??F?$_Tree_unchecked_const_iterator@V?$_Tree_val@U?$_Tree_simple_types@PAVmfdpage_t@@@std@@@std@@U_Iterator_base0@2@@std@@QAEAAV01@XZ 1000afd0 f i in.obj
 0001:00009fd0       ??F?$_Tree_unchecked_const_iterator@V?$_Tree_val@U?$_Tree_simple_types@U?$pair@$$CBV?$basic_string@DU?$char_traits@D@std@@V?$allocator@D@2@@std@@M@std@@@std@@@std@@U_Iterator_base0@2@@std@@QAEAAV01@XZ 1000afd0 f i mfdpage_fms.obj
 0001:00009fd0       ??F?$_Tree_unchecked_const_iterator@V?$_Tree_val@U?$_Tree_simple_types@U?$pair@$$CBV?$basic_string@DU?$char_traits@D@std@@V?$allocator@D@2@@std@@D@std@@@std@@@std@@U_Iterator_base0@2@@std@@QAEAAV01@XZ 1000afd0 f i mfdpage.obj
 0001:00009fd0       ??F?$_Tree_unchecked_const_iterator@V?$_Tree_val@U?$_Tree_simple_types@PAVlistener_t@@@std@@@std@@U_Iterator_base0@2@@std@@QAEAAV01@XZ 1000afd0 f i data.obj
 0001:00009fd0       ??F?$_Tree_unchecked_const_iterator@V?$_Tree_val@U?$_Tree_simple_types@U?$pair@$$CBV?$basic_string@DU?$char_traits@D@std@@V?$allocator@D@2@@std@@H@std@@@std@@@std@@U_Iterator_base0@2@@std@@QAEAAV01@XZ 1000afd0 f i mfdpage.obj
 0001:00009fd0       ??F?$_Tree_unchecked_const_iterator@V?$_Tree_val@U?$_Tree_simple_types@U?$pair@$$CBHPAVobject_t@@@std@@@std@@@std@@U_Iterator_base0@2@@std@@QAEAAV01@XZ 1000afd0 f i mfdpage.obj
 0001:00009fd0       ??F?$_Tree_unchecked_const_iterator@V?$_Tree_val@U?$_Tree_simple_types@U?$pair@$$CBV?$basic_string@DU?$char_traits@D@std@@V?$allocator@D@2@@std@@V12@@std@@@std@@@std@@U_Iterator_base0@2@@std@@QAEAAV01@XZ 1000afd0 f i tools.obj
 0001:0000a0c0       ??R?$less@H@std@@QBE_NABH0@Z 1000b0c0 f i out_saitek.obj
 0001:0000a0f0       ??_G?$pair@$$CBHV?$basic_string@DU?$char_traits@D@std@@V?$allocator@D@2@@std@@@std@@QAEPAXI@Z 1000b0f0 f i out_saitek.obj
 0001:0000a120       ?_Buynode0@?$_Tree_buy@U?$pair@$$CBV?$basic_string@DU?$char_traits@D@std@@V?$allocator@D@2@@std@@M@std@@V?$allocator@U?$pair@$$CBV?$basic_string@DU?$char_traits@D@std@@V?$allocator@D@2@@std@@M@std@@@2@@std@@QAEPAU?$_Tree_node@U?$pair@$$CBV?$basic_string@DU?$char_traits@D@std@@V?$allocator@D@2@@std@@M@std@@PAX@2@XZ 1000b120 f i mfdpage_fms.obj
 0001:0000a120       ?_Buynode0@?$_Tree_buy@U?$pair@$$CBHV?$basic_string@DU?$char_traits@D@std@@V?$allocator@D@2@@std@@@std@@V?$allocator@U?$pair@$$CBHV?$basic_string@DU?$char_traits@D@std@@V?$allocator@D@2@@std@@@std@@@2@@std@@QAEPAU?$_Tree_node@U?$pair@$$CBHV?$basic_string@DU?$char_traits@D@std@@V?$allocator@D@2@@std@@@std@@PAX@2@XZ 1000b120 f i out_saitek.obj
 0001:0000a120       ?_Buynode0@?$_Tree_buy@U?$pair@$$CBV?$basic_string@DU?$char_traits@D@std@@V?$allocator@D@2@@std@@H@std@@V?$allocator@U?$pair@$$CBV?$basic_string@DU?$char_traits@D@std@@V?$allocator@D@2@@std@@H@std@@@2@@std@@QAEPAU?$_Tree_node@U?$pair@$$CBV?$basic_string@DU?$char_traits@D@std@@V?$allocator@D@2@@std@@H@std@@PAX@2@XZ 1000b120 f i mfdpage.obj
 0001:0000a120       ?_Buynode0@?$_Tree_buy@U?$pair@$$CBV?$basic_string@DU?$char_traits@D@std@@V?$allocator@D@2@@std@@PAVfms_fp_item_t@@@std@@V?$allocator@U?$pair@$$CBV?$basic_string@DU?$char_traits@D@std@@V?$allocator@D@2@@std@@PAVfms_fp_item_t@@@std@@@2@@std@@QAEPAU?$_Tree_node@U?$pair@$$CBV?$basic_string@DU?$char_traits@D@std@@V?$allocator@D@2@@std@@PAVfms_fp_item_t@@@std@@PAX@2@XZ 1000b120 f i fms_fp.obj
 0001:0000a120       ?_Buynode0@?$_Tree_buy@U?$pair@$$CBV?$basic_string@DU?$char_traits@D@std@@V?$allocator@D@2@@std@@D@std@@V?$allocator@U?$pair@$$CBV?$basic_string@DU?$char_traits@D@std@@V?$allocator@D@2@@std@@D@std@@@2@@std@@QAEPAU?$_Tree_node@U?$pair@$$CBV?$basic_string@DU?$char_traits@D@std@@V?$allocator@D@2@@std@@D@std@@PAX@2@XZ 1000b120 f i mfdpage.obj
 0001:0000a120       ?_Buynode0@?$_Tree_buy@U?$pair@$$CBV?$basic_string@DU?$char_traits@D@std@@V?$allocator@D@2@@std@@PAVfms_config_item_t@@@std@@V?$allocator@U?$pair@$$CBV?$basic_string@DU?$char_traits@D@std@@V?$allocator@D@2@@std@@PAVfms_config_item_t@@@std@@@2@@std@@QAEPAU?$_Tree_node@U?$pair@$$CBV?$basic_string@DU?$char_traits@D@std@@V?$allocator@D@2@@std@@PAVfms_config_item_t@@@std@@PAX@2@XZ 1000b120 f i fms_config.obj
 0001:0000a250       ?_Destroy_if_not_nil@?$_Tree@V?$_Tmap_traits@HV?$basic_string@DU?$char_traits@D@std@@V?$allocator@D@2@@std@@U?$less@H@2@V?$allocator@U?$pair@$$CBHV?$basic_string@DU?$char_traits@D@std@@V?$allocator@D@2@@std@@@std@@@2@$0A@@std@@@std@@IAEXPAU?$_Tree_node@U?$pair@$$CBHV?$basic_string@DU?$char_traits@D@std@@V?$allocator@D@2@@std@@@std@@PAX@2@@Z 1000b250 f i out_saitek.obj
 0001:0000a2b0       ?_Lmost@?$_Tree@V?$_Tmap_traits@V?$basic_string@DU?$char_traits@D@std@@V?$allocator@D@2@@std@@PAVfms_fp_item_t@@U?$less@V?$basic_string@DU?$char_traits@D@std@@V?$allocator@D@2@@std@@@2@V?$allocator@U?$pair@$$CBV?$basic_string@DU?$char_traits@D@std@@V?$allocator@D@2@@std@@PAVfms_fp_item_t@@@std@@@2@$0A@@std@@@std@@IBEAAPAU?$_Tree_node@U?$pair@$$CBV?$basic_string@DU?$char_traits@D@std@@V?$allocator@D@2@@std@@PAVfms_fp_item_t@@@std@@PAX@2@XZ 1000b2b0 f i fms_fp.obj
 0001:0000a2b0       ?_Lmost@?$_Tree@V?$_Tmap_traits@HV?$basic_string@DU?$char_traits@D@std@@V?$allocator@D@2@@std@@U?$less@H@2@V?$allocator@U?$pair@$$CBHV?$basic_string@DU?$char_traits@D@std@@V?$allocator@D@2@@std@@@std@@@2@$0A@@std@@@std@@IBEAAPAU?$_Tree_node@U?$pair@$$CBHV?$basic_string@DU?$char_traits@D@std@@V?$allocator@D@2@@std@@@std@@PAX@2@XZ 1000b2b0 f i out_saitek.obj
 0001:0000a2b0       ?_Lmost@?$_Tree@V?$_Tmap_traits@HMU?$less@H@std@@V?$allocator@U?$pair@$$CBHM@std@@@2@$0A@@std@@@std@@IBEAAPAU?$_Tree_node@U?$pair@$$CBHM@std@@PAX@2@XZ 1000b2b0 f i fms_config.obj
 0001:0000a2b0       ?_Lmost@?$_Tree@V?$_Tmap_traits@V?$basic_string@DU?$char_traits@D@std@@V?$allocator@D@2@@std@@PAVfms_config_item_t@@U?$less@V?$basic_string@DU?$char_traits@D@std@@V?$allocator@D@2@@std@@@2@V?$allocator@U?$pair@$$CBV?$basic_string@DU?$char_traits@D@std@@V?$allocator@D@2@@std@@PAVfms_config_item_t@@@std@@@2@$0A@@std@@@std@@IBEAAPAU?$_Tree_node@U?$pair@$$CBV?$basic_string@DU?$char_traits@D@std@@V?$allocator@D@2@@std@@PAVfms_config_item_t@@@std@@PAX@2@XZ 1000b2b0 f i fms_config.obj
 0001:0000a2b0       ?_Lmost@?$_Tree@V?$_Tmap_traits@HPAVfms_fp_item_t@@U?$less@H@std@@V?$allocator@U?$pair@$$CBHPAVfms_fp_item_t@@@std@@@3@$0A@@std@@@std@@IBEAAPAU?$_Tree_node@U?$pair@$$CBHPAVfms_fp_item_t@@@std@@PAX@2@XZ 1000b2b0 f i mfdpage_fms.obj
 0001:0000a2b0       ?_Lmost@?$_Tree@V?$_Tmap_traits@HPAVobject_t@@U?$less@H@std@@V?$allocator@U?$pair@$$CBHPAVobject_t@@@std@@@3@$0A@@std@@@std@@IBEAAPAU?$_Tree_node@U?$pair@$$CBHPAVobject_t@@@std@@PAX@2@XZ 1000b2b0 f i mfdpage.obj
 0001:0000a2b0       ?_Lmost@?$_Tree@V?$_Tset_traits@PAVobject_t@@U?$less@PAVobject_t@@@std@@V?$allocator@PAVobject_t@@@3@$0A@@std@@@std@@IBEAAPAU?$_Tree_node@PAVobject_t@@PAX@2@XZ 1000b2b0 f i data.obj
 0001:0000a2b0       ?_Lmost@?$_Tree@V?$_Tmap_traits@V?$basic_string@DU?$char_traits@D@std@@V?$allocator@D@2@@std@@DU?$less@V?$basic_string@DU?$char_traits@D@std@@V?$allocator@D@2@@std@@@2@V?$allocator@U?$pair@$$CBV?$basic_string@DU?$char_traits@D@std@@V?$allocator@D@2@@std@@D@std@@@2@$0A@@std@@@std@@IBEAAPAU?$_Tree_node@U?$pair@$$CBV?$basic_string@DU?$char_traits@D@std@@V?$allocator@D@2@@std@@D@std@@PAX@2@XZ 1000b2b0 f i mfdpage.obj
 0001:0000a2b0       ?_Lmost@?$_Tree@V?$_Tmap_traits@V?$basic_string@DU?$char_traits@D@std@@V?$allocator@D@2@@std@@V12@U?$less@V?$basic_string@DU?$char_traits@D@std@@V?$allocator@D@2@@std@@@2@V?$allocator@U?$pair@$$CBV?$basic_string@DU?$char_traits@D@std@@V?$allocator@D@2@@std@@V12@@std@@@2@$0A@@std@@@std@@IBEAAPAU?$_Tree_node@U?$pair@$$CBV?$basic_string@DU?$char_traits@D@std@@V?$allocator@D@2@@std@@V12@@std@@PAX@2@XZ 1000b2b0 f i tools.obj
 0001:0000a2b0       ?_Lmost@?$_Tree@V?$_Tmap_traits@V?$basic_string@DU?$char_traits@D@std@@V?$allocator@D@2@@std@@MU?$less@V?$basic_string@DU?$char_traits@D@std@@V?$allocator@D@2@@std@@@2@V?$allocator@U?$pair@$$CBV?$basic_string@DU?$char_traits@D@std@@V?$allocator@D@2@@std@@M@std@@@2@$0A@@std@@@std@@IBEAAPAU?$_Tree_node@U?$pair@$$CBV?$basic_string@DU?$char_traits@D@std@@V?$allocator@D@2@@std@@M@std@@PAX@2@XZ 1000b2b0 f i mfdpage_fms.obj
 0001:0000a2b0       ?_Lmost@?$_Tree@V?$_Tset_traits@PAVmfdpage_t@@U?$less@PAVmfdpage_t@@@std@@V?$allocator@PAVmfdpage_t@@@3@$0A@@std@@@std@@IBEAAPAU?$_Tree_node@PAVmfdpage_t@@PAX@2@XZ 1000b2b0 f i in.obj
 0001:0000a2b0       ?_Lmost@?$_Tree@V?$_Tmap_traits@V?$basic_string@DU?$char_traits@D@std@@V?$allocator@D@2@@std@@HU?$less@V?$basic_string@DU?$char_traits@D@std@@V?$allocator@D@2@@std@@@2@V?$allocator@U?$pair@$$CBV?$basic_string@DU?$char_traits@D@std@@V?$allocator@D@2@@std@@H@std@@@2@$0A@@std@@@std@@IBEAAPAU?$_Tree_node@U?$pair@$$CBV?$basic_string@DU?$char_traits@D@std@@V?$allocator@D@2@@std@@H@std@@PAX@2@XZ 1000b2b0 f i mfdpage.obj
 0001:0000a2b0       ?_Lmost@?$_Tree@V?$_Tset_traits@PAVlistener_t@@U?$less@PAVlistener_t@@@std@@V?$allocator@PAVlistener_t@@@3@$0A@@std@@@std@@IBEAAPAU?$_Tree_node@PAVlistener_t@@PAX@2@XZ 1000b2b0 f i data.obj
 0001:0000a2d0       ?_Lrotate@?$_Tree@V?$_Tset_traits@PAVobject_t@@U?$less@PAVobject_t@@@std@@V?$allocator@PAVobject_t@@@3@$0A@@std@@@std@@IAEXPAU?$_Tree_node@PAVobject_t@@PAX@2@@Z 1000b2d0 f i data.obj
 0001:0000a2d0       ?_Lrotate@?$_Tree@V?$_Tmap_traits@HMU?$less@H@std@@V?$allocator@U?$pair@$$CBHM@std@@@2@$0A@@std@@@std@@IAEXPAU?$_Tree_node@U?$pair@$$CBHM@std@@PAX@2@@Z 1000b2d0 f i fms_config.obj
 0001:0000a2d0       ?_Lrotate@?$_Tree@V?$_Tmap_traits@V?$basic_string@DU?$char_traits@D@std@@V?$allocator@D@2@@std@@PAVfms_config_item_t@@U?$less@V?$basic_string@DU?$char_traits@D@std@@V?$allocator@D@2@@std@@@2@V?$allocator@U?$pair@$$CBV?$basic_string@DU?$char_traits@D@std@@V?$allocator@D@2@@std@@PAVfms_config_item_t@@@std@@@2@$0A@@std@@@std@@IAEXPAU?$_Tree_node@U?$pair@$$CBV?$basic_string@DU?$char_traits@D@std@@V?$allocator@D@2@@std@@PAVfms_config_item_t@@@std@@PAX@2@@Z 1000b2d0 f i fms_config.obj
 0001:0000a2d0       ?_Lrotate@?$_Tree@V?$_Tmap_traits@V?$basic_string@DU?$char_traits@D@std@@V?$allocator@D@2@@std@@PAVfms_fp_item_t@@U?$less@V?$basic_string@DU?$char_traits@D@std@@V?$allocator@D@2@@std@@@2@V?$allocator@U?$pair@$$CBV?$basic_string@DU?$char_traits@D@std@@V?$allocator@D@2@@std@@PAVfms_fp_item_t@@@std@@@2@$0A@@std@@@std@@IAEXPAU?$_Tree_node@U?$pair@$$CBV?$basic_string@DU?$char_traits@D@std@@V?$allocator@D@2@@std@@PAVfms_fp_item_t@@@std@@PAX@2@@Z 1000b2d0 f i fms_fp.obj
 0001:0000a2d0       ?_Lrotate@?$_Tree@V?$_Tmap_traits@HV?$basic_string@DU?$char_traits@D@std@@V?$allocator@D@2@@std@@U?$less@H@2@V?$allocator@U?$pair@$$CBHV?$basic_string@DU?$char_traits@D@std@@V?$allocator@D@2@@std@@@std@@@2@$0A@@std@@@std@@IAEXPAU?$_Tree_node@U?$pair@$$CBHV?$basic_string@DU?$char_traits@D@std@@V?$allocator@D@2@@std@@@std@@PAX@2@@Z 1000b2d0 f i out_saitek.obj
 0001:0000a2d0       ?_Lrotate@?$_Tree@V?$_Tmap_traits@V?$basic_string@DU?$char_traits@D@std@@V?$allocator@D@2@@std@@V12@U?$less@V?$basic_string@DU?$char_traits@D@std@@V?$allocator@D@2@@std@@@2@V?$allocator@U?$pair@$$CBV?$basic_string@DU?$char_traits@D@std@@V?$allocator@D@2@@std@@V12@@std@@@2@$0A@@std@@@std@@IAEXPAU?$_Tree_node@U?$pair@$$CBV?$basic_string@DU?$char_traits@D@std@@V?$allocator@D@2@@std@@V12@@std@@PAX@2@@Z 1000b2d0 f i tools.obj
 0001:0000a2d0       ?_Lrotate@?$_Tree@V?$_Tmap_traits@V?$basic_string@DU?$char_traits@D@std@@V?$allocator@D@2@@std@@MU?$less@V?$basic_string@DU?$char_traits@D@std@@V?$allocator@D@2@@std@@@2@V?$allocator@U?$pair@$$CBV?$basic_string@DU?$char_traits@D@std@@V?$allocator@D@2@@std@@M@std@@@2@$0A@@std@@@std@@IAEXPAU?$_Tree_node@U?$pair@$$CBV?$basic_string@DU?$char_traits@D@std@@V?$allocator@D@2@@std@@M@std@@PAX@2@@Z 1000b2d0 f i mfdpage_fms.obj
 0001:0000a2d0       ?_Lrotate@?$_Tree@V?$_Tset_traits@PAVlistener_t@@U?$less@PAVlistener_t@@@std@@V?$allocator@PAVlistener_t@@@3@$0A@@std@@@std@@IAEXPAU?$_Tree_node@PAVlistener_t@@PAX@2@@Z 1000b2d0 f i data.obj
 0001:0000a2d0       ?_Lrotate@?$_Tree@V?$_Tmap_traits@HPAVfms_fp_item_t@@U?$less@H@std@@V?$allocator@U?$pair@$$CBHPAVfms_fp_item_t@@@std@@@3@$0A@@std@@@std@@IAEXPAU?$_Tree_node@U?$pair@$$CBHPAVfms_fp_item_t@@@std@@PAX@2@@Z 1000b2d0 f i mfdpage_fms.obj
 0001:0000a2d0       ?_Lrotate@?$_Tree@V?$_Tmap_traits@V?$basic_string@DU?$char_traits@D@std@@V?$allocator@D@2@@std@@DU?$less@V?$basic_string@DU?$char_traits@D@std@@V?$allocator@D@2@@std@@@2@V?$allocator@U?$pair@$$CBV?$basic_string@DU?$char_traits@D@std@@V?$allocator@D@2@@std@@D@std@@@2@$0A@@std@@@std@@IAEXPAU?$_Tree_node@U?$pair@$$CBV?$basic_string@DU?$char_traits@D@std@@V?$allocator@D@2@@std@@D@std@@PAX@2@@Z 1000b2d0 f i mfdpage.obj
 0001:0000a2d0       ?_Lrotate@?$_Tree@V?$_Tmap_traits@HPAVobject_t@@U?$less@H@std@@V?$allocator@U?$pair@$$CBHPAVobject_t@@@std@@@3@$0A@@std@@@std@@IAEXPAU?$_Tree_node@U?$pair@$$CBHPAVobject_t@@@std@@PAX@2@@Z 1000b2d0 f i mfdpage.obj
 0001:0000a2d0       ?_Lrotate@?$_Tree@V?$_Tset_traits@PAVmfdpage_t@@U?$less@PAVmfdpage_t@@@std@@V?$allocator@PAVmfdpage_t@@@3@$0A@@std@@@std@@IAEXPAU?$_Tree_node@PAVmfdpage_t@@PAX@2@@Z 1000b2d0 f i in.obj
 0001:0000a2d0       ?_Lrotate@?$_Tree@V?$_Tmap_traits@V?$basic_string@DU?$char_traits@D@std@@V?$allocator@D@2@@std@@HU?$less@V?$basic_string@DU?$char_traits@D@std@@V?$allocator@D@2@@std@@@2@V?$allocator@U?$pair@$$CBV?$basic_string@DU?$char_traits@D@std@@V?$allocator@D@2@@std@@H@std@@@2@$0A@@std@@@std@@IAEXPAU?$_Tree_node@U?$pair@$$CBV?$basic_string@DU?$char_traits@D@std@@V?$allocator@D@2@@std@@H@std@@PAX@2@@Z 1000b2d0 f i mfdpage.obj
 0001:0000a400       ?_Max@?$_Tree_val@U?$_Tree_simple_types@U?$pair@$$CBV?$basic_string@DU?$char_traits@D@std@@V?$allocator@D@2@@std@@PAVfms_fp_item_t@@@std@@@std@@@std@@SAPAU?$_Tree_node@U?$pair@$$CBV?$basic_string@DU?$char_traits@D@std@@V?$allocator@D@2@@std@@PAVfms_fp_item_t@@@std@@PAX@2@PAU32@@Z 1000b400 f i fms_fp.obj
 0001:0000a400       ?_Max@?$_Tree_val@U?$_Tree_simple_types@U?$pair@$$CBHV?$basic_string@DU?$char_traits@D@std@@V?$allocator@D@2@@std@@@std@@@std@@@std@@SAPAU?$_Tree_node@U?$pair@$$CBHV?$basic_string@DU?$char_traits@D@std@@V?$allocator@D@2@@std@@@std@@PAX@2@PAU32@@Z 1000b400 f i out_saitek.obj
 0001:0000a400       ?_Max@?$_Tree_val@U?$_Tree_simple_types@U?$pair@$$CBV?$basic_string@DU?$char_traits@D@std@@V?$allocator@D@2@@std@@PAVfms_config_item_t@@@std@@@std@@@std@@SAPAU?$_Tree_node@U?$pair@$$CBV?$basic_string@DU?$char_traits@D@std@@V?$allocator@D@2@@std@@PAVfms_config_item_t@@@std@@PAX@2@PAU32@@Z 1000b400 f i fms_config.obj
 0001:0000a400       ?_Max@?$_Tree_val@U?$_Tree_simple_types@U?$pair@$$CBV?$basic_string@DU?$char_traits@D@std@@V?$allocator@D@2@@std@@M@std@@@std@@@std@@SAPAU?$_Tree_node@U?$pair@$$CBV?$basic_string@DU?$char_traits@D@std@@V?$allocator@D@2@@std@@M@std@@PAX@2@PAU32@@Z 1000b400 f i mfdpage_fms.obj
 0001:0000a400       ?_Max@?$_Tree_val@U?$_Tree_simple_types@PAVlistener_t@@@std@@@std@@SAPAU?$_Tree_node@PAVlistener_t@@PAX@2@PAU32@@Z 1000b400 f i data.obj
 0001:0000a400       ?_Max@?$_Tree_val@U?$_Tree_simple_types@U?$pair@$$CBHPAVfms_fp_item_t@@@std@@@std@@@std@@SAPAU?$_Tree_node@U?$pair@$$CBHPAVfms_fp_item_t@@@std@@PAX@2@PAU32@@Z 1000b400 f i mfdpage_fms.obj
 0001:0000a400       ?_Max@?$_Tree_val@U?$_Tree_simple_types@PAVmfdpage_t@@@std@@@std@@SAPAU?$_Tree_node@PAVmfdpage_t@@PAX@2@PAU32@@Z 1000b400 f i in.obj
 0001:0000a400       ?_Max@?$_Tree_val@U?$_Tree_simple_types@U?$pair@$$CBV?$basic_string@DU?$char_traits@D@std@@V?$allocator@D@2@@std@@D@std@@@std@@@std@@SAPAU?$_Tree_node@U?$pair@$$CBV?$basic_string@DU?$char_traits@D@std@@V?$allocator@D@2@@std@@D@std@@PAX@2@PAU32@@Z 1000b400 f i mfdpage.obj
 0001:0000a400       ?_Max@?$_Tree_val@U?$_Tree_simple_types@U?$pair@$$CBHPAVobject_t@@@std@@@std@@@std@@SAPAU?$_Tree_node@U?$pair@$$CBHPAVobject_t@@@std@@PAX@2@PAU32@@Z 1000b400 f i mfdpage.obj
 0001:0000a400       ?_Max@?$_Tree_val@U?$_Tree_simple_types@U?$pair@$$CBHM@std@@@std@@@std@@SAPAU?$_Tree_node@U?$pair@$$CBHM@std@@PAX@2@PAU32@@Z 1000b400 f i fms_config.obj
 0001:0000a400       ?_Max@?$_Tree_val@U?$_Tree_simple_types@PAVobject_t@@@std@@@std@@SAPAU?$_Tree_node@PAVobject_t@@PAX@2@PAU32@@Z 1000b400 f i data.obj
 0001:0000a400       ?_Max@?$_Tree_val@U?$_Tree_simple_types@U?$pair@$$CBV?$basic_string@DU?$char_traits@D@std@@V?$allocator@D@2@@std@@H@std@@@std@@@std@@SAPAU?$_Tree_node@U?$pair@$$CBV?$basic_string@DU?$char_traits@D@std@@V?$allocator@D@2@@std@@H@std@@PAX@2@PAU32@@Z 1000b400 f i mfdpage.obj
 0001:0000a400       ?_Max@?$_Tree_val@U?$_Tree_simple_types@U?$pair@$$CBV?$basic_string@DU?$char_traits@D@std@@V?$allocator@D@2@@std@@V12@@std@@@std@@@std@@SAPAU?$_Tree_node@U?$pair@$$CBV?$basic_string@DU?$char_traits@D@std@@V?$allocator@D@2@@std@@V12@@std@@PAX@2@PAU32@@Z 1000b400 f i tools.obj
 0001:0000a440       ?_Rrotate@?$_Tree@V?$_Tmap_traits@V?$basic_string@DU?$char_traits@D@std@@V?$allocator@D@2@@std@@PAVfms_config_item_t@@U?$less@V?$basic_string@DU?$char_traits@D@std@@V?$allocator@D@2@@std@@@2@V?$allocator@U?$pair@$$CBV?$basic_string@DU?$char_traits@D@std@@V?$allocator@D@2@@std@@PAVfms_config_item_t@@@std@@@2@$0A@@std@@@std@@IAEXPAU?$_Tree_node@U?$pair@$$CBV?$basic_string@DU?$char_traits@D@std@@V?$allocator@D@2@@std@@PAVfms_config_item_t@@@std@@PAX@2@@Z 1000b440 f i fms_config.obj
 0001:0000a440       ?_Rrotate@?$_Tree@V?$_Tmap_traits@V?$basic_string@DU?$char_traits@D@std@@V?$allocator@D@2@@std@@MU?$less@V?$basic_string@DU?$char_traits@D@std@@V?$allocator@D@2@@std@@@2@V?$allocator@U?$pair@$$CBV?$basic_string@DU?$char_traits@D@std@@V?$allocator@D@2@@std@@M@std@@@2@$0A@@std@@@std@@IAEXPAU?$_Tree_node@U?$pair@$$CBV?$basic_string@DU?$char_traits@D@std@@V?$allocator@D@2@@std@@M@std@@PAX@2@@Z 1000b440 f i mfdpage_fms.obj
 0001:0000a440       ?_Rrotate@?$_Tree@V?$_Tmap_traits@HPAVobject_t@@U?$less@H@std@@V?$allocator@U?$pair@$$CBHPAVobject_t@@@std@@@3@$0A@@std@@@std@@IAEXPAU?$_Tree_node@U?$pair@$$CBHPAVobject_t@@@std@@PAX@2@@Z 1000b440 f i mfdpage.obj
 0001:0000a440       ?_Rrotate@?$_Tree@V?$_Tset_traits@PAVmfdpage_t@@U?$less@PAVmfdpage_t@@@std@@V?$allocator@PAVmfdpage_t@@@3@$0A@@std@@@std@@IAEXPAU?$_Tree_node@PAVmfdpage_t@@PAX@2@@Z 1000b440 f i in.obj
 0001:0000a440       ?_Rrotate@?$_Tree@V?$_Tmap_traits@V?$basic_string@DU?$char_traits@D@std@@V?$allocator@D@2@@std@@DU?$less@V?$basic_string@DU?$char_traits@D@std@@V?$allocator@D@2@@std@@@2@V?$allocator@U?$pair@$$CBV?$basic_string@DU?$char_traits@D@std@@V?$allocator@D@2@@std@@D@std@@@2@$0A@@std@@@std@@IAEXPAU?$_Tree_node@U?$pair@$$CBV?$basic_string@DU?$char_traits@D@std@@V?$allocator@D@2@@std@@D@std@@PAX@2@@Z 1000b440 f i mfdpage.obj
 0001:0000a440       ?_Rrotate@?$_Tree@V?$_Tset_traits@PAVlistener_t@@U?$less@PAVlistener_t@@@std@@V?$allocator@PAVlistener_t@@@3@$0A@@std@@@std@@IAEXPAU?$_Tree_node@PAVlistener_t@@PAX@2@@Z 1000b440 f i data.obj
 0001:0000a440       ?_Rrotate@?$_Tree@V?$_Tset_traits@PAVobject_t@@U?$less@PAVobject_t@@@std@@V?$allocator@PAVobject_t@@@3@$0A@@std@@@std@@IAEXPAU?$_Tree_node@PAVobject_t@@PAX@2@@Z 1000b440 f i data.obj
 0001:0000a440       ?_Rrotate@?$_Tree@V?$_Tmap_traits@HMU?$less@H@std@@V?$allocator@U?$pair@$$CBHM@std@@@2@$0A@@std@@@std@@IAEXPAU?$_Tree_node@U?$pair@$$CBHM@std@@PAX@2@@Z 1000b440 f i fms_config.obj
 0001:0000a440       ?_Rrotate@?$_Tree@V?$_Tmap_traits@HPAVfms_fp_item_t@@U?$less@H@std@@V?$allocator@U?$pair@$$CBHPAVfms_fp_item_t@@@std@@@3@$0A@@std@@@std@@IAEXPAU?$_Tree_node@U?$pair@$$CBHPAVfms_fp_item_t@@@std@@PAX@2@@Z 1000b440 f i mfdpage_fms.obj
 0001:0000a440       ?_Rrotate@?$_Tree@V?$_Tmap_traits@V?$basic_string@DU?$char_traits@D@std@@V?$allocator@D@2@@std@@V12@U?$less@V?$basic_string@DU?$char_traits@D@std@@V?$allocator@D@2@@std@@@2@V?$allocator@U?$pair@$$CBV?$basic_string@DU?$char_traits@D@std@@V?$allocator@D@2@@std@@V12@@std@@@2@$0A@@std@@@std@@IAEXPAU?$_Tree_node@U?$pair@$$CBV?$basic_string@DU?$char_traits@D@std@@V?$allocator@D@2@@std@@V12@@std@@PAX@2@@Z 1000b440 f i tools.obj
 0001:0000a440       ?_Rrotate@?$_Tree@V?$_Tmap_traits@V?$basic_string@DU?$char_traits@D@std@@V?$allocator@D@2@@std@@PAVfms_fp_item_t@@U?$less@V?$basic_string@DU?$char_traits@D@std@@V?$allocator@D@2@@std@@@2@V?$allocator@U?$pair@$$CBV?$basic_string@DU?$char_traits@D@std@@V?$allocator@D@2@@std@@PAVfms_fp_item_t@@@std@@@2@$0A@@std@@@std@@IAEXPAU?$_Tree_node@U?$pair@$$CBV?$basic_string@DU?$char_traits@D@std@@V?$allocator@D@2@@std@@PAVfms_fp_item_t@@@std@@PAX@2@@Z 1000b440 f i fms_fp.obj
 0001:0000a440       ?_Rrotate@?$_Tree@V?$_Tmap_traits@HV?$basic_string@DU?$char_traits@D@std@@V?$allocator@D@2@@std@@U?$less@H@2@V?$allocator@U?$pair@$$CBHV?$basic_string@DU?$char_traits@D@std@@V?$allocator@D@2@@std@@@std@@@2@$0A@@std@@@std@@IAEXPAU?$_Tree_node@U?$pair@$$CBHV?$basic_string@DU?$char_traits@D@std@@V?$allocator@D@2@@std@@@std@@PAX@2@@Z 1000b440 f i out_saitek.obj
 0001:0000a440       ?_Rrotate@?$_Tree@V?$_Tmap_traits@V?$basic_string@DU?$char_traits@D@std@@V?$allocator@D@2@@std@@HU?$less@V?$basic_string@DU?$char_traits@D@std@@V?$allocator@D@2@@std@@@2@V?$allocator@U?$pair@$$CBV?$basic_string@DU?$char_traits@D@std@@V?$allocator@D@2@@std@@H@std@@@2@$0A@@std@@@std@@IAEXPAU?$_Tree_node@U?$pair@$$CBV?$basic_string@DU?$char_traits@D@std@@V?$allocator@D@2@@std@@H@std@@PAX@2@@Z 1000b440 f i mfdpage.obj
 0001:0000a570       ??0in_t@@QAE@XZ            1000b570 f   in.obj
 0001:0000a6e0       ??1in_t@@QAE@XZ            1000b6e0 f   in.obj
 0001:0000a700       ?handle_pagecycle@in_t@@QAEXH@Z 1000b700 f   in.obj
 0001:0000a910       ?add_page@in_t@@QAEXPAVmfdpage_t@@@Z 1000b910 f   in.obj
 0001:0000a9e0       ?delete_all_pages@in_t@@QAEXXZ 1000b9e0 f   in.obj
 0001:0000aaa0       ?dispatch_command@in_t@@SAHPAXH0@Z 1000baa0 f   in.obj
 0001:0000ab20       ??$?0V?$_Tree_const_iterator@V?$_Tree_val@U?$_Tree_simple_types@PAVlistener_t@@@std@@@std@@@std@@_NX@?$pair@V?$_Tree_const_iterator@V?$_Tree_val@U?$_Tree_simple_types@PAVlistener_t@@@std@@@std@@@std@@_N@std@@QAE@$$QAV?$_Tree_const_iterator@V?$_Tree_val@U?$_Tree_simple_types@PAVlistener_t@@@std@@@std@@@1@$$QA_N@Z 1000bb20 f i data.obj
 0001:0000ab20       ??$?0AAV?$_Tree_const_iterator@V?$_Tree_val@U?$_Tree_simple_types@PAVobject_t@@@std@@@std@@@std@@_NX@?$pair@V?$_Tree_const_iterator@V?$_Tree_val@U?$_Tree_simple_types@PAVobject_t@@@std@@@std@@@std@@_N@std@@QAE@AAV?$_Tree_const_iterator@V?$_Tree_val@U?$_Tree_simple_types@PAVobject_t@@@std@@@std@@@1@$$QA_N@Z 1000bb20 f i data.obj
 0001:0000ab20       ??$?0V?$_Tree_iterator@V?$_Tree_val@U?$_Tree_simple_types@U?$pair@$$CBV?$basic_string@DU?$char_traits@D@std@@V?$allocator@D@2@@std@@PAVfms_config_item_t@@@std@@@std@@@std@@@std@@_NX@?$pair@V?$_Tree_iterator@V?$_Tree_val@U?$_Tree_simple_types@U?$pair@$$CBV?$basic_string@DU?$char_traits@D@std@@V?$allocator@D@2@@std@@PAVfms_config_item_t@@@std@@@std@@@std@@@std@@_N@std@@QAE@$$QAV?$_Tree_iterator@V?$_Tree_val@U?$_Tree_simple_types@U?$pair@$$CBV?$basic_string@DU?$char_traits@D@std@@V?$allocator@D@2@@std@@PAVfms_config_item_t@@@std@@@std@@@std@@@1@$$QA_N@Z 1000bb20 f i fms_config.obj
 0001:0000ab20       ??$?0V?$_Tree_iterator@V?$_Tree_val@U?$_Tree_simple_types@U?$pair@$$CBHPAVfms_fp_item_t@@@std@@@std@@@std@@@std@@_NX@?$pair@V?$_Tree_iterator@V?$_Tree_val@U?$_Tree_simple_types@U?$pair@$$CBHPAVfms_fp_item_t@@@std@@@std@@@std@@@std@@_N@std@@QAE@$$QAV?$_Tree_iterator@V?$_Tree_val@U?$_Tree_simple_types@U?$pair@$$CBHPAVfms_fp_item_t@@@std@@@std@@@std@@@1@$$QA_N@Z 1000bb20 f i mfdpage_fms.obj
 0001:0000ab20       ??$?0AAV?$_Tree_iterator@V?$_Tree_val@U?$_Tree_simple_types@U?$pair@$$CBV?$basic_string@DU?$char_traits@D@std@@V?$allocator@D@2@@std@@PAVfms_fp_item_t@@@std@@@std@@@std@@@std@@_NX@?$pair@V?$_Tree_iterator@V?$_Tree_val@U?$_Tree_simple_types@U?$pair@$$CBV?$basic_string@DU?$char_traits@D@std@@V?$allocator@D@2@@std@@PAVfms_fp_item_t@@@std@@@std@@@std@@@std@@_N@std@@QAE@AAV?$_Tree_iterator@V?$_Tree_val@U?$_Tree_simple_types@U?$pair@$$CBV?$basic_string@DU?$char_traits@D@std@@V?$allocator@D@2@@std@@PAVfms_fp_item_t@@@std@@@std@@@std@@@1@$$QA_N@Z 1000bb20 f i fms_fp.obj
 0001:0000ab20       ??$?0AAV?$_Tree_const_iterator@V?$_Tree_val@U?$_Tree_simple_types@PAVlistener_t@@@std@@@std@@@std@@_NX@?$pair@V?$_Tree_const_iterator@V?$_Tree_val@U?$_Tree_simple_types@PAVlistener_t@@@std@@@std@@@std@@_N@std@@QAE@AAV?$_Tree_const_iterator@V?$_Tree_val@U?$_Tree_simple_types@PAVlistener_t@@@std@@@std@@@1@$$QA_N@Z 1000bb20 f i data.obj
 0001:0000ab20       ??$?0V?$_Tree_iterator@V?$_Tree_val@U?$_Tree_simple_types@U?$pair@$$CBV?$basic_string@DU?$char_traits@D@std@@V?$allocator@D@2@@std@@D@std@@@std@@@std@@@std@@_NX@?$pair@V?$_Tree_iterator@V?$_Tree_val@U?$_Tree_simple_types@U?$pair@$$CBV?$basic_string@DU?$char_traits@D@std@@V?$allocator@D@2@@std@@D@std@@@std@@@std@@@std@@_N@std@@QAE@$$QAV?$_Tree_iterator@V?$_Tree_val@U?$_Tree_simple_types@U?$pair@$$CBV?$basic_string@DU?$char_traits@D@std@@V?$allocator@D@2@@std@@D@std@@@std@@@std@@@1@$$QA_N@Z 1000bb20 f i mfdpage.obj
 0001:0000ab20       ??$?0AAV?$_Tree_iterator@V?$_Tree_val@U?$_Tree_simple_types@U?$pair@$$CBHPAVfms_fp_item_t@@@std@@@std@@@std@@@std@@_NX@?$pair@V?$_Tree_iterator@V?$_Tree_val@U?$_Tree_simple_types@U?$pair@$$CBHPAVfms_fp_item_t@@@std@@@std@@@std@@@std@@_N@std@@QAE@AAV?$_Tree_iterator@V?$_Tree_val@U?$_Tree_simple_types@U?$pair@$$CBHPAVfms_fp_item_t@@@std@@@std@@@std@@@1@$$QA_N@Z 1000bb20 f i mfdpage_fms.obj
 0001:0000ab20       ??$?0V?$_Tree_iterator@V?$_Tree_val@U?$_Tree_simple_types@U?$pair@$$CBV?$basic_string@DU?$char_traits@D@std@@V?$allocator@D@2@@std@@PAVfms_fp_item_t@@@std@@@std@@@std@@@std@@_NX@?$pair@V?$_Tree_iterator@V?$_Tree_val@U?$_Tree_simple_types@U?$pair@$$CBV?$basic_string@DU?$char_traits@D@std@@V?$allocator@D@2@@std@@PAVfms_fp_item_t@@@std@@@std@@@std@@@std@@_N@std@@QAE@$$QAV?$_Tree_iterator@V?$_Tree_val@U?$_Tree_simple_types@U?$pair@$$CBV?$basic_string@DU?$char_traits@D@std@@V?$allocator@D@2@@std@@PAVfms_fp_item_t@@@std@@@std@@@std@@@1@$$QA_N@Z 1000bb20 f i fms_fp.obj
 0001:0000ab20       ??$?0AAV?$_Tree_const_iterator@V?$_Tree_val@U?$_Tree_simple_types@PAVmfdpage_t@@@std@@@std@@@std@@_NX@?$pair@V?$_Tree_const_iterator@V?$_Tree_val@U?$_Tree_simple_types@PAVmfdpage_t@@@std@@@std@@@std@@_N@std@@QAE@AAV?$_Tree_const_iterator@V?$_Tree_val@U?$_Tree_simple_types@PAVmfdpage_t@@@std@@@std@@@1@$$QA_N@Z 1000bb20 f i in.obj
 0001:0000ab20       ??$?0V?$_Tree_iterator@V?$_Tree_val@U?$_Tree_simple_types@U?$pair@$$CBHPAVobject_t@@@std@@@std@@@std@@@std@@_NX@?$pair@V?$_Tree_iterator@V?$_Tree_val@U?$_Tree_simple_types@U?$pair@$$CBHPAVobject_t@@@std@@@std@@@std@@@std@@_N@std@@QAE@$$QAV?$_Tree_iterator@V?$_Tree_val@U?$_Tree_simple_types@U?$pair@$$CBHPAVobject_t@@@std@@@std@@@std@@@1@$$QA_N@Z 1000bb20 f i mfdpage.obj
 0001:0000ab20       ??$?0AAV?$_Tree_iterator@V?$_Tree_val@U?$_Tree_simple_types@U?$pair@$$CBHV?$basic_string@DU?$char_traits@D@std@@V?$allocator@D@2@@std@@@std@@@std@@@std@@@std@@_NX@?$pair@V?$_Tree_iterator@V?$_Tree_val@U?$_Tree_simple_types@U?$pair@$$CBHV?$basic_string@DU?$char_traits@D@std@@V?$allocator@D@2@@std@@@std@@@std@@@std@@@std@@_N@std@@QAE@AAV?$_Tree_iterator@V?$_Tree_val@U?$_Tree_simple_types@U?$pair@$$CBHV?$basic_string@DU?$char_traits@D@std@@V?$allocator@D@2@@std@@@std@@@std@@@std@@@1@$$QA_N@Z 1000bb20 f i out_saitek.obj
 0001:0000ab20       ??$?0V?$_Tree_iterator@V?$_Tree_val@U?$_Tree_simple_types@U?$pair@$$CBV?$basic_string@DU?$char_traits@D@std@@V?$allocator@D@2@@std@@V12@@std@@@std@@@std@@@std@@_NX@?$pair@V?$_Tree_iterator@V?$_Tree_val@U?$_Tree_simple_types@U?$pair@$$CBV?$basic_string@DU?$char_traits@D@std@@V?$allocator@D@2@@std@@V12@@std@@@std@@@std@@@std@@_N@std@@QAE@$$QAV?$_Tree_iterator@V?$_Tree_val@U?$_Tree_simple_types@U?$pair@$$CBV?$basic_string@DU?$char_traits@D@std@@V?$allocator@D@2@@std@@V12@@std@@@std@@@std@@@1@$$QA_N@Z 1000bb20 f i tools.obj
 0001:0000ab20       ??$?0AAV?$_Tree_iterator@V?$_Tree_val@U?$_Tree_simple_types@U?$pair@$$CBV?$basic_string@DU?$char_traits@D@std@@V?$allocator@D@2@@std@@M@std@@@std@@@std@@@std@@_NX@?$pair@V?$_Tree_iterator@V?$_Tree_val@U?$_Tree_simple_types@U?$pair@$$CBV?$basic_string@DU?$char_traits@D@std@@V?$allocator@D@2@@std@@M@std@@@std@@@std@@@std@@_N@std@@QAE@AAV?$_Tree_iterator@V?$_Tree_val@U?$_Tree_simple_types@U?$pair@$$CBV?$basic_string@DU?$char_traits@D@std@@V?$allocator@D@2@@std@@M@std@@@std@@@std@@@1@$$QA_N@Z 1000bb20 f i mfdpage_fms.obj
 0001:0000ab20       ??$?0AAV?$_Tree_iterator@V?$_Tree_val@U?$_Tree_simple_types@U?$pair@$$CBV?$basic_string@DU?$char_traits@D@std@@V?$allocator@D@2@@std@@PAVfms_config_item_t@@@std@@@std@@@std@@@std@@_NX@?$pair@V?$_Tree_iterator@V?$_Tree_val@U?$_Tree_simple_types@U?$pair@$$CBV?$basic_string@DU?$char_traits@D@std@@V?$allocator@D@2@@std@@PAVfms_config_item_t@@@std@@@std@@@std@@@std@@_N@std@@QAE@AAV?$_Tree_iterator@V?$_Tree_val@U?$_Tree_simple_types@U?$pair@$$CBV?$basic_string@DU?$char_traits@D@std@@V?$allocator@D@2@@std@@PAVfms_config_item_t@@@std@@@std@@@std@@@1@$$QA_N@Z 1000bb20 f i fms_config.obj
 0001:0000ab20       ??$?0AAV?$_Tree_iterator@V?$_Tree_val@U?$_Tree_simple_types@U?$pair@$$CBV?$basic_string@DU?$char_traits@D@std@@V?$allocator@D@2@@std@@V12@@std@@@std@@@std@@@std@@_NX@?$pair@V?$_Tree_iterator@V?$_Tree_val@U?$_Tree_simple_types@U?$pair@$$CBV?$basic_string@DU?$char_traits@D@std@@V?$allocator@D@2@@std@@V12@@std@@@std@@@std@@@std@@_N@std@@QAE@AAV?$_Tree_iterator@V?$_Tree_val@U?$_Tree_simple_types@U?$pair@$$CBV?$basic_string@DU?$char_traits@D@std@@V?$allocator@D@2@@std@@V12@@std@@@std@@@std@@@1@$$QA_N@Z 1000bb20 f i tools.obj
 0001:0000ab20       ??$?0V?$_Tree_iterator@V?$_Tree_val@U?$_Tree_simple_types@U?$pair@$$CBV?$basic_string@DU?$char_traits@D@std@@V?$allocator@D@2@@std@@H@std@@@std@@@std@@@std@@_NX@?$pair@V?$_Tree_iterator@V?$_Tree_val@U?$_Tree_simple_types@U?$pair@$$CBV?$basic_string@DU?$char_traits@D@std@@V?$allocator@D@2@@std@@H@std@@@std@@@std@@@std@@_N@std@@QAE@$$QAV?$_Tree_iterator@V?$_Tree_val@U?$_Tree_simple_types@U?$pair@$$CBV?$basic_string@DU?$char_traits@D@std@@V?$allocator@D@2@@std@@H@std@@@std@@@std@@@1@$$QA_N@Z 1000bb20 f i mfdpage.obj
 0001:0000ab20       ??$?0V?$_Tree_const_iterator@V?$_Tree_val@U?$_Tree_simple_types@PAVobject_t@@@std@@@std@@@std@@_NX@?$pair@V?$_Tree_const_iterator@V?$_Tree_val@U?$_Tree_simple_types@PAVobject_t@@@std@@@std@@@std@@_N@std@@QAE@$$QAV?$_Tree_const_iterator@V?$_Tree_val@U?$_Tree_simple_types@PAVobject_t@@@std@@@std@@@1@$$QA_N@Z 1000bb20 f i data.obj
 0001:0000ab20       ??$?0AAV?$_Tree_iterator@V?$_Tree_val@U?$_Tree_simple_types@U?$pair@$$CBV?$basic_string@DU?$char_traits@D@std@@V?$allocator@D@2@@std@@D@std@@@std@@@std@@@std@@_NX@?$pair@V?$_Tree_iterator@V?$_Tree_val@U?$_Tree_simple_types@U?$pair@$$CBV?$basic_string@DU?$char_traits@D@std@@V?$allocator@D@2@@std@@D@std@@@std@@@std@@@std@@_N@std@@QAE@AAV?$_Tree_iterator@V?$_Tree_val@U?$_Tree_simple_types@U?$pair@$$CBV?$basic_string@DU?$char_traits@D@std@@V?$allocator@D@2@@std@@D@std@@@std@@@std@@@1@$$QA_N@Z 1000bb20 f i mfdpage.obj
 0001:0000ab20       ??$?0V?$_Tree_const_iterator@V?$_Tree_val@U?$_Tree_simple_types@PAVmfdpage_t@@@std@@@std@@@std@@_NX@?$pair@V?$_Tree_const_iterator@V?$_Tree_val@U?$_Tree_simple_types@PAVmfdpage_t@@@std@@@std@@@std@@_N@std@@QAE@$$QAV?$_Tree_const_iterator@V?$_Tree_val@U?$_Tree_simple_types@PAVmfdpage_t@@@std@@@std@@@1@$$QA_N@Z 1000bb20 f i in.obj
 0001:0000ab20       ??$?0AAV?$_Tree_iterator@V?$_Tree_val@U?$_Tree_simple_types@U?$pair@$$CBV?$basic_string@DU?$char_traits@D@std@@V?$allocator@D@2@@std@@H@std@@@std@@@std@@@std@@_NX@?$pair@V?$_Tree_iterator@V?$_Tree_val@U?$_Tree_simple_types@U?$pair@$$CBV?$basic_string@DU?$char_traits@D@std@@V?$allocator@D@2@@std@@H@std@@@std@@@std@@@std@@_N@std@@QAE@AAV?$_Tree_iterator@V?$_Tree_val@U?$_Tree_simple_types@U?$pair@$$CBV?$basic_string@DU?$char_traits@D@std@@V?$allocator@D@2@@std@@H@std@@@std@@@std@@@1@$$QA_N@Z 1000bb20 f i mfdpage.obj
 0001:0000ab20       ??$?0V?$_Tree_iterator@V?$_Tree_val@U?$_Tree_simple_types@U?$pair@$$CBHM@std@@@std@@@std@@@std@@_NX@?$pair@V?$_Tree_iterator@V?$_Tree_val@U?$_Tree_simple_types@U?$pair@$$CBHM@std@@@std@@@std@@@std@@_N@std@@QAE@$$QAV?$_Tree_iterator@V?$_Tree_val@U?$_Tree_simple_types@U?$pair@$$CBHM@std@@@std@@@std@@@1@$$QA_N@Z 1000bb20 f i fms_config.obj
 0001:0000ab20       ??$?0AAV?$_Tree_iterator@V?$_Tree_val@U?$_Tree_simple_types@U?$pair@$$CBHPAVobject_t@@@std@@@std@@@std@@@std@@_NX@?$pair@V?$_Tree_iterator@V?$_Tree_val@U?$_Tree_simple_types@U?$pair@$$CBHPAVobject_t@@@std@@@std@@@std@@@std@@_N@std@@QAE@AAV?$_Tree_iterator@V?$_Tree_val@U?$_Tree_simple_types@U?$pair@$$CBHPAVobject_t@@@std@@@std@@@std@@@1@$$QA_N@Z 1000bb20 f i mfdpage.obj
 0001:0000ab20       ??$?0V?$_Tree_iterator@V?$_Tree_val@U?$_Tree_simple_types@U?$pair@$$CBV?$basic_string@DU?$char_traits@D@std@@V?$allocator@D@2@@std@@M@std@@@std@@@std@@@std@@_NX@?$pair@V?$_Tree_iterator@V?$_Tree_val@U?$_Tree_simple_types@U?$pair@$$CBV?$basic_string@DU?$char_traits@D@std@@V?$allocator@D@2@@std@@M@std@@@std@@@std@@@std@@_N@std@@QAE@$$QAV?$_Tree_iterator@V?$_Tree_val@U?$_Tree_simple_types@U?$pair@$$CBV?$basic_string@DU?$char_traits@D@std@@V?$allocator@D@2@@std@@M@std@@@std@@@std@@@1@$$QA_N@Z 1000bb20 f i mfdpage_fms.obj
 0001:0000ab20       ??$?0AAV?$_Tree_iterator@V?$_Tree_val@U?$_Tree_simple_types@U?$pair@$$CBHM@std@@@std@@@std@@@std@@_NX@?$pair@V?$_Tree_iterator@V?$_Tree_val@U?$_Tree_simple_types@U?$pair@$$CBHM@std@@@std@@@std@@@std@@_N@std@@QAE@AAV?$_Tree_iterator@V?$_Tree_val@U?$_Tree_simple_types@U?$pair@$$CBHM@std@@@std@@@std@@@1@$$QA_N@Z 1000bb20 f i fms_config.obj
 0001:0000ab20       ??$?0V?$_Tree_iterator@V?$_Tree_val@U?$_Tree_simple_types@U?$pair@$$CBHV?$basic_string@DU?$char_traits@D@std@@V?$allocator@D@2@@std@@@std@@@std@@@std@@@std@@_NX@?$pair@V?$_Tree_iterator@V?$_Tree_val@U?$_Tree_simple_types@U?$pair@$$CBHV?$basic_string@DU?$char_traits@D@std@@V?$allocator@D@2@@std@@@std@@@std@@@std@@@std@@_N@std@@QAE@$$QAV?$_Tree_iterator@V?$_Tree_val@U?$_Tree_simple_types@U?$pair@$$CBHV?$basic_string@DU?$char_traits@D@std@@V?$allocator@D@2@@std@@@std@@@std@@@std@@@1@$$QA_N@Z 1000bb20 f i out_saitek.obj
 0001:0000ab60       ??$forward@ABQAVobject_t@@@std@@YAABQAVobject_t@@ABQAV1@@Z 1000bb60 f i data.obj
 0001:0000ab60       ??$forward@AAU?$pair@$$CBHV?$basic_string@DU?$char_traits@D@std@@V?$allocator@D@2@@std@@@std@@@std@@YAAAU?$pair@$$CBHV?$basic_string@DU?$char_traits@D@std@@V?$allocator@D@2@@std@@@0@AAU10@@Z 1000bb60 f i out_saitek.obj
 0001:0000ab60       ??$forward@AAV?$_Tree_iterator@V?$_Tree_val@U?$_Tree_simple_types@U?$pair@$$CBHPAVfms_fp_item_t@@@std@@@std@@@std@@@std@@@std@@YAAAV?$_Tree_iterator@V?$_Tree_val@U?$_Tree_simple_types@U?$pair@$$CBHPAVfms_fp_item_t@@@std@@@std@@@std@@@0@AAV10@@Z 1000bb60 f i mfdpage_fms.obj
 0001:0000ab60       ??$addressof@PAU?$_Tree_node@U?$pair@$$CBV?$basic_string@DU?$char_traits@D@std@@V?$allocator@D@2@@std@@D@std@@PAX@std@@@std@@YAPAPAU?$_Tree_node@U?$pair@$$CBV?$basic_string@DU?$char_traits@D@std@@V?$allocator@D@2@@std@@D@std@@PAX@0@AAPAU10@@Z 1000bb60 f i mfdpage.obj
 0001:0000ab60       ??$_Kfn@$$CBV?$basic_string@DU?$char_traits@D@std@@V?$allocator@D@2@@std@@V12@@?$_Tmap_traits@V?$basic_string@DU?$char_traits@D@std@@V?$allocator@D@2@@std@@V12@U?$less@V?$basic_string@DU?$char_traits@D@std@@V?$allocator@D@2@@std@@@2@V?$allocator@U?$pair@$$CBV?$basic_string@DU?$char_traits@D@std@@V?$allocator@D@2@@std@@V12@@std@@@2@$0A@@std@@SAABV?$basic_string@DU?$char_traits@D@std@@V?$allocator@D@2@@1@ABU?$pair@$$CBV?$basic_string@DU?$char_traits@D@std@@V?$allocator@D@2@@std@@V12@@1@@Z 1000bb60 f i tools.obj
 0001:0000ab60       ??$forward@ABUpiecewise_construct_t@std@@@std@@YAABUpiecewise_construct_t@0@ABU10@@Z 1000bb60 f i tools.obj
 0001:0000ab60       ??$forward@V?$_Tree_iterator@V?$_Tree_val@U?$_Tree_simple_types@U?$pair@$$CBHM@std@@@std@@@std@@@std@@@std@@YA$$QAV?$_Tree_iterator@V?$_Tree_val@U?$_Tree_simple_types@U?$pair@$$CBHM@std@@@std@@@std@@@0@AAV10@@Z 1000bb60 f i fms_config.obj
 0001:0000ab60       ?_Left@?$_Tree_val@U?$_Tree_simple_types@PAVmfdpage_t@@@std@@@std@@SAAAPAU?$_Tree_node@PAVmfdpage_t@@PAX@2@PAU32@@Z 1000bb60 f i in.obj
 0001:0000ab60       ??$move@AAV?$basic_istream@DU?$char_traits@D@std@@@std@@@std@@YA$$QAV?$basic_istream@DU?$char_traits@D@std@@@0@AAV10@@Z 1000bb60 f i mfdpage.obj
 0001:0000ab60       ??$move@AAH@std@@YA$$QAHAAH@Z 1000bb60 f i mfdpage_fms.obj
 0001:0000ab60       ??$forward@ABV?$basic_string@DU?$char_traits@D@std@@V?$allocator@D@2@@std@@@std@@YAABV?$basic_string@DU?$char_traits@D@std@@V?$allocator@D@2@@0@ABV10@@Z 1000bb60 f i mfdpage.obj
 0001:0000ab60       ??$move@AAV?$map@V?$basic_string@DU?$char_traits@D@std@@V?$allocator@D@2@@std@@V12@U?$less@V?$basic_string@DU?$char_traits@D@std@@V?$allocator@D@2@@std@@@2@V?$allocator@U?$pair@$$CBV?$basic_string@DU?$char_traits@D@std@@V?$allocator@D@2@@std@@V12@@std@@@2@@std@@@std@@YA$$QAV?$map@V?$basic_string@DU?$char_traits@D@std@@V?$allocator@D@2@@std@@V12@U?$less@V?$basic_string@DU?$char_traits@D@std@@V?$allocator@D@2@@std@@@2@V?$allocator@U?$pair@$$CBV?$basic_string@DU?$char_traits@D@std@@V?$allocator@D@2@@std@@V12@@std@@@2@@0@AAV10@@Z 1000bb60 f i mfdpage_led.obj
 0001:0000ab60       ??$addressof@U?$pair@$$CBHPAVobject_t@@@std@@@std@@YAPAU?$pair@$$CBHPAVobject_t@@@0@AAU10@@Z 1000bb60 f i mfdpage.obj
 0001:0000ab60       ??$addressof@U?$pair@$$CBV?$basic_string@DU?$char_traits@D@std@@V?$allocator@D@2@@std@@H@std@@@std@@YAPAU?$pair@$$CBV?$basic_string@DU?$char_traits@D@std@@V?$allocator@D@2@@std@@H@0@AAU10@@Z 1000bb60 f i mfdpage.obj
 0001:0000ab60       ??$move@AAV?$tuple@ABH@std@@@std@@YA$$QAV?$tuple@ABH@0@AAV10@@Z 1000bb60 f i out_saitek.obj
 0001:0000ab60       ??$addressof@U?$pair@$$CBV?$basic_string@DU?$char_traits@D@std@@V?$allocator@D@2@@std@@M@std@@@std@@YAPAU?$pair@$$CBV?$basic_string@DU?$char_traits@D@std@@V?$allocator@D@2@@std@@M@0@AAU10@@Z 1000bb60 f i mfdpage_fms.obj
 0001:0000ab60       ??$forward@AAV?$_Tree_iterator@V?$_Tree_val@U?$_Tree_simple_types@U?$pair@$$CBHM@std@@@std@@@std@@@std@@@std@@YAAAV?$_Tree_iterator@V?$_Tree_val@U?$_Tree_simple_types@U?$pair@$$CBHM@std@@@std@@@std@@@0@AAV10@@Z 1000bb60 f i fms_config.obj
 0001:0000ab60       ??$forward@AAV?$_Tree_iterator@V?$_Tree_val@U?$_Tree_simple_types@U?$pair@$$CBV?$basic_string@DU?$char_traits@D@std@@V?$allocator@D@2@@std@@V12@@std@@@std@@@std@@@std@@@std@@YAAAV?$_Tree_iterator@V?$_Tree_val@U?$_Tree_simple_types@U?$pair@$$CBV?$basic_string@DU?$char_traits@D@std@@V?$allocator@D@2@@std@@V12@@std@@@std@@@std@@@0@AAV10@@Z 1000bb60 f i tools.obj
 0001:0000ab60       ??$forward@V?$_Tree_const_iterator@V?$_Tree_val@U?$_Tree_simple_types@PAVlistener_t@@@std@@@std@@@std@@@std@@YA$$QAV?$_Tree_const_iterator@V?$_Tree_val@U?$_Tree_simple_types@PAVlistener_t@@@std@@@std@@@0@AAV10@@Z 1000bb60 f i data.obj
 0001:0000ab60       ??$forward@AAV?$_Tree_iterator@V?$_Tree_val@U?$_Tree_simple_types@U?$pair@$$CBV?$basic_string@DU?$char_traits@D@std@@V?$allocator@D@2@@std@@PAVfms_fp_item_t@@@std@@@std@@@std@@@std@@@std@@YAAAV?$_Tree_iterator@V?$_Tree_val@U?$_Tree_simple_types@U?$pair@$$CBV?$basic_string@DU?$char_traits@D@std@@V?$allocator@D@2@@std@@PAVfms_fp_item_t@@@std@@@std@@@std@@@0@AAV10@@Z 1000bb60 f i fms_fp.obj
 0001:0000ab60       ??$forward@H@std@@YA$$QAHAAH@Z 1000bb60 f i mfdpage_fms.obj
 0001:0000ab60       ??$addressof@PAU?$_Tree_node@U?$pair@$$CBHPAVfms_fp_item_t@@@std@@PAX@std@@@std@@YAPAPAU?$_Tree_node@U?$pair@$$CBHPAVfms_fp_item_t@@@std@@PAX@0@AAPAU10@@Z 1000bb60 f i mfdpage_fms.obj
 0001:0000ab60       ??$_Kfn@$$CBHPAVfms_fp_item_t@@@?$_Tmap_traits@HPAVfms_fp_item_t@@U?$less@H@std@@V?$allocator@U?$pair@$$CBHPAVfms_fp_item_t@@@std@@@3@$0A@@std@@SAABHABU?$pair@$$CBHPAVfms_fp_item_t@@@1@@Z 1000bb60 f i mfdpage_fms.obj
 0001:0000ab60       ?_Kfn@?$_Tset_traits@PAVmfdpage_t@@U?$less@PAVmfdpage_t@@@std@@V?$allocator@PAVmfdpage_t@@@3@$0A@@std@@SAABQAVmfdpage_t@@ABQAV3@@Z 1000bb60 f i in.obj
 0001:0000ab60       ??$forward@V?$tuple@$$$V@std@@@std@@YA$$QAV?$tuple@$$$V@0@AAV10@@Z 1000bb60 f i tools.obj
 0001:0000ab60       ??$forward@AAU?$pair@$$CBV?$basic_string@DU?$char_traits@D@std@@V?$allocator@D@2@@std@@H@std@@@std@@YAAAU?$pair@$$CBV?$basic_string@DU?$char_traits@D@std@@V?$allocator@D@2@@std@@H@0@AAU10@@Z 1000bb60 f i mfdpage.obj
 0001:0000ab60       ??$forward@V?$basic_string@DU?$char_traits@D@std@@V?$allocator@D@2@@std@@@std@@YA$$QAV?$basic_string@DU?$char_traits@D@std@@V?$allocator@D@2@@0@AAV10@@Z 1000bb60 f i tools.obj
 0001:0000ab60       ??$forward@AAU?$pair@$$CBV?$basic_string@DU?$char_traits@D@std@@V?$allocator@D@2@@std@@V12@@std@@@std@@YAAAU?$pair@$$CBV?$basic_string@DU?$char_traits@D@std@@V?$allocator@D@2@@std@@V12@@0@AAU10@@Z 1000bb60 f i tools.obj
 0001:0000ab60       ??$forward@AAPAU?$_Tree_node@U?$pair@$$CBHPAVfms_fp_item_t@@@std@@PAX@std@@@std@@YAAAPAU?$_Tree_node@U?$pair@$$CBHPAVfms_fp_item_t@@@std@@PAX@0@AAPAU10@@Z 1000bb60 f i mfdpage_fms.obj
 0001:0000ab60       ??$forward@AAV?$_Tree_iterator@V?$_Tree_val@U?$_Tree_simple_types@U?$pair@$$CBHPAVobject_t@@@std@@@std@@@std@@@std@@@std@@YAAAV?$_Tree_iterator@V?$_Tree_val@U?$_Tree_simple_types@U?$pair@$$CBHPAVobject_t@@@std@@@std@@@std@@@0@AAV10@@Z 1000bb60 f i mfdpage.obj
 0001:0000ab60       ??$forward@$$QAV?$basic_string@DU?$char_traits@D@std@@V?$allocator@D@2@@std@@@std@@YA$$QAV?$basic_string@DU?$char_traits@D@std@@V?$allocator@D@2@@0@AAV10@@Z 1000bb60 f i tools.obj
 0001:0000ab60       ?_Left@?$_Tree_val@U?$_Tree_simple_types@U?$pair@$$CBV?$basic_string@DU?$char_traits@D@std@@V?$allocator@D@2@@std@@PAVfms_config_item_t@@@std@@@std@@@std@@SAAAPAU?$_Tree_node@U?$pair@$$CBV?$basic_string@DU?$char_traits@D@std@@V?$allocator@D@2@@std@@PAVfms_config_item_t@@@std@@PAX@2@PAU32@@Z 1000bb60 f i fms_config.obj
 0001:0000ab60       ?_Left@?$_Tree_val@U?$_Tree_simple_types@U?$pair@$$CBV?$basic_string@DU?$char_traits@D@std@@V?$allocator@D@2@@std@@D@std@@@std@@@std@@SAAAPAU?$_Tree_node@U?$pair@$$CBV?$basic_string@DU?$char_traits@D@std@@V?$allocator@D@2@@std@@D@std@@PAX@2@PAU32@@Z 1000bb60 f i mfdpage.obj
 0001:0000ab60       ??$_Move@AAD@std@@YA$$QADAAD@Z 1000bb60 f i tools.obj
 0001:0000ab60       ??$addressof@PAU?$_Tree_node@U?$pair@$$CBV?$basic_string@DU?$char_traits@D@std@@V?$allocator@D@2@@std@@M@std@@PAX@std@@@std@@YAPAPAU?$_Tree_node@U?$pair@$$CBV?$basic_string@DU?$char_traits@D@std@@V?$allocator@D@2@@std@@M@std@@PAX@0@AAPAU10@@Z 1000bb60 f i mfdpage_fms.obj
 0001:0000ab60       ??$_Kfn@$$CBV?$basic_string@DU?$char_traits@D@std@@V?$allocator@D@2@@std@@PAVfms_fp_item_t@@@?$_Tmap_traits@V?$basic_string@DU?$char_traits@D@std@@V?$allocator@D@2@@std@@PAVfms_fp_item_t@@U?$less@V?$basic_string@DU?$char_traits@D@std@@V?$allocator@D@2@@std@@@2@V?$allocator@U?$pair@$$CBV?$basic_string@DU?$char_traits@D@std@@V?$allocator@D@2@@std@@PAVfms_fp_item_t@@@std@@@2@$0A@@std@@SAABV?$basic_string@DU?$char_traits@D@std@@V?$allocator@D@2@@1@ABU?$pair@$$CBV?$basic_string@DU?$char_traits@D@std@@V?$allocator@D@2@@std@@PAVfms_fp_item_t@@@1@@Z 1000bb60 f i fms_fp.obj
 0001:0000ab60       ??$forward@AAPAU?$_Tree_node@U?$pair@$$CBV?$basic_string@DU?$char_traits@D@std@@V?$allocator@D@2@@std@@PAVfms_fp_item_t@@@std@@PAX@std@@@std@@YAAAPAU?$_Tree_node@U?$pair@$$CBV?$basic_string@DU?$char_traits@D@std@@V?$allocator@D@2@@std@@PAVfms_fp_item_t@@@std@@PAX@0@AAPAU10@@Z 1000bb60 f i fms_fp.obj
 0001:0000ab60       ??$forward@AAPAU?$_Tree_node@U?$pair@$$CBHV?$basic_string@DU?$char_traits@D@std@@V?$allocator@D@2@@std@@@std@@PAX@std@@@std@@YAAAPAU?$_Tree_node@U?$pair@$$CBHV?$basic_string@DU?$char_traits@D@std@@V?$allocator@D@2@@std@@@std@@PAX@0@AAPAU10@@Z 1000bb60 f i out_saitek.obj
 0001:0000ab60       ??$forward@V?$_Tree_const_iterator@V?$_Tree_val@U?$_Tree_simple_types@PAVmfdpage_t@@@std@@@std@@@std@@@std@@YA$$QAV?$_Tree_const_iterator@V?$_Tree_val@U?$_Tree_simple_types@PAVmfdpage_t@@@std@@@std@@@0@AAV10@@Z 1000bb60 f i in.obj
 0001:0000ab60       ??$addressof@PAU?$_Tree_node@U?$pair@$$CBV?$basic_string@DU?$char_traits@D@std@@V?$allocator@D@2@@std@@PAVfms_fp_item_t@@@std@@PAX@std@@@std@@YAPAPAU?$_Tree_node@U?$pair@$$CBV?$basic_string@DU?$char_traits@D@std@@V?$allocator@D@2@@std@@PAVfms_fp_item_t@@@std@@PAX@0@AAPAU10@@Z 1000bb60 f i fms_fp.obj
 0001:0000ab60       ??$forward@$$QAH@std@@YA$$QAHAAH@Z 1000bb60 f i mfdpage_fms.obj
 0001:0000ab60       ??$forward@AAPAU?$_Tree_node@U?$pair@$$CBHM@std@@PAX@std@@@std@@YAAAPAU?$_Tree_node@U?$pair@$$CBHM@std@@PAX@0@AAPAU10@@Z 1000bb60 f i fms_config.obj
 0001:0000ab60       ??$forward@V?$tuple@ABH@std@@@std@@YA$$QAV?$tuple@ABH@0@AAV10@@Z 1000bb60 f i out_saitek.obj
 0001:0000ab60       ??$forward@AAV?$_Tree_iterator@V?$_Tree_val@U?$_Tree_simple_types@U?$pair@$$CBV?$basic_string@DU?$char_traits@D@std@@V?$allocator@D@2@@std@@H@std@@@std@@@std@@@std@@@std@@YAAAV?$_Tree_iterator@V?$_Tree_val@U?$_Tree_simple_types@U?$pair@$$CBV?$basic_string@DU?$char_traits@D@std@@V?$allocator@D@2@@std@@H@std@@@std@@@std@@@0@AAV10@@Z 1000bb60 f i mfdpage.obj
 0001:0000ab60       ?_Left@?$_Tree_val@U?$_Tree_simple_types@PAVlistener_t@@@std@@@std@@SAAAPAU?$_Tree_node@PAVlistener_t@@PAX@2@PAU32@@Z 1000bb60 f i data.obj
 0001:0000ab60       ??$addressof@U?$pair@$$CBV?$basic_string@DU?$char_traits@D@std@@V?$allocator@D@2@@std@@V12@@std@@@std@@YAPAU?$pair@$$CBV?$basic_string@DU?$char_traits@D@std@@V?$allocator@D@2@@std@@V12@@0@AAU10@@Z 1000bb60 f i tools.obj
 0001:0000ab60       ??$forward@V?$_Tree_iterator@V?$_Tree_val@U?$_Tree_simple_types@U?$pair@$$CBV?$basic_string@DU?$char_traits@D@std@@V?$allocator@D@2@@std@@H@std@@@std@@@std@@@std@@@std@@YA$$QAV?$_Tree_iterator@V?$_Tree_val@U?$_Tree_simple_types@U?$pair@$$CBV?$basic_string@DU?$char_traits@D@std@@V?$allocator@D@2@@std@@H@std@@@std@@@std@@@0@AAV10@@Z 1000bb60 f i mfdpage.obj
 0001:0000ab60       ??$addressof@PAU?$_Tree_node@PAVmfdpage_t@@PAX@std@@@std@@YAPAPAU?$_Tree_node@PAVmfdpage_t@@PAX@0@AAPAU10@@Z 1000bb60 f i in.obj
 0001:0000ab60       ??$forward@AAU?$pair@$$CBHPAVfms_fp_item_t@@@std@@@std@@YAAAU?$pair@$$CBHPAVfms_fp_item_t@@@0@AAU10@@Z 1000bb60 f i mfdpage_fms.obj
 0001:0000ab60       ??$forward@AAPAU?$_Tree_node@U?$pair@$$CBV?$basic_string@DU?$char_traits@D@std@@V?$allocator@D@2@@std@@M@std@@PAX@std@@@std@@YAAAPAU?$_Tree_node@U?$pair@$$CBV?$basic_string@DU?$char_traits@D@std@@V?$allocator@D@2@@std@@M@std@@PAX@0@AAPAU10@@Z 1000bb60 f i mfdpage_fms.obj
 0001:0000ab60       ??$forward@AAPAU?$_Tree_node@PAVlistener_t@@PAX@std@@@std@@YAAAPAU?$_Tree_node@PAVlistener_t@@PAX@0@AAPAU10@@Z 1000bb60 f i data.obj
 0001:0000ab60       ??$addressof@U?$pair@$$CBV?$basic_string@DU?$char_traits@D@std@@V?$allocator@D@2@@std@@PAVfms_config_item_t@@@std@@@std@@YAPAU?$pair@$$CBV?$basic_string@DU?$char_traits@D@std@@V?$allocator@D@2@@std@@PAVfms_config_item_t@@@0@AAU10@@Z 1000bb60 f i fms_config.obj
 0001:0000ab60       ??$addressof@PAU?$_Tree_node@U?$pair@$$CBHV?$basic_string@DU?$char_traits@D@std@@V?$allocator@D@2@@std@@@std@@PAX@std@@@std@@YAPAPAU?$_Tree_node@U?$pair@$$CBHV?$basic_string@DU?$char_traits@D@std@@V?$allocator@D@2@@std@@@std@@PAX@0@AAPAU10@@Z 1000bb60 f i out_saitek.obj
 0001:0000ab60       ?_Left@?$_Tree_val@U?$_Tree_simple_types@U?$pair@$$CBV?$basic_string@DU?$char_traits@D@std@@V?$allocator@D@2@@std@@H@std@@@std@@@std@@SAAAPAU?$_Tree_node@U?$pair@$$CBV?$basic_string@DU?$char_traits@D@std@@V?$allocator@D@2@@std@@H@std@@PAX@2@PAU32@@Z 1000bb60 f i mfdpage.obj
 0001:0000ab60       ??$move@AAV?$tuple@ABV?$basic_string@DU?$char_traits@D@std@@V?$allocator@D@2@@std@@@std@@@std@@YA$$QAV?$tuple@ABV?$basic_string@DU?$char_traits@D@std@@V?$allocator@D@2@@std@@@0@AAV10@@Z 1000bb60 f i mfdpage.obj
 0001:0000ab60       ??$_Kfn@$$CBV?$basic_string@DU?$char_traits@D@std@@V?$allocator@D@2@@std@@H@?$_Tmap_traits@V?$basic_string@DU?$char_traits@D@std@@V?$allocator@D@2@@std@@HU?$less@V?$basic_string@DU?$char_traits@D@std@@V?$allocator@D@2@@std@@@2@V?$allocator@U?$pair@$$CBV?$basic_string@DU?$char_traits@D@std@@V?$allocator@D@2@@std@@H@std@@@2@$0A@@std@@SAABV?$basic_string@DU?$char_traits@D@std@@V?$allocator@D@2@@1@ABU?$pair@$$CBV?$basic_string@DU?$char_traits@D@std@@V?$allocator@D@2@@std@@H@1@@Z 1000bb60 f i mfdpage.obj
 0001:0000ab60       ??$forward@V?$_Tree_iterator@V?$_Tree_val@U?$_Tree_simple_types@U?$pair@$$CBHV?$basic_string@DU?$char_traits@D@std@@V?$allocator@D@2@@std@@@std@@@std@@@std@@@std@@@std@@YA$$QAV?$_Tree_iterator@V?$_Tree_val@U?$_Tree_simple_types@U?$pair@$$CBHV?$basic_string@DU?$char_traits@D@std@@V?$allocator@D@2@@std@@@std@@@std@@@std@@@0@AAV10@@Z 1000bb60 f i out_saitek.obj
 0001:0000ab60       ??$move@AAV?$tuple@$$QAH@std@@@std@@YA$$QAV?$tuple@$$QAH@0@AAV10@@Z 1000bb60 f i mfdpage_fms.obj
 0001:0000ab60       ??$addressof@U?$pair@$$CBV?$basic_string@DU?$char_traits@D@std@@V?$allocator@D@2@@std@@D@std@@@std@@YAPAU?$pair@$$CBV?$basic_string@DU?$char_traits@D@std@@V?$allocator@D@2@@std@@D@0@AAU10@@Z 1000bb60 f i mfdpage.obj
 0001:0000ab60       ??$_Move@AAPAU?$_Tree_node@U?$pair@$$CBV?$basic_string@DU?$char_traits@D@std@@V?$allocator@D@2@@std@@V12@@std@@PAX@std@@@std@@YA$$QAPAU?$_Tree_node@U?$pair@$$CBV?$basic_string@DU?$char_traits@D@std@@V?$allocator@D@2@@std@@V12@@std@@PAX@0@AAPAU10@@Z 1000bb60 f i mfdpage_led.obj
 0001:0000ab60       ??$addressof@PAU?$_Tree_node@PAVobject_t@@PAX@std@@@std@@YAPAPAU?$_Tree_node@PAVobject_t@@PAX@0@AAPAU10@@Z 1000bb60 f i data.obj
 0001:0000ab60       ??$addressof@PAU?$_Tree_node@U?$pair@$$CBHPAVobject_t@@@std@@PAX@std@@@std@@YAPAPAU?$_Tree_node@U?$pair@$$CBHPAVobject_t@@@std@@PAX@0@AAPAU10@@Z 1000bb60 f i mfdpage.obj
 0001:0000ab60       ??$forward@AAV?$_Tree_iterator@V?$_Tree_val@U?$_Tree_simple_types@U?$pair@$$CBV?$basic_string@DU?$char_traits@D@std@@V?$allocator@D@2@@std@@PAVfms_config_item_t@@@std@@@std@@@std@@@std@@@std@@YAAAV?$_Tree_iterator@V?$_Tree_val@U?$_Tree_simple_types@U?$pair@$$CBV?$basic_string@DU?$char_traits@D@std@@V?$allocator@D@2@@std@@PAVfms_config_item_t@@@std@@@std@@@std@@@0@AAV10@@Z 1000bb60 f i fms_config.obj
 0001:0000ab60       ??$addressof@U?$pair@$$CBV?$basic_string@DU?$char_traits@D@std@@V?$allocator@D@2@@std@@PAVfms_fp_item_t@@@std@@@std@@YAPAU?$pair@$$CBV?$basic_string@DU?$char_traits@D@std@@V?$allocator@D@2@@std@@PAVfms_fp_item_t@@@0@AAU10@@Z 1000bb60 f i fms_fp.obj
 0001:0000ab60       ??$forward@AAU?$pair@$$CBV?$basic_string@DU?$char_traits@D@std@@V?$allocator@D@2@@std@@PAVfms_fp_item_t@@@std@@@std@@YAAAU?$pair@$$CBV?$basic_string@DU?$char_traits@D@std@@V?$allocator@D@2@@std@@PAVfms_fp_item_t@@@0@AAU10@@Z 1000bb60 f i fms_fp.obj
 0001:0000ab60       ??$_Kfn@$$CBV?$basic_string@DU?$char_traits@D@std@@V?$allocator@D@2@@std@@D@?$_Tmap_traits@V?$basic_string@DU?$char_traits@D@std@@V?$allocator@D@2@@std@@DU?$less@V?$basic_string@DU?$char_traits@D@std@@V?$allocator@D@2@@std@@@2@V?$allocator@U?$pair@$$CBV?$basic_string@DU?$char_traits@D@std@@V?$allocator@D@2@@std@@D@std@@@2@$0A@@std@@SAABV?$basic_string@DU?$char_traits@D@std@@V?$allocator@D@2@@1@ABU?$pair@$$CBV?$basic_string@DU?$char_traits@D@std@@V?$allocator@D@2@@std@@D@1@@Z 1000bb60 f i mfdpage.obj
 0001:0000ab60       ?_Left@?$_Tree_val@U?$_Tree_simple_types@U?$pair@$$CBHPAVobject_t@@@std@@@std@@@std@@SAAAPAU?$_Tree_node@U?$pair@$$CBHPAVobject_t@@@std@@PAX@2@PAU32@@Z 1000bb60 f i mfdpage.obj
 0001:0000ab60       ??$forward@AAPAU?$_Tree_node@U?$pair@$$CBV?$basic_string@DU?$char_traits@D@std@@V?$allocator@D@2@@std@@PAVfms_config_item_t@@@std@@PAX@std@@@std@@YAAAPAU?$_Tree_node@U?$pair@$$CBV?$basic_string@DU?$char_traits@D@std@@V?$allocator@D@2@@std@@PAVfms_config_item_t@@@std@@PAX@0@AAPAU10@@Z 1000bb60 f i fms_config.obj
 0001:0000ab60       ?_Left@?$_Tree_val@U?$_Tree_simple_types@PAVobject_t@@@std@@@std@@SAAAPAU?$_Tree_node@PAVobject_t@@PAX@2@PAU32@@Z 1000bb60 f i data.obj
 0001:0000ab60       ??$forward@AAU?$pair@$$CBHPAVobject_t@@@std@@@std@@YAAAU?$pair@$$CBHPAVobject_t@@@0@AAU10@@Z 1000bb60 f i mfdpage.obj
 0001:0000ab60       ??$forward@AAPAU?$_Tree_node@U?$pair@$$CBHPAVobject_t@@@std@@PAX@std@@@std@@YAAAPAU?$_Tree_node@U?$pair@$$CBHPAVobject_t@@@std@@PAX@0@AAPAU10@@Z 1000bb60 f i mfdpage.obj
 0001:0000ab60       ??$_Kfn@$$CBV?$basic_string@DU?$char_traits@D@std@@V?$allocator@D@2@@std@@M@?$_Tmap_traits@V?$basic_string@DU?$char_traits@D@std@@V?$allocator@D@2@@std@@MU?$less@V?$basic_string@DU?$char_traits@D@std@@V?$allocator@D@2@@std@@@2@V?$allocator@U?$pair@$$CBV?$basic_string@DU?$char_traits@D@std@@V?$allocator@D@2@@std@@M@std@@@2@$0A@@std@@SAABV?$basic_string@DU?$char_traits@D@std@@V?$allocator@D@2@@1@ABU?$pair@$$CBV?$basic_string@DU?$char_traits@D@std@@V?$allocator@D@2@@std@@M@1@@Z 1000bb60 f i mfdpage_fms.obj
 0001:0000ab60       ??$move@AAV?$basic_string@DU?$char_traits@D@std@@V?$allocator@D@2@@std@@@std@@YA$$QAV?$basic_string@DU?$char_traits@D@std@@V?$allocator@D@2@@0@AAV10@@Z 1000bb60 f i tools.obj
 0001:0000ab60       ??$forward@V?$_Tree@V?$_Tmap_traits@V?$basic_string@DU?$char_traits@D@std@@V?$allocator@D@2@@std@@V12@U?$less@V?$basic_string@DU?$char_traits@D@std@@V?$allocator@D@2@@std@@@2@V?$allocator@U?$pair@$$CBV?$basic_string@DU?$char_traits@D@std@@V?$allocator@D@2@@std@@V12@@std@@@2@$0A@@std@@@std@@@std@@YA$$QAV?$_Tree@V?$_Tmap_traits@V?$basic_string@DU?$char_traits@D@std@@V?$allocator@D@2@@std@@V12@U?$less@V?$basic_string@DU?$char_traits@D@std@@V?$allocator@D@2@@std@@@2@V?$allocator@U?$pair@$$CBV?$basic_string@DU?$char_traits@D@std@@V?$allocator@D@2@@std@@V12@@std@@@2@$0A@@std@@@0@AAV10@@Z 1000bb60 f i mfdpage_led.obj
 0001:0000ab60       ??$forward@V?$tuple@ABV?$basic_string@DU?$char_traits@D@std@@V?$allocator@D@2@@std@@@std@@@std@@YA$$QAV?$tuple@ABV?$basic_string@DU?$char_traits@D@std@@V?$allocator@D@2@@std@@@0@AAV10@@Z 1000bb60 f i mfdpage.obj
 0001:0000ab60       ??$forward@AAU?$pair@$$CBV?$basic_string@DU?$char_traits@D@std@@V?$allocator@D@2@@std@@PAVfms_config_item_t@@@std@@@std@@YAAAU?$pair@$$CBV?$basic_string@DU?$char_traits@D@std@@V?$allocator@D@2@@std@@PAVfms_config_item_t@@@0@AAU10@@Z 1000bb60 f i fms_config.obj
 0001:0000ab60       ??$forward@V?$_Tree_iterator@V?$_Tree_val@U?$_Tree_simple_types@U?$pair@$$CBHPAVobject_t@@@std@@@std@@@std@@@std@@@std@@YA$$QAV?$_Tree_iterator@V?$_Tree_val@U?$_Tree_simple_types@U?$pair@$$CBHPAVobject_t@@@std@@@std@@@std@@@0@AAV10@@Z 1000bb60 f i mfdpage.obj
 0001:0000ab60       ??$forward@V?$tuple@$$QAH@std@@@std@@YA$$QAV?$tuple@$$QAH@0@AAV10@@Z 1000bb60 f i mfdpage_fms.obj
 0001:0000ab60       ??$forward@ABH@std@@YAABHABH@Z 1000bb60 f i out_saitek.obj
 0001:0000ab60       ?_Left@?$_Tree_val@U?$_Tree_simple_types@U?$pair@$$CBHM@std@@@std@@@std@@SAAAPAU?$_Tree_node@U?$pair@$$CBHM@std@@PAX@2@PAU32@@Z 1000bb60 f i fms_config.obj
 0001:0000ab60       ??$forward@AAPAU?$_Tree_node@U?$pair@$$CBV?$basic_string@DU?$char_traits@D@std@@V?$allocator@D@2@@std@@V12@@std@@PAX@std@@@std@@YAAAPAU?$_Tree_node@U?$pair@$$CBV?$basic_string@DU?$char_traits@D@std@@V?$allocator@D@2@@std@@V12@@std@@PAX@0@AAPAU10@@Z 1000bb60 f i tools.obj
 0001:0000ab60       ?_Left@?$_Tree_val@U?$_Tree_simple_types@U?$pair@$$CBV?$basic_string@DU?$char_traits@D@std@@V?$allocator@D@2@@std@@V12@@std@@@std@@@std@@SAAAPAU?$_Tree_node@U?$pair@$$CBV?$basic_string@DU?$char_traits@D@std@@V?$allocator@D@2@@std@@V12@@std@@PAX@2@PAU32@@Z 1000bb60 f i tools.obj
 0001:0000ab60       ??$forward@AAV?$_Tree_const_iterator@V?$_Tree_val@U?$_Tree_simple_types@PAVmfdpage_t@@@std@@@std@@@std@@@std@@YAAAV?$_Tree_const_iterator@V?$_Tree_val@U?$_Tree_simple_types@PAVmfdpage_t@@@std@@@std@@@0@AAV10@@Z 1000bb60 f i in.obj
 0001:0000ab60       ?_Kfn@?$_Tset_traits@PAVobject_t@@U?$less@PAVobject_t@@@std@@V?$allocator@PAVobject_t@@@3@$0A@@std@@SAABQAVobject_t@@ABQAV3@@Z 1000bb60 f i data.obj
 0001:0000ab60       ??$move@AAV?$tuple@$$QAV?$basic_string@DU?$char_traits@D@std@@V?$allocator@D@2@@std@@@std@@@std@@YA$$QAV?$tuple@$$QAV?$basic_string@DU?$char_traits@D@std@@V?$allocator@D@2@@std@@@0@AAV10@@Z 1000bb60 f i tools.obj
 0001:0000ab60       ??$forward@V?$_Tree_iterator@V?$_Tree_val@U?$_Tree_simple_types@U?$pair@$$CBHPAVfms_fp_item_t@@@std@@@std@@@std@@@std@@@std@@YA$$QAV?$_Tree_iterator@V?$_Tree_val@U?$_Tree_simple_types@U?$pair@$$CBHPAVfms_fp_item_t@@@std@@@std@@@std@@@0@AAV10@@Z 1000bb60 f i mfdpage_fms.obj
 0001:0000ab60       ?_Left@?$_Tree_val@U?$_Tree_simple_types@U?$pair@$$CBV?$basic_string@DU?$char_traits@D@std@@V?$allocator@D@2@@std@@PAVfms_fp_item_t@@@std@@@std@@@std@@SAAAPAU?$_Tree_node@U?$pair@$$CBV?$basic_string@DU?$char_traits@D@std@@V?$allocator@D@2@@std@@PAVfms_fp_item_t@@@std@@PAX@2@PAU32@@Z 1000bb60 f i fms_fp.obj
 0001:0000ab60       ??$forward@AAPAU?$_Tree_node@U?$pair@$$CBV?$basic_string@DU?$char_traits@D@std@@V?$allocator@D@2@@std@@D@std@@PAX@std@@@std@@YAAAPAU?$_Tree_node@U?$pair@$$CBV?$basic_string@DU?$char_traits@D@std@@V?$allocator@D@2@@std@@D@std@@PAX@0@AAPAU10@@Z 1000bb60 f i mfdpage.obj
 0001:0000ab60       ??$forward@_N@std@@YA$$QA_NAA_N@Z 1000bb60 f i tools.obj
 0001:0000ab60       ??$_Kfn@$$CBHM@?$_Tmap_traits@HMU?$less@H@std@@V?$allocator@U?$pair@$$CBHM@std@@@2@$0A@@std@@SAABHABU?$pair@$$CBHM@1@@Z 1000bb60 f i fms_config.obj
 0001:0000ab60       ??$addressof@PAU?$_Tree_node@U?$pair@$$CBV?$basic_string@DU?$char_traits@D@std@@V?$allocator@D@2@@std@@H@std@@PAX@std@@@std@@YAPAPAU?$_Tree_node@U?$pair@$$CBV?$basic_string@DU?$char_traits@D@std@@V?$allocator@D@2@@std@@H@std@@PAX@0@AAPAU10@@Z 1000bb60 f i mfdpage.obj
 0001:0000ab60       ??$forward@V?$_Tree_iterator@V?$_Tree_val@U?$_Tree_simple_types@U?$pair@$$CBV?$basic_string@DU?$char_traits@D@std@@V?$allocator@D@2@@std@@PAVfms_fp_item_t@@@std@@@std@@@std@@@std@@@std@@YA$$QAV?$_Tree_iterator@V?$_Tree_val@U?$_Tree_simple_types@U?$pair@$$CBV?$basic_string@DU?$char_traits@D@std@@V?$allocator@D@2@@std@@PAVfms_fp_item_t@@@std@@@std@@@std@@@0@AAV10@@Z 1000bb60 f i fms_fp.obj
 0001:0000ab60       ??$forward@V?$_Tree_iterator@V?$_Tree_val@U?$_Tree_simple_types@U?$pair@$$CBV?$basic_string@DU?$char_traits@D@std@@V?$allocator@D@2@@std@@M@std@@@std@@@std@@@std@@@std@@YA$$QAV?$_Tree_iterator@V?$_Tree_val@U?$_Tree_simple_types@U?$pair@$$CBV?$basic_string@DU?$char_traits@D@std@@V?$allocator@D@2@@std@@M@std@@@std@@@std@@@0@AAV10@@Z 1000bb60 f i mfdpage_fms.obj
 0001:0000ab60       ??$forward@AAPAD@std@@YAAAPADAAPAD@Z 1000bb60 f i main.obj
 0001:0000ab60       ??$forward@V?$_Tree_iterator@V?$_Tree_val@U?$_Tree_simple_types@U?$pair@$$CBV?$basic_string@DU?$char_traits@D@std@@V?$allocator@D@2@@std@@D@std@@@std@@@std@@@std@@@std@@YA$$QAV?$_Tree_iterator@V?$_Tree_val@U?$_Tree_simple_types@U?$pair@$$CBV?$basic_string@DU?$char_traits@D@std@@V?$allocator@D@2@@std@@D@std@@@std@@@std@@@0@AAV10@@Z 1000bb60 f i mfdpage.obj
 0001:0000ab60       ??$addressof@U?$pair@$$CBHPAVfms_fp_item_t@@@std@@@std@@YAPAU?$pair@$$CBHPAVfms_fp_item_t@@@0@AAU10@@Z 1000bb60 f i mfdpage_fms.obj
 0001:0000ab60       ??$forward@AAV?$_Tree_iterator@V?$_Tree_val@U?$_Tree_simple_types@U?$pair@$$CBHV?$basic_string@DU?$char_traits@D@std@@V?$allocator@D@2@@std@@@std@@@std@@@std@@@std@@@std@@YAAAV?$_Tree_iterator@V?$_Tree_val@U?$_Tree_simple_types@U?$pair@$$CBHV?$basic_string@DU?$char_traits@D@std@@V?$allocator@D@2@@std@@@std@@@std@@@std@@@0@AAV10@@Z 1000bb60 f i out_saitek.obj
 0001:0000ab60       ??$forward@V?$_Tree_const_iterator@V?$_Tree_val@U?$_Tree_simple_types@PAVobject_t@@@std@@@std@@@std@@@std@@YA$$QAV?$_Tree_const_iterator@V?$_Tree_val@U?$_Tree_simple_types@PAVobject_t@@@std@@@std@@@0@AAV10@@Z 1000bb60 f i data.obj
 0001:0000ab60       ??$forward@AAV?$_Tree_const_iterator@V?$_Tree_val@U?$_Tree_simple_types@PAVobject_t@@@std@@@std@@@std@@@std@@YAAAV?$_Tree_const_iterator@V?$_Tree_val@U?$_Tree_simple_types@PAVobject_t@@@std@@@std@@@0@AAV10@@Z 1000bb60 f i data.obj
 0001:0000ab60       ??$forward@AAPAU?$_Tree_node@PAVobject_t@@PAX@std@@@std@@YAAAPAU?$_Tree_node@PAVobject_t@@PAX@0@AAPAU10@@Z 1000bb60 f i data.obj
 0001:0000ab60       ??$forward@ABQAVlistener_t@@@std@@YAABQAVlistener_t@@ABQAV1@@Z 1000bb60 f i data.obj
 0001:0000ab60       ??$addressof@PAVmfdpage_t@@@std@@YAPAPAVmfdpage_t@@AAPAV1@@Z 1000bb60 f i in.obj
 0001:0000ab60       ??$addressof@PAU?$_Tree_node@U?$pair@$$CBV?$basic_string@DU?$char_traits@D@std@@V?$allocator@D@2@@std@@PAVfms_config_item_t@@@std@@PAX@std@@@std@@YAPAPAU?$_Tree_node@U?$pair@$$CBV?$basic_string@DU?$char_traits@D@std@@V?$allocator@D@2@@std@@PAVfms_config_item_t@@@std@@PAX@0@AAPAU10@@Z 1000bb60 f i fms_config.obj
 0001:0000ab60       ??$addressof@PAU?$_Tree_node@U?$pair@$$CBHM@std@@PAX@std@@@std@@YAPAPAU?$_Tree_node@U?$pair@$$CBHM@std@@PAX@0@AAPAU10@@Z 1000bb60 f i fms_config.obj
 0001:0000ab60       ?_Left@?$_Tree_val@U?$_Tree_simple_types@U?$pair@$$CBHPAVfms_fp_item_t@@@std@@@std@@@std@@SAAAPAU?$_Tree_node@U?$pair@$$CBHPAVfms_fp_item_t@@@std@@PAX@2@PAU32@@Z 1000bb60 f i mfdpage_fms.obj
 0001:0000ab60       ??$forward@V?$_Tree_iterator@V?$_Tree_val@U?$_Tree_simple_types@U?$pair@$$CBV?$basic_string@DU?$char_traits@D@std@@V?$allocator@D@2@@std@@V12@@std@@@std@@@std@@@std@@@std@@YA$$QAV?$_Tree_iterator@V?$_Tree_val@U?$_Tree_simple_types@U?$pair@$$CBV?$basic_string@DU?$char_traits@D@std@@V?$allocator@D@2@@std@@V12@@std@@@std@@@std@@@0@AAV10@@Z 1000bb60 f i tools.obj
 0001:0000ab60       ??$addressof@PAU?$_Tree_node@U?$pair@$$CBV?$basic_string@DU?$char_traits@D@std@@V?$allocator@D@2@@std@@V12@@std@@PAX@std@@@std@@YAPAPAU?$_Tree_node@U?$pair@$$CBV?$basic_string@DU?$char_traits@D@std@@V?$allocator@D@2@@std@@V12@@std@@PAX@0@AAPAU10@@Z 1000bb60 f i tools.obj
 0001:0000ab60       ??$_Kfn@$$CBHV?$basic_string@DU?$char_traits@D@std@@V?$allocator@D@2@@std@@@?$_Tmap_traits@HV?$basic_string@DU?$char_traits@D@std@@V?$allocator@D@2@@std@@U?$less@H@2@V?$allocator@U?$pair@$$CBHV?$basic_string@DU?$char_traits@D@std@@V?$allocator@D@2@@std@@@std@@@2@$0A@@std@@SAABHABU?$pair@$$CBHV?$basic_string@DU?$char_traits@D@std@@V?$allocator@D@2@@std@@@1@@Z 1000bb60 f i out_saitek.obj
 0001:0000ab60       ??$_Move@AAI@std@@YA$$QAIAAI@Z 1000bb60 f i mfdpage_led.obj
 0001:0000ab60       ??$addressof@PAVlistener_t@@@std@@YAPAPAVlistener_t@@AAPAV1@@Z 1000bb60 f i data.obj
 0001:0000ab60       ?_Left@?$_Tree_val@U?$_Tree_simple_types@U?$pair@$$CBV?$basic_string@DU?$char_traits@D@std@@V?$allocator@D@2@@std@@M@std@@@std@@@std@@SAAAPAU?$_Tree_node@U?$pair@$$CBV?$basic_string@DU?$char_traits@D@std@@V?$allocator@D@2@@std@@M@std@@PAX@2@PAU32@@Z 1000bb60 f i mfdpage_fms.obj
 0001:0000ab60       ??$addressof@U?$pair@$$CBHM@std@@@std@@YAPAU?$pair@$$CBHM@0@AAU10@@Z 1000bb60 f i fms_config.obj
 0001:0000ab60       ??$_Kfn@$$CBV?$basic_string@DU?$char_traits@D@std@@V?$allocator@D@2@@std@@PAVfms_config_item_t@@@?$_Tmap_traits@V?$basic_string@DU?$char_traits@D@std@@V?$allocator@D@2@@std@@PAVfms_config_item_t@@U?$less@V?$basic_string@DU?$char_traits@D@std@@V?$allocator@D@2@@std@@@2@V?$allocator@U?$pair@$$CBV?$basic_string@DU?$char_traits@D@std@@V?$allocator@D@2@@std@@PAVfms_config_item_t@@@std@@@2@$0A@@std@@SAABV?$basic_string@DU?$char_traits@D@std@@V?$allocator@D@2@@1@ABU?$pair@$$CBV?$basic_string@DU?$char_traits@D@std@@V?$allocator@D@2@@std@@PAVfms_config_item_t@@@1@@Z 1000bb60 f i fms_config.obj
 0001:0000ab60       ??$forward@AAV?$_Tree_iterator@V?$_Tree_val@U?$_Tree_simple_types@U?$pair@$$CBV?$basic_string@DU?$char_traits@D@std@@V?$allocator@D@2@@std@@M@std@@@std@@@std@@@std@@@std@@YAAAV?$_Tree_iterator@V?$_Tree_val@U?$_Tree_simple_types@U?$pair@$$CBV?$basic_string@DU?$char_traits@D@std@@V?$allocator@D@2@@std@@M@std@@@std@@@std@@@0@AAV10@@Z 1000bb60 f i mfdpage_fms.obj
 0001:0000ab60       ??$addressof@PAU?$_Tree_node@PAVlistener_t@@PAX@std@@@std@@YAPAPAU?$_Tree_node@PAVlistener_t@@PAX@0@AAPAU10@@Z 1000bb60 f i data.obj
 0001:0000ab60       ??$forward@AAV?$_Tree_iterator@V?$_Tree_val@U?$_Tree_simple_types@U?$pair@$$CBV?$basic_string@DU?$char_traits@D@std@@V?$allocator@D@2@@std@@D@std@@@std@@@std@@@std@@@std@@YAAAV?$_Tree_iterator@V?$_Tree_val@U?$_Tree_simple_types@U?$pair@$$CBV?$basic_string@DU?$char_traits@D@std@@V?$allocator@D@2@@std@@D@std@@@std@@@std@@@0@AAV10@@Z 1000bb60 f i mfdpage.obj
 0001:0000ab60       ??$forward@AAU?$pair@$$CBHM@std@@@std@@YAAAU?$pair@$$CBHM@0@AAU10@@Z 1000bb60 f i fms_config.obj
 0001:0000ab60       ??$forward@AAPAU?$_Tree_node@PAVmfdpage_t@@PAX@std@@@std@@YAAAPAU?$_Tree_node@PAVmfdpage_t@@PAX@0@AAPAU10@@Z 1000bb60 f i in.obj
 0001:0000ab60       ??$forward@AAPAU?$_Tree_node@U?$pair@$$CBV?$basic_string@DU?$char_traits@D@std@@V?$allocator@D@2@@std@@H@std@@PAX@std@@@std@@YAAAPAU?$_Tree_node@U?$pair@$$CBV?$basic_string@DU?$char_traits@D@std@@V?$allocator@D@2@@std@@H@std@@PAX@0@AAPAU10@@Z 1000bb60 f i mfdpage.obj
 0001:0000ab60       ??$forward@AAU?$pair@$$CBV?$basic_string@DU?$char_traits@D@std@@V?$allocator@D@2@@std@@D@std@@@std@@YAAAU?$pair@$$CBV?$basic_string@DU?$char_traits@D@std@@V?$allocator@D@2@@std@@D@0@AAU10@@Z 1000bb60 f i mfdpage.obj
 0001:0000ab60       ??$forward@ABQAVmfdpage_t@@@std@@YAABQAVmfdpage_t@@ABQAV1@@Z 1000bb60 f i in.obj
 0001:0000ab60       ??$_Kfn@$$CBHPAVobject_t@@@?$_Tmap_traits@HPAVobject_t@@U?$less@H@std@@V?$allocator@U?$pair@$$CBHPAVobject_t@@@std@@@3@$0A@@std@@SAABHABU?$pair@$$CBHPAVobject_t@@@1@@Z 1000bb60 f i mfdpage.obj
 0001:0000ab60       ??$forward@V?$tuple@$$QAV?$basic_string@DU?$char_traits@D@std@@V?$allocator@D@2@@std@@@std@@@std@@YA$$QAV?$tuple@$$QAV?$basic_string@DU?$char_traits@D@std@@V?$allocator@D@2@@std@@@0@AAV10@@Z 1000bb60 f i tools.obj
 0001:0000ab60       ??$addressof@U?$pair@$$CBHV?$basic_string@DU?$char_traits@D@std@@V?$allocator@D@2@@std@@@std@@@std@@YAPAU?$pair@$$CBHV?$basic_string@DU?$char_traits@D@std@@V?$allocator@D@2@@std@@@0@AAU10@@Z 1000bb60 f i out_saitek.obj
 0001:0000ab60       ??$addressof@PAVobject_t@@@std@@YAPAPAVobject_t@@AAPAV1@@Z 1000bb60 f i data.obj
 0001:0000ab60       ??$forward@AAU?$pair@$$CBV?$basic_string@DU?$char_traits@D@std@@V?$allocator@D@2@@std@@M@std@@@std@@YAAAU?$pair@$$CBV?$basic_string@DU?$char_traits@D@std@@V?$allocator@D@2@@std@@M@0@AAU10@@Z 1000bb60 f i mfdpage_fms.obj
 0001:0000ab60       ??$forward@V?$_Tree_iterator@V?$_Tree_val@U?$_Tree_simple_types@U?$pair@$$CBV?$basic_string@DU?$char_traits@D@std@@V?$allocator@D@2@@std@@PAVfms_config_item_t@@@std@@@std@@@std@@@std@@@std@@YA$$QAV?$_Tree_iterator@V?$_Tree_val@U?$_Tree_simple_types@U?$pair@$$CBV?$basic_string@DU?$char_traits@D@std@@V?$allocator@D@2@@std@@PAVfms_config_item_t@@@std@@@std@@@std@@@0@AAV10@@Z 1000bb60 f i fms_config.obj
 0001:0000ab60       ?_Left@?$_Tree_val@U?$_Tree_simple_types@U?$pair@$$CBHV?$basic_string@DU?$char_traits@D@std@@V?$allocator@D@2@@std@@@std@@@std@@@std@@SAAAPAU?$_Tree_node@U?$pair@$$CBHV?$basic_string@DU?$char_traits@D@std@@V?$allocator@D@2@@std@@@std@@PAX@2@PAU32@@Z 1000bb60 f i out_saitek.obj
 0001:0000ab60       ?_Kfn@?$_Tset_traits@PAVlistener_t@@U?$less@PAVlistener_t@@@std@@V?$allocator@PAVlistener_t@@@3@$0A@@std@@SAABQAVlistener_t@@ABQAV3@@Z 1000bb60 f i data.obj
 0001:0000ab60       ??$forward@AAV?$_Tree_const_iterator@V?$_Tree_val@U?$_Tree_simple_types@PAVlistener_t@@@std@@@std@@@std@@@std@@YAAAV?$_Tree_const_iterator@V?$_Tree_val@U?$_Tree_simple_types@PAVlistener_t@@@std@@@std@@@0@AAV10@@Z 1000bb60 f i data.obj
 0001:0000ab60       ??$addressof@D@std@@YAPADAAD@Z 1000bb60 f i main.obj
 0001:0000ab70       ??0?$_Tree_comp@$0A@V?$_Tset_traits@PAVmfdpage_t@@U?$less@PAVmfdpage_t@@@std@@V?$allocator@PAVmfdpage_t@@@3@$0A@@std@@@std@@QAE@ABU?$less@PAVmfdpage_t@@@1@ABV?$allocator@PAVmfdpage_t@@@1@@Z 1000bb70 f i in.obj
 0001:0000ab70       ??0?$_Tree_comp@$0A@V?$_Tset_traits@PAVlistener_t@@U?$less@PAVlistener_t@@@std@@V?$allocator@PAVlistener_t@@@3@$0A@@std@@@std@@QAE@ABU?$less@PAVlistener_t@@@1@ABV?$allocator@PAVlistener_t@@@1@@Z 1000bb70 f i data.obj
 0001:0000ab70       ??0?$_Tree_comp@$0A@V?$_Tset_traits@PAVobject_t@@U?$less@PAVobject_t@@@std@@V?$allocator@PAVobject_t@@@3@$0A@@std@@@std@@QAE@ABU?$less@PAVobject_t@@@1@ABV?$allocator@PAVobject_t@@@1@@Z 1000bb70 f i data.obj
 0001:0000ab90       ??0?$allocator@U?$pair@$$CBV?$basic_string@DU?$char_traits@D@std@@V?$allocator@D@2@@std@@V12@@std@@@std@@QAE@XZ 1000bb90 f i mfdpage_led.obj
 0001:0000ab90       ??0?$allocator@U?$pair@$$CBV?$basic_string@DU?$char_traits@D@std@@V?$allocator@D@2@@std@@D@std@@@std@@QAE@XZ 1000bb90 f i mfdpage_fms.obj
 0001:0000ab90       ??0?$allocator@D@std@@QAE@XZ 1000bb90 f i main.obj
 0001:0000ab90       ??0?$allocator@U?$_Tree_node@U?$pair@$$CBV?$basic_string@DU?$char_traits@D@std@@V?$allocator@D@2@@std@@V12@@std@@PAX@std@@@std@@QAE@XZ 1000bb90 f i tools.obj
 0001:0000ab90       ??0?$allocator@U?$pair@$$CBHV?$basic_string@DU?$char_traits@D@std@@V?$allocator@D@2@@std@@@std@@@std@@QAE@XZ 1000bb90 f i out_saitek.obj
 0001:0000ab90       ??0?$allocator@U?$_Tree_node@PAVmfdpage_t@@PAX@std@@@std@@QAE@XZ 1000bb90 f i in.obj
 0001:0000ab90       ??0?$allocator@U?$_Tree_node@PAVlistener_t@@PAX@std@@@std@@QAE@XZ 1000bb90 f i data.obj
 0001:0000ab90       ??0?$allocator@U?$pair@$$CBV?$basic_string@DU?$char_traits@D@std@@V?$allocator@D@2@@std@@PAVfms_fp_item_t@@@std@@@std@@QAE@XZ 1000bb90 f i fms_fp.obj
 0001:0000ab90       ??0?$allocator@PAVmfdpage_t@@@std@@QAE@XZ 1000bb90 f i in.obj
 0001:0000ab90       ??0?$allocator@U?$pair@$$CBHPAVfms_fp_item_t@@@std@@@std@@QAE@XZ 1000bb90 f i fms_fp.obj
 0001:0000ab90       ?_Get_rest@?$tuple@$$QAV?$basic_string@DU?$char_traits@D@std@@V?$allocator@D@2@@std@@@std@@QAEAAV?$tuple@$$$V@2@XZ 1000bb90 f i tools.obj
 0001:0000ab90       ??0?$allocator@U?$_Tree_node@U?$pair@$$CBV?$basic_string@DU?$char_traits@D@std@@V?$allocator@D@2@@std@@D@std@@PAX@std@@@std@@QAE@XZ 1000bb90 f i mfdpage.obj
 0001:0000ab90       ??0?$allocator@U?$pair@$$CBHPAVobject_t@@@std@@@std@@QAE@XZ 1000bb90 f i mfdpage.obj
 0001:0000ab90       ??0?$allocator@U?$pair@$$CBV?$basic_string@DU?$char_traits@D@std@@V?$allocator@D@2@@std@@M@std@@@std@@QAE@XZ 1000bb90 f i fms_config.obj
 0001:0000ab90       ??0?$allocator@U?$pair@$$CBHM@std@@@std@@QAE@XZ 1000bb90 f i fms_config.obj
 0001:0000ab90       ??0?$allocator@U?$_Tree_node@U?$pair@$$CBV?$basic_string@DU?$char_traits@D@std@@V?$allocator@D@2@@std@@PAVfms_config_item_t@@@std@@PAX@std@@@std@@QAE@XZ 1000bb90 f i fms_config.obj
 0001:0000ab90       ?_Get_rest@?$tuple@ABH@std@@QAEAAV?$tuple@$$$V@2@XZ 1000bb90 f i out_saitek.obj
 0001:0000ab90       ??0?$allocator@U?$_Tree_node@U?$pair@$$CBHPAVfms_fp_item_t@@@std@@PAX@std@@@std@@QAE@XZ 1000bb90 f i mfdpage_fms.obj
 0001:0000ab90       ??0?$allocator@U?$_Tree_node@U?$pair@$$CBHM@std@@PAX@std@@@std@@QAE@XZ 1000bb90 f i fms_config.obj
 0001:0000ab90       ??0?$allocator@U?$_Tree_node@U?$pair@$$CBHV?$basic_string@DU?$char_traits@D@std@@V?$allocator@D@2@@std@@@std@@PAX@std@@@std@@QAE@XZ 1000bb90 f i out_saitek.obj
 0001:0000ab90       ??0?$allocator@U?$pair@$$CBV?$basic_string@DU?$char_traits@D@std@@V?$allocator@D@2@@std@@PAVfms_config_item_t@@@std@@@std@@QAE@XZ 1000bb90 f i fms_config.obj
 0001:0000ab90       ??0?$allocator@PAVlistener_t@@@std@@QAE@XZ 1000bb90 f i data.obj
 0001:0000ab90       ??0?$allocator@U?$_Tree_node@U?$pair@$$CBV?$basic_string@DU?$char_traits@D@std@@V?$allocator@D@2@@std@@H@std@@PAX@std@@@std@@QAE@XZ 1000bb90 f i mfdpage.obj
 0001:0000ab90       ??0?$allocator@U?$_Tree_node@U?$pair@$$CBV?$basic_string@DU?$char_traits@D@std@@V?$allocator@D@2@@std@@M@std@@PAX@std@@@std@@QAE@XZ 1000bb90 f i mfdpage_fms.obj
 0001:0000ab90       ??0?$allocator@U?$pair@$$CBV?$basic_string@DU?$char_traits@D@std@@V?$allocator@D@2@@std@@H@std@@@std@@QAE@XZ 1000bb90 f i mfdpage.obj
 0001:0000ab90       ??0?$allocator@U?$_Tree_node@U?$pair@$$CBHPAVobject_t@@@std@@PAX@std@@@std@@QAE@XZ 1000bb90 f i mfdpage.obj
 0001:0000ab90       ??0?$allocator@U?$_Tree_node@U?$pair@$$CBV?$basic_string@DU?$char_traits@D@std@@V?$allocator@D@2@@std@@PAVfms_fp_item_t@@@std@@PAX@std@@@std@@QAE@XZ 1000bb90 f i fms_fp.obj
 0001:0000ab90       ?_Get_rest@?$tuple@ABV?$basic_string@DU?$char_traits@D@std@@V?$allocator@D@2@@std@@@std@@QAEAAV?$tuple@$$$V@2@XZ 1000bb90 f i mfdpage.obj
 0001:0000ab90       ??0_Ignore@std@@QAE@XZ     1000bb90 f i main.obj
 0001:0000ab90       ??0?$allocator@U?$_Tree_node@PAVobject_t@@PAX@std@@@std@@QAE@XZ 1000bb90 f i data.obj
 0001:0000ab90       ??0?$tuple@$$$V@std@@QAE@XZ 1000bb90 f i tools.obj
 0001:0000ab90       ?_Get_rest@?$tuple@$$QAH@std@@QAEAAV?$tuple@$$$V@2@XZ 1000bb90 f i mfdpage_fms.obj
 0001:0000ab90       ??0?$allocator@PAVobject_t@@@std@@QAE@XZ 1000bb90 f i data.obj
 0001:0000aba0       ??0?$set@PAVmfdpage_t@@U?$less@PAVmfdpage_t@@@std@@V?$allocator@PAVmfdpage_t@@@3@@std@@QAE@XZ 1000bba0 f i in.obj
 0001:0000aba0       ??0?$set@PAVlistener_t@@U?$less@PAVlistener_t@@@std@@V?$allocator@PAVlistener_t@@@3@@std@@QAE@XZ 1000bba0 f i data.obj
 0001:0000aba0       ??0?$set@PAVobject_t@@U?$less@PAVobject_t@@@std@@V?$allocator@PAVobject_t@@@3@@std@@QAE@XZ 1000bba0 f i data.obj
 0001:0000abd0       ??D?$_Tree_const_iterator@V?$_Tree_val@U?$_Tree_simple_types@U?$pair@$$CBV?$basic_string@DU?$char_traits@D@std@@V?$allocator@D@2@@std@@PAVfms_fp_item_t@@@std@@@std@@@std@@@std@@QBEABU?$pair@$$CBV?$basic_string@DU?$char_traits@D@std@@V?$allocator@D@2@@std@@PAVfms_fp_item_t@@@1@XZ 1000bbd0 f i fms_fp.obj
 0001:0000abd0       ??D?$_Tree_const_iterator@V?$_Tree_val@U?$_Tree_simple_types@PAVlistener_t@@@std@@@std@@@std@@QBEABQAVlistener_t@@XZ 1000bbd0 f i data.obj
 0001:0000abd0       ??D?$_Tree_const_iterator@V?$_Tree_val@U?$_Tree_simple_types@PAVobject_t@@@std@@@std@@@std@@QBEABQAVobject_t@@XZ 1000bbd0 f i data.obj
 0001:0000abd0       ??D?$_Tree_const_iterator@V?$_Tree_val@U?$_Tree_simple_types@U?$pair@$$CBHM@std@@@std@@@std@@@std@@QBEABU?$pair@$$CBHM@1@XZ 1000bbd0 f i fms_config.obj
 0001:0000abd0       ??D?$_Tree_const_iterator@V?$_Tree_val@U?$_Tree_simple_types@U?$pair@$$CBV?$basic_string@DU?$char_traits@D@std@@V?$allocator@D@2@@std@@V12@@std@@@std@@@std@@@std@@QBEABU?$pair@$$CBV?$basic_string@DU?$char_traits@D@std@@V?$allocator@D@2@@std@@V12@@1@XZ 1000bbd0 f i tools.obj
 0001:0000abd0       ??D?$_Tree_const_iterator@V?$_Tree_val@U?$_Tree_simple_types@U?$pair@$$CBHPAVobject_t@@@std@@@std@@@std@@@std@@QBEABU?$pair@$$CBHPAVobject_t@@@1@XZ 1000bbd0 f i mfdpage.obj
 0001:0000abd0       ??D?$_Tree_const_iterator@V?$_Tree_val@U?$_Tree_simple_types@U?$pair@$$CBV?$basic_string@DU?$char_traits@D@std@@V?$allocator@D@2@@std@@D@std@@@std@@@std@@@std@@QBEABU?$pair@$$CBV?$basic_string@DU?$char_traits@D@std@@V?$allocator@D@2@@std@@D@1@XZ 1000bbd0 f i mfdpage.obj
 0001:0000abd0       ??D?$_Tree_const_iterator@V?$_Tree_val@U?$_Tree_simple_types@PAVmfdpage_t@@@std@@@std@@@std@@QBEABQAVmfdpage_t@@XZ 1000bbd0 f i in.obj
 0001:0000abd0       ??D?$_Tree_const_iterator@V?$_Tree_val@U?$_Tree_simple_types@U?$pair@$$CBV?$basic_string@DU?$char_traits@D@std@@V?$allocator@D@2@@std@@H@std@@@std@@@std@@@std@@QBEABU?$pair@$$CBV?$basic_string@DU?$char_traits@D@std@@V?$allocator@D@2@@std@@H@1@XZ 1000bbd0 f i mfdpage.obj
 0001:0000abd0       ??D?$_Tree_const_iterator@V?$_Tree_val@U?$_Tree_simple_types@U?$pair@$$CBHV?$basic_string@DU?$char_traits@D@std@@V?$allocator@D@2@@std@@@std@@@std@@@std@@@std@@QBEABU?$pair@$$CBHV?$basic_string@DU?$char_traits@D@std@@V?$allocator@D@2@@std@@@1@XZ 1000bbd0 f i out_saitek.obj
 0001:0000abd0       ??D?$_Tree_const_iterator@V?$_Tree_val@U?$_Tree_simple_types@U?$pair@$$CBV?$basic_string@DU?$char_traits@D@std@@V?$allocator@D@2@@std@@M@std@@@std@@@std@@@std@@QBEABU?$pair@$$CBV?$basic_string@DU?$char_traits@D@std@@V?$allocator@D@2@@std@@M@1@XZ 1000bbd0 f i mfdpage_fms.obj
 0001:0000abd0       ??D?$_Tree_const_iterator@V?$_Tree_val@U?$_Tree_simple_types@U?$pair@$$CBHPAVfms_fp_item_t@@@std@@@std@@@std@@@std@@QBEABU?$pair@$$CBHPAVfms_fp_item_t@@@1@XZ 1000bbd0 f i mfdpage_fms.obj
 0001:0000abd0       ??D?$_Tree_const_iterator@V?$_Tree_val@U?$_Tree_simple_types@U?$pair@$$CBV?$basic_string@DU?$char_traits@D@std@@V?$allocator@D@2@@std@@PAVfms_config_item_t@@@std@@@std@@@std@@@std@@QBEABU?$pair@$$CBV?$basic_string@DU?$char_traits@D@std@@V?$allocator@D@2@@std@@PAVfms_config_item_t@@@1@XZ 1000bbd0 f i fms_config.obj
 0001:0000abf0       ?_Buynode0@?$_Tree_buy@PAVmfdpage_t@@V?$allocator@PAVmfdpage_t@@@std@@@std@@QAEPAU?$_Tree_node@PAVmfdpage_t@@PAX@2@XZ 1000bbf0 f i in.obj
 0001:0000abf0       ?_Buynode0@?$_Tree_buy@PAVlistener_t@@V?$allocator@PAVlistener_t@@@std@@@std@@QAEPAU?$_Tree_node@PAVlistener_t@@PAX@2@XZ 1000bbf0 f i data.obj
 0001:0000abf0       ?_Buynode0@?$_Tree_buy@PAVobject_t@@V?$allocator@PAVobject_t@@@std@@@std@@QAEPAU?$_Tree_node@PAVobject_t@@PAX@2@XZ 1000bbf0 f i data.obj
 0001:0000ad20       ?_Isnil@?$_Tree_val@U?$_Tree_simple_types@U?$pair@$$CBHPAVfms_fp_item_t@@@std@@@std@@@std@@SAAADPAU?$_Tree_node@U?$pair@$$CBHPAVfms_fp_item_t@@@std@@PAX@2@@Z 1000bd20 f i mfdpage_fms.obj
 0001:0000ad20       ?_Isnil@?$_Tree_val@U?$_Tree_simple_types@U?$pair@$$CBHV?$basic_string@DU?$char_traits@D@std@@V?$allocator@D@2@@std@@@std@@@std@@@std@@SAAADPAU?$_Tree_node@U?$pair@$$CBHV?$basic_string@DU?$char_traits@D@std@@V?$allocator@D@2@@std@@@std@@PAX@2@@Z 1000bd20 f i out_saitek.obj
 0001:0000ad20       ?_Isnil@?$_Tree_val@U?$_Tree_simple_types@U?$pair@$$CBV?$basic_string@DU?$char_traits@D@std@@V?$allocator@D@2@@std@@H@std@@@std@@@std@@SAAADPAU?$_Tree_node@U?$pair@$$CBV?$basic_string@DU?$char_traits@D@std@@V?$allocator@D@2@@std@@H@std@@PAX@2@@Z 1000bd20 f i mfdpage.obj
 0001:0000ad20       ?_Isnil@?$_Tree_val@U?$_Tree_simple_types@U?$pair@$$CBHM@std@@@std@@@std@@SAAADPAU?$_Tree_node@U?$pair@$$CBHM@std@@PAX@2@@Z 1000bd20 f i fms_config.obj
 0001:0000ad20       ?_Isnil@?$_Tree_val@U?$_Tree_simple_types@U?$pair@$$CBV?$basic_string@DU?$char_traits@D@std@@V?$allocator@D@2@@std@@M@std@@@std@@@std@@SAAADPAU?$_Tree_node@U?$pair@$$CBV?$basic_string@DU?$char_traits@D@std@@V?$allocator@D@2@@std@@M@std@@PAX@2@@Z 1000bd20 f i mfdpage_fms.obj
 0001:0000ad20       ?_Isnil@?$_Tree_val@U?$_Tree_simple_types@PAVmfdpage_t@@@std@@@std@@SAAADPAU?$_Tree_node@PAVmfdpage_t@@PAX@2@@Z 1000bd20 f i in.obj
 0001:0000ad20       ?_Isnil@?$_Tree_val@U?$_Tree_simple_types@U?$pair@$$CBV?$basic_string@DU?$char_traits@D@std@@V?$allocator@D@2@@std@@PAVfms_fp_item_t@@@std@@@std@@@std@@SAAADPAU?$_Tree_node@U?$pair@$$CBV?$basic_string@DU?$char_traits@D@std@@V?$allocator@D@2@@std@@PAVfms_fp_item_t@@@std@@PAX@2@@Z 1000bd20 f i fms_fp.obj
 0001:0000ad20       ?_Isnil@?$_Tree_val@U?$_Tree_simple_types@PAVlistener_t@@@std@@@std@@SAAADPAU?$_Tree_node@PAVlistener_t@@PAX@2@@Z 1000bd20 f i data.obj
 0001:0000ad20       ?_Isnil@?$_Tree_val@U?$_Tree_simple_types@U?$pair@$$CBV?$basic_string@DU?$char_traits@D@std@@V?$allocator@D@2@@std@@PAVfms_config_item_t@@@std@@@std@@@std@@SAAADPAU?$_Tree_node@U?$pair@$$CBV?$basic_string@DU?$char_traits@D@std@@V?$allocator@D@2@@std@@PAVfms_config_item_t@@@std@@PAX@2@@Z 1000bd20 f i fms_config.obj
 0001:0000ad20       ?_Isnil@?$_Tree_val@U?$_Tree_simple_types@U?$pair@$$CBV?$basic_string@DU?$char_traits@D@std@@V?$allocator@D@2@@std@@V12@@std@@@std@@@std@@SAAADPAU?$_Tree_node@U?$pair@$$CBV?$basic_string@DU?$char_traits@D@std@@V?$allocator@D@2@@std@@V12@@std@@PAX@2@@Z 1000bd20 f i tools.obj
 0001:0000ad20       ?_Isnil@?$_Tree_val@U?$_Tree_simple_types@PAVobject_t@@@std@@@std@@SAAADPAU?$_Tree_node@PAVobject_t@@PAX@2@@Z 1000bd20 f i data.obj
 0001:0000ad20       ?_Isnil@?$_Tree_val@U?$_Tree_simple_types@U?$pair@$$CBV?$basic_string@DU?$char_traits@D@std@@V?$allocator@D@2@@std@@D@std@@@std@@@std@@SAAADPAU?$_Tree_node@U?$pair@$$CBV?$basic_string@DU?$char_traits@D@std@@V?$allocator@D@2@@std@@D@std@@PAX@2@@Z 1000bd20 f i mfdpage.obj
 0001:0000ad20       ?_Isnil@?$_Tree_val@U?$_Tree_simple_types@U?$pair@$$CBHPAVobject_t@@@std@@@std@@@std@@SAAADPAU?$_Tree_node@U?$pair@$$CBHPAVobject_t@@@std@@PAX@2@@Z 1000bd20 f i mfdpage.obj
 0001:0000ad30       ?_Key@?$_Tree@V?$_Tmap_traits@V?$basic_string@DU?$char_traits@D@std@@V?$allocator@D@2@@std@@PAVfms_config_item_t@@U?$less@V?$basic_string@DU?$char_traits@D@std@@V?$allocator@D@2@@std@@@2@V?$allocator@U?$pair@$$CBV?$basic_string@DU?$char_traits@D@std@@V?$allocator@D@2@@std@@PAVfms_config_item_t@@@std@@@2@$0A@@std@@@std@@IBEABV?$basic_string@DU?$char_traits@D@std@@V?$allocator@D@2@@2@PAU?$_Tree_node@U?$pair@$$CBV?$basic_string@DU?$char_traits@D@std@@V?$allocator@D@2@@std@@PAVfms_config_item_t@@@std@@PAX@2@@Z 1000bd30 f i fms_config.obj
 0001:0000ad30       ?_Key@?$_Tree@V?$_Tset_traits@PAVobject_t@@U?$less@PAVobject_t@@@std@@V?$allocator@PAVobject_t@@@3@$0A@@std@@@std@@IBEABQAVobject_t@@PAU?$_Tree_node@PAVobject_t@@PAX@2@@Z 1000bd30 f i data.obj
 0001:0000ad30       ?_Key@?$_Tree@V?$_Tset_traits@PAVlistener_t@@U?$less@PAVlistener_t@@@std@@V?$allocator@PAVlistener_t@@@3@$0A@@std@@@std@@IBEABQAVlistener_t@@PAU?$_Tree_node@PAVlistener_t@@PAX@2@@Z 1000bd30 f i data.obj
 0001:0000ad30       ?_Key@?$_Tree@V?$_Tset_traits@PAVmfdpage_t@@U?$less@PAVmfdpage_t@@@std@@V?$allocator@PAVmfdpage_t@@@3@$0A@@std@@@std@@IBEABQAVmfdpage_t@@PAU?$_Tree_node@PAVmfdpage_t@@PAX@2@@Z 1000bd30 f i in.obj
 0001:0000ad30       ?_Key@?$_Tree@V?$_Tmap_traits@V?$basic_string@DU?$char_traits@D@std@@V?$allocator@D@2@@std@@V12@U?$less@V?$basic_string@DU?$char_traits@D@std@@V?$allocator@D@2@@std@@@2@V?$allocator@U?$pair@$$CBV?$basic_string@DU?$char_traits@D@std@@V?$allocator@D@2@@std@@V12@@std@@@2@$0A@@std@@@std@@IBEABV?$basic_string@DU?$char_traits@D@std@@V?$allocator@D@2@@2@PAU?$_Tree_node@U?$pair@$$CBV?$basic_string@DU?$char_traits@D@std@@V?$allocator@D@2@@std@@V12@@std@@PAX@2@@Z 1000bd30 f i tools.obj
 0001:0000ad30       ?_Key@?$_Tree@V?$_Tmap_traits@V?$basic_string@DU?$char_traits@D@std@@V?$allocator@D@2@@std@@PAVfms_fp_item_t@@U?$less@V?$basic_string@DU?$char_traits@D@std@@V?$allocator@D@2@@std@@@2@V?$allocator@U?$pair@$$CBV?$basic_string@DU?$char_traits@D@std@@V?$allocator@D@2@@std@@PAVfms_fp_item_t@@@std@@@2@$0A@@std@@@std@@IBEABV?$basic_string@DU?$char_traits@D@std@@V?$allocator@D@2@@2@PAU?$_Tree_node@U?$pair@$$CBV?$basic_string@DU?$char_traits@D@std@@V?$allocator@D@2@@std@@PAVfms_fp_item_t@@@std@@PAX@2@@Z 1000bd30 f i fms_fp.obj
 0001:0000ad30       ?_Key@?$_Tree@V?$_Tmap_traits@HPAVobject_t@@U?$less@H@std@@V?$allocator@U?$pair@$$CBHPAVobject_t@@@std@@@3@$0A@@std@@@std@@IBEABHPAU?$_Tree_node@U?$pair@$$CBHPAVobject_t@@@std@@PAX@2@@Z 1000bd30 f i mfdpage.obj
 0001:0000ad30       ?_Key@?$_Tree@V?$_Tmap_traits@V?$basic_string@DU?$char_traits@D@std@@V?$allocator@D@2@@std@@HU?$less@V?$basic_string@DU?$char_traits@D@std@@V?$allocator@D@2@@std@@@2@V?$allocator@U?$pair@$$CBV?$basic_string@DU?$char_traits@D@std@@V?$allocator@D@2@@std@@H@std@@@2@$0A@@std@@@std@@IBEABV?$basic_string@DU?$char_traits@D@std@@V?$allocator@D@2@@2@PAU?$_Tree_node@U?$pair@$$CBV?$basic_string@DU?$char_traits@D@std@@V?$allocator@D@2@@std@@H@std@@PAX@2@@Z 1000bd30 f i mfdpage.obj
 0001:0000ad30       ?_Key@?$_Tree@V?$_Tmap_traits@HMU?$less@H@std@@V?$allocator@U?$pair@$$CBHM@std@@@2@$0A@@std@@@std@@IBEABHPAU?$_Tree_node@U?$pair@$$CBHM@std@@PAX@2@@Z 1000bd30 f i fms_config.obj
 0001:0000ad30       ?_Key@?$_Tree@V?$_Tmap_traits@V?$basic_string@DU?$char_traits@D@std@@V?$allocator@D@2@@std@@MU?$less@V?$basic_string@DU?$char_traits@D@std@@V?$allocator@D@2@@std@@@2@V?$allocator@U?$pair@$$CBV?$basic_string@DU?$char_traits@D@std@@V?$allocator@D@2@@std@@M@std@@@2@$0A@@std@@@std@@IBEABV?$basic_string@DU?$char_traits@D@std@@V?$allocator@D@2@@2@PAU?$_Tree_node@U?$pair@$$CBV?$basic_string@DU?$char_traits@D@std@@V?$allocator@D@2@@std@@M@std@@PAX@2@@Z 1000bd30 f i mfdpage_fms.obj
 0001:0000ad30       ?_Key@?$_Tree@V?$_Tmap_traits@HPAVfms_fp_item_t@@U?$less@H@std@@V?$allocator@U?$pair@$$CBHPAVfms_fp_item_t@@@std@@@3@$0A@@std@@@std@@IBEABHPAU?$_Tree_node@U?$pair@$$CBHPAVfms_fp_item_t@@@std@@PAX@2@@Z 1000bd30 f i mfdpage_fms.obj
 0001:0000ad30       ?_Key@?$_Tree@V?$_Tmap_traits@HV?$basic_string@DU?$char_traits@D@std@@V?$allocator@D@2@@std@@U?$less@H@2@V?$allocator@U?$pair@$$CBHV?$basic_string@DU?$char_traits@D@std@@V?$allocator@D@2@@std@@@std@@@2@$0A@@std@@@std@@IBEABHPAU?$_Tree_node@U?$pair@$$CBHV?$basic_string@DU?$char_traits@D@std@@V?$allocator@D@2@@std@@@std@@PAX@2@@Z 1000bd30 f i out_saitek.obj
 0001:0000ad30       ?_Key@?$_Tree@V?$_Tmap_traits@V?$basic_string@DU?$char_traits@D@std@@V?$allocator@D@2@@std@@DU?$less@V?$basic_string@DU?$char_traits@D@std@@V?$allocator@D@2@@std@@@2@V?$allocator@U?$pair@$$CBV?$basic_string@DU?$char_traits@D@std@@V?$allocator@D@2@@std@@D@std@@@2@$0A@@std@@@std@@IBEABV?$basic_string@DU?$char_traits@D@std@@V?$allocator@D@2@@2@PAU?$_Tree_node@U?$pair@$$CBV?$basic_string@DU?$char_traits@D@std@@V?$allocator@D@2@@std@@D@std@@PAX@2@@Z 1000bd30 f i mfdpage.obj
 0001:0000ad60       ?_Lbound@?$_Tree@V?$_Tset_traits@PAVmfdpage_t@@U?$less@PAVmfdpage_t@@@std@@V?$allocator@PAVmfdpage_t@@@3@$0A@@std@@@std@@IAEPAU?$_Tree_node@PAVmfdpage_t@@PAX@2@ABQAVmfdpage_t@@@Z 1000bd60 f i in.obj
 0001:0000ae00       ?empty@?$_Tree@V?$_Tset_traits@PAVmfdpage_t@@U?$less@PAVmfdpage_t@@@std@@V?$allocator@PAVmfdpage_t@@@3@$0A@@std@@@std@@QBE_NXZ 1000be00 f i in.obj
 0001:0000ae00       ?empty@?$_Tree@V?$_Tmap_traits@HPAVfms_fp_item_t@@U?$less@H@std@@V?$allocator@U?$pair@$$CBHPAVfms_fp_item_t@@@std@@@3@$0A@@std@@@std@@QBE_NXZ 1000be00 f i fms_fp.obj
 0001:0000ae00       ?empty@?$_Tree@V?$_Tmap_traits@V?$basic_string@DU?$char_traits@D@std@@V?$allocator@D@2@@std@@V12@U?$less@V?$basic_string@DU?$char_traits@D@std@@V?$allocator@D@2@@std@@@2@V?$allocator@U?$pair@$$CBV?$basic_string@DU?$char_traits@D@std@@V?$allocator@D@2@@std@@V12@@std@@@2@$0A@@std@@@std@@QBE_NXZ 1000be00 f i config.obj
 0001:0000ae30       ?find@?$_Tree@V?$_Tset_traits@PAVmfdpage_t@@U?$less@PAVmfdpage_t@@@std@@V?$allocator@PAVmfdpage_t@@@3@$0A@@std@@@std@@QAE?AV?$_Tree_const_iterator@V?$_Tree_val@U?$_Tree_simple_types@PAVmfdpage_t@@@std@@@std@@@2@ABQAVmfdpage_t@@@Z 1000be30 f i in.obj
 0001:0000aed0       ?insert@?$_Tree@V?$_Tset_traits@PAVmfdpage_t@@U?$less@PAVmfdpage_t@@@std@@V?$allocator@PAVmfdpage_t@@@3@$0A@@std@@@std@@QAE?AU?$pair@V?$_Tree_const_iterator@V?$_Tree_val@U?$_Tree_simple_types@PAVmfdpage_t@@@std@@@std@@@std@@_N@2@ABQAVmfdpage_t@@@Z 1000bed0 f i in.obj
 0001:0000af00       ?insert@?$set@PAVmfdpage_t@@U?$less@PAVmfdpage_t@@@std@@V?$allocator@PAVmfdpage_t@@@3@@std@@QAE?AU?$pair@V?$_Tree_const_iterator@V?$_Tree_val@U?$_Tree_simple_types@PAVmfdpage_t@@@std@@@std@@@std@@_N@2@ABQAVmfdpage_t@@@Z 1000bf00 f i in.obj
 0001:0000af20       ?lower_bound@?$_Tree@V?$_Tset_traits@PAVmfdpage_t@@U?$less@PAVmfdpage_t@@@std@@V?$allocator@PAVmfdpage_t@@@3@$0A@@std@@@std@@QAE?AV?$_Tree_const_iterator@V?$_Tree_val@U?$_Tree_simple_types@PAVmfdpage_t@@@std@@@std@@@2@ABQAVmfdpage_t@@@Z 1000bf20 f i in.obj
 0001:0000af50       ?max_size@?$_Tree@V?$_Tset_traits@PAVmfdpage_t@@U?$less@PAVmfdpage_t@@@std@@V?$allocator@PAVmfdpage_t@@@3@$0A@@std@@@std@@QBEIXZ 1000bf50 f i in.obj
 0001:0000af50       ?max_size@?$_Tree@V?$_Tset_traits@PAVlistener_t@@U?$less@PAVlistener_t@@@std@@V?$allocator@PAVlistener_t@@@3@$0A@@std@@@std@@QBEIXZ 1000bf50 f i data.obj
 0001:0000af50       ?max_size@?$_Tree@V?$_Tset_traits@PAVobject_t@@U?$less@PAVobject_t@@@std@@V?$allocator@PAVobject_t@@@3@$0A@@std@@@std@@QBEIXZ 1000bf50 f i data.obj
 0001:0000af70       ?max_size@?$_Wrap_alloc@V?$allocator@U?$_Tree_node@PAVlistener_t@@PAX@std@@@std@@@std@@QBEIXZ 1000bf70 f i data.obj
 0001:0000af70       ?max_size@?$_Wrap_alloc@V?$allocator@U?$_Tree_node@PAVmfdpage_t@@PAX@std@@@std@@@std@@QBEIXZ 1000bf70 f i in.obj
 0001:0000af70       ?max_size@?$_Wrap_alloc@V?$allocator@U?$_Tree_node@PAVobject_t@@PAX@std@@@std@@@std@@QBEIXZ 1000bf70 f i data.obj
 0001:0000afb0       ??0mfdpages_t@@QAE@PAVout_t@@PAVin_t@@PAVdata_t@@PAVfms_t@@@Z 1000bfb0 f   mfdpage.obj
 0001:0000aff0       ??1mfdpages_t@@QAE@XZ      1000bff0 f   mfdpage.obj
 0001:0000b020       ?load@mfdpages_t@@QAEXXZ   1000c020 f   mfdpage.obj
 0001:0000b760       ??0mfdpage_t@@QAE@PBDPAVout_t@@PAVdata_t@@HV?$basic_string@DU?$char_traits@D@std@@V?$allocator@D@2@@std@@PAVfms_t@@@Z 1000c760 f   mfdpage.obj
 0001:0000bb70       ??1mfdpage_t@@UAE@XZ       1000cb70 f   mfdpage.obj
 0001:0000bc10       ?name@mfdpage_t@@UAEABV?$basic_string@DU?$char_traits@D@std@@V?$allocator@D@2@@std@@XZ 1000cc10 f   mfdpage.obj
 0001:0000bc30       ?set_datasources@mfdpage_t@@QAEXPAV?$map@HV?$basic_string@DU?$char_traits@D@std@@V?$allocator@D@2@@std@@U?$less@H@2@V?$allocator@U?$pair@$$CBHV?$basic_string@DU?$char_traits@D@std@@V?$allocator@D@2@@std@@@std@@@2@@std@@@Z 1000cc30 f   mfdpage.obj
 0001:0000bcd0       ?remove_datasources@mfdpage_t@@QAEXXZ 1000ccd0 f   mfdpage.obj
 0001:0000bd50       ?set_active@mfdpage_t@@QAEX_N@Z 1000cd50 f   mfdpage.obj
 0001:0000bde0       ?has_object@mfdpage_t@@UAE_NPAVobject_t@@@Z 1000cde0 f   mfdpage.obj
 0001:0000be80       ?refresh@mfdpage_t@@UAE_NPAVobject_t@@@Z 1000ce80 f   mfdpage.obj
 0001:0000bf50       ?final_refresh@mfdpage_t@@UAEXXZ 1000cf50 f   mfdpage.obj
 0001:0000c3d0       ??$?0$$QAV?$basic_string@DU?$char_traits@D@std@@V?$allocator@D@2@@std@@$$$V@?$pair@$$CBV?$basic_string@DU?$char_traits@D@std@@V?$allocator@D@2@@std@@D@std@@QAE@Upiecewise_construct_t@1@V?$tuple@$$QAV?$basic_string@DU?$char_traits@D@std@@V?$allocator@D@2@@std@@@1@V?$tuple@$$$V@1@@Z 1000d3d0 f i mfdpage.obj
 0001:0000c410       ??$?0$$QAV?$basic_string@DU?$char_traits@D@std@@V?$allocator@D@2@@std@@$$$V@?$pair@$$CBV?$basic_string@DU?$char_traits@D@std@@V?$allocator@D@2@@std@@H@std@@QAE@Upiecewise_construct_t@1@V?$tuple@$$QAV?$basic_string@DU?$char_traits@D@std@@V?$allocator@D@2@@std@@@1@V?$tuple@$$$V@1@@Z 1000d410 f i mfdpage.obj
 0001:0000c450       ??$?0$$QAH$$$V@?$pair@$$CBHPAVobject_t@@@std@@QAE@Upiecewise_construct_t@1@V?$tuple@$$QAH@1@V?$tuple@$$$V@1@@Z 1000d450 f i mfdpage_fms.obj
 0001:0000c450       ??$?0ABH$$$V@?$pair@$$CBHPAVfms_fp_item_t@@@std@@QAE@Upiecewise_construct_t@1@V?$tuple@ABH@1@V?$tuple@$$$V@1@@Z 1000d450 f i mfdpage_fms.obj
 0001:0000c450       ??$?0$$QAH$$$V@?$pair@$$CBHPAVfms_fp_item_t@@@std@@QAE@Upiecewise_construct_t@1@V?$tuple@$$QAH@1@V?$tuple@$$$V@1@@Z 1000d450 f i mfdpage_fms.obj
 0001:0000c450       ??$?0ABH$$$V@?$pair@$$CBHPAVobject_t@@@std@@QAE@Upiecewise_construct_t@1@V?$tuple@ABH@1@V?$tuple@$$$V@1@@Z 1000d450 f i mfdpage.obj
 0001:0000c490       ??$?0ABV?$basic_string@DU?$char_traits@D@std@@V?$allocator@D@2@@std@@$$$V@?$pair@$$CBV?$basic_string@DU?$char_traits@D@std@@V?$allocator@D@2@@std@@V12@@std@@QAE@Upiecewise_construct_t@1@V?$tuple@ABV?$basic_string@DU?$char_traits@D@std@@V?$allocator@D@2@@std@@@1@V?$tuple@$$$V@1@@Z 1000d490 f i mfdpage.obj
 0001:0000c4d0       ??$?0V?$tuple@$$QAV?$basic_string@DU?$char_traits@D@std@@V?$allocator@D@2@@std@@@std@@V?$tuple@$$$V@1@$0A@$S@?$pair@$$CBV?$basic_string@DU?$char_traits@D@std@@V?$allocator@D@2@@std@@D@std@@QAE@AAV?$tuple@$$QAV?$basic_string@DU?$char_traits@D@std@@V?$allocator@D@2@@std@@@1@AAV?$tuple@$$$V@1@U?$_Arg_idx@$0A@@1@U?$_Arg_idx@$S@1@@Z 1000d4d0 f i mfdpage.obj
 0001:0000c510       ??$?0V?$tuple@$$QAV?$basic_string@DU?$char_traits@D@std@@V?$allocator@D@2@@std@@@std@@V?$tuple@$$$V@1@$0A@$S@?$pair@$$CBV?$basic_string@DU?$char_traits@D@std@@V?$allocator@D@2@@std@@H@std@@QAE@AAV?$tuple@$$QAV?$basic_string@DU?$char_traits@D@std@@V?$allocator@D@2@@std@@@1@AAV?$tuple@$$$V@1@U?$_Arg_idx@$0A@@1@U?$_Arg_idx@$S@1@@Z 1000d510 f i mfdpage.obj
 0001:0000c550       ??$?0V?$tuple@$$QAH@std@@V?$tuple@$$$V@1@$0A@$S@?$pair@$$CBHPAVfms_fp_item_t@@@std@@QAE@AAV?$tuple@$$QAH@1@AAV?$tuple@$$$V@1@U?$_Arg_idx@$0A@@1@U?$_Arg_idx@$S@1@@Z 1000d550 f i mfdpage_fms.obj
 0001:0000c550       ??$?0V?$tuple@ABH@std@@V?$tuple@$$$V@1@$0A@$S@?$pair@$$CBHPAVfms_fp_item_t@@@std@@QAE@AAV?$tuple@ABH@1@AAV?$tuple@$$$V@1@U?$_Arg_idx@$0A@@1@U?$_Arg_idx@$S@1@@Z 1000d550 f i mfdpage_fms.obj
 0001:0000c550       ??$?0V?$tuple@$$QAH@std@@V?$tuple@$$$V@1@$0A@$S@?$pair@$$CBHPAVobject_t@@@std@@QAE@AAV?$tuple@$$QAH@1@AAV?$tuple@$$$V@1@U?$_Arg_idx@$0A@@1@U?$_Arg_idx@$S@1@@Z 1000d550 f i mfdpage_fms.obj
 0001:0000c550       ??$?0V?$tuple@ABH@std@@V?$tuple@$$$V@1@$0A@$S@?$pair@$$CBHPAVobject_t@@@std@@QAE@AAV?$tuple@ABH@1@AAV?$tuple@$$$V@1@U?$_Arg_idx@$0A@@1@U?$_Arg_idx@$S@1@@Z 1000d550 f i mfdpage.obj
 0001:0000c590       ??$?0V?$tuple@ABV?$basic_string@DU?$char_traits@D@std@@V?$allocator@D@2@@std@@@std@@V?$tuple@$$$V@1@$0A@$S@?$pair@$$CBV?$basic_string@DU?$char_traits@D@std@@V?$allocator@D@2@@std@@V12@@std@@QAE@AAV?$tuple@ABV?$basic_string@DU?$char_traits@D@std@@V?$allocator@D@2@@std@@@1@AAV?$tuple@$$$V@1@U?$_Arg_idx@$0A@@1@U?$_Arg_idx@$S@1@@Z 1000d590 f i mfdpage.obj
 0001:0000c5d0       ??$_Buynode@AAU?$pair@$$CBHPAVobject_t@@@std@@@?$_Tree_buy@U?$pair@$$CBHPAVobject_t@@@std@@V?$allocator@U?$pair@$$CBHPAVobject_t@@@std@@@2@@std@@QAEPAU?$_Tree_node@U?$pair@$$CBHPAVobject_t@@@std@@PAX@1@AAU?$pair@$$CBHPAVobject_t@@@1@@Z 1000d5d0 f i mfdpage.obj
 0001:0000c6b0       ??$_Buynode@ABUpiecewise_construct_t@std@@V?$tuple@$$QAV?$basic_string@DU?$char_traits@D@std@@V?$allocator@D@2@@std@@@2@V?$tuple@$$$V@2@@?$_Tree_buy@U?$pair@$$CBV?$basic_string@DU?$char_traits@D@std@@V?$allocator@D@2@@std@@D@std@@V?$allocator@U?$pair@$$CBV?$basic_string@DU?$char_traits@D@std@@V?$allocator@D@2@@std@@D@std@@@2@@std@@QAEPAU?$_Tree_node@U?$pair@$$CBV?$basic_string@DU?$char_traits@D@std@@V?$allocator@D@2@@std@@D@std@@PAX@1@ABUpiecewise_construct_t@1@$$QAV?$tuple@$$QAV?$basic_string@DU?$char_traits@D@std@@V?$allocator@D@2@@std@@@1@$$QAV?$tuple@$$$V@1@@Z 1000d6b0 f i mfdpage.obj
 0001:0000c7b0       ??$_Buynode@ABUpiecewise_construct_t@std@@V?$tuple@$$QAV?$basic_string@DU?$char_traits@D@std@@V?$allocator@D@2@@std@@@2@V?$tuple@$$$V@2@@?$_Tree_buy@U?$pair@$$CBV?$basic_string@DU?$char_traits@D@std@@V?$allocator@D@2@@std@@H@std@@V?$allocator@U?$pair@$$CBV?$basic_string@DU?$char_traits@D@std@@V?$allocator@D@2@@std@@H@std@@@2@@std@@QAEPAU?$_Tree_node@U?$pair@$$CBV?$basic_string@DU?$char_traits@D@std@@V?$allocator@D@2@@std@@H@std@@PAX@1@ABUpiecewise_construct_t@1@$$QAV?$tuple@$$QAV?$basic_string@DU?$char_traits@D@std@@V?$allocator@D@2@@std@@@1@$$QAV?$tuple@$$$V@1@@Z 1000d7b0 f i mfdpage.obj
 0001:0000c8b0       ??$_Buynode@ABUpiecewise_construct_t@std@@V?$tuple@ABV?$basic_string@DU?$char_traits@D@std@@V?$allocator@D@2@@std@@@2@V?$tuple@$$$V@2@@?$_Tree_buy@U?$pair@$$CBV?$basic_string@DU?$char_traits@D@std@@V?$allocator@D@2@@std@@V12@@std@@V?$allocator@U?$pair@$$CBV?$basic_string@DU?$char_traits@D@std@@V?$allocator@D@2@@std@@V12@@std@@@2@@std@@QAEPAU?$_Tree_node@U?$pair@$$CBV?$basic_string@DU?$char_traits@D@std@@V?$allocator@D@2@@std@@V12@@std@@PAX@1@ABUpiecewise_construct_t@1@$$QAV?$tuple@ABV?$basic_string@DU?$char_traits@D@std@@V?$allocator@D@2@@std@@@1@$$QAV?$tuple@$$$V@1@@Z 1000d8b0 f i mfdpage.obj
 0001:0000c9b0       ??$_Buynode_if_nil@AAU?$pair@$$CBV?$basic_string@DU?$char_traits@D@std@@V?$allocator@D@2@@std@@M@std@@@?$_Tree@V?$_Tmap_traits@V?$basic_string@DU?$char_traits@D@std@@V?$allocator@D@2@@std@@MU?$less@V?$basic_string@DU?$char_traits@D@std@@V?$allocator@D@2@@std@@@2@V?$allocator@U?$pair@$$CBV?$basic_string@DU?$char_traits@D@std@@V?$allocator@D@2@@std@@M@std@@@2@$0A@@std@@@std@@IAEPAU?$_Tree_node@U?$pair@$$CBV?$basic_string@DU?$char_traits@D@std@@V?$allocator@D@2@@std@@M@std@@PAX@1@PAU21@AAU?$pair@$$CBV?$basic_string@DU?$char_traits@D@std@@V?$allocator@D@2@@std@@M@1@@Z 1000d9b0 f i mfdpage_fms.obj
 0001:0000c9b0       ??$_Buynode_if_nil@AAU?$pair@$$CBHM@std@@@?$_Tree@V?$_Tmap_traits@HMU?$less@H@std@@V?$allocator@U?$pair@$$CBHM@std@@@2@$0A@@std@@@std@@IAEPAU?$_Tree_node@U?$pair@$$CBHM@std@@PAX@1@PAU21@AAU?$pair@$$CBHM@1@@Z 1000d9b0 f i fms_config.obj
 0001:0000c9b0       ??$_Buynode_if_nil@AAU?$pair@$$CBV?$basic_string@DU?$char_traits@D@std@@V?$allocator@D@2@@std@@PAVfms_config_item_t@@@std@@@?$_Tree@V?$_Tmap_traits@V?$basic_string@DU?$char_traits@D@std@@V?$allocator@D@2@@std@@PAVfms_config_item_t@@U?$less@V?$basic_string@DU?$char_traits@D@std@@V?$allocator@D@2@@std@@@2@V?$allocator@U?$pair@$$CBV?$basic_string@DU?$char_traits@D@std@@V?$allocator@D@2@@std@@PAVfms_config_item_t@@@std@@@2@$0A@@std@@@std@@IAEPAU?$_Tree_node@U?$pair@$$CBV?$basic_string@DU?$char_traits@D@std@@V?$allocator@D@2@@std@@PAVfms_config_item_t@@@std@@PAX@1@PAU21@AAU?$pair@$$CBV?$basic_string@DU?$char_traits@D@std@@V?$allocator@D@2@@std@@PAVfms_config_item_t@@@1@@Z 1000d9b0 f i fms_config.obj
 0001:0000c9b0       ??$_Buynode_if_nil@AAU?$pair@$$CBV?$basic_string@DU?$char_traits@D@std@@V?$allocator@D@2@@std@@H@std@@@?$_Tree@V?$_Tmap_traits@V?$basic_string@DU?$char_traits@D@std@@V?$allocator@D@2@@std@@HU?$less@V?$basic_string@DU?$char_traits@D@std@@V?$allocator@D@2@@std@@@2@V?$allocator@U?$pair@$$CBV?$basic_string@DU?$char_traits@D@std@@V?$allocator@D@2@@std@@H@std@@@2@$0A@@std@@@std@@IAEPAU?$_Tree_node@U?$pair@$$CBV?$basic_string@DU?$char_traits@D@std@@V?$allocator@D@2@@std@@H@std@@PAX@1@PAU21@AAU?$pair@$$CBV?$basic_string@DU?$char_traits@D@std@@V?$allocator@D@2@@std@@H@1@@Z 1000d9b0 f i mfdpage.obj
 0001:0000c9b0       ??$_Buynode_if_nil@AAU?$pair@$$CBHV?$basic_string@DU?$char_traits@D@std@@V?$allocator@D@2@@std@@@std@@@?$_Tree@V?$_Tmap_traits@HV?$basic_string@DU?$char_traits@D@std@@V?$allocator@D@2@@std@@U?$less@H@2@V?$allocator@U?$pair@$$CBHV?$basic_string@DU?$char_traits@D@std@@V?$allocator@D@2@@std@@@std@@@2@$0A@@std@@@std@@IAEPAU?$_Tree_node@U?$pair@$$CBHV?$basic_string@DU?$char_traits@D@std@@V?$allocator@D@2@@std@@@std@@PAX@1@PAU21@AAU?$pair@$$CBHV?$basic_string@DU?$char_traits@D@std@@V?$allocator@D@2@@std@@@1@@Z 1000d9b0 f i out_saitek.obj
 0001:0000c9b0       ??$_Buynode_if_nil@AAU?$pair@$$CBV?$basic_string@DU?$char_traits@D@std@@V?$allocator@D@2@@std@@PAVfms_fp_item_t@@@std@@@?$_Tree@V?$_Tmap_traits@V?$basic_string@DU?$char_traits@D@std@@V?$allocator@D@2@@std@@PAVfms_fp_item_t@@U?$less@V?$basic_string@DU?$char_traits@D@std@@V?$allocator@D@2@@std@@@2@V?$allocator@U?$pair@$$CBV?$basic_string@DU?$char_traits@D@std@@V?$allocator@D@2@@std@@PAVfms_fp_item_t@@@std@@@2@$0A@@std@@@std@@IAEPAU?$_Tree_node@U?$pair@$$CBV?$basic_string@DU?$char_traits@D@std@@V?$allocator@D@2@@std@@PAVfms_fp_item_t@@@std@@PAX@1@PAU21@AAU?$pair@$$CBV?$basic_string@DU?$char_traits@D@std@@V?$allocator@D@2@@std@@PAVfms_fp_item_t@@@1@@Z 1000d9b0 f i fms_fp.obj
 0001:0000c9b0       ??$_Buynode_if_nil@AAU?$pair@$$CBV?$basic_string@DU?$char_traits@D@std@@V?$allocator@D@2@@std@@D@std@@@?$_Tree@V?$_Tmap_traits@V?$basic_string@DU?$char_traits@D@std@@V?$allocator@D@2@@std@@DU?$less@V?$basic_string@DU?$char_traits@D@std@@V?$allocator@D@2@@std@@@2@V?$allocator@U?$pair@$$CBV?$basic_string@DU?$char_traits@D@std@@V?$allocator@D@2@@std@@D@std@@@2@$0A@@std@@@std@@IAEPAU?$_Tree_node@U?$pair@$$CBV?$basic_string@DU?$char_traits@D@std@@V?$allocator@D@2@@std@@D@std@@PAX@1@PAU21@AAU?$pair@$$CBV?$basic_string@DU?$char_traits@D@std@@V?$allocator@D@2@@std@@D@1@@Z 1000d9b0 f i mfdpage.obj
 0001:0000c9b0       ??$_Buynode_if_nil@AAU?$pair@$$CBV?$basic_string@DU?$char_traits@D@std@@V?$allocator@D@2@@std@@V12@@std@@@?$_Tree@V?$_Tmap_traits@V?$basic_string@DU?$char_traits@D@std@@V?$allocator@D@2@@std@@V12@U?$less@V?$basic_string@DU?$char_traits@D@std@@V?$allocator@D@2@@std@@@2@V?$allocator@U?$pair@$$CBV?$basic_string@DU?$char_traits@D@std@@V?$allocator@D@2@@std@@V12@@std@@@2@$0A@@std@@@std@@IAEPAU?$_Tree_node@U?$pair@$$CBV?$basic_string@DU?$char_traits@D@std@@V?$allocator@D@2@@std@@V12@@std@@PAX@1@PAU21@AAU?$pair@$$CBV?$basic_string@DU?$char_traits@D@std@@V?$allocator@D@2@@std@@V12@@1@@Z 1000d9b0 f i tools.obj
 0001:0000c9b0       ??$_Buynode_if_nil@AAU?$pair@$$CBHPAVobject_t@@@std@@@?$_Tree@V?$_Tmap_traits@HPAVobject_t@@U?$less@H@std@@V?$allocator@U?$pair@$$CBHPAVobject_t@@@std@@@3@$0A@@std@@@std@@IAEPAU?$_Tree_node@U?$pair@$$CBHPAVobject_t@@@std@@PAX@1@PAU21@AAU?$pair@$$CBHPAVobject_t@@@1@@Z 1000d9b0 f i mfdpage.obj
 0001:0000c9b0       ??$_Buynode_if_nil@AAU?$pair@$$CBHPAVfms_fp_item_t@@@std@@@?$_Tree@V?$_Tmap_traits@HPAVfms_fp_item_t@@U?$less@H@std@@V?$allocator@U?$pair@$$CBHPAVfms_fp_item_t@@@std@@@3@$0A@@std@@@std@@IAEPAU?$_Tree_node@U?$pair@$$CBHPAVfms_fp_item_t@@@std@@PAX@1@PAU21@AAU?$pair@$$CBHPAVfms_fp_item_t@@@1@@Z 1000d9b0 f i mfdpage_fms.obj
 0001:0000c9c0       ??$_Copy@U?$integral_constant@_N$0A@@std@@@?$_Tree@V?$_Tmap_traits@HPAVobject_t@@U?$less@H@std@@V?$allocator@U?$pair@$$CBHPAVobject_t@@@std@@@3@$0A@@std@@@std@@IAEXABV01@U?$integral_constant@_N$0A@@1@@Z 1000d9c0 f i mfdpage.obj
 0001:0000ca80       ??$_Copy_nodes@U?$integral_constant@_N$0A@@std@@@?$_Tree@V?$_Tmap_traits@HPAVobject_t@@U?$less@H@std@@V?$allocator@U?$pair@$$CBHPAVobject_t@@@std@@@3@$0A@@std@@@std@@IAEPAU?$_Tree_node@U?$pair@$$CBHPAVobject_t@@@std@@PAX@1@PAU21@0U?$integral_constant@_N$0A@@1@@Z 1000da80 f i mfdpage.obj
 0001:0000cbe0       ??$_Copy_or_move@U?$integral_constant@_N$0A@@std@@U?$integral_constant@_N$00@2@U12@H@?$_Tree@V?$_Tmap_traits@HPAVobject_t@@U?$less@H@std@@V?$allocator@U?$pair@$$CBHPAVobject_t@@@std@@@3@$0A@@std@@@std@@IAEPAU?$_Tree_node@U?$pair@$$CBHPAVobject_t@@@std@@PAX@1@PAU21@U?$integral_constant@_N$0A@@1@U?$integral_constant@_N$00@1@1H@Z 1000dbe0 f i mfdpage.obj
 0001:0000cc10       ??$assign@V?$_String_iterator@V?$_String_val@U?$_Simple_types@D@std@@@std@@@std@@@?$basic_string@DU?$char_traits@D@std@@V?$allocator@D@2@@std@@QAEAAV01@V?$_String_iterator@V?$_String_val@U?$_Simple_types@D@std@@@std@@@1@0@Z 1000dc10 f i mfdpage.obj
 0001:0000cc60       ??$construct@U?$pair@$$CBHPAVobject_t@@@std@@AAU12@@?$_Wrap_alloc@V?$allocator@U?$_Tree_node@U?$pair@$$CBHPAVobject_t@@@std@@PAX@std@@@std@@@std@@QAEXPAU?$pair@$$CBHPAVobject_t@@@1@AAU21@@Z 1000dc60 f i mfdpage.obj
 0001:0000cc90       ??$construct@U?$pair@$$CBHPAVobject_t@@@std@@AAU12@@?$allocator@U?$_Tree_node@U?$pair@$$CBHPAVobject_t@@@std@@PAX@std@@@std@@QAEXPAU?$pair@$$CBHPAVobject_t@@@1@AAU21@@Z 1000dc90 f i mfdpage.obj
 0001:0000cce0       ??$construct@U?$pair@$$CBHPAVobject_t@@@std@@AAU12@@?$allocator_traits@V?$allocator@U?$_Tree_node@U?$pair@$$CBHPAVobject_t@@@std@@PAX@std@@@std@@@std@@SAXAAV?$allocator@U?$_Tree_node@U?$pair@$$CBHPAVobject_t@@@std@@PAX@std@@@1@PAU?$pair@$$CBHPAVobject_t@@@1@AAU31@@Z 1000dce0 f i mfdpage.obj
 0001:0000cd00       ??$construct@U?$pair@$$CBV?$basic_string@DU?$char_traits@D@std@@V?$allocator@D@2@@std@@D@std@@ABUpiecewise_construct_t@2@V?$tuple@$$QAV?$basic_string@DU?$char_traits@D@std@@V?$allocator@D@2@@std@@@2@V?$tuple@$$$V@2@@?$_Wrap_alloc@V?$allocator@U?$_Tree_node@U?$pair@$$CBV?$basic_string@DU?$char_traits@D@std@@V?$allocator@D@2@@std@@D@std@@PAX@std@@@std@@@std@@QAEXPAU?$pair@$$CBV?$basic_string@DU?$char_traits@D@std@@V?$allocator@D@2@@std@@D@1@ABUpiecewise_construct_t@1@$$QAV?$tuple@$$QAV?$basic_string@DU?$char_traits@D@std@@V?$allocator@D@2@@std@@@1@$$QAV?$tuple@$$$V@1@@Z 1000dd00 f i mfdpage.obj
 0001:0000cd50       ??$construct@U?$pair@$$CBV?$basic_string@DU?$char_traits@D@std@@V?$allocator@D@2@@std@@D@std@@ABUpiecewise_construct_t@2@V?$tuple@$$QAV?$basic_string@DU?$char_traits@D@std@@V?$allocator@D@2@@std@@@2@V?$tuple@$$$V@2@@?$allocator@U?$_Tree_node@U?$pair@$$CBV?$basic_string@DU?$char_traits@D@std@@V?$allocator@D@2@@std@@D@std@@PAX@std@@@std@@QAEXPAU?$pair@$$CBV?$basic_string@DU?$char_traits@D@std@@V?$allocator@D@2@@std@@D@1@ABUpiecewise_construct_t@1@$$QAV?$tuple@$$QAV?$basic_string@DU?$char_traits@D@std@@V?$allocator@D@2@@std@@@1@$$QAV?$tuple@$$$V@1@@Z 1000dd50 f i mfdpage.obj
 0001:0000cdc0       ??$construct@U?$pair@$$CBV?$basic_string@DU?$char_traits@D@std@@V?$allocator@D@2@@std@@D@std@@ABUpiecewise_construct_t@2@V?$tuple@$$QAV?$basic_string@DU?$char_traits@D@std@@V?$allocator@D@2@@std@@@2@V?$tuple@$$$V@2@@?$allocator_traits@V?$allocator@U?$_Tree_node@U?$pair@$$CBV?$basic_string@DU?$char_traits@D@std@@V?$allocator@D@2@@std@@D@std@@PAX@std@@@std@@@std@@SAXAAV?$allocator@U?$_Tree_node@U?$pair@$$CBV?$basic_string@DU?$char_traits@D@std@@V?$allocator@D@2@@std@@D@std@@PAX@std@@@1@PAU?$pair@$$CBV?$basic_string@DU?$char_traits@D@std@@V?$allocator@D@2@@std@@D@1@ABUpiecewise_construct_t@1@$$QAV?$tuple@$$QAV?$basic_string@DU?$char_traits@D@std@@V?$allocator@D@2@@std@@@1@$$QAV?$tuple@$$$V@1@@Z 1000ddc0 f i mfdpage.obj
 0001:0000ce00       ??$construct@U?$pair@$$CBV?$basic_string@DU?$char_traits@D@std@@V?$allocator@D@2@@std@@H@std@@ABUpiecewise_construct_t@2@V?$tuple@$$QAV?$basic_string@DU?$char_traits@D@std@@V?$allocator@D@2@@std@@@2@V?$tuple@$$$V@2@@?$_Wrap_alloc@V?$allocator@U?$_Tree_node@U?$pair@$$CBV?$basic_string@DU?$char_traits@D@std@@V?$allocator@D@2@@std@@H@std@@PAX@std@@@std@@@std@@QAEXPAU?$pair@$$CBV?$basic_string@DU?$char_traits@D@std@@V?$allocator@D@2@@std@@H@1@ABUpiecewise_construct_t@1@$$QAV?$tuple@$$QAV?$basic_string@DU?$char_traits@D@std@@V?$allocator@D@2@@std@@@1@$$QAV?$tuple@$$$V@1@@Z 1000de00 f i mfdpage.obj
 0001:0000ce50       ??$construct@U?$pair@$$CBV?$basic_string@DU?$char_traits@D@std@@V?$allocator@D@2@@std@@H@std@@ABUpiecewise_construct_t@2@V?$tuple@$$QAV?$basic_string@DU?$char_traits@D@std@@V?$allocator@D@2@@std@@@2@V?$tuple@$$$V@2@@?$allocator@U?$_Tree_node@U?$pair@$$CBV?$basic_string@DU?$char_traits@D@std@@V?$allocator@D@2@@std@@H@std@@PAX@std@@@std@@QAEXPAU?$pair@$$CBV?$basic_string@DU?$char_traits@D@std@@V?$allocator@D@2@@std@@H@1@ABUpiecewise_construct_t@1@$$QAV?$tuple@$$QAV?$basic_string@DU?$char_traits@D@std@@V?$allocator@D@2@@std@@@1@$$QAV?$tuple@$$$V@1@@Z 1000de50 f i mfdpage.obj
 0001:0000cec0       ??$construct@U?$pair@$$CBV?$basic_string@DU?$char_traits@D@std@@V?$allocator@D@2@@std@@H@std@@ABUpiecewise_construct_t@2@V?$tuple@$$QAV?$basic_string@DU?$char_traits@D@std@@V?$allocator@D@2@@std@@@2@V?$tuple@$$$V@2@@?$allocator_traits@V?$allocator@U?$_Tree_node@U?$pair@$$CBV?$basic_string@DU?$char_traits@D@std@@V?$allocator@D@2@@std@@H@std@@PAX@std@@@std@@@std@@SAXAAV?$allocator@U?$_Tree_node@U?$pair@$$CBV?$basic_string@DU?$char_traits@D@std@@V?$allocator@D@2@@std@@H@std@@PAX@std@@@1@PAU?$pair@$$CBV?$basic_string@DU?$char_traits@D@std@@V?$allocator@D@2@@std@@H@1@ABUpiecewise_construct_t@1@$$QAV?$tuple@$$QAV?$basic_string@DU?$char_traits@D@std@@V?$allocator@D@2@@std@@@1@$$QAV?$tuple@$$$V@1@@Z 1000dec0 f i mfdpage.obj
 0001:0000cf00       ??$construct@U?$pair@$$CBV?$basic_string@DU?$char_traits@D@std@@V?$allocator@D@2@@std@@V12@@std@@ABUpiecewise_construct_t@2@V?$tuple@ABV?$basic_string@DU?$char_traits@D@std@@V?$allocator@D@2@@std@@@2@V?$tuple@$$$V@2@@?$_Wrap_alloc@V?$allocator@U?$_Tree_node@U?$pair@$$CBV?$basic_string@DU?$char_traits@D@std@@V?$allocator@D@2@@std@@V12@@std@@PAX@std@@@std@@@std@@QAEXPAU?$pair@$$CBV?$basic_string@DU?$char_traits@D@std@@V?$allocator@D@2@@std@@V12@@1@ABUpiecewise_construct_t@1@$$QAV?$tuple@ABV?$basic_string@DU?$char_traits@D@std@@V?$allocator@D@2@@std@@@1@$$QAV?$tuple@$$$V@1@@Z 1000df00 f i mfdpage.obj
 0001:0000cf50       ??$construct@U?$pair@$$CBV?$basic_string@DU?$char_traits@D@std@@V?$allocator@D@2@@std@@V12@@std@@ABUpiecewise_construct_t@2@V?$tuple@ABV?$basic_string@DU?$char_traits@D@std@@V?$allocator@D@2@@std@@@2@V?$tuple@$$$V@2@@?$allocator@U?$_Tree_node@U?$pair@$$CBV?$basic_string@DU?$char_traits@D@std@@V?$allocator@D@2@@std@@V12@@std@@PAX@std@@@std@@QAEXPAU?$pair@$$CBV?$basic_string@DU?$char_traits@D@std@@V?$allocator@D@2@@std@@V12@@1@ABUpiecewise_construct_t@1@$$QAV?$tuple@ABV?$basic_string@DU?$char_traits@D@std@@V?$allocator@D@2@@std@@@1@$$QAV?$tuple@$$$V@1@@Z 1000df50 f i mfdpage.obj
 0001:0000cfc0       ??$construct@U?$pair@$$CBV?$basic_string@DU?$char_traits@D@std@@V?$allocator@D@2@@std@@V12@@std@@ABUpiecewise_construct_t@2@V?$tuple@ABV?$basic_string@DU?$char_traits@D@std@@V?$allocator@D@2@@std@@@2@V?$tuple@$$$V@2@@?$allocator_traits@V?$allocator@U?$_Tree_node@U?$pair@$$CBV?$basic_string@DU?$char_traits@D@std@@V?$allocator@D@2@@std@@V12@@std@@PAX@std@@@std@@@std@@SAXAAV?$allocator@U?$_Tree_node@U?$pair@$$CBV?$basic_string@DU?$char_traits@D@std@@V?$allocator@D@2@@std@@V12@@std@@PAX@std@@@1@PAU?$pair@$$CBV?$basic_string@DU?$char_traits@D@std@@V?$allocator@D@2@@std@@V12@@1@ABUpiecewise_construct_t@1@$$QAV?$tuple@ABV?$basic_string@DU?$char_traits@D@std@@V?$allocator@D@2@@std@@@1@$$QAV?$tuple@$$$V@1@@Z 1000dfc0 f i mfdpage.obj
 0001:0000d000       ??$destroy@U?$pair@$$CBV?$basic_string@DU?$char_traits@D@std@@V?$allocator@D@2@@std@@H@std@@@?$allocator@U?$_Tree_node@U?$pair@$$CBV?$basic_string@DU?$char_traits@D@std@@V?$allocator@D@2@@std@@H@std@@PAX@std@@@std@@QAEXPAU?$pair@$$CBV?$basic_string@DU?$char_traits@D@std@@V?$allocator@D@2@@std@@H@1@@Z 1000e000 f i mfdpage.obj
 0001:0000d000       ??$destroy@U?$pair@$$CBV?$basic_string@DU?$char_traits@D@std@@V?$allocator@D@2@@std@@PAVfms_config_item_t@@@std@@@?$allocator@U?$_Tree_node@U?$pair@$$CBV?$basic_string@DU?$char_traits@D@std@@V?$allocator@D@2@@std@@PAVfms_config_item_t@@@std@@PAX@std@@@std@@QAEXPAU?$pair@$$CBV?$basic_string@DU?$char_traits@D@std@@V?$allocator@D@2@@std@@PAVfms_config_item_t@@@1@@Z 1000e000 f i fms_config.obj
 0001:0000d000       ??$destroy@U?$pair@$$CBV?$basic_string@DU?$char_traits@D@std@@V?$allocator@D@2@@std@@M@std@@@?$allocator@U?$_Tree_node@U?$pair@$$CBV?$basic_string@DU?$char_traits@D@std@@V?$allocator@D@2@@std@@M@std@@PAX@std@@@std@@QAEXPAU?$pair@$$CBV?$basic_string@DU?$char_traits@D@std@@V?$allocator@D@2@@std@@M@1@@Z 1000e000 f i mfdpage_fms.obj
 0001:0000d000       ??$destroy@U?$pair@$$CBV?$basic_string@DU?$char_traits@D@std@@V?$allocator@D@2@@std@@PAVfms_fp_item_t@@@std@@@?$allocator@U?$_Tree_node@U?$pair@$$CBV?$basic_string@DU?$char_traits@D@std@@V?$allocator@D@2@@std@@PAVfms_fp_item_t@@@std@@PAX@std@@@std@@QAEXPAU?$pair@$$CBV?$basic_string@DU?$char_traits@D@std@@V?$allocator@D@2@@std@@PAVfms_fp_item_t@@@1@@Z 1000e000 f i fms_fp.obj
 0001:0000d000       ??$destroy@U?$pair@$$CBV?$basic_string@DU?$char_traits@D@std@@V?$allocator@D@2@@std@@D@std@@@?$allocator@U?$_Tree_node@U?$pair@$$CBV?$basic_string@DU?$char_traits@D@std@@V?$allocator@D@2@@std@@D@std@@PAX@std@@@std@@QAEXPAU?$pair@$$CBV?$basic_string@DU?$char_traits@D@std@@V?$allocator@D@2@@std@@D@1@@Z 1000e000 f i mfdpage.obj
 0001:0000d020       ??$destroy@U?$pair@$$CBV?$basic_string@DU?$char_traits@D@std@@V?$allocator@D@2@@std@@PAVfms_fp_item_t@@@std@@@?$allocator_traits@V?$allocator@U?$_Tree_node@U?$pair@$$CBV?$basic_string@DU?$char_traits@D@std@@V?$allocator@D@2@@std@@PAVfms_fp_item_t@@@std@@PAX@std@@@std@@@std@@SAXAAV?$allocator@U?$_Tree_node@U?$pair@$$CBV?$basic_string@DU?$char_traits@D@std@@V?$allocator@D@2@@std@@PAVfms_fp_item_t@@@std@@PAX@std@@@1@PAU?$pair@$$CBV?$basic_string@DU?$char_traits@D@std@@V?$allocator@D@2@@std@@PAVfms_fp_item_t@@@1@@Z 1000e020 f i fms_fp.obj
 0001:0000d020       ??$destroy@U?$pair@$$CBV?$basic_string@DU?$char_traits@D@std@@V?$allocator@D@2@@std@@H@std@@@?$allocator_traits@V?$allocator@U?$_Tree_node@U?$pair@$$CBV?$basic_string@DU?$char_traits@D@std@@V?$allocator@D@2@@std@@H@std@@PAX@std@@@std@@@std@@SAXAAV?$allocator@U?$_Tree_node@U?$pair@$$CBV?$basic_string@DU?$char_traits@D@std@@V?$allocator@D@2@@std@@H@std@@PAX@std@@@1@PAU?$pair@$$CBV?$basic_string@DU?$char_traits@D@std@@V?$allocator@D@2@@std@@H@1@@Z 1000e020 f i mfdpage.obj
 0001:0000d020       ??$destroy@U?$pair@$$CBV?$basic_string@DU?$char_traits@D@std@@V?$allocator@D@2@@std@@M@std@@@?$allocator_traits@V?$allocator@U?$_Tree_node@U?$pair@$$CBV?$basic_string@DU?$char_traits@D@std@@V?$allocator@D@2@@std@@M@std@@PAX@std@@@std@@@std@@SAXAAV?$allocator@U?$_Tree_node@U?$pair@$$CBV?$basic_string@DU?$char_traits@D@std@@V?$allocator@D@2@@std@@M@std@@PAX@std@@@1@PAU?$pair@$$CBV?$basic_string@DU?$char_traits@D@std@@V?$allocator@D@2@@std@@M@1@@Z 1000e020 f i mfdpage_fms.obj
 0001:0000d020       ??$destroy@U?$pair@$$CBV?$basic_string@DU?$char_traits@D@std@@V?$allocator@D@2@@std@@D@std@@@?$allocator_traits@V?$allocator@U?$_Tree_node@U?$pair@$$CBV?$basic_string@DU?$char_traits@D@std@@V?$allocator@D@2@@std@@D@std@@PAX@std@@@std@@@std@@SAXAAV?$allocator@U?$_Tree_node@U?$pair@$$CBV?$basic_string@DU?$char_traits@D@std@@V?$allocator@D@2@@std@@D@std@@PAX@std@@@1@PAU?$pair@$$CBV?$basic_string@DU?$char_traits@D@std@@V?$allocator@D@2@@std@@D@1@@Z 1000e020 f i mfdpage.obj
 0001:0000d020       ??$destroy@U?$pair@$$CBV?$basic_string@DU?$char_traits@D@std@@V?$allocator@D@2@@std@@PAVfms_config_item_t@@@std@@@?$allocator_traits@V?$allocator@U?$_Tree_node@U?$pair@$$CBV?$basic_string@DU?$char_traits@D@std@@V?$allocator@D@2@@std@@PAVfms_config_item_t@@@std@@PAX@std@@@std@@@std@@SAXAAV?$allocator@U?$_Tree_node@U?$pair@$$CBV?$basic_string@DU?$char_traits@D@std@@V?$allocator@D@2@@std@@PAVfms_config_item_t@@@std@@PAX@std@@@1@PAU?$pair@$$CBV?$basic_string@DU?$char_traits@D@std@@V?$allocator@D@2@@std@@PAVfms_config_item_t@@@1@@Z 1000e020 f i fms_config.obj
 0001:0000d040       ??$destroy@U?$pair@$$CBV?$basic_string@DU?$char_traits@D@std@@V?$allocator@D@2@@std@@H@std@@@?$_Wrap_alloc@V?$allocator@U?$_Tree_node@U?$pair@$$CBV?$basic_string@DU?$char_traits@D@std@@V?$allocator@D@2@@std@@H@std@@PAX@std@@@std@@@std@@QAEXPAU?$pair@$$CBV?$basic_string@DU?$char_traits@D@std@@V?$allocator@D@2@@std@@H@1@@Z 1000e040 f i mfdpage.obj
 0001:0000d040       ??$destroy@U?$pair@$$CBV?$basic_string@DU?$char_traits@D@std@@V?$allocator@D@2@@std@@D@std@@@?$_Wrap_alloc@V?$allocator@U?$_Tree_node@U?$pair@$$CBV?$basic_string@DU?$char_traits@D@std@@V?$allocator@D@2@@std@@D@std@@PAX@std@@@std@@@std@@QAEXPAU?$pair@$$CBV?$basic_string@DU?$char_traits@D@std@@V?$allocator@D@2@@std@@D@1@@Z 1000e040 f i mfdpage.obj
 0001:0000d040       ??$destroy@U?$pair@$$CBV?$basic_string@DU?$char_traits@D@std@@V?$allocator@D@2@@std@@PAVfms_config_item_t@@@std@@@?$_Wrap_alloc@V?$allocator@U?$_Tree_node@U?$pair@$$CBV?$basic_string@DU?$char_traits@D@std@@V?$allocator@D@2@@std@@PAVfms_config_item_t@@@std@@PAX@std@@@std@@@std@@QAEXPAU?$pair@$$CBV?$basic_string@DU?$char_traits@D@std@@V?$allocator@D@2@@std@@PAVfms_config_item_t@@@1@@Z 1000e040 f i fms_config.obj
 0001:0000d040       ??$destroy@U?$pair@$$CBV?$basic_string@DU?$char_traits@D@std@@V?$allocator@D@2@@std@@PAVfms_fp_item_t@@@std@@@?$_Wrap_alloc@V?$allocator@U?$_Tree_node@U?$pair@$$CBV?$basic_string@DU?$char_traits@D@std@@V?$allocator@D@2@@std@@PAVfms_fp_item_t@@@std@@PAX@std@@@std@@@std@@QAEXPAU?$pair@$$CBV?$basic_string@DU?$char_traits@D@std@@V?$allocator@D@2@@std@@PAVfms_fp_item_t@@@1@@Z 1000e040 f i fms_fp.obj
 0001:0000d040       ??$destroy@U?$pair@$$CBV?$basic_string@DU?$char_traits@D@std@@V?$allocator@D@2@@std@@M@std@@@?$_Wrap_alloc@V?$allocator@U?$_Tree_node@U?$pair@$$CBV?$basic_string@DU?$char_traits@D@std@@V?$allocator@D@2@@std@@M@std@@PAX@std@@@std@@@std@@QAEXPAU?$pair@$$CBV?$basic_string@DU?$char_traits@D@std@@V?$allocator@D@2@@std@@M@1@@Z 1000e040 f i mfdpage_fms.obj
 0001:0000d060       ??$emplace_hint@ABUpiecewise_construct_t@std@@V?$tuple@$$QAV?$basic_string@DU?$char_traits@D@std@@V?$allocator@D@2@@std@@@2@V?$tuple@$$$V@2@@?$_Tree@V?$_Tmap_traits@V?$basic_string@DU?$char_traits@D@std@@V?$allocator@D@2@@std@@DU?$less@V?$basic_string@DU?$char_traits@D@std@@V?$allocator@D@2@@std@@@2@V?$allocator@U?$pair@$$CBV?$basic_string@DU?$char_traits@D@std@@V?$allocator@D@2@@std@@D@std@@@2@$0A@@std@@@std@@QAE?AV?$_Tree_iterator@V?$_Tree_val@U?$_Tree_simple_types@U?$pair@$$CBV?$basic_string@DU?$char_traits@D@std@@V?$allocator@D@2@@std@@D@std@@@std@@@std@@@1@V?$_Tree_const_iterator@V?$_Tree_val@U?$_Tree_simple_types@U?$pair@$$CBV?$basic_string@DU?$char_traits@D@std@@V?$allocator@D@2@@std@@D@std@@@std@@@std@@@1@ABUpiecewise_construct_t@1@$$QAV?$tuple@$$QAV?$basic_string@DU?$char_traits@D@std@@V?$allocator@D@2@@std@@@1@$$QAV?$tuple@$$$V@1@@Z 1000e060 f i mfdpage.obj
 0001:0000d0d0       ??$emplace_hint@ABUpiecewise_construct_t@std@@V?$tuple@$$QAV?$basic_string@DU?$char_traits@D@std@@V?$allocator@D@2@@std@@@2@V?$tuple@$$$V@2@@?$_Tree@V?$_Tmap_traits@V?$basic_string@DU?$char_traits@D@std@@V?$allocator@D@2@@std@@HU?$less@V?$basic_string@DU?$char_traits@D@std@@V?$allocator@D@2@@std@@@2@V?$allocator@U?$pair@$$CBV?$basic_string@DU?$char_traits@D@std@@V?$allocator@D@2@@std@@H@std@@@2@$0A@@std@@@std@@QAE?AV?$_Tree_iterator@V?$_Tree_val@U?$_Tree_simple_types@U?$pair@$$CBV?$basic_string@DU?$char_traits@D@std@@V?$allocator@D@2@@std@@H@std@@@std@@@std@@@1@V?$_Tree_const_iterator@V?$_Tree_val@U?$_Tree_simple_types@U?$pair@$$CBV?$basic_string@DU?$char_traits@D@std@@V?$allocator@D@2@@std@@H@std@@@std@@@std@@@1@ABUpiecewise_construct_t@1@$$QAV?$tuple@$$QAV?$basic_string@DU?$char_traits@D@std@@V?$allocator@D@2@@std@@@1@$$QAV?$tuple@$$$V@1@@Z 1000e0d0 f i mfdpage.obj
 0001:0000d140       ??$emplace_hint@ABUpiecewise_construct_t@std@@V?$tuple@ABV?$basic_string@DU?$char_traits@D@std@@V?$allocator@D@2@@std@@@2@V?$tuple@$$$V@2@@?$_Tree@V?$_Tmap_traits@V?$basic_string@DU?$char_traits@D@std@@V?$allocator@D@2@@std@@V12@U?$less@V?$basic_string@DU?$char_traits@D@std@@V?$allocator@D@2@@std@@@2@V?$allocator@U?$pair@$$CBV?$basic_string@DU?$char_traits@D@std@@V?$allocator@D@2@@std@@V12@@std@@@2@$0A@@std@@@std@@QAE?AV?$_Tree_iterator@V?$_Tree_val@U?$_Tree_simple_types@U?$pair@$$CBV?$basic_string@DU?$char_traits@D@std@@V?$allocator@D@2@@std@@V12@@std@@@std@@@std@@@1@V?$_Tree_const_iterator@V?$_Tree_val@U?$_Tree_simple_types@U?$pair@$$CBV?$basic_string@DU?$char_traits@D@std@@V?$allocator@D@2@@std@@V12@@std@@@std@@@std@@@1@ABUpiecewise_construct_t@1@$$QAV?$tuple@ABV?$basic_string@DU?$char_traits@D@std@@V?$allocator@D@2@@std@@@1@$$QAV?$tuple@$$$V@1@@Z 1000e140 f i mfdpage.obj
 0001:0000d1b0       ??$forward_as_tuple@ABV?$basic_string@DU?$char_traits@D@std@@V?$allocator@D@2@@std@@@std@@YA?AV?$tuple@ABV?$basic_string@DU?$char_traits@D@std@@V?$allocator@D@2@@std@@@0@ABV?$basic_string@DU?$char_traits@D@std@@V?$allocator@D@2@@0@@Z 1000e1b0 f i mfdpage.obj
 0001:0000d1b0       ??$forward_as_tuple@ABH@std@@YA?AV?$tuple@ABH@0@ABH@Z 1000e1b0 f i out_saitek.obj
 0001:0000d1d0       ??$get@$0A@$$QAV?$basic_string@DU?$char_traits@D@std@@V?$allocator@D@2@@std@@@std@@YA$$QAV?$basic_string@DU?$char_traits@D@std@@V?$allocator@D@2@@0@$$QAV?$tuple@$$QAV?$basic_string@DU?$char_traits@D@std@@V?$allocator@D@2@@std@@@0@@Z 1000e1d0 f i tools.obj
 0001:0000d1d0       ??$get@$0A@$$QAH@std@@YA$$QAH$$QAV?$tuple@$$QAH@0@@Z 1000e1d0 f i mfdpage_fms.obj
 0001:0000d1d0       ??$get@$0A@ABH@std@@YAABH$$QAV?$tuple@ABH@0@@Z 1000e1d0 f i out_saitek.obj
 0001:0000d1d0       ??$get@$0A@ABV?$basic_string@DU?$char_traits@D@std@@V?$allocator@D@2@@std@@@std@@YAABV?$basic_string@DU?$char_traits@D@std@@V?$allocator@D@2@@0@$$QAV?$tuple@ABV?$basic_string@DU?$char_traits@D@std@@V?$allocator@D@2@@std@@@0@@Z 1000e1d0 f i mfdpage.obj
 0001:0000d1f0       ??$getline@DU?$char_traits@D@std@@V?$allocator@D@2@@std@@YAAAV?$basic_istream@DU?$char_traits@D@std@@@0@$$QAV10@AAV?$basic_string@DU?$char_traits@D@std@@V?$allocator@D@2@@0@D@Z 1000e1f0 f i mfdpage.obj
 0001:0000d3d0       ??$getline@DU?$char_traits@D@std@@V?$allocator@D@2@@std@@YAAAV?$basic_istream@DU?$char_traits@D@std@@@0@AAV10@AAV?$basic_string@DU?$char_traits@D@std@@V?$allocator@D@2@@0@D@Z 1000e3d0 f i mfdpage.obj
 0001:0000d400       ??0?$_String_const_iterator@V?$_String_val@U?$_Simple_types@D@std@@@std@@@std@@QAE@PBDPBU_Container_base0@1@@Z 1000e400 f i mfdpage.obj
 0001:0000d430       ??0?$_String_iterator@V?$_String_val@U?$_Simple_types@D@std@@@std@@@std@@QAE@PADPBU_Container_base0@1@@Z 1000e430 f i mfdpage.obj
 0001:0000d450       ??0?$_Tree@V?$_Tmap_traits@HPAVobject_t@@U?$less@H@std@@V?$allocator@U?$pair@$$CBHPAVobject_t@@@std@@@3@$0A@@std@@@std@@QAE@ABV01@ABV?$allocator@U?$pair@$$CBHPAVobject_t@@@std@@@1@@Z 1000e450 f i mfdpage.obj
 0001:0000d500       ??0?$_Tree_iterator@V?$_Tree_val@U?$_Tree_simple_types@U?$pair@$$CBV?$basic_string@DU?$char_traits@D@std@@V?$allocator@D@2@@std@@PAVfms_fp_item_t@@@std@@@std@@@std@@@std@@QAE@PAU?$_Tree_node@U?$pair@$$CBV?$basic_string@DU?$char_traits@D@std@@V?$allocator@D@2@@std@@PAVfms_fp_item_t@@@std@@PAX@1@PBV?$_Tree_val@U?$_Tree_simple_types@U?$pair@$$CBV?$basic_string@DU?$char_traits@D@std@@V?$allocator@D@2@@std@@PAVfms_fp_item_t@@@std@@@std@@@1@@Z 1000e500 f i fms_fp.obj
 0001:0000d500       ??0?$_Tree_iterator@V?$_Tree_val@U?$_Tree_simple_types@U?$pair@$$CBHPAVobject_t@@@std@@@std@@@std@@@std@@QAE@PAU?$_Tree_node@U?$pair@$$CBHPAVobject_t@@@std@@PAX@1@PBV?$_Tree_val@U?$_Tree_simple_types@U?$pair@$$CBHPAVobject_t@@@std@@@std@@@1@@Z 1000e500 f i mfdpage.obj
 0001:0000d500       ??0?$_Tree_iterator@V?$_Tree_val@U?$_Tree_simple_types@U?$pair@$$CBV?$basic_string@DU?$char_traits@D@std@@V?$allocator@D@2@@std@@M@std@@@std@@@std@@@std@@QAE@PAU?$_Tree_node@U?$pair@$$CBV?$basic_string@DU?$char_traits@D@std@@V?$allocator@D@2@@std@@M@std@@PAX@1@PBV?$_Tree_val@U?$_Tree_simple_types@U?$pair@$$CBV?$basic_string@DU?$char_traits@D@std@@V?$allocator@D@2@@std@@M@std@@@std@@@1@@Z 1000e500 f i mfdpage_fms.obj
 0001:0000d500       ??0?$_Tree_iterator@V?$_Tree_val@U?$_Tree_simple_types@U?$pair@$$CBHPAVfms_fp_item_t@@@std@@@std@@@std@@@std@@QAE@PAU?$_Tree_node@U?$pair@$$CBHPAVfms_fp_item_t@@@std@@PAX@1@PBV?$_Tree_val@U?$_Tree_simple_types@U?$pair@$$CBHPAVfms_fp_item_t@@@std@@@std@@@1@@Z 1000e500 f i mfdpage_fms.obj
 0001:0000d500       ??0?$_Tree_iterator@V?$_Tree_val@U?$_Tree_simple_types@U?$pair@$$CBHM@std@@@std@@@std@@@std@@QAE@PAU?$_Tree_node@U?$pair@$$CBHM@std@@PAX@1@PBV?$_Tree_val@U?$_Tree_simple_types@U?$pair@$$CBHM@std@@@std@@@1@@Z 1000e500 f i fms_config.obj
 0001:0000d500       ??0?$_Tree_iterator@V?$_Tree_val@U?$_Tree_simple_types@U?$pair@$$CBHV?$basic_string@DU?$char_traits@D@std@@V?$allocator@D@2@@std@@@std@@@std@@@std@@@std@@QAE@PAU?$_Tree_node@U?$pair@$$CBHV?$basic_string@DU?$char_traits@D@std@@V?$allocator@D@2@@std@@@std@@PAX@1@PBV?$_Tree_val@U?$_Tree_simple_types@U?$pair@$$CBHV?$basic_string@DU?$char_traits@D@std@@V?$allocator@D@2@@std@@@std@@@std@@@1@@Z 1000e500 f i out_saitek.obj
 0001:0000d500       ??0?$_Tree_iterator@V?$_Tree_val@U?$_Tree_simple_types@U?$pair@$$CBV?$basic_string@DU?$char_traits@D@std@@V?$allocator@D@2@@std@@V12@@std@@@std@@@std@@@std@@QAE@PAU?$_Tree_node@U?$pair@$$CBV?$basic_string@DU?$char_traits@D@std@@V?$allocator@D@2@@std@@V12@@std@@PAX@1@PBV?$_Tree_val@U?$_Tree_simple_types@U?$pair@$$CBV?$basic_string@DU?$char_traits@D@std@@V?$allocator@D@2@@std@@V12@@std@@@std@@@1@@Z 1000e500 f i tools.obj
 0001:0000d500       ??0?$_Tree_iterator@V?$_Tree_val@U?$_Tree_simple_types@U?$pair@$$CBV?$basic_string@DU?$char_traits@D@std@@V?$allocator@D@2@@std@@D@std@@@std@@@std@@@std@@QAE@PAU?$_Tree_node@U?$pair@$$CBV?$basic_string@DU?$char_traits@D@std@@V?$allocator@D@2@@std@@D@std@@PAX@1@PBV?$_Tree_val@U?$_Tree_simple_types@U?$pair@$$CBV?$basic_string@DU?$char_traits@D@std@@V?$allocator@D@2@@std@@D@std@@@std@@@1@@Z 1000e500 f i mfdpage.obj
 0001:0000d500       ??0?$_Tree_iterator@V?$_Tree_val@U?$_Tree_simple_types@U?$pair@$$CBV?$basic_string@DU?$char_traits@D@std@@V?$allocator@D@2@@std@@PAVfms_config_item_t@@@std@@@std@@@std@@@std@@QAE@PAU?$_Tree_node@U?$pair@$$CBV?$basic_string@DU?$char_traits@D@std@@V?$allocator@D@2@@std@@PAVfms_config_item_t@@@std@@PAX@1@PBV?$_Tree_val@U?$_Tree_simple_types@U?$pair@$$CBV?$basic_string@DU?$char_traits@D@std@@V?$allocator@D@2@@std@@PAVfms_config_item_t@@@std@@@std@@@1@@Z 1000e500 f i fms_config.obj
 0001:0000d500       ??0?$_Tree_iterator@V?$_Tree_val@U?$_Tree_simple_types@U?$pair@$$CBV?$basic_string@DU?$char_traits@D@std@@V?$allocator@D@2@@std@@H@std@@@std@@@std@@@std@@QAE@PAU?$_Tree_node@U?$pair@$$CBV?$basic_string@DU?$char_traits@D@std@@V?$allocator@D@2@@std@@H@std@@PAX@1@PBV?$_Tree_val@U?$_Tree_simple_types@U?$pair@$$CBV?$basic_string@DU?$char_traits@D@std@@V?$allocator@D@2@@std@@H@std@@@std@@@1@@Z 1000e500 f i mfdpage.obj
 0001:0000d520       ??0?$_Tree_unchecked_const_iterator@V?$_Tree_val@U?$_Tree_simple_types@U?$pair@$$CBV?$basic_string@DU?$char_traits@D@std@@V?$allocator@D@2@@std@@V12@@std@@@std@@@std@@U_Iterator_base0@2@@std@@QAE@XZ 1000e520 f i tools.obj
 0001:0000d520       ??0?$_Tree_unchecked_const_iterator@V?$_Tree_val@U?$_Tree_simple_types@U?$pair@$$CBV?$basic_string@DU?$char_traits@D@std@@V?$allocator@D@2@@std@@D@std@@@std@@@std@@U_Iterator_base0@2@@std@@QAE@XZ 1000e520 f i mfdpage.obj
 0001:0000d520       ??0?$_Tree_unchecked_const_iterator@V?$_Tree_val@U?$_Tree_simple_types@U?$pair@$$CBHPAVobject_t@@@std@@@std@@@std@@U_Iterator_base0@2@@std@@QAE@XZ 1000e520 f i mfdpage.obj
 0001:0000d520       ??0?$_Tree_unchecked_const_iterator@V?$_Tree_val@U?$_Tree_simple_types@U?$pair@$$CBV?$basic_string@DU?$char_traits@D@std@@V?$allocator@D@2@@std@@M@std@@@std@@@std@@U_Iterator_base0@2@@std@@QAE@XZ 1000e520 f i mfdpage_fms.obj
 0001:0000d520       ??0?$_Tree_unchecked_const_iterator@V?$_Tree_val@U?$_Tree_simple_types@U?$pair@$$CBHV?$basic_string@DU?$char_traits@D@std@@V?$allocator@D@2@@std@@@std@@@std@@@std@@U_Iterator_base0@2@@std@@QAE@XZ 1000e520 f i out_saitek.obj
 0001:0000d520       ??0?$_Tree_unchecked_const_iterator@V?$_Tree_val@U?$_Tree_simple_types@U?$pair@$$CBV?$basic_string@DU?$char_traits@D@std@@V?$allocator@D@2@@std@@PAVfms_config_item_t@@@std@@@std@@@std@@U_Iterator_base0@2@@std@@QAE@XZ 1000e520 f i fms_config.obj
 0001:0000d520       ??0?$_Tree_unchecked_const_iterator@V?$_Tree_val@U?$_Tree_simple_types@U?$pair@$$CBV?$basic_string@DU?$char_traits@D@std@@V?$allocator@D@2@@std@@H@std@@@std@@@std@@U_Iterator_base0@2@@std@@QAE@XZ 1000e520 f i mfdpage.obj
 0001:0000d520       ??0?$_Tree_unchecked_const_iterator@V?$_Tree_val@U?$_Tree_simple_types@U?$pair@$$CBHM@std@@@std@@@std@@U_Iterator_base0@2@@std@@QAE@XZ 1000e520 f i fms_config.obj
 0001:0000d520       ??0?$_Tree_unchecked_const_iterator@V?$_Tree_val@U?$_Tree_simple_types@U?$pair@$$CBV?$basic_string@DU?$char_traits@D@std@@V?$allocator@D@2@@std@@PAVfms_fp_item_t@@@std@@@std@@@std@@U_Iterator_base0@2@@std@@QAE@XZ 1000e520 f i fms_fp.obj
 0001:0000d520       ??0?$_Tree_unchecked_const_iterator@V?$_Tree_val@U?$_Tree_simple_types@U?$pair@$$CBHPAVfms_fp_item_t@@@std@@@std@@@std@@U_Iterator_base0@2@@std@@QAE@XZ 1000e520 f i mfdpage_fms.obj
 0001:0000d540       ??0?$basic_stringbuf@DU?$char_traits@D@std@@V?$allocator@D@2@@std@@QAE@ABV?$basic_string@DU?$char_traits@D@std@@V?$allocator@D@2@@1@H@Z 1000e540 f i mfdpage.obj
 0001:0000d5a0       ??0?$basic_stringstream@DU?$char_traits@D@std@@V?$allocator@D@2@@std@@QAE@ABV?$basic_string@DU?$char_traits@D@std@@V?$allocator@D@2@@1@H@Z 1000e5a0 f i mfdpage.obj
 0001:0000d640       ??0?$map@HPAVobject_t@@U?$less@H@std@@V?$allocator@U?$pair@$$CBHPAVobject_t@@@std@@@3@@std@@QAE@ABV01@@Z 1000e640 f i mfdpage.obj
 0001:0000d690       ??0?$map@HMU?$less@H@std@@V?$allocator@U?$pair@$$CBHM@std@@@2@@std@@QAE@XZ 1000e690 f i fms_config.obj
 0001:0000d690       ??0?$map@HPAVfms_fp_item_t@@U?$less@H@std@@V?$allocator@U?$pair@$$CBHPAVfms_fp_item_t@@@std@@@3@@std@@QAE@XZ 1000e690 f i fms_fp.obj
 0001:0000d690       ??0?$map@HPAVobject_t@@U?$less@H@std@@V?$allocator@U?$pair@$$CBHPAVobject_t@@@std@@@3@@std@@QAE@XZ 1000e690 f i mfdpage.obj
 0001:0000d6c0       ??0?$tuple@ABV?$basic_string@DU?$char_traits@D@std@@V?$allocator@D@2@@std@@@std@@QAE@ABV?$basic_string@DU?$char_traits@D@std@@V?$allocator@D@2@@1@@Z 1000e6c0 f i mfdpage.obj
 0001:0000d6c0       ??0?$tuple@ABH@std@@QAE@ABH@Z 1000e6c0 f i out_saitek.obj
 0001:0000d6f0       ??0_Sentry_base@?$basic_istream@DU?$char_traits@D@std@@@std@@QAE@AAV12@@Z 1000e6f0 f i mfdpage.obj
 0001:0000d750       ??0listener_t@@QAE@XZ      1000e750 f i mfdpage.obj
 0001:0000d770       ??0sentry@?$basic_istream@DU?$char_traits@D@std@@@std@@QAE@AAV12@_N@Z 1000e770 f i mfdpage.obj
 0001:0000d7b0       ??1?$_Tree@V?$_Tmap_traits@HPAVobject_t@@U?$less@H@std@@V?$allocator@U?$pair@$$CBHPAVobject_t@@@std@@@3@$0A@@std@@@std@@QAE@XZ 1000e7b0 f i mfdpage.obj
 0001:0000d7b0       ??1?$_Tree@V?$_Tmap_traits@HPAVfms_fp_item_t@@U?$less@H@std@@V?$allocator@U?$pair@$$CBHPAVfms_fp_item_t@@@std@@@3@$0A@@std@@@std@@QAE@XZ 1000e7b0 f i fms_fp.obj
 0001:0000d7d0       ??1?$_Tree@V?$_Tmap_traits@HV?$basic_string@DU?$char_traits@D@std@@V?$allocator@D@2@@std@@U?$less@H@2@V?$allocator@U?$pair@$$CBHV?$basic_string@DU?$char_traits@D@std@@V?$allocator@D@2@@std@@@std@@@2@$0A@@std@@@std@@QAE@XZ 1000e7d0 f i mfdpage.obj
 0001:0000d7f0       ??1?$_Tree@V?$_Tmap_traits@V?$basic_string@DU?$char_traits@D@std@@V?$allocator@D@2@@std@@PAVfms_config_item_t@@U?$less@V?$basic_string@DU?$char_traits@D@std@@V?$allocator@D@2@@std@@@2@V?$allocator@U?$pair@$$CBV?$basic_string@DU?$char_traits@D@std@@V?$allocator@D@2@@std@@PAVfms_config_item_t@@@std@@@2@$0A@@std@@@std@@QAE@XZ 1000e7f0 f i fms_config.obj
 0001:0000d7f0       ??1?$_Tree@V?$_Tmap_traits@V?$basic_string@DU?$char_traits@D@std@@V?$allocator@D@2@@std@@HU?$less@V?$basic_string@DU?$char_traits@D@std@@V?$allocator@D@2@@std@@@2@V?$allocator@U?$pair@$$CBV?$basic_string@DU?$char_traits@D@std@@V?$allocator@D@2@@std@@H@std@@@2@$0A@@std@@@std@@QAE@XZ 1000e7f0 f i mfdpage.obj
 0001:0000d7f0       ??1?$_Tree@V?$_Tmap_traits@V?$basic_string@DU?$char_traits@D@std@@V?$allocator@D@2@@std@@PAVfms_fp_item_t@@U?$less@V?$basic_string@DU?$char_traits@D@std@@V?$allocator@D@2@@std@@@2@V?$allocator@U?$pair@$$CBV?$basic_string@DU?$char_traits@D@std@@V?$allocator@D@2@@std@@PAVfms_fp_item_t@@@std@@@2@$0A@@std@@@std@@QAE@XZ 1000e7f0 f i fms_fp.obj
 0001:0000d7f0       ??1?$_Tree@V?$_Tmap_traits@V?$basic_string@DU?$char_traits@D@std@@V?$allocator@D@2@@std@@MU?$less@V?$basic_string@DU?$char_traits@D@std@@V?$allocator@D@2@@std@@@2@V?$allocator@U?$pair@$$CBV?$basic_string@DU?$char_traits@D@std@@V?$allocator@D@2@@std@@M@std@@@2@$0A@@std@@@std@@QAE@XZ 1000e7f0 f i fms_config.obj
 0001:0000d810       ??1?$_Tree_alloc@$0A@U?$_Tree_base_types@PAVlistener_t@@V?$allocator@PAVlistener_t@@@std@@@std@@@std@@QAE@XZ 1000e810 f i data.obj
 0001:0000d810       ??1?$_Tree_alloc@$0A@U?$_Tree_base_types@U?$pair@$$CBV?$basic_string@DU?$char_traits@D@std@@V?$allocator@D@2@@std@@V12@@std@@V?$allocator@U?$pair@$$CBV?$basic_string@DU?$char_traits@D@std@@V?$allocator@D@2@@std@@V12@@std@@@2@@std@@@std@@QAE@XZ 1000e810 f i tools.obj
 0001:0000d810       ??1?$_Tree_alloc@$0A@U?$_Tree_base_types@PAVmfdpage_t@@V?$allocator@PAVmfdpage_t@@@std@@@std@@@std@@QAE@XZ 1000e810 f i in.obj
 0001:0000d810       ??1?$_Tree_alloc@$0A@U?$_Tree_base_types@U?$pair@$$CBV?$basic_string@DU?$char_traits@D@std@@V?$allocator@D@2@@std@@PAVfms_config_item_t@@@std@@V?$allocator@U?$pair@$$CBV?$basic_string@DU?$char_traits@D@std@@V?$allocator@D@2@@std@@PAVfms_config_item_t@@@std@@@2@@std@@@std@@QAE@XZ 1000e810 f i fms_config.obj
 0001:0000d810       ??1?$_Tree_alloc@$0A@U?$_Tree_base_types@PAVobject_t@@V?$allocator@PAVobject_t@@@std@@@std@@@std@@QAE@XZ 1000e810 f i data.obj
 0001:0000d810       ??1?$_Tree_alloc@$0A@U?$_Tree_base_types@U?$pair@$$CBHPAVfms_fp_item_t@@@std@@V?$allocator@U?$pair@$$CBHPAVfms_fp_item_t@@@std@@@2@@std@@@std@@QAE@XZ 1000e810 f i fms_fp.obj
 0001:0000d810       ??1?$_Tree_alloc@$0A@U?$_Tree_base_types@U?$pair@$$CBV?$basic_string@DU?$char_traits@D@std@@V?$allocator@D@2@@std@@M@std@@V?$allocator@U?$pair@$$CBV?$basic_string@DU?$char_traits@D@std@@V?$allocator@D@2@@std@@M@std@@@2@@std@@@std@@QAE@XZ 1000e810 f i fms_config.obj
 0001:0000d810       ??1?$_Tree_alloc@$0A@U?$_Tree_base_types@U?$pair@$$CBV?$basic_string@DU?$char_traits@D@std@@V?$allocator@D@2@@std@@H@std@@V?$allocator@U?$pair@$$CBV?$basic_string@DU?$char_traits@D@std@@V?$allocator@D@2@@std@@H@std@@@2@@std@@@std@@QAE@XZ 1000e810 f i mfdpage.obj
 0001:0000d810       ??1?$_Tree_alloc@$0A@U?$_Tree_base_types@U?$pair@$$CBV?$basic_string@DU?$char_traits@D@std@@V?$allocator@D@2@@std@@PAVfms_fp_item_t@@@std@@V?$allocator@U?$pair@$$CBV?$basic_string@DU?$char_traits@D@std@@V?$allocator@D@2@@std@@PAVfms_fp_item_t@@@std@@@2@@std@@@std@@QAE@XZ 1000e810 f i fms_fp.obj
 0001:0000d810       ??1?$_Tree_alloc@$0A@U?$_Tree_base_types@U?$pair@$$CBHV?$basic_string@DU?$char_traits@D@std@@V?$allocator@D@2@@std@@@std@@V?$allocator@U?$pair@$$CBHV?$basic_string@DU?$char_traits@D@std@@V?$allocator@D@2@@std@@@std@@@2@@std@@@std@@QAE@XZ 1000e810 f i mfdpage.obj
 0001:0000d810       ??1?$_Tree_alloc@$0A@U?$_Tree_base_types@U?$pair@$$CBHPAVobject_t@@@std@@V?$allocator@U?$pair@$$CBHPAVobject_t@@@std@@@2@@std@@@std@@QAE@XZ 1000e810 f i mfdpage.obj
 0001:0000d830       ??1?$_Tree_buy@PAVlistener_t@@V?$allocator@PAVlistener_t@@@std@@@std@@QAE@XZ 1000e830 f i data.obj
 0001:0000d830       ??1?$_Tree_buy@U?$pair@$$CBHV?$basic_string@DU?$char_traits@D@std@@V?$allocator@D@2@@std@@@std@@V?$allocator@U?$pair@$$CBHV?$basic_string@DU?$char_traits@D@std@@V?$allocator@D@2@@std@@@std@@@2@@std@@QAE@XZ 1000e830 f i mfdpage.obj
 0001:0000d830       ??1?$_Tree_buy@U?$pair@$$CBHPAVfms_fp_item_t@@@std@@V?$allocator@U?$pair@$$CBHPAVfms_fp_item_t@@@std@@@2@@std@@QAE@XZ 1000e830 f i fms_fp.obj
 0001:0000d830       ??1?$_Tree_buy@PAVobject_t@@V?$allocator@PAVobject_t@@@std@@@std@@QAE@XZ 1000e830 f i data.obj
 0001:0000d830       ??1?$_Tree_buy@U?$pair@$$CBV?$basic_string@DU?$char_traits@D@std@@V?$allocator@D@2@@std@@V12@@std@@V?$allocator@U?$pair@$$CBV?$basic_string@DU?$char_traits@D@std@@V?$allocator@D@2@@std@@V12@@std@@@2@@std@@QAE@XZ 1000e830 f i tools.obj
 0001:0000d830       ??1?$_Tree_buy@U?$pair@$$CBV?$basic_string@DU?$char_traits@D@std@@V?$allocator@D@2@@std@@H@std@@V?$allocator@U?$pair@$$CBV?$basic_string@DU?$char_traits@D@std@@V?$allocator@D@2@@std@@H@std@@@2@@std@@QAE@XZ 1000e830 f i mfdpage.obj
 0001:0000d830       ??1?$_Tree_buy@PAVmfdpage_t@@V?$allocator@PAVmfdpage_t@@@std@@@std@@QAE@XZ 1000e830 f i in.obj
 0001:0000d830       ??1?$_Tree_buy@U?$pair@$$CBV?$basic_string@DU?$char_traits@D@std@@V?$allocator@D@2@@std@@M@std@@V?$allocator@U?$pair@$$CBV?$basic_string@DU?$char_traits@D@std@@V?$allocator@D@2@@std@@M@std@@@2@@std@@QAE@XZ 1000e830 f i fms_config.obj
 0001:0000d830       ??1?$_Tree_buy@U?$pair@$$CBV?$basic_string@DU?$char_traits@D@std@@V?$allocator@D@2@@std@@PAVfms_config_item_t@@@std@@V?$allocator@U?$pair@$$CBV?$basic_string@DU?$char_traits@D@std@@V?$allocator@D@2@@std@@PAVfms_config_item_t@@@std@@@2@@std@@QAE@XZ 1000e830 f i fms_config.obj
 0001:0000d830       ??1?$_Tree_buy@U?$pair@$$CBV?$basic_string@DU?$char_traits@D@std@@V?$allocator@D@2@@std@@PAVfms_fp_item_t@@@std@@V?$allocator@U?$pair@$$CBV?$basic_string@DU?$char_traits@D@std@@V?$allocator@D@2@@std@@PAVfms_fp_item_t@@@std@@@2@@std@@QAE@XZ 1000e830 f i fms_fp.obj
 0001:0000d830       ??1?$_Tree_buy@U?$pair@$$CBHPAVobject_t@@@std@@V?$allocator@U?$pair@$$CBHPAVobject_t@@@std@@@2@@std@@QAE@XZ 1000e830 f i mfdpage.obj
 0001:0000d850       ??1?$basic_stringstream@DU?$char_traits@D@std@@V?$allocator@D@2@@std@@UAE@XZ 1000e850 f i mfdpage.obj
 0001:0000d8b0       ??1?$map@HPAVobject_t@@U?$less@H@std@@V?$allocator@U?$pair@$$CBHPAVobject_t@@@std@@@3@@std@@QAE@XZ 1000e8b0 f i mfdpage.obj
 0001:0000d8b0       ??1?$map@HPAVfms_fp_item_t@@U?$less@H@std@@V?$allocator@U?$pair@$$CBHPAVfms_fp_item_t@@@std@@@3@@std@@QAE@XZ 1000e8b0 f i fms_fp.obj
 0001:0000d8d0       ??1?$map@HV?$basic_string@DU?$char_traits@D@std@@V?$allocator@D@2@@std@@U?$less@H@2@V?$allocator@U?$pair@$$CBHV?$basic_string@DU?$char_traits@D@std@@V?$allocator@D@2@@std@@@std@@@2@@std@@QAE@XZ 1000e8d0 f i mfdpage.obj
 0001:0000d8f0       ??1?$map@V?$basic_string@DU?$char_traits@D@std@@V?$allocator@D@2@@std@@PAVfms_config_item_t@@U?$less@V?$basic_string@DU?$char_traits@D@std@@V?$allocator@D@2@@std@@@2@V?$allocator@U?$pair@$$CBV?$basic_string@DU?$char_traits@D@std@@V?$allocator@D@2@@std@@PAVfms_config_item_t@@@std@@@2@@std@@QAE@XZ 1000e8f0 f i fms_config.obj
 0001:0000d8f0       ??1?$map@V?$basic_string@DU?$char_traits@D@std@@V?$allocator@D@2@@std@@HU?$less@V?$basic_string@DU?$char_traits@D@std@@V?$allocator@D@2@@std@@@2@V?$allocator@U?$pair@$$CBV?$basic_string@DU?$char_traits@D@std@@V?$allocator@D@2@@std@@H@std@@@2@@std@@QAE@XZ 1000e8f0 f i mfdpage.obj
 0001:0000d8f0       ??1?$map@V?$basic_string@DU?$char_traits@D@std@@V?$allocator@D@2@@std@@PAVfms_fp_item_t@@U?$less@V?$basic_string@DU?$char_traits@D@std@@V?$allocator@D@2@@std@@@2@V?$allocator@U?$pair@$$CBV?$basic_string@DU?$char_traits@D@std@@V?$allocator@D@2@@std@@PAVfms_fp_item_t@@@std@@@2@@std@@QAE@XZ 1000e8f0 f i fms_fp.obj
 0001:0000d8f0       ??1?$map@V?$basic_string@DU?$char_traits@D@std@@V?$allocator@D@2@@std@@MU?$less@V?$basic_string@DU?$char_traits@D@std@@V?$allocator@D@2@@std@@@2@V?$allocator@U?$pair@$$CBV?$basic_string@DU?$char_traits@D@std@@V?$allocator@D@2@@std@@M@std@@@2@@std@@QAE@XZ 1000e8f0 f i fms_config.obj
 0001:0000d910       ??1?$pair@$$CBV?$basic_string@DU?$char_traits@D@std@@V?$allocator@D@2@@std@@H@std@@QAE@XZ 1000e910 f i mfdpage.obj
 0001:0000d910       ??1?$pair@$$CBV?$basic_string@DU?$char_traits@D@std@@V?$allocator@D@2@@std@@M@std@@QAE@XZ 1000e910 f i mfdpage_fms.obj
 0001:0000d910       ??1?$pair@$$CBV?$basic_string@DU?$char_traits@D@std@@V?$allocator@D@2@@std@@PAVfms_config_item_t@@@std@@QAE@XZ 1000e910 f i fms_config.obj
 0001:0000d910       ??1?$pair@$$CBV?$basic_string@DU?$char_traits@D@std@@V?$allocator@D@2@@std@@D@std@@QAE@XZ 1000e910 f i mfdpage.obj
 0001:0000d910       ??1?$pair@$$CBV?$basic_string@DU?$char_traits@D@std@@V?$allocator@D@2@@std@@PAVfms_fp_item_t@@@std@@QAE@XZ 1000e910 f i fms_fp.obj
 0001:0000d930       ??1_Sentry_base@?$basic_istream@DU?$char_traits@D@std@@@std@@QAE@XZ 1000e930 f i mfdpage.obj
 0001:0000d990       ??1listener_t@@UAE@XZ      1000e990 f i mfdpage.obj
 0001:0000d9b0       ??1sentry@?$basic_istream@DU?$char_traits@D@std@@@std@@QAE@XZ 1000e9b0 f i mfdpage.obj
 0001:0000d9d0       ??4?$basic_string@DU?$char_traits@D@std@@V?$allocator@D@2@@std@@QAEAAV01@$$QAV01@@Z 1000e9d0 f i mfdpage.obj
 0001:0000da80       ??8?$_String_const_iterator@V?$_String_val@U?$_Simple_types@D@std@@@std@@@std@@QBE_NABV01@@Z 1000ea80 f i mfdpage.obj
 0001:0000dac0       ??8?$_Tree_const_iterator@V?$_Tree_val@U?$_Tree_simple_types@U?$pair@$$CBHPAVfms_fp_item_t@@@std@@@std@@@std@@@std@@QBE_NABV01@@Z 1000eac0 f i mfdpage_fms.obj
 0001:0000dac0       ??8?$_Tree_const_iterator@V?$_Tree_val@U?$_Tree_simple_types@PAVmfdpage_t@@@std@@@std@@@std@@QBE_NABV01@@Z 1000eac0 f i in.obj
 0001:0000dac0       ??8?$_Tree_const_iterator@V?$_Tree_val@U?$_Tree_simple_types@U?$pair@$$CBHPAVobject_t@@@std@@@std@@@std@@@std@@QBE_NABV01@@Z 1000eac0 f i mfdpage.obj
 0001:0000dac0       ??8?$_Tree_const_iterator@V?$_Tree_val@U?$_Tree_simple_types@PAVobject_t@@@std@@@std@@@std@@QBE_NABV01@@Z 1000eac0 f i data.obj
 0001:0000dac0       ??8?$_Tree_const_iterator@V?$_Tree_val@U?$_Tree_simple_types@U?$pair@$$CBV?$basic_string@DU?$char_traits@D@std@@V?$allocator@D@2@@std@@D@std@@@std@@@std@@@std@@QBE_NABV01@@Z 1000eac0 f i mfdpage.obj
 0001:0000dac0       ??8?$_Tree_const_iterator@V?$_Tree_val@U?$_Tree_simple_types@U?$pair@$$CBV?$basic_string@DU?$char_traits@D@std@@V?$allocator@D@2@@std@@PAVfms_config_item_t@@@std@@@std@@@std@@@std@@QBE_NABV01@@Z 1000eac0 f i fms_config.obj
 0001:0000dac0       ??8?$_Tree_const_iterator@V?$_Tree_val@U?$_Tree_simple_types@U?$pair@$$CBHM@std@@@std@@@std@@@std@@QBE_NABV01@@Z 1000eac0 f i fms_config.obj
 0001:0000dac0       ??8?$_Tree_const_iterator@V?$_Tree_val@U?$_Tree_simple_types@PAVlistener_t@@@std@@@std@@@std@@QBE_NABV01@@Z 1000eac0 f i data.obj
 0001:0000dac0       ??8?$_Tree_const_iterator@V?$_Tree_val@U?$_Tree_simple_types@U?$pair@$$CBV?$basic_string@DU?$char_traits@D@std@@V?$allocator@D@2@@std@@PAVfms_fp_item_t@@@std@@@std@@@std@@@std@@QBE_NABV01@@Z 1000eac0 f i fms_fp.obj
 0001:0000dac0       ??8?$_Tree_const_iterator@V?$_Tree_val@U?$_Tree_simple_types@U?$pair@$$CBV?$basic_string@DU?$char_traits@D@std@@V?$allocator@D@2@@std@@V12@@std@@@std@@@std@@@std@@QBE_NABV01@@Z 1000eac0 f i tools.obj
 0001:0000dac0       ??8?$_Tree_const_iterator@V?$_Tree_val@U?$_Tree_simple_types@U?$pair@$$CBV?$basic_string@DU?$char_traits@D@std@@V?$allocator@D@2@@std@@H@std@@@std@@@std@@@std@@QBE_NABV01@@Z 1000eac0 f i mfdpage.obj
 0001:0000dac0       ??8?$_Tree_const_iterator@V?$_Tree_val@U?$_Tree_simple_types@U?$pair@$$CBV?$basic_string@DU?$char_traits@D@std@@V?$allocator@D@2@@std@@M@std@@@std@@@std@@@std@@QBE_NABV01@@Z 1000eac0 f i mfdpage_fms.obj
 0001:0000dac0       ??8?$_Tree_const_iterator@V?$_Tree_val@U?$_Tree_simple_types@U?$pair@$$CBHV?$basic_string@DU?$char_traits@D@std@@V?$allocator@D@2@@std@@@std@@@std@@@std@@@std@@QBE_NABV01@@Z 1000eac0 f i out_saitek.obj
 0001:0000daf0       ??A?$map@HPAVobject_t@@U?$less@H@std@@V?$allocator@U?$pair@$$CBHPAVobject_t@@@std@@@3@@std@@QAEAAPAVobject_t@@ABH@Z 1000eaf0 f i mfdpage.obj
 0001:0000dba0       ??A?$map@V?$basic_string@DU?$char_traits@D@std@@V?$allocator@D@2@@std@@DU?$less@V?$basic_string@DU?$char_traits@D@std@@V?$allocator@D@2@@std@@@2@V?$allocator@U?$pair@$$CBV?$basic_string@DU?$char_traits@D@std@@V?$allocator@D@2@@std@@D@std@@@2@@std@@QAEAAD$$QAV?$basic_string@DU?$char_traits@D@std@@V?$allocator@D@2@@1@@Z 1000eba0 f i mfdpage.obj
 0001:0000dc60       ??A?$map@V?$basic_string@DU?$char_traits@D@std@@V?$allocator@D@2@@std@@HU?$less@V?$basic_string@DU?$char_traits@D@std@@V?$allocator@D@2@@std@@@2@V?$allocator@U?$pair@$$CBV?$basic_string@DU?$char_traits@D@std@@V?$allocator@D@2@@std@@H@std@@@2@@std@@QAEAAH$$QAV?$basic_string@DU?$char_traits@D@std@@V?$allocator@D@2@@1@@Z 1000ec60 f i mfdpage.obj
 0001:0000dd20       ??A?$map@V?$basic_string@DU?$char_traits@D@std@@V?$allocator@D@2@@std@@V12@U?$less@V?$basic_string@DU?$char_traits@D@std@@V?$allocator@D@2@@std@@@2@V?$allocator@U?$pair@$$CBV?$basic_string@DU?$char_traits@D@std@@V?$allocator@D@2@@std@@V12@@std@@@2@@std@@QAEAAV?$basic_string@DU?$char_traits@D@std@@V?$allocator@D@2@@1@ABV21@@Z 1000ed20 f i mfdpage.obj
 0001:0000ddd0       ??Bsentry@?$basic_istream@DU?$char_traits@D@std@@@std@@QBE_NXZ 1000edd0 f i mfdpage.obj
 0001:0000ddf0       ??D?$_String_iterator@V?$_String_val@U?$_Simple_types@D@std@@@std@@@std@@QBEAADXZ 1000edf0 f i mfdpage.obj
 0001:0000de10       ??E?$_Tree_const_iterator@V?$_Tree_val@U?$_Tree_simple_types@U?$pair@$$CBV?$basic_string@DU?$char_traits@D@std@@V?$allocator@D@2@@std@@M@std@@@std@@@std@@@std@@QAEAAV01@XZ 1000ee10 f i mfdpage_fms.obj
 0001:0000de10       ??E?$_Tree_const_iterator@V?$_Tree_val@U?$_Tree_simple_types@U?$pair@$$CBHPAVobject_t@@@std@@@std@@@std@@@std@@QAEAAV01@XZ 1000ee10 f i mfdpage.obj
 0001:0000de10       ??E?$_Tree_const_iterator@V?$_Tree_val@U?$_Tree_simple_types@U?$pair@$$CBV?$basic_string@DU?$char_traits@D@std@@V?$allocator@D@2@@std@@V12@@std@@@std@@@std@@@std@@QAEAAV01@XZ 1000ee10 f i tools.obj
 0001:0000de10       ??E?$_Tree_const_iterator@V?$_Tree_val@U?$_Tree_simple_types@U?$pair@$$CBV?$basic_string@DU?$char_traits@D@std@@V?$allocator@D@2@@std@@PAVfms_fp_item_t@@@std@@@std@@@std@@@std@@QAEAAV01@XZ 1000ee10 f i fms_fp.obj
 0001:0000de10       ??E?$_Tree_const_iterator@V?$_Tree_val@U?$_Tree_simple_types@U?$pair@$$CBV?$basic_string@DU?$char_traits@D@std@@V?$allocator@D@2@@std@@D@std@@@std@@@std@@@std@@QAEAAV01@XZ 1000ee10 f i mfdpage.obj
 0001:0000de10       ??E?$_Tree_const_iterator@V?$_Tree_val@U?$_Tree_simple_types@U?$pair@$$CBV?$basic_string@DU?$char_traits@D@std@@V?$allocator@D@2@@std@@PAVfms_config_item_t@@@std@@@std@@@std@@@std@@QAEAAV01@XZ 1000ee10 f i fms_config.obj
 0001:0000de10       ??E?$_Tree_const_iterator@V?$_Tree_val@U?$_Tree_simple_types@PAVlistener_t@@@std@@@std@@@std@@QAEAAV01@XZ 1000ee10 f i data.obj
 0001:0000de10       ??E?$_Tree_const_iterator@V?$_Tree_val@U?$_Tree_simple_types@U?$pair@$$CBV?$basic_string@DU?$char_traits@D@std@@V?$allocator@D@2@@std@@H@std@@@std@@@std@@@std@@QAEAAV01@XZ 1000ee10 f i mfdpage.obj
 0001:0000de10       ??E?$_Tree_const_iterator@V?$_Tree_val@U?$_Tree_simple_types@PAVobject_t@@@std@@@std@@@std@@QAEAAV01@XZ 1000ee10 f i data.obj
 0001:0000de10       ??E?$_Tree_const_iterator@V?$_Tree_val@U?$_Tree_simple_types@U?$pair@$$CBHM@std@@@std@@@std@@@std@@QAEAAV01@XZ 1000ee10 f i fms_config.obj
 0001:0000de10       ??E?$_Tree_const_iterator@V?$_Tree_val@U?$_Tree_simple_types@U?$pair@$$CBHV?$basic_string@DU?$char_traits@D@std@@V?$allocator@D@2@@std@@@std@@@std@@@std@@@std@@QAEAAV01@XZ 1000ee10 f i out_saitek.obj
 0001:0000de10       ??E?$_Tree_const_iterator@V?$_Tree_val@U?$_Tree_simple_types@U?$pair@$$CBHPAVfms_fp_item_t@@@std@@@std@@@std@@@std@@QAEAAV01@XZ 1000ee10 f i mfdpage_fms.obj
 0001:0000de10       ??E?$_Tree_const_iterator@V?$_Tree_val@U?$_Tree_simple_types@PAVmfdpage_t@@@std@@@std@@@std@@QAEAAV01@XZ 1000ee10 f i in.obj
 0001:0000de30       ??E?$_Tree_unchecked_const_iterator@V?$_Tree_val@U?$_Tree_simple_types@U?$pair@$$CBV?$basic_string@DU?$char_traits@D@std@@V?$allocator@D@2@@std@@M@std@@@std@@@std@@U_Iterator_base0@2@@std@@QAEAAV01@XZ 1000ee30 f i mfdpage_fms.obj
 0001:0000de30       ??E?$_Tree_unchecked_const_iterator@V?$_Tree_val@U?$_Tree_simple_types@U?$pair@$$CBHPAVobject_t@@@std@@@std@@@std@@U_Iterator_base0@2@@std@@QAEAAV01@XZ 1000ee30 f i mfdpage.obj
 0001:0000de30       ??E?$_Tree_unchecked_const_iterator@V?$_Tree_val@U?$_Tree_simple_types@PAVlistener_t@@@std@@@std@@U_Iterator_base0@2@@std@@QAEAAV01@XZ 1000ee30 f i data.obj
 0001:0000de30       ??E?$_Tree_unchecked_const_iterator@V?$_Tree_val@U?$_Tree_simple_types@PAVmfdpage_t@@@std@@@std@@U_Iterator_base0@2@@std@@QAEAAV01@XZ 1000ee30 f i in.obj
 0001:0000de30       ??E?$_Tree_unchecked_const_iterator@V?$_Tree_val@U?$_Tree_simple_types@U?$pair@$$CBHM@std@@@std@@@std@@U_Iterator_base0@2@@std@@QAEAAV01@XZ 1000ee30 f i fms_config.obj
 0001:0000de30       ??E?$_Tree_unchecked_const_iterator@V?$_Tree_val@U?$_Tree_simple_types@U?$pair@$$CBV?$basic_string@DU?$char_traits@D@std@@V?$allocator@D@2@@std@@V12@@std@@@std@@@std@@U_Iterator_base0@2@@std@@QAEAAV01@XZ 1000ee30 f i tools.obj
 0001:0000de30       ??E?$_Tree_unchecked_const_iterator@V?$_Tree_val@U?$_Tree_simple_types@U?$pair@$$CBV?$basic_string@DU?$char_traits@D@std@@V?$allocator@D@2@@std@@D@std@@@std@@@std@@U_Iterator_base0@2@@std@@QAEAAV01@XZ 1000ee30 f i mfdpage.obj
 0001:0000de30       ??E?$_Tree_unchecked_const_iterator@V?$_Tree_val@U?$_Tree_simple_types@PAVobject_t@@@std@@@std@@U_Iterator_base0@2@@std@@QAEAAV01@XZ 1000ee30 f i data.obj
 0001:0000de30       ??E?$_Tree_unchecked_const_iterator@V?$_Tree_val@U?$_Tree_simple_types@U?$pair@$$CBHPAVfms_fp_item_t@@@std@@@std@@@std@@U_Iterator_base0@2@@std@@QAEAAV01@XZ 1000ee30 f i mfdpage_fms.obj
 0001:0000de30       ??E?$_Tree_unchecked_const_iterator@V?$_Tree_val@U?$_Tree_simple_types@U?$pair@$$CBV?$basic_string@DU?$char_traits@D@std@@V?$allocator@D@2@@std@@PAVfms_fp_item_t@@@std@@@std@@@std@@U_Iterator_base0@2@@std@@QAEAAV01@XZ 1000ee30 f i fms_fp.obj
 0001:0000de30       ??E?$_Tree_unchecked_const_iterator@V?$_Tree_val@U?$_Tree_simple_types@U?$pair@$$CBHV?$basic_string@DU?$char_traits@D@std@@V?$allocator@D@2@@std@@@std@@@std@@@std@@U_Iterator_base0@2@@std@@QAEAAV01@XZ 1000ee30 f i out_saitek.obj
 0001:0000de30       ??E?$_Tree_unchecked_const_iterator@V?$_Tree_val@U?$_Tree_simple_types@U?$pair@$$CBV?$basic_string@DU?$char_traits@D@std@@V?$allocator@D@2@@std@@PAVfms_config_item_t@@@std@@@std@@@std@@U_Iterator_base0@2@@std@@QAEAAV01@XZ 1000ee30 f i fms_config.obj
 0001:0000de30       ??E?$_Tree_unchecked_const_iterator@V?$_Tree_val@U?$_Tree_simple_types@U?$pair@$$CBV?$basic_string@DU?$char_traits@D@std@@V?$allocator@D@2@@std@@H@std@@@std@@@std@@U_Iterator_base0@2@@std@@QAEAAV01@XZ 1000ee30 f i mfdpage.obj
 0001:0000def0       ??G?$_String_const_iterator@V?$_String_val@U?$_Simple_types@D@std@@@std@@@std@@QBEHABV01@@Z 1000eef0 f i mfdpage.obj
 0001:0000df20       ??G?$_String_iterator@V?$_String_val@U?$_Simple_types@D@std@@@std@@@std@@QBEHABV?$_String_const_iterator@V?$_String_val@U?$_Simple_types@D@std@@@std@@@1@@Z 1000ef20 f i mfdpage.obj
 0001:0000df50       ??Y?$basic_string@DU?$char_traits@D@std@@V?$allocator@D@2@@std@@QAEAAV01@D@Z 1000ef50 f i mfdpage.obj
 0001:0000df70       ??_D?$basic_stringstream@DU?$char_traits@D@std@@V?$allocator@D@2@@std@@QAEXXZ 1000ef70 f i mfdpage.obj
 0001:0000df92       ??_E?$basic_stringstream@DU?$char_traits@D@std@@V?$allocator@D@2@@std@@$4PPPPPPPM@A@AEPAXI@Z 1000ef92 f i mfdpage.obj
 0001:0000dfa0       ??_G?$basic_stringstream@DU?$char_traits@D@std@@V?$allocator@D@2@@std@@UAEPAXI@Z 1000efa0 f i mfdpage.obj
 0001:0000dfa0       ??_E?$basic_stringstream@DU?$char_traits@D@std@@V?$allocator@D@2@@std@@UAEPAXI@Z 1000efa0 f i mfdpage.obj
 0001:0000dfe0       ??_G?$pair@$$CBV?$basic_string@DU?$char_traits@D@std@@V?$allocator@D@2@@std@@PAVfms_fp_item_t@@@std@@QAEPAXI@Z 1000efe0 f i fms_fp.obj
 0001:0000dfe0       ??_G?$pair@$$CBV?$basic_string@DU?$char_traits@D@std@@V?$allocator@D@2@@std@@D@std@@QAEPAXI@Z 1000efe0 f i mfdpage.obj
 0001:0000dfe0       ??_G?$pair@$$CBV?$basic_string@DU?$char_traits@D@std@@V?$allocator@D@2@@std@@M@std@@QAEPAXI@Z 1000efe0 f i mfdpage_fms.obj
 0001:0000dfe0       ??_G?$pair@$$CBV?$basic_string@DU?$char_traits@D@std@@V?$allocator@D@2@@std@@H@std@@QAEPAXI@Z 1000efe0 f i mfdpage.obj
 0001:0000dfe0       ??_G?$pair@$$CBV?$basic_string@DU?$char_traits@D@std@@V?$allocator@D@2@@std@@PAVfms_config_item_t@@@std@@QAEPAXI@Z 1000efe0 f i fms_config.obj
 0001:0000e010       ??_Elistener_t@@UAEPAXI@Z  1000f010 f i mfdpage.obj
 0001:0000e010       ??_Glistener_t@@UAEPAXI@Z  1000f010 f i mfdpage.obj
 0001:0000e040       ??_Gmfdpage_t@@UAEPAXI@Z   1000f040 f i mfdpage.obj
 0001:0000e040       ??_Emfdpage_t@@UAEPAXI@Z   1000f040 f i mfdpage.obj
 0001:0000e070       ?_Buyheadnode@?$_Tree_alloc@$0A@U?$_Tree_base_types@U?$pair@$$CBHPAVobject_t@@@std@@V?$allocator@U?$pair@$$CBHPAVobject_t@@@std@@@2@@std@@@std@@QAEPAU?$_Tree_node@U?$pair@$$CBHPAVobject_t@@@std@@PAX@2@XZ 1000f070 f i mfdpage.obj
 0001:0000e070       ?_Buyheadnode@?$_Tree_alloc@$0A@U?$_Tree_base_types@U?$pair@$$CBHM@std@@V?$allocator@U?$pair@$$CBHM@std@@@2@@std@@@std@@QAEPAU?$_Tree_node@U?$pair@$$CBHM@std@@PAX@2@XZ 1000f070 f i fms_config.obj
 0001:0000e070       ?_Buyheadnode@?$_Tree_alloc@$0A@U?$_Tree_base_types@U?$pair@$$CBHPAVfms_fp_item_t@@@std@@V?$allocator@U?$pair@$$CBHPAVfms_fp_item_t@@@std@@@2@@std@@@std@@QAEPAU?$_Tree_node@U?$pair@$$CBHPAVfms_fp_item_t@@@std@@PAX@2@XZ 1000f070 f i fms_fp.obj
 0001:0000e1c0       ?_Chassign@?$basic_string@DU?$char_traits@D@std@@V?$allocator@D@2@@std@@QAEXIID@Z 1000f1c0 f i mfdpage.obj
 0001:0000e210       ?_Color@?$_Tree_val@U?$_Tree_simple_types@U?$pair@$$CBHV?$basic_string@DU?$char_traits@D@std@@V?$allocator@D@2@@std@@@std@@@std@@@std@@SAAADPAU?$_Tree_node@U?$pair@$$CBHV?$basic_string@DU?$char_traits@D@std@@V?$allocator@D@2@@std@@@std@@PAX@2@@Z 1000f210 f i out_saitek.obj
 0001:0000e210       ?_Color@?$_Tree_val@U?$_Tree_simple_types@U?$pair@$$CBHPAVobject_t@@@std@@@std@@@std@@SAAADPAU?$_Tree_node@U?$pair@$$CBHPAVobject_t@@@std@@PAX@2@@Z 1000f210 f i mfdpage.obj
 0001:0000e210       ?_Color@?$_Tree_val@U?$_Tree_simple_types@U?$pair@$$CBV?$basic_string@DU?$char_traits@D@std@@V?$allocator@D@2@@std@@D@std@@@std@@@std@@SAAADPAU?$_Tree_node@U?$pair@$$CBV?$basic_string@DU?$char_traits@D@std@@V?$allocator@D@2@@std@@D@std@@PAX@2@@Z 1000f210 f i mfdpage.obj
 0001:0000e210       ?_Color@?$_Tree_val@U?$_Tree_simple_types@U?$pair@$$CBV?$basic_string@DU?$char_traits@D@std@@V?$allocator@D@2@@std@@H@std@@@std@@@std@@SAAADPAU?$_Tree_node@U?$pair@$$CBV?$basic_string@DU?$char_traits@D@std@@V?$allocator@D@2@@std@@H@std@@PAX@2@@Z 1000f210 f i mfdpage.obj
 0001:0000e210       ?_Color@?$_Tree_val@U?$_Tree_simple_types@PAVobject_t@@@std@@@std@@SAAADPAU?$_Tree_node@PAVobject_t@@PAX@2@@Z 1000f210 f i data.obj
 0001:0000e210       ?_Color@?$_Tree_val@U?$_Tree_simple_types@U?$pair@$$CBV?$basic_string@DU?$char_traits@D@std@@V?$allocator@D@2@@std@@PAVfms_config_item_t@@@std@@@std@@@std@@SAAADPAU?$_Tree_node@U?$pair@$$CBV?$basic_string@DU?$char_traits@D@std@@V?$allocator@D@2@@std@@PAVfms_config_item_t@@@std@@PAX@2@@Z 1000f210 f i fms_config.obj
 0001:0000e210       ?_Color@?$_Tree_val@U?$_Tree_simple_types@U?$pair@$$CBV?$basic_string@DU?$char_traits@D@std@@V?$allocator@D@2@@std@@PAVfms_fp_item_t@@@std@@@std@@@std@@SAAADPAU?$_Tree_node@U?$pair@$$CBV?$basic_string@DU?$char_traits@D@std@@V?$allocator@D@2@@std@@PAVfms_fp_item_t@@@std@@PAX@2@@Z 1000f210 f i fms_fp.obj
 0001:0000e210       ?_Color@?$_Tree_val@U?$_Tree_simple_types@U?$pair@$$CBHPAVfms_fp_item_t@@@std@@@std@@@std@@SAAADPAU?$_Tree_node@U?$pair@$$CBHPAVfms_fp_item_t@@@std@@PAX@2@@Z 1000f210 f i mfdpage_fms.obj
 0001:0000e210       ?_Color@?$_Tree_val@U?$_Tree_simple_types@PAVlistener_t@@@std@@@std@@SAAADPAU?$_Tree_node@PAVlistener_t@@PAX@2@@Z 1000f210 f i data.obj
 0001:0000e210       ?_Color@?$_Tree_val@U?$_Tree_simple_types@U?$pair@$$CBHM@std@@@std@@@std@@SAAADPAU?$_Tree_node@U?$pair@$$CBHM@std@@PAX@2@@Z 1000f210 f i fms_config.obj
 0001:0000e210       ?_Color@?$_Tree_val@U?$_Tree_simple_types@U?$pair@$$CBV?$basic_string@DU?$char_traits@D@std@@V?$allocator@D@2@@std@@M@std@@@std@@@std@@SAAADPAU?$_Tree_node@U?$pair@$$CBV?$basic_string@DU?$char_traits@D@std@@V?$allocator@D@2@@std@@M@std@@PAX@2@@Z 1000f210 f i mfdpage_fms.obj
 0001:0000e210       ?_Color@?$_Tree_val@U?$_Tree_simple_types@U?$pair@$$CBV?$basic_string@DU?$char_traits@D@std@@V?$allocator@D@2@@std@@V12@@std@@@std@@@std@@SAAADPAU?$_Tree_node@U?$pair@$$CBV?$basic_string@DU?$char_traits@D@std@@V?$allocator@D@2@@std@@V12@@std@@PAX@2@@Z 1000f210 f i tools.obj
 0001:0000e210       ?_Color@?$_Tree_val@U?$_Tree_simple_types@PAVmfdpage_t@@@std@@@std@@SAAADPAU?$_Tree_node@PAVmfdpage_t@@PAX@2@@Z 1000f210 f i in.obj
 0001:0000e220       ?_Erase@?$_Tree@V?$_Tmap_traits@HV?$basic_string@DU?$char_traits@D@std@@V?$allocator@D@2@@std@@U?$less@H@2@V?$allocator@U?$pair@$$CBHV?$basic_string@DU?$char_traits@D@std@@V?$allocator@D@2@@std@@@std@@@2@$0A@@std@@@std@@IAEXPAU?$_Tree_node@U?$pair@$$CBHV?$basic_string@DU?$char_traits@D@std@@V?$allocator@D@2@@std@@@std@@PAX@2@@Z 1000f220 f i mfdpage.obj
 0001:0000e2c0       ?_Erase@?$_Tree@V?$_Tmap_traits@V?$basic_string@DU?$char_traits@D@std@@V?$allocator@D@2@@std@@MU?$less@V?$basic_string@DU?$char_traits@D@std@@V?$allocator@D@2@@std@@@2@V?$allocator@U?$pair@$$CBV?$basic_string@DU?$char_traits@D@std@@V?$allocator@D@2@@std@@M@std@@@2@$0A@@std@@@std@@IAEXPAU?$_Tree_node@U?$pair@$$CBV?$basic_string@DU?$char_traits@D@std@@V?$allocator@D@2@@std@@M@std@@PAX@2@@Z 1000f2c0 f i fms_config.obj
 0001:0000e2c0       ?_Erase@?$_Tree@V?$_Tmap_traits@V?$basic_string@DU?$char_traits@D@std@@V?$allocator@D@2@@std@@HU?$less@V?$basic_string@DU?$char_traits@D@std@@V?$allocator@D@2@@std@@@2@V?$allocator@U?$pair@$$CBV?$basic_string@DU?$char_traits@D@std@@V?$allocator@D@2@@std@@H@std@@@2@$0A@@std@@@std@@IAEXPAU?$_Tree_node@U?$pair@$$CBV?$basic_string@DU?$char_traits@D@std@@V?$allocator@D@2@@std@@H@std@@PAX@2@@Z 1000f2c0 f i mfdpage.obj
 0001:0000e2c0       ?_Erase@?$_Tree@V?$_Tmap_traits@V?$basic_string@DU?$char_traits@D@std@@V?$allocator@D@2@@std@@PAVfms_config_item_t@@U?$less@V?$basic_string@DU?$char_traits@D@std@@V?$allocator@D@2@@std@@@2@V?$allocator@U?$pair@$$CBV?$basic_string@DU?$char_traits@D@std@@V?$allocator@D@2@@std@@PAVfms_config_item_t@@@std@@@2@$0A@@std@@@std@@IAEXPAU?$_Tree_node@U?$pair@$$CBV?$basic_string@DU?$char_traits@D@std@@V?$allocator@D@2@@std@@PAVfms_config_item_t@@@std@@PAX@2@@Z 1000f2c0 f i fms_config.obj
 0001:0000e2c0       ?_Erase@?$_Tree@V?$_Tmap_traits@V?$basic_string@DU?$char_traits@D@std@@V?$allocator@D@2@@std@@PAVfms_fp_item_t@@U?$less@V?$basic_string@DU?$char_traits@D@std@@V?$allocator@D@2@@std@@@2@V?$allocator@U?$pair@$$CBV?$basic_string@DU?$char_traits@D@std@@V?$allocator@D@2@@std@@PAVfms_fp_item_t@@@std@@@2@$0A@@std@@@std@@IAEXPAU?$_Tree_node@U?$pair@$$CBV?$basic_string@DU?$char_traits@D@std@@V?$allocator@D@2@@std@@PAVfms_fp_item_t@@@std@@PAX@2@@Z 1000f2c0 f i fms_fp.obj
 0001:0000e360       ?_Freeheadnode@?$_Tree_alloc@$0A@U?$_Tree_base_types@U?$pair@$$CBV?$basic_string@DU?$char_traits@D@std@@V?$allocator@D@2@@std@@H@std@@V?$allocator@U?$pair@$$CBV?$basic_string@DU?$char_traits@D@std@@V?$allocator@D@2@@std@@H@std@@@2@@std@@@std@@QAEXPAU?$_Tree_node@U?$pair@$$CBV?$basic_string@DU?$char_traits@D@std@@V?$allocator@D@2@@std@@H@std@@PAX@2@@Z 1000f360 f i mfdpage.obj
 0001:0000e360       ?_Freenode0@?$_Tree_buy@U?$pair@$$CBV?$basic_string@DU?$char_traits@D@std@@V?$allocator@D@2@@std@@M@std@@V?$allocator@U?$pair@$$CBV?$basic_string@DU?$char_traits@D@std@@V?$allocator@D@2@@std@@M@std@@@2@@std@@QAEXPAU?$_Tree_node@U?$pair@$$CBV?$basic_string@DU?$char_traits@D@std@@V?$allocator@D@2@@std@@M@std@@PAX@2@@Z 1000f360 f i mfdpage_fms.obj
 0001:0000e360       ?_Freeheadnode@?$_Tree_alloc@$0A@U?$_Tree_base_types@U?$pair@$$CBHV?$basic_string@DU?$char_traits@D@std@@V?$allocator@D@2@@std@@@std@@V?$allocator@U?$pair@$$CBHV?$basic_string@DU?$char_traits@D@std@@V?$allocator@D@2@@std@@@std@@@2@@std@@@std@@QAEXPAU?$_Tree_node@U?$pair@$$CBHV?$basic_string@DU?$char_traits@D@std@@V?$allocator@D@2@@std@@@std@@PAX@2@@Z 1000f360 f i mfdpage.obj
 0001:0000e360       ?_Freenode0@?$_Tree_buy@U?$pair@$$CBV?$basic_string@DU?$char_traits@D@std@@V?$allocator@D@2@@std@@H@std@@V?$allocator@U?$pair@$$CBV?$basic_string@DU?$char_traits@D@std@@V?$allocator@D@2@@std@@H@std@@@2@@std@@QAEXPAU?$_Tree_node@U?$pair@$$CBV?$basic_string@DU?$char_traits@D@std@@V?$allocator@D@2@@std@@H@std@@PAX@2@@Z 1000f360 f i mfdpage.obj
 0001:0000e360       ?_Freeheadnode@?$_Tree_alloc@$0A@U?$_Tree_base_types@PAVmfdpage_t@@V?$allocator@PAVmfdpage_t@@@std@@@std@@@std@@QAEXPAU?$_Tree_node@PAVmfdpage_t@@PAX@2@@Z 1000f360 f i in.obj
 0001:0000e360       ?_Freeheadnode@?$_Tree_alloc@$0A@U?$_Tree_base_types@U?$pair@$$CBV?$basic_string@DU?$char_traits@D@std@@V?$allocator@D@2@@std@@PAVfms_config_item_t@@@std@@V?$allocator@U?$pair@$$CBV?$basic_string@DU?$char_traits@D@std@@V?$allocator@D@2@@std@@PAVfms_config_item_t@@@std@@@2@@std@@@std@@QAEXPAU?$_Tree_node@U?$pair@$$CBV?$basic_string@DU?$char_traits@D@std@@V?$allocator@D@2@@std@@PAVfms_config_item_t@@@std@@PAX@2@@Z 1000f360 f i fms_config.obj
 0001:0000e360       ?_Freenode0@?$_Tree_buy@U?$pair@$$CBHPAVobject_t@@@std@@V?$allocator@U?$pair@$$CBHPAVobject_t@@@std@@@2@@std@@QAEXPAU?$_Tree_node@U?$pair@$$CBHPAVobject_t@@@std@@PAX@2@@Z 1000f360 f i mfdpage.obj
 0001:0000e360       ?_Freenode0@?$_Tree_buy@U?$pair@$$CBV?$basic_string@DU?$char_traits@D@std@@V?$allocator@D@2@@std@@V12@@std@@V?$allocator@U?$pair@$$CBV?$basic_string@DU?$char_traits@D@std@@V?$allocator@D@2@@std@@V12@@std@@@2@@std@@QAEXPAU?$_Tree_node@U?$pair@$$CBV?$basic_string@DU?$char_traits@D@std@@V?$allocator@D@2@@std@@V12@@std@@PAX@2@@Z 1000f360 f i tools.obj
 0001:0000e360       ?_Freenode0@?$_Tree_buy@U?$pair@$$CBHPAVfms_fp_item_t@@@std@@V?$allocator@U?$pair@$$CBHPAVfms_fp_item_t@@@std@@@2@@std@@QAEXPAU?$_Tree_node@U?$pair@$$CBHPAVfms_fp_item_t@@@std@@PAX@2@@Z 1000f360 f i mfdpage_fms.obj
 0001:0000e360       ?_Freeheadnode@?$_Tree_alloc@$0A@U?$_Tree_base_types@PAVobject_t@@V?$allocator@PAVobject_t@@@std@@@std@@@std@@QAEXPAU?$_Tree_node@PAVobject_t@@PAX@2@@Z 1000f360 f i data.obj
 0001:0000e360       ?_Freeheadnode@?$_Tree_alloc@$0A@U?$_Tree_base_types@U?$pair@$$CBV?$basic_string@DU?$char_traits@D@std@@V?$allocator@D@2@@std@@M@std@@V?$allocator@U?$pair@$$CBV?$basic_string@DU?$char_traits@D@std@@V?$allocator@D@2@@std@@M@std@@@2@@std@@@std@@QAEXPAU?$_Tree_node@U?$pair@$$CBV?$basic_string@DU?$char_traits@D@std@@V?$allocator@D@2@@std@@M@std@@PAX@2@@Z 1000f360 f i fms_config.obj
 0001:0000e360       ?_Freeheadnode@?$_Tree_alloc@$0A@U?$_Tree_base_types@U?$pair@$$CBHPAVfms_fp_item_t@@@std@@V?$allocator@U?$pair@$$CBHPAVfms_fp_item_t@@@std@@@2@@std@@@std@@QAEXPAU?$_Tree_node@U?$pair@$$CBHPAVfms_fp_item_t@@@std@@PAX@2@@Z 1000f360 f i fms_fp.obj
 0001:0000e360       ?_Freenode0@?$_Tree_buy@U?$pair@$$CBHM@std@@V?$allocator@U?$pair@$$CBHM@std@@@2@@std@@QAEXPAU?$_Tree_node@U?$pair@$$CBHM@std@@PAX@2@@Z 1000f360 f i fms_config.obj
 0001:0000e360       ?_Freenode0@?$_Tree_buy@U?$pair@$$CBV?$basic_string@DU?$char_traits@D@std@@V?$allocator@D@2@@std@@D@std@@V?$allocator@U?$pair@$$CBV?$basic_string@DU?$char_traits@D@std@@V?$allocator@D@2@@std@@D@std@@@2@@std@@QAEXPAU?$_Tree_node@U?$pair@$$CBV?$basic_string@DU?$char_traits@D@std@@V?$allocator@D@2@@std@@D@std@@PAX@2@@Z 1000f360 f i mfdpage.obj
 0001:0000e360       ?_Freenode0@?$_Tree_buy@U?$pair@$$CBV?$basic_string@DU?$char_traits@D@std@@V?$allocator@D@2@@std@@PAVfms_fp_item_t@@@std@@V?$allocator@U?$pair@$$CBV?$basic_string@DU?$char_traits@D@std@@V?$allocator@D@2@@std@@PAVfms_fp_item_t@@@std@@@2@@std@@QAEXPAU?$_Tree_node@U?$pair@$$CBV?$basic_string@DU?$char_traits@D@std@@V?$allocator@D@2@@std@@PAVfms_fp_item_t@@@std@@PAX@2@@Z 1000f360 f i fms_fp.obj
 0001:0000e360       ?_Freenode0@?$_Tree_buy@PAVobject_t@@V?$allocator@PAVobject_t@@@std@@@std@@QAEXPAU?$_Tree_node@PAVobject_t@@PAX@2@@Z 1000f360 f i data.obj
 0001:0000e360       ?_Freenode0@?$_Tree_buy@PAVlistener_t@@V?$allocator@PAVlistener_t@@@std@@@std@@QAEXPAU?$_Tree_node@PAVlistener_t@@PAX@2@@Z 1000f360 f i data.obj
 0001:0000e360       ?_Freeheadnode@?$_Tree_alloc@$0A@U?$_Tree_base_types@U?$pair@$$CBV?$basic_string@DU?$char_traits@D@std@@V?$allocator@D@2@@std@@V12@@std@@V?$allocator@U?$pair@$$CBV?$basic_string@DU?$char_traits@D@std@@V?$allocator@D@2@@std@@V12@@std@@@2@@std@@@std@@QAEXPAU?$_Tree_node@U?$pair@$$CBV?$basic_string@DU?$char_traits@D@std@@V?$allocator@D@2@@std@@V12@@std@@PAX@2@@Z 1000f360 f i tools.obj
 0001:0000e360       ?_Freeheadnode@?$_Tree_alloc@$0A@U?$_Tree_base_types@U?$pair@$$CBV?$basic_string@DU?$char_traits@D@std@@V?$allocator@D@2@@std@@PAVfms_fp_item_t@@@std@@V?$allocator@U?$pair@$$CBV?$basic_string@DU?$char_traits@D@std@@V?$allocator@D@2@@std@@PAVfms_fp_item_t@@@std@@@2@@std@@@std@@QAEXPAU?$_Tree_node@U?$pair@$$CBV?$basic_string@DU?$char_traits@D@std@@V?$allocator@D@2@@std@@PAVfms_fp_item_t@@@std@@PAX@2@@Z 1000f360 f i fms_fp.obj
 0001:0000e360       ?_Freeheadnode@?$_Tree_alloc@$0A@U?$_Tree_base_types@U?$pair@$$CBHPAVobject_t@@@std@@V?$allocator@U?$pair@$$CBHPAVobject_t@@@std@@@2@@std@@@std@@QAEXPAU?$_Tree_node@U?$pair@$$CBHPAVobject_t@@@std@@PAX@2@@Z 1000f360 f i mfdpage.obj
 0001:0000e360       ?_Freenode0@?$_Tree_buy@U?$pair@$$CBHV?$basic_string@DU?$char_traits@D@std@@V?$allocator@D@2@@std@@@std@@V?$allocator@U?$pair@$$CBHV?$basic_string@DU?$char_traits@D@std@@V?$allocator@D@2@@std@@@std@@@2@@std@@QAEXPAU?$_Tree_node@U?$pair@$$CBHV?$basic_string@DU?$char_traits@D@std@@V?$allocator@D@2@@std@@@std@@PAX@2@@Z 1000f360 f i out_saitek.obj
 0001:0000e360       ?_Freenode0@?$_Tree_buy@U?$pair@$$CBV?$basic_string@DU?$char_traits@D@std@@V?$allocator@D@2@@std@@PAVfms_config_item_t@@@std@@V?$allocator@U?$pair@$$CBV?$basic_string@DU?$char_traits@D@std@@V?$allocator@D@2@@std@@PAVfms_config_item_t@@@std@@@2@@std@@QAEXPAU?$_Tree_node@U?$pair@$$CBV?$basic_string@DU?$char_traits@D@std@@V?$allocator@D@2@@std@@PAVfms_config_item_t@@@std@@PAX@2@@Z 1000f360 f i fms_config.obj
 0001:0000e360       ?_Freenode0@?$_Tree_buy@PAVmfdpage_t@@V?$allocator@PAVmfdpage_t@@@std@@@std@@QAEXPAU?$_Tree_node@PAVmfdpage_t@@PAX@2@@Z 1000f360 f i in.obj
 0001:0000e360       ?_Freeheadnode@?$_Tree_alloc@$0A@U?$_Tree_base_types@PAVlistener_t@@V?$allocator@PAVlistener_t@@@std@@@std@@@std@@QAEXPAU?$_Tree_node@PAVlistener_t@@PAX@2@@Z 1000f360 f i data.obj
 0001:0000e410       ?_Lbound@?$_Tree@V?$_Tmap_traits@HV?$basic_string@DU?$char_traits@D@std@@V?$allocator@D@2@@std@@U?$less@H@2@V?$allocator@U?$pair@$$CBHV?$basic_string@DU?$char_traits@D@std@@V?$allocator@D@2@@std@@@std@@@2@$0A@@std@@@std@@IAEPAU?$_Tree_node@U?$pair@$$CBHV?$basic_string@DU?$char_traits@D@std@@V?$allocator@D@2@@std@@@std@@PAX@2@ABH@Z 1000f410 f i out_saitek.obj
 0001:0000e410       ?_Lbound@?$_Tree@V?$_Tmap_traits@HPAVobject_t@@U?$less@H@std@@V?$allocator@U?$pair@$$CBHPAVobject_t@@@std@@@3@$0A@@std@@@std@@IAEPAU?$_Tree_node@U?$pair@$$CBHPAVobject_t@@@std@@PAX@2@ABH@Z 1000f410 f i mfdpage.obj
 0001:0000e410       ?_Lbound@?$_Tree@V?$_Tmap_traits@HMU?$less@H@std@@V?$allocator@U?$pair@$$CBHM@std@@@2@$0A@@std@@@std@@IAEPAU?$_Tree_node@U?$pair@$$CBHM@std@@PAX@2@ABH@Z 1000f410 f i fms_config.obj
 0001:0000e410       ?_Lbound@?$_Tree@V?$_Tmap_traits@HPAVfms_fp_item_t@@U?$less@H@std@@V?$allocator@U?$pair@$$CBHPAVfms_fp_item_t@@@std@@@3@$0A@@std@@@std@@IAEPAU?$_Tree_node@U?$pair@$$CBHPAVfms_fp_item_t@@@std@@PAX@2@ABH@Z 1000f410 f i mfdpage_fms.obj
 0001:0000e4b0       ?_Min@?$_Tree_val@U?$_Tree_simple_types@U?$pair@$$CBV?$basic_string@DU?$char_traits@D@std@@V?$allocator@D@2@@std@@V12@@std@@@std@@@std@@SAPAU?$_Tree_node@U?$pair@$$CBV?$basic_string@DU?$char_traits@D@std@@V?$allocator@D@2@@std@@V12@@std@@PAX@2@PAU32@@Z 1000f4b0 f i tools.obj
 0001:0000e4b0       ?_Min@?$_Tree_val@U?$_Tree_simple_types@U?$pair@$$CBV?$basic_string@DU?$char_traits@D@std@@V?$allocator@D@2@@std@@PAVfms_fp_item_t@@@std@@@std@@@std@@SAPAU?$_Tree_node@U?$pair@$$CBV?$basic_string@DU?$char_traits@D@std@@V?$allocator@D@2@@std@@PAVfms_fp_item_t@@@std@@PAX@2@PAU32@@Z 1000f4b0 f i fms_fp.obj
 0001:0000e4b0       ?_Min@?$_Tree_val@U?$_Tree_simple_types@U?$pair@$$CBHM@std@@@std@@@std@@SAPAU?$_Tree_node@U?$pair@$$CBHM@std@@PAX@2@PAU32@@Z 1000f4b0 f i fms_config.obj
 0001:0000e4b0       ?_Min@?$_Tree_val@U?$_Tree_simple_types@U?$pair@$$CBHPAVfms_fp_item_t@@@std@@@std@@@std@@SAPAU?$_Tree_node@U?$pair@$$CBHPAVfms_fp_item_t@@@std@@PAX@2@PAU32@@Z 1000f4b0 f i mfdpage_fms.obj
 0001:0000e4b0       ?_Min@?$_Tree_val@U?$_Tree_simple_types@U?$pair@$$CBHPAVobject_t@@@std@@@std@@@std@@SAPAU?$_Tree_node@U?$pair@$$CBHPAVobject_t@@@std@@PAX@2@PAU32@@Z 1000f4b0 f i mfdpage.obj
 0001:0000e4b0       ?_Min@?$_Tree_val@U?$_Tree_simple_types@PAVlistener_t@@@std@@@std@@SAPAU?$_Tree_node@PAVlistener_t@@PAX@2@PAU32@@Z 1000f4b0 f i data.obj
 0001:0000e4b0       ?_Min@?$_Tree_val@U?$_Tree_simple_types@PAVmfdpage_t@@@std@@@std@@SAPAU?$_Tree_node@PAVmfdpage_t@@PAX@2@PAU32@@Z 1000f4b0 f i in.obj
 0001:0000e4b0       ?_Min@?$_Tree_val@U?$_Tree_simple_types@U?$pair@$$CBHV?$basic_string@DU?$char_traits@D@std@@V?$allocator@D@2@@std@@@std@@@std@@@std@@SAPAU?$_Tree_node@U?$pair@$$CBHV?$basic_string@DU?$char_traits@D@std@@V?$allocator@D@2@@std@@@std@@PAX@2@PAU32@@Z 1000f4b0 f i out_saitek.obj
 0001:0000e4b0       ?_Min@?$_Tree_val@U?$_Tree_simple_types@U?$pair@$$CBV?$basic_string@DU?$char_traits@D@std@@V?$allocator@D@2@@std@@D@std@@@std@@@std@@SAPAU?$_Tree_node@U?$pair@$$CBV?$basic_string@DU?$char_traits@D@std@@V?$allocator@D@2@@std@@D@std@@PAX@2@PAU32@@Z 1000f4b0 f i mfdpage.obj
 0001:0000e4b0       ?_Min@?$_Tree_val@U?$_Tree_simple_types@U?$pair@$$CBV?$basic_string@DU?$char_traits@D@std@@V?$allocator@D@2@@std@@M@std@@@std@@@std@@SAPAU?$_Tree_node@U?$pair@$$CBV?$basic_string@DU?$char_traits@D@std@@V?$allocator@D@2@@std@@M@std@@PAX@2@PAU32@@Z 1000f4b0 f i mfdpage_fms.obj
 0001:0000e4b0       ?_Min@?$_Tree_val@U?$_Tree_simple_types@U?$pair@$$CBV?$basic_string@DU?$char_traits@D@std@@V?$allocator@D@2@@std@@H@std@@@std@@@std@@SAPAU?$_Tree_node@U?$pair@$$CBV?$basic_string@DU?$char_traits@D@std@@V?$allocator@D@2@@std@@H@std@@PAX@2@PAU32@@Z 1000f4b0 f i mfdpage.obj
 0001:0000e4b0       ?_Min@?$_Tree_val@U?$_Tree_simple_types@U?$pair@$$CBV?$basic_string@DU?$char_traits@D@std@@V?$allocator@D@2@@std@@PAVfms_config_item_t@@@std@@@std@@@std@@SAPAU?$_Tree_node@U?$pair@$$CBV?$basic_string@DU?$char_traits@D@std@@V?$allocator@D@2@@std@@PAVfms_config_item_t@@@std@@PAX@2@PAU32@@Z 1000f4b0 f i fms_config.obj
 0001:0000e4b0       ?_Min@?$_Tree_val@U?$_Tree_simple_types@PAVobject_t@@@std@@@std@@SAPAU?$_Tree_node@PAVobject_t@@PAX@2@PAU32@@Z 1000f4b0 f i data.obj
 0001:0000e4f0       ?value@error_condition@std@@QBEHXZ 1000f4f0 f i main.obj
 0001:0000e4f0       ?_Mynode@?$_Tree_unchecked_const_iterator@V?$_Tree_val@U?$_Tree_simple_types@U?$pair@$$CBV?$basic_string@DU?$char_traits@D@std@@V?$allocator@D@2@@std@@PAVfms_fp_item_t@@@std@@@std@@@std@@U_Iterator_base0@2@@std@@QBEPAU?$_Tree_node@U?$pair@$$CBV?$basic_string@DU?$char_traits@D@std@@V?$allocator@D@2@@std@@PAVfms_fp_item_t@@@std@@PAX@2@XZ 1000f4f0 f i fms_fp.obj
 0001:0000e4f0       ?_Unchecked@?$_String_iterator@V?$_String_val@U?$_Simple_types@D@std@@@std@@@std@@QBEPADXZ 1000f4f0 f i mfdpage_led.obj
 0001:0000e4f0       ?_Mynode@?$_Tree_unchecked_const_iterator@V?$_Tree_val@U?$_Tree_simple_types@U?$pair@$$CBV?$basic_string@DU?$char_traits@D@std@@V?$allocator@D@2@@std@@V12@@std@@@std@@@std@@U_Iterator_base0@2@@std@@QBEPAU?$_Tree_node@U?$pair@$$CBV?$basic_string@DU?$char_traits@D@std@@V?$allocator@D@2@@std@@V12@@std@@PAX@2@XZ 1000f4f0 f i tools.obj
 0001:0000e4f0       ?_Mynode@?$_Tree_unchecked_const_iterator@V?$_Tree_val@U?$_Tree_simple_types@U?$pair@$$CBV?$basic_string@DU?$char_traits@D@std@@V?$allocator@D@2@@std@@H@std@@@std@@@std@@U_Iterator_base0@2@@std@@QBEPAU?$_Tree_node@U?$pair@$$CBV?$basic_string@DU?$char_traits@D@std@@V?$allocator@D@2@@std@@H@std@@PAX@2@XZ 1000f4f0 f i mfdpage.obj
 0001:0000e4f0       ?_Mynode@?$_Tree_unchecked_const_iterator@V?$_Tree_val@U?$_Tree_simple_types@U?$pair@$$CBV?$basic_string@DU?$char_traits@D@std@@V?$allocator@D@2@@std@@PAVfms_config_item_t@@@std@@@std@@@std@@U_Iterator_base0@2@@std@@QBEPAU?$_Tree_node@U?$pair@$$CBV?$basic_string@DU?$char_traits@D@std@@V?$allocator@D@2@@std@@PAVfms_config_item_t@@@std@@PAX@2@XZ 1000f4f0 f i fms_config.obj
 0001:0000e4f0       ?_Mynode@?$_Tree_unchecked_const_iterator@V?$_Tree_val@U?$_Tree_simple_types@U?$pair@$$CBV?$basic_string@DU?$char_traits@D@std@@V?$allocator@D@2@@std@@D@std@@@std@@@std@@U_Iterator_base0@2@@std@@QBEPAU?$_Tree_node@U?$pair@$$CBV?$basic_string@DU?$char_traits@D@std@@V?$allocator@D@2@@std@@D@std@@PAX@2@XZ 1000f4f0 f i mfdpage.obj
 0001:0000e4f0       ?_Mynode@?$_Tree_unchecked_const_iterator@V?$_Tree_val@U?$_Tree_simple_types@PAVlistener_t@@@std@@@std@@U_Iterator_base0@2@@std@@QBEPAU?$_Tree_node@PAVlistener_t@@PAX@2@XZ 1000f4f0 f i data.obj
 0001:0000e4f0       ??D?$_String_const_iterator@V?$_String_val@U?$_Simple_types@D@std@@@std@@@std@@QBEABDXZ 1000f4f0 f i mfdpage.obj
 0001:0000e4f0       ?_Mynode@?$_Tree_unchecked_const_iterator@V?$_Tree_val@U?$_Tree_simple_types@PAVmfdpage_t@@@std@@@std@@U_Iterator_base0@2@@std@@QBEPAU?$_Tree_node@PAVmfdpage_t@@PAX@2@XZ 1000f4f0 f i in.obj
 0001:0000e4f0       ?_Mynode@?$_Tree_unchecked_const_iterator@V?$_Tree_val@U?$_Tree_simple_types@U?$pair@$$CBHPAVfms_fp_item_t@@@std@@@std@@@std@@U_Iterator_base0@2@@std@@QBEPAU?$_Tree_node@U?$pair@$$CBHPAVfms_fp_item_t@@@std@@PAX@2@XZ 1000f4f0 f i mfdpage_fms.obj
 0001:0000e4f0       ?_Mynode@?$_Tree_unchecked_const_iterator@V?$_Tree_val@U?$_Tree_simple_types@U?$pair@$$CBHV?$basic_string@DU?$char_traits@D@std@@V?$allocator@D@2@@std@@@std@@@std@@@std@@U_Iterator_base0@2@@std@@QBEPAU?$_Tree_node@U?$pair@$$CBHV?$basic_string@DU?$char_traits@D@std@@V?$allocator@D@2@@std@@@std@@PAX@2@XZ 1000f4f0 f i out_saitek.obj
 0001:0000e4f0       ?value@error_code@std@@QBEHXZ 1000f4f0 f i main.obj
 0001:0000e4f0       ?_Mynode@?$_Tree_unchecked_const_iterator@V?$_Tree_val@U?$_Tree_simple_types@PAVobject_t@@@std@@@std@@U_Iterator_base0@2@@std@@QBEPAU?$_Tree_node@PAVobject_t@@PAX@2@XZ 1000f4f0 f i data.obj
 0001:0000e4f0       ?_Mynode@?$_Tree_unchecked_const_iterator@V?$_Tree_val@U?$_Tree_simple_types@U?$pair@$$CBV?$basic_string@DU?$char_traits@D@std@@V?$allocator@D@2@@std@@M@std@@@std@@@std@@U_Iterator_base0@2@@std@@QBEPAU?$_Tree_node@U?$pair@$$CBV?$basic_string@DU?$char_traits@D@std@@V?$allocator@D@2@@std@@M@std@@PAX@2@XZ 1000f4f0 f i mfdpage_fms.obj
 0001:0000e4f0       ?_Mynode@?$_Tree_unchecked_const_iterator@V?$_Tree_val@U?$_Tree_simple_types@U?$pair@$$CBHPAVobject_t@@@std@@@std@@@std@@U_Iterator_base0@2@@std@@QBEPAU?$_Tree_node@U?$pair@$$CBHPAVobject_t@@@std@@PAX@2@XZ 1000f4f0 f i mfdpage.obj
 0001:0000e4f0       ?_Mynode@?$_Tree_unchecked_const_iterator@V?$_Tree_val@U?$_Tree_simple_types@U?$pair@$$CBHM@std@@@std@@@std@@U_Iterator_base0@2@@std@@QBEPAU?$_Tree_node@U?$pair@$$CBHM@std@@PAX@2@XZ 1000f4f0 f i fms_config.obj
 0001:0000e500       ?_Parent@?$_Tree_val@U?$_Tree_simple_types@PAVobject_t@@@std@@@std@@SAAAPAU?$_Tree_node@PAVobject_t@@PAX@2@PAU32@@Z 1000f500 f i data.obj
 0001:0000e500       ?_Parent@?$_Tree_val@U?$_Tree_simple_types@U?$pair@$$CBV?$basic_string@DU?$char_traits@D@std@@V?$allocator@D@2@@std@@V12@@std@@@std@@@std@@SAAAPAU?$_Tree_node@U?$pair@$$CBV?$basic_string@DU?$char_traits@D@std@@V?$allocator@D@2@@std@@V12@@std@@PAX@2@PAU32@@Z 1000f500 f i tools.obj
 0001:0000e500       ?_Parent@?$_Tree_val@U?$_Tree_simple_types@U?$pair@$$CBV?$basic_string@DU?$char_traits@D@std@@V?$allocator@D@2@@std@@H@std@@@std@@@std@@SAAAPAU?$_Tree_node@U?$pair@$$CBV?$basic_string@DU?$char_traits@D@std@@V?$allocator@D@2@@std@@H@std@@PAX@2@PAU32@@Z 1000f500 f i mfdpage.obj
 0001:0000e500       ?_Parent@?$_Tree_val@U?$_Tree_simple_types@U?$pair@$$CBHPAVobject_t@@@std@@@std@@@std@@SAAAPAU?$_Tree_node@U?$pair@$$CBHPAVobject_t@@@std@@PAX@2@PAU32@@Z 1000f500 f i mfdpage.obj
 0001:0000e500       ?_Parent@?$_Tree_val@U?$_Tree_simple_types@U?$pair@$$CBV?$basic_string@DU?$char_traits@D@std@@V?$allocator@D@2@@std@@D@std@@@std@@@std@@SAAAPAU?$_Tree_node@U?$pair@$$CBV?$basic_string@DU?$char_traits@D@std@@V?$allocator@D@2@@std@@D@std@@PAX@2@PAU32@@Z 1000f500 f i mfdpage.obj
 0001:0000e500       ?_Parent@?$_Tree_val@U?$_Tree_simple_types@PAVmfdpage_t@@@std@@@std@@SAAAPAU?$_Tree_node@PAVmfdpage_t@@PAX@2@PAU32@@Z 1000f500 f i in.obj
 0001:0000e500       ?_Parent@?$_Tree_val@U?$_Tree_simple_types@PAVlistener_t@@@std@@@std@@SAAAPAU?$_Tree_node@PAVlistener_t@@PAX@2@PAU32@@Z 1000f500 f i data.obj
 0001:0000e500       ?_Parent@?$_Tree_val@U?$_Tree_simple_types@U?$pair@$$CBHM@std@@@std@@@std@@SAAAPAU?$_Tree_node@U?$pair@$$CBHM@std@@PAX@2@PAU32@@Z 1000f500 f i fms_config.obj
 0001:0000e500       ?_Parent@?$_Tree_val@U?$_Tree_simple_types@U?$pair@$$CBHPAVfms_fp_item_t@@@std@@@std@@@std@@SAAAPAU?$_Tree_node@U?$pair@$$CBHPAVfms_fp_item_t@@@std@@PAX@2@PAU32@@Z 1000f500 f i mfdpage_fms.obj
 0001:0000e500       ?_Parent@?$_Tree_val@U?$_Tree_simple_types@U?$pair@$$CBV?$basic_string@DU?$char_traits@D@std@@V?$allocator@D@2@@std@@PAVfms_fp_item_t@@@std@@@std@@@std@@SAAAPAU?$_Tree_node@U?$pair@$$CBV?$basic_string@DU?$char_traits@D@std@@V?$allocator@D@2@@std@@PAVfms_fp_item_t@@@std@@PAX@2@PAU32@@Z 1000f500 f i fms_fp.obj
 0001:0000e500       ?_Parent@?$_Tree_val@U?$_Tree_simple_types@U?$pair@$$CBV?$basic_string@DU?$char_traits@D@std@@V?$allocator@D@2@@std@@PAVfms_config_item_t@@@std@@@std@@@std@@SAAAPAU?$_Tree_node@U?$pair@$$CBV?$basic_string@DU?$char_traits@D@std@@V?$allocator@D@2@@std@@PAVfms_config_item_t@@@std@@PAX@2@PAU32@@Z 1000f500 f i fms_config.obj
 0001:0000e500       ?_Parent@?$_Tree_val@U?$_Tree_simple_types@U?$pair@$$CBHV?$basic_string@DU?$char_traits@D@std@@V?$allocator@D@2@@std@@@std@@@std@@@std@@SAAAPAU?$_Tree_node@U?$pair@$$CBHV?$basic_string@DU?$char_traits@D@std@@V?$allocator@D@2@@std@@@std@@PAX@2@PAU32@@Z 1000f500 f i out_saitek.obj
 0001:0000e500       ?_Parent@?$_Tree_val@U?$_Tree_simple_types@U?$pair@$$CBV?$basic_string@DU?$char_traits@D@std@@V?$allocator@D@2@@std@@M@std@@@std@@@std@@SAAAPAU?$_Tree_node@U?$pair@$$CBV?$basic_string@DU?$char_traits@D@std@@V?$allocator@D@2@@std@@M@std@@PAX@2@PAU32@@Z 1000f500 f i mfdpage_fms.obj
 0001:0000e510       ?_Pdif@?$basic_string@DU?$char_traits@D@std@@V?$allocator@D@2@@std@@SAIV?$_String_const_iterator@V?$_String_val@U?$_Simple_types@D@std@@@std@@@2@0@Z 1000f510 f i mfdpage.obj
 0001:0000e540       ?_Right@?$_Tree_val@U?$_Tree_simple_types@PAVmfdpage_t@@@std@@@std@@SAAAPAU?$_Tree_node@PAVmfdpage_t@@PAX@2@PAU32@@Z 1000f540 f i in.obj
 0001:0000e540       ?_Right@?$_Tree_val@U?$_Tree_simple_types@U?$pair@$$CBV?$basic_string@DU?$char_traits@D@std@@V?$allocator@D@2@@std@@H@std@@@std@@@std@@SAAAPAU?$_Tree_node@U?$pair@$$CBV?$basic_string@DU?$char_traits@D@std@@V?$allocator@D@2@@std@@H@std@@PAX@2@PAU32@@Z 1000f540 f i mfdpage.obj
 0001:0000e540       ?_Right@?$_Tree_val@U?$_Tree_simple_types@U?$pair@$$CBHV?$basic_string@DU?$char_traits@D@std@@V?$allocator@D@2@@std@@@std@@@std@@@std@@SAAAPAU?$_Tree_node@U?$pair@$$CBHV?$basic_string@DU?$char_traits@D@std@@V?$allocator@D@2@@std@@@std@@PAX@2@PAU32@@Z 1000f540 f i out_saitek.obj
 0001:0000e540       ?_Right@?$_Tree_val@U?$_Tree_simple_types@U?$pair@$$CBHM@std@@@std@@@std@@SAAAPAU?$_Tree_node@U?$pair@$$CBHM@std@@PAX@2@PAU32@@Z 1000f540 f i fms_config.obj
 0001:0000e540       ?_Right@?$_Tree_val@U?$_Tree_simple_types@PAVobject_t@@@std@@@std@@SAAAPAU?$_Tree_node@PAVobject_t@@PAX@2@PAU32@@Z 1000f540 f i data.obj
 0001:0000e540       ?_Right@?$_Tree_val@U?$_Tree_simple_types@U?$pair@$$CBHPAVobject_t@@@std@@@std@@@std@@SAAAPAU?$_Tree_node@U?$pair@$$CBHPAVobject_t@@@std@@PAX@2@PAU32@@Z 1000f540 f i mfdpage.obj
 0001:0000e540       ?_Right@?$_Tree_val@U?$_Tree_simple_types@U?$pair@$$CBV?$basic_string@DU?$char_traits@D@std@@V?$allocator@D@2@@std@@M@std@@@std@@@std@@SAAAPAU?$_Tree_node@U?$pair@$$CBV?$basic_string@DU?$char_traits@D@std@@V?$allocator@D@2@@std@@M@std@@PAX@2@PAU32@@Z 1000f540 f i mfdpage_fms.obj
 0001:0000e540       ?_Right@?$_Tree_val@U?$_Tree_simple_types@U?$pair@$$CBV?$basic_string@DU?$char_traits@D@std@@V?$allocator@D@2@@std@@D@std@@@std@@@std@@SAAAPAU?$_Tree_node@U?$pair@$$CBV?$basic_string@DU?$char_traits@D@std@@V?$allocator@D@2@@std@@D@std@@PAX@2@PAU32@@Z 1000f540 f i mfdpage.obj
 0001:0000e540       ?_Right@?$_Tree_val@U?$_Tree_simple_types@PAVlistener_t@@@std@@@std@@SAAAPAU?$_Tree_node@PAVlistener_t@@PAX@2@PAU32@@Z 1000f540 f i data.obj
 0001:0000e540       ?_Right@?$_Tree_val@U?$_Tree_simple_types@U?$pair@$$CBV?$basic_string@DU?$char_traits@D@std@@V?$allocator@D@2@@std@@V12@@std@@@std@@@std@@SAAAPAU?$_Tree_node@U?$pair@$$CBV?$basic_string@DU?$char_traits@D@std@@V?$allocator@D@2@@std@@V12@@std@@PAX@2@PAU32@@Z 1000f540 f i tools.obj
 0001:0000e540       ?_Right@?$_Tree_val@U?$_Tree_simple_types@U?$pair@$$CBHPAVfms_fp_item_t@@@std@@@std@@@std@@SAAAPAU?$_Tree_node@U?$pair@$$CBHPAVfms_fp_item_t@@@std@@PAX@2@PAU32@@Z 1000f540 f i mfdpage_fms.obj
 0001:0000e540       ?_Right@?$_Tree_val@U?$_Tree_simple_types@U?$pair@$$CBV?$basic_string@DU?$char_traits@D@std@@V?$allocator@D@2@@std@@PAVfms_fp_item_t@@@std@@@std@@@std@@SAAAPAU?$_Tree_node@U?$pair@$$CBV?$basic_string@DU?$char_traits@D@std@@V?$allocator@D@2@@std@@PAVfms_fp_item_t@@@std@@PAX@2@PAU32@@Z 1000f540 f i fms_fp.obj
 0001:0000e540       ?_Right@?$_Tree_val@U?$_Tree_simple_types@U?$pair@$$CBV?$basic_string@DU?$char_traits@D@std@@V?$allocator@D@2@@std@@PAVfms_config_item_t@@@std@@@std@@@std@@SAAAPAU?$_Tree_node@U?$pair@$$CBV?$basic_string@DU?$char_traits@D@std@@V?$allocator@D@2@@std@@PAVfms_config_item_t@@@std@@PAX@2@PAU32@@Z 1000f540 f i fms_config.obj
 0001:0000e550       ?_Tidy@?$_Tree@V?$_Tmap_traits@HPAVfms_fp_item_t@@U?$less@H@std@@V?$allocator@U?$pair@$$CBHPAVfms_fp_item_t@@@std@@@3@$0A@@std@@@std@@IAEXXZ 1000f550 f i fms_fp.obj
 0001:0000e550       ?_Tidy@?$_Tree@V?$_Tmap_traits@HPAVobject_t@@U?$less@H@std@@V?$allocator@U?$pair@$$CBHPAVobject_t@@@std@@@3@$0A@@std@@@std@@IAEXXZ 1000f550 f i mfdpage.obj
 0001:0000e5a0       ?_Tidy@?$_Tree@V?$_Tmap_traits@HV?$basic_string@DU?$char_traits@D@std@@V?$allocator@D@2@@std@@U?$less@H@2@V?$allocator@U?$pair@$$CBHV?$basic_string@DU?$char_traits@D@std@@V?$allocator@D@2@@std@@@std@@@2@$0A@@std@@@std@@IAEXXZ 1000f5a0 f i mfdpage.obj
 0001:0000e5f0       ?_Tidy@?$_Tree@V?$_Tmap_traits@V?$basic_string@DU?$char_traits@D@std@@V?$allocator@D@2@@std@@HU?$less@V?$basic_string@DU?$char_traits@D@std@@V?$allocator@D@2@@std@@@2@V?$allocator@U?$pair@$$CBV?$basic_string@DU?$char_traits@D@std@@V?$allocator@D@2@@std@@H@std@@@2@$0A@@std@@@std@@IAEXXZ 1000f5f0 f i mfdpage.obj
 0001:0000e5f0       ?_Tidy@?$_Tree@V?$_Tmap_traits@V?$basic_string@DU?$char_traits@D@std@@V?$allocator@D@2@@std@@MU?$less@V?$basic_string@DU?$char_traits@D@std@@V?$allocator@D@2@@std@@@2@V?$allocator@U?$pair@$$CBV?$basic_string@DU?$char_traits@D@std@@V?$allocator@D@2@@std@@M@std@@@2@$0A@@std@@@std@@IAEXXZ 1000f5f0 f i fms_config.obj
 0001:0000e5f0       ?_Tidy@?$_Tree@V?$_Tmap_traits@V?$basic_string@DU?$char_traits@D@std@@V?$allocator@D@2@@std@@PAVfms_fp_item_t@@U?$less@V?$basic_string@DU?$char_traits@D@std@@V?$allocator@D@2@@std@@@2@V?$allocator@U?$pair@$$CBV?$basic_string@DU?$char_traits@D@std@@V?$allocator@D@2@@std@@PAVfms_fp_item_t@@@std@@@2@$0A@@std@@@std@@IAEXXZ 1000f5f0 f i fms_fp.obj
 0001:0000e5f0       ?_Tidy@?$_Tree@V?$_Tmap_traits@V?$basic_string@DU?$char_traits@D@std@@V?$allocator@D@2@@std@@PAVfms_config_item_t@@U?$less@V?$basic_string@DU?$char_traits@D@std@@V?$allocator@D@2@@std@@@2@V?$allocator@U?$pair@$$CBV?$basic_string@DU?$char_traits@D@std@@V?$allocator@D@2@@std@@PAVfms_config_item_t@@@std@@@2@$0A@@std@@@std@@IAEXXZ 1000f5f0 f i fms_config.obj
 0001:0000e640       ?append@?$basic_string@DU?$char_traits@D@std@@V?$allocator@D@2@@std@@QAEAAV12@ID@Z 1000f640 f i mfdpage.obj
 0001:0000e6c0       ?assign@?$char_traits@D@std@@SAPADPADID@Z 1000f6c0 f i mfdpage.obj
 0001:0000e6e0       ?begin@?$basic_string@DU?$char_traits@D@std@@V?$allocator@D@2@@std@@QAE?AV?$_String_iterator@V?$_String_val@U?$_Simple_types@D@std@@@std@@@2@XZ 1000f6e0 f i mfdpage.obj
 0001:0000e710       ?clear@?$_Tree@V?$_Tmap_traits@HV?$basic_string@DU?$char_traits@D@std@@V?$allocator@D@2@@std@@U?$less@H@2@V?$allocator@U?$pair@$$CBHV?$basic_string@DU?$char_traits@D@std@@V?$allocator@D@2@@std@@@std@@@2@$0A@@std@@@std@@QAEXXZ 1000f710 f i mfdpage.obj
 0001:0000e770       ?clear@?$_Tree@V?$_Tmap_traits@V?$basic_string@DU?$char_traits@D@std@@V?$allocator@D@2@@std@@PAVfms_fp_item_t@@U?$less@V?$basic_string@DU?$char_traits@D@std@@V?$allocator@D@2@@std@@@2@V?$allocator@U?$pair@$$CBV?$basic_string@DU?$char_traits@D@std@@V?$allocator@D@2@@std@@PAVfms_fp_item_t@@@std@@@2@$0A@@std@@@std@@QAEXXZ 1000f770 f i fms_fp.obj
 0001:0000e770       ?clear@?$_Tree@V?$_Tmap_traits@V?$basic_string@DU?$char_traits@D@std@@V?$allocator@D@2@@std@@HU?$less@V?$basic_string@DU?$char_traits@D@std@@V?$allocator@D@2@@std@@@2@V?$allocator@U?$pair@$$CBV?$basic_string@DU?$char_traits@D@std@@V?$allocator@D@2@@std@@H@std@@@2@$0A@@std@@@std@@QAEXXZ 1000f770 f i mfdpage.obj
 0001:0000e770       ?clear@?$_Tree@V?$_Tmap_traits@V?$basic_string@DU?$char_traits@D@std@@V?$allocator@D@2@@std@@MU?$less@V?$basic_string@DU?$char_traits@D@std@@V?$allocator@D@2@@std@@@2@V?$allocator@U?$pair@$$CBV?$basic_string@DU?$char_traits@D@std@@V?$allocator@D@2@@std@@M@std@@@2@$0A@@std@@@std@@QAEXXZ 1000f770 f i fms_config.obj
 0001:0000e770       ?clear@?$_Tree@V?$_Tmap_traits@V?$basic_string@DU?$char_traits@D@std@@V?$allocator@D@2@@std@@PAVfms_config_item_t@@U?$less@V?$basic_string@DU?$char_traits@D@std@@V?$allocator@D@2@@std@@@2@V?$allocator@U?$pair@$$CBV?$basic_string@DU?$char_traits@D@std@@V?$allocator@D@2@@std@@PAVfms_config_item_t@@@std@@@2@$0A@@std@@@std@@QAEXXZ 1000f770 f i fms_config.obj
 0001:0000e7d0       ?end@?$basic_string@DU?$char_traits@D@std@@V?$allocator@D@2@@std@@QAE?AV?$_String_iterator@V?$_String_val@U?$_Simple_types@D@std@@@std@@@2@XZ 1000f7d0 f i mfdpage.obj
 0001:0000e800       ?erase@?$_Tree@V?$_Tmap_traits@HPAVobject_t@@U?$less@H@std@@V?$allocator@U?$pair@$$CBHPAVobject_t@@@std@@@3@$0A@@std@@@std@@QAE?AV?$_Tree_iterator@V?$_Tree_val@U?$_Tree_simple_types@U?$pair@$$CBHPAVobject_t@@@std@@@std@@@std@@@2@V?$_Tree_const_iterator@V?$_Tree_val@U?$_Tree_simple_types@U?$pair@$$CBHPAVobject_t@@@std@@@std@@@std@@@2@0@Z 1000f800 f i mfdpage.obj
 0001:0000e800       ?erase@?$_Tree@V?$_Tmap_traits@HPAVfms_fp_item_t@@U?$less@H@std@@V?$allocator@U?$pair@$$CBHPAVfms_fp_item_t@@@std@@@3@$0A@@std@@@std@@QAE?AV?$_Tree_iterator@V?$_Tree_val@U?$_Tree_simple_types@U?$pair@$$CBHPAVfms_fp_item_t@@@std@@@std@@@std@@@2@V?$_Tree_const_iterator@V?$_Tree_val@U?$_Tree_simple_types@U?$pair@$$CBHPAVfms_fp_item_t@@@std@@@std@@@std@@@2@0@Z 1000f800 f i fms_fp.obj
 0001:0000e8b0       ?erase@?$_Tree@V?$_Tmap_traits@HPAVobject_t@@U?$less@H@std@@V?$allocator@U?$pair@$$CBHPAVobject_t@@@std@@@3@$0A@@std@@@std@@QAE?AV?$_Tree_iterator@V?$_Tree_val@U?$_Tree_simple_types@U?$pair@$$CBHPAVobject_t@@@std@@@std@@@std@@@2@V?$_Tree_const_iterator@V?$_Tree_val@U?$_Tree_simple_types@U?$pair@$$CBHPAVobject_t@@@std@@@std@@@std@@@2@@Z 1000f8b0 f i mfdpage.obj
 0001:0000e8b0       ?erase@?$_Tree@V?$_Tmap_traits@HPAVfms_fp_item_t@@U?$less@H@std@@V?$allocator@U?$pair@$$CBHPAVfms_fp_item_t@@@std@@@3@$0A@@std@@@std@@QAE?AV?$_Tree_iterator@V?$_Tree_val@U?$_Tree_simple_types@U?$pair@$$CBHPAVfms_fp_item_t@@@std@@@std@@@std@@@2@V?$_Tree_const_iterator@V?$_Tree_val@U?$_Tree_simple_types@U?$pair@$$CBHPAVfms_fp_item_t@@@std@@@std@@@std@@@2@@Z 1000f8b0 f i fms_fp.obj
 0001:0000f030       ?erase@?$_Tree@V?$_Tmap_traits@HV?$basic_string@DU?$char_traits@D@std@@V?$allocator@D@2@@std@@U?$less@H@2@V?$allocator@U?$pair@$$CBHV?$basic_string@DU?$char_traits@D@std@@V?$allocator@D@2@@std@@@std@@@2@$0A@@std@@@std@@QAE?AV?$_Tree_iterator@V?$_Tree_val@U?$_Tree_simple_types@U?$pair@$$CBHV?$basic_string@DU?$char_traits@D@std@@V?$allocator@D@2@@std@@@std@@@std@@@std@@@2@V?$_Tree_const_iterator@V?$_Tree_val@U?$_Tree_simple_types@U?$pair@$$CBHV?$basic_string@DU?$char_traits@D@std@@V?$allocator@D@2@@std@@@std@@@std@@@std@@@2@0@Z 10010030 f i mfdpage.obj
 0001:0000f0e0       ?erase@?$_Tree@V?$_Tmap_traits@HV?$basic_string@DU?$char_traits@D@std@@V?$allocator@D@2@@std@@U?$less@H@2@V?$allocator@U?$pair@$$CBHV?$basic_string@DU?$char_traits@D@std@@V?$allocator@D@2@@std@@@std@@@2@$0A@@std@@@std@@QAE?AV?$_Tree_iterator@V?$_Tree_val@U?$_Tree_simple_types@U?$pair@$$CBHV?$basic_string@DU?$char_traits@D@std@@V?$allocator@D@2@@std@@@std@@@std@@@std@@@2@V?$_Tree_const_iterator@V?$_Tree_val@U?$_Tree_simple_types@U?$pair@$$CBHV?$basic_string@DU?$char_traits@D@std@@V?$allocator@D@2@@std@@@std@@@std@@@std@@@2@@Z 100100e0 f i mfdpage.obj
 0001:0000f860       ?erase@?$_Tree@V?$_Tmap_traits@V?$basic_string@DU?$char_traits@D@std@@V?$allocator@D@2@@std@@PAVfms_fp_item_t@@U?$less@V?$basic_string@DU?$char_traits@D@std@@V?$allocator@D@2@@std@@@2@V?$allocator@U?$pair@$$CBV?$basic_string@DU?$char_traits@D@std@@V?$allocator@D@2@@std@@PAVfms_fp_item_t@@@std@@@2@$0A@@std@@@std@@QAE?AV?$_Tree_iterator@V?$_Tree_val@U?$_Tree_simple_types@U?$pair@$$CBV?$basic_string@DU?$char_traits@D@std@@V?$allocator@D@2@@std@@PAVfms_fp_item_t@@@std@@@std@@@std@@@2@V?$_Tree_const_iterator@V?$_Tree_val@U?$_Tree_simple_types@U?$pair@$$CBV?$basic_string@DU?$char_traits@D@std@@V?$allocator@D@2@@std@@PAVfms_fp_item_t@@@std@@@std@@@std@@@2@0@Z 10010860 f i fms_fp.obj
 0001:0000f860       ?erase@?$_Tree@V?$_Tmap_traits@V?$basic_string@DU?$char_traits@D@std@@V?$allocator@D@2@@std@@PAVfms_config_item_t@@U?$less@V?$basic_string@DU?$char_traits@D@std@@V?$allocator@D@2@@std@@@2@V?$allocator@U?$pair@$$CBV?$basic_string@DU?$char_traits@D@std@@V?$allocator@D@2@@std@@PAVfms_config_item_t@@@std@@@2@$0A@@std@@@std@@QAE?AV?$_Tree_iterator@V?$_Tree_val@U?$_Tree_simple_types@U?$pair@$$CBV?$basic_string@DU?$char_traits@D@std@@V?$allocator@D@2@@std@@PAVfms_config_item_t@@@std@@@std@@@std@@@2@V?$_Tree_const_iterator@V?$_Tree_val@U?$_Tree_simple_types@U?$pair@$$CBV?$basic_string@DU?$char_traits@D@std@@V?$allocator@D@2@@std@@PAVfms_config_item_t@@@std@@@std@@@std@@@2@0@Z 10010860 f i fms_config.obj
 0001:0000f860       ?erase@?$_Tree@V?$_Tmap_traits@V?$basic_string@DU?$char_traits@D@std@@V?$allocator@D@2@@std@@MU?$less@V?$basic_string@DU?$char_traits@D@std@@V?$allocator@D@2@@std@@@2@V?$allocator@U?$pair@$$CBV?$basic_string@DU?$char_traits@D@std@@V?$allocator@D@2@@std@@M@std@@@2@$0A@@std@@@std@@QAE?AV?$_Tree_iterator@V?$_Tree_val@U?$_Tree_simple_types@U?$pair@$$CBV?$basic_string@DU?$char_traits@D@std@@V?$allocator@D@2@@std@@M@std@@@std@@@std@@@2@V?$_Tree_const_iterator@V?$_Tree_val@U?$_Tree_simple_types@U?$pair@$$CBV?$basic_string@DU?$char_traits@D@std@@V?$allocator@D@2@@std@@M@std@@@std@@@std@@@2@0@Z 10010860 f i fms_config.obj
 0001:0000f860       ?erase@?$_Tree@V?$_Tmap_traits@V?$basic_string@DU?$char_traits@D@std@@V?$allocator@D@2@@std@@HU?$less@V?$basic_string@DU?$char_traits@D@std@@V?$allocator@D@2@@std@@@2@V?$allocator@U?$pair@$$CBV?$basic_string@DU?$char_traits@D@std@@V?$allocator@D@2@@std@@H@std@@@2@$0A@@std@@@std@@QAE?AV?$_Tree_iterator@V?$_Tree_val@U?$_Tree_simple_types@U?$pair@$$CBV?$basic_string@DU?$char_traits@D@std@@V?$allocator@D@2@@std@@H@std@@@std@@@std@@@2@V?$_Tree_const_iterator@V?$_Tree_val@U?$_Tree_simple_types@U?$pair@$$CBV?$basic_string@DU?$char_traits@D@std@@V?$allocator@D@2@@std@@H@std@@@std@@@std@@@2@0@Z 10010860 f i mfdpage.obj
 0001:0000f910       ?find@?$basic_string@DU?$char_traits@D@std@@V?$allocator@D@2@@std@@QBEIPBDI@Z 10010910 f i mfdpage.obj
 0001:0000f940       ?find@?$basic_string@DU?$char_traits@D@std@@V?$allocator@D@2@@std@@QBEIPBDII@Z 10010940 f i mfdpage.obj
 0001:0000fa20       ?find@?$char_traits@D@std@@SAPBDPBDIABD@Z 10010a20 f i mfdpage.obj
 0001:0000fa60       ?lower_bound@?$_Tree@V?$_Tmap_traits@HPAVobject_t@@U?$less@H@std@@V?$allocator@U?$pair@$$CBHPAVobject_t@@@std@@@3@$0A@@std@@@std@@QAE?AV?$_Tree_iterator@V?$_Tree_val@U?$_Tree_simple_types@U?$pair@$$CBHPAVobject_t@@@std@@@std@@@std@@@2@ABH@Z 10010a60 f i mfdpage.obj
 0001:0000fa60       ?lower_bound@?$_Tree@V?$_Tmap_traits@HMU?$less@H@std@@V?$allocator@U?$pair@$$CBHM@std@@@2@$0A@@std@@@std@@QAE?AV?$_Tree_iterator@V?$_Tree_val@U?$_Tree_simple_types@U?$pair@$$CBHM@std@@@std@@@std@@@2@ABH@Z 10010a60 f i fms_config.obj
 0001:0000fa60       ?lower_bound@?$_Tree@V?$_Tmap_traits@HV?$basic_string@DU?$char_traits@D@std@@V?$allocator@D@2@@std@@U?$less@H@2@V?$allocator@U?$pair@$$CBHV?$basic_string@DU?$char_traits@D@std@@V?$allocator@D@2@@std@@@std@@@2@$0A@@std@@@std@@QAE?AV?$_Tree_iterator@V?$_Tree_val@U?$_Tree_simple_types@U?$pair@$$CBHV?$basic_string@DU?$char_traits@D@std@@V?$allocator@D@2@@std@@@std@@@std@@@std@@@2@ABH@Z 10010a60 f i out_saitek.obj
 0001:0000fa60       ?lower_bound@?$_Tree@V?$_Tmap_traits@HPAVfms_fp_item_t@@U?$less@H@std@@V?$allocator@U?$pair@$$CBHPAVfms_fp_item_t@@@std@@@3@$0A@@std@@@std@@QAE?AV?$_Tree_iterator@V?$_Tree_val@U?$_Tree_simple_types@U?$pair@$$CBHPAVfms_fp_item_t@@@std@@@std@@@std@@@2@ABH@Z 10010a60 f i mfdpage_fms.obj
 0001:0000fa90       ?max_size@?$_Tree@V?$_Tmap_traits@V?$basic_string@DU?$char_traits@D@std@@V?$allocator@D@2@@std@@PAVfms_fp_item_t@@U?$less@V?$basic_string@DU?$char_traits@D@std@@V?$allocator@D@2@@std@@@2@V?$allocator@U?$pair@$$CBV?$basic_string@DU?$char_traits@D@std@@V?$allocator@D@2@@std@@PAVfms_fp_item_t@@@std@@@2@$0A@@std@@@std@@QBEIXZ 10010a90 f i fms_fp.obj
 0001:0000fa90       ?max_size@?$_Tree@V?$_Tmap_traits@V?$basic_string@DU?$char_traits@D@std@@V?$allocator@D@2@@std@@DU?$less@V?$basic_string@DU?$char_traits@D@std@@V?$allocator@D@2@@std@@@2@V?$allocator@U?$pair@$$CBV?$basic_string@DU?$char_traits@D@std@@V?$allocator@D@2@@std@@D@std@@@2@$0A@@std@@@std@@QBEIXZ 10010a90 f i mfdpage.obj
 0001:0000fa90       ?max_size@?$_Tree@V?$_Tmap_traits@V?$basic_string@DU?$char_traits@D@std@@V?$allocator@D@2@@std@@PAVfms_config_item_t@@U?$less@V?$basic_string@DU?$char_traits@D@std@@V?$allocator@D@2@@std@@@2@V?$allocator@U?$pair@$$CBV?$basic_string@DU?$char_traits@D@std@@V?$allocator@D@2@@std@@PAVfms_config_item_t@@@std@@@2@$0A@@std@@@std@@QBEIXZ 10010a90 f i fms_config.obj
 0001:0000fa90       ?max_size@?$_Tree@V?$_Tmap_traits@HV?$basic_string@DU?$char_traits@D@std@@V?$allocator@D@2@@std@@U?$less@H@2@V?$allocator@U?$pair@$$CBHV?$basic_string@DU?$char_traits@D@std@@V?$allocator@D@2@@std@@@std@@@2@$0A@@std@@@std@@QBEIXZ 10010a90 f i out_saitek.obj
 0001:0000fa90       ?max_size@?$_Tree@V?$_Tmap_traits@V?$basic_string@DU?$char_traits@D@std@@V?$allocator@D@2@@std@@MU?$less@V?$basic_string@DU?$char_traits@D@std@@V?$allocator@D@2@@std@@@2@V?$allocator@U?$pair@$$CBV?$basic_string@DU?$char_traits@D@std@@V?$allocator@D@2@@std@@M@std@@@2@$0A@@std@@@std@@QBEIXZ 10010a90 f i mfdpage_fms.obj
 0001:0000fa90       ?max_size@?$_Tree@V?$_Tmap_traits@V?$basic_string@DU?$char_traits@D@std@@V?$allocator@D@2@@std@@HU?$less@V?$basic_string@DU?$char_traits@D@std@@V?$allocator@D@2@@std@@@2@V?$allocator@U?$pair@$$CBV?$basic_string@DU?$char_traits@D@std@@V?$allocator@D@2@@std@@H@std@@@2@$0A@@std@@@std@@QBEIXZ 10010a90 f i mfdpage.obj
 0001:0000fab0       ?max_size@?$allocator_traits@V?$allocator@U?$_Tree_node@U?$pair@$$CBHM@std@@PAX@std@@@std@@@std@@SAIABV?$allocator@U?$_Tree_node@U?$pair@$$CBHM@std@@PAX@std@@@2@@Z 10010ab0 f i fms_config.obj
 0001:0000fab0       ?max_size@?$allocator_traits@V?$allocator@U?$_Tree_node@U?$pair@$$CBHPAVfms_fp_item_t@@@std@@PAX@std@@@std@@@std@@SAIABV?$allocator@U?$_Tree_node@U?$pair@$$CBHPAVfms_fp_item_t@@@std@@PAX@std@@@2@@Z 10010ab0 f i mfdpage_fms.obj
 0001:0000fab0       ?max_size@?$allocator_traits@V?$allocator@U?$_Tree_node@U?$pair@$$CBHPAVobject_t@@@std@@PAX@std@@@std@@@std@@SAIABV?$allocator@U?$_Tree_node@U?$pair@$$CBHPAVobject_t@@@std@@PAX@std@@@2@@Z 10010ab0 f i mfdpage.obj
 0001:0000fac0       ?replace@?$basic_string@DU?$char_traits@D@std@@V?$allocator@D@2@@std@@QAEAAV12@IIABV12@II@Z 10010ac0 f i mfdpage.obj
 0001:0000fd80       ?replace@?$basic_string@DU?$char_traits@D@std@@V?$allocator@D@2@@std@@QAEAAV12@IIPBDI@Z 10010d80 f i mfdpage.obj
 0001:0000fef0       ?replace@?$basic_string@DU?$char_traits@D@std@@V?$allocator@D@2@@std@@QAEAAV12@V?$_String_const_iterator@V?$_String_val@U?$_Simple_types@D@std@@@std@@@2@0V?$_String_iterator@V?$_String_val@U?$_Simple_types@D@std@@@std@@@2@1@Z 10010ef0 f i mfdpage.obj
 0001:0000ffb0       ??0mfdpage_fms_t@@QAE@V?$basic_string@DU?$char_traits@D@std@@V?$allocator@D@2@@std@@@Z 10010fb0 f   mfdpage_fms.obj
 0001:00010000       ??0mfdpage_fms_t@@QAE@V?$basic_string@DU?$char_traits@D@std@@V?$allocator@D@2@@std@@PAVfms_t@@@Z 10011000 f   mfdpage_fms.obj
 0001:00010070       ?get_template@mfdpage_fms_t@@UAE?AV?$basic_string@DU?$char_traits@D@std@@V?$allocator@D@2@@std@@V23@AAV?$map@HV?$basic_string@DU?$char_traits@D@std@@V?$allocator@D@2@@std@@U?$less@H@2@V?$allocator@U?$pair@$$CBHV?$basic_string@DU?$char_traits@D@std@@V?$allocator@D@2@@std@@@std@@@2@@3@@Z 10011070 f   mfdpage_fms.obj
 0001:000101f0       ?do_refresh@mfdpage_fms_t@@UAEXPAVobject_t@@@Z 100111f0 f   mfdpage_fms.obj
 0001:00010340       ?refresh_interval@mfdpage_fms_t@@UAEHV?$basic_string@DU?$char_traits@D@std@@V?$allocator@D@2@@std@@@Z 10011340 f   mfdpage_fms.obj
 0001:00010370       ?refresh_template@mfdpage_fms_t@@UAE?AV?$basic_string@DU?$char_traits@D@std@@V?$allocator@D@2@@std@@V23@V?$map@HPAVobject_t@@U?$less@H@std@@V?$allocator@U?$pair@$$CBHPAVobject_t@@@std@@@3@@3@0@Z 10011370 f   mfdpage_fms.obj
 0001:00010d10       ??$?0$$QAH$$$V@?$pair@$$CBHV?$basic_string@DU?$char_traits@D@std@@V?$allocator@D@2@@std@@@std@@QAE@Upiecewise_construct_t@1@V?$tuple@$$QAH@1@V?$tuple@$$$V@1@@Z 10011d10 f i mfdpage_fms.obj
 0001:00010d10       ??$?0ABH$$$V@?$pair@$$CBHV?$basic_string@DU?$char_traits@D@std@@V?$allocator@D@2@@std@@@std@@QAE@Upiecewise_construct_t@1@V?$tuple@ABH@1@V?$tuple@$$$V@1@@Z 10011d10 f i out_saitek.obj
 0001:00010d50       ??$?0$$QAV?$basic_string@DU?$char_traits@D@std@@V?$allocator@D@2@@std@@$$$V@?$pair@$$CBV?$basic_string@DU?$char_traits@D@std@@V?$allocator@D@2@@std@@M@std@@QAE@Upiecewise_construct_t@1@V?$tuple@$$QAV?$basic_string@DU?$char_traits@D@std@@V?$allocator@D@2@@std@@@1@V?$tuple@$$$V@1@@Z 10011d50 f i mfdpage_fms.obj
 0001:00010d90       ??$?0H$$$VPAPAX@?$tuple@$$QAH@std@@QAE@$$QAH@Z 10011d90 f i mfdpage_fms.obj
 0001:00010d90       ??$?0V?$basic_string@DU?$char_traits@D@std@@V?$allocator@D@2@@std@@$$$VPAPAX@?$tuple@$$QAV?$basic_string@DU?$char_traits@D@std@@V?$allocator@D@2@@std@@@std@@QAE@$$QAV?$basic_string@DU?$char_traits@D@std@@V?$allocator@D@2@@1@@Z 10011d90 f i tools.obj
 0001:00010dc0       ??$?0V?$tuple@$$QAH@std@@V?$tuple@$$$V@1@$0A@$S@?$pair@$$CBHV?$basic_string@DU?$char_traits@D@std@@V?$allocator@D@2@@std@@@std@@QAE@AAV?$tuple@$$QAH@1@AAV?$tuple@$$$V@1@U?$_Arg_idx@$0A@@1@U?$_Arg_idx@$S@1@@Z 10011dc0 f i mfdpage_fms.obj
 0001:00010dc0       ??$?0V?$tuple@ABH@std@@V?$tuple@$$$V@1@$0A@$S@?$pair@$$CBHV?$basic_string@DU?$char_traits@D@std@@V?$allocator@D@2@@std@@@std@@QAE@AAV?$tuple@ABH@1@AAV?$tuple@$$$V@1@U?$_Arg_idx@$0A@@1@U?$_Arg_idx@$S@1@@Z 10011dc0 f i out_saitek.obj
 0001:00010e00       ??$?0V?$tuple@$$QAV?$basic_string@DU?$char_traits@D@std@@V?$allocator@D@2@@std@@@std@@V?$tuple@$$$V@1@$0A@$S@?$pair@$$CBV?$basic_string@DU?$char_traits@D@std@@V?$allocator@D@2@@std@@M@std@@QAE@AAV?$tuple@$$QAV?$basic_string@DU?$char_traits@D@std@@V?$allocator@D@2@@std@@@1@AAV?$tuple@$$$V@1@U?$_Arg_idx@$0A@@1@U?$_Arg_idx@$S@1@@Z 10011e00 f i mfdpage_fms.obj
 0001:00010e40       ??$_Allocate@U?$_Tree_node@U?$pair@$$CBHM@std@@PAX@std@@@std@@YAPAU?$_Tree_node@U?$pair@$$CBHM@std@@PAX@0@IPAU10@@Z 10011e40 f i fms_config.obj
 0001:00010e40       ??$_Allocate@U?$_Tree_node@U?$pair@$$CBHPAVobject_t@@@std@@PAX@std@@@std@@YAPAU?$_Tree_node@U?$pair@$$CBHPAVobject_t@@@std@@PAX@0@IPAU10@@Z 10011e40 f i mfdpage.obj
 0001:00010e40       ??$_Allocate@U?$_Tree_node@U?$pair@$$CBHPAVfms_fp_item_t@@@std@@PAX@std@@@std@@YAPAU?$_Tree_node@U?$pair@$$CBHPAVfms_fp_item_t@@@std@@PAX@0@IPAU10@@Z 10011e40 f i mfdpage_fms.obj
 0001:00010e80       ??$_Buynode@ABUpiecewise_construct_t@std@@V?$tuple@ABH@2@V?$tuple@$$$V@2@@?$_Tree_buy@U?$pair@$$CBHPAVfms_fp_item_t@@@std@@V?$allocator@U?$pair@$$CBHPAVfms_fp_item_t@@@std@@@2@@std@@QAEPAU?$_Tree_node@U?$pair@$$CBHPAVfms_fp_item_t@@@std@@PAX@1@ABUpiecewise_construct_t@1@$$QAV?$tuple@ABH@1@$$QAV?$tuple@$$$V@1@@Z 10011e80 f i mfdpage_fms.obj
 0001:00010e80       ??$_Buynode@ABUpiecewise_construct_t@std@@V?$tuple@$$QAH@2@V?$tuple@$$$V@2@@?$_Tree_buy@U?$pair@$$CBHPAVobject_t@@@std@@V?$allocator@U?$pair@$$CBHPAVobject_t@@@std@@@2@@std@@QAEPAU?$_Tree_node@U?$pair@$$CBHPAVobject_t@@@std@@PAX@1@ABUpiecewise_construct_t@1@$$QAV?$tuple@$$QAH@1@$$QAV?$tuple@$$$V@1@@Z 10011e80 f i mfdpage_fms.obj
 0001:00010e80       ??$_Buynode@ABUpiecewise_construct_t@std@@V?$tuple@ABH@2@V?$tuple@$$$V@2@@?$_Tree_buy@U?$pair@$$CBHPAVobject_t@@@std@@V?$allocator@U?$pair@$$CBHPAVobject_t@@@std@@@2@@std@@QAEPAU?$_Tree_node@U?$pair@$$CBHPAVobject_t@@@std@@PAX@1@ABUpiecewise_construct_t@1@$$QAV?$tuple@ABH@1@$$QAV?$tuple@$$$V@1@@Z 10011e80 f i mfdpage.obj
 0001:00010e80       ??$_Buynode@ABUpiecewise_construct_t@std@@V?$tuple@$$QAH@2@V?$tuple@$$$V@2@@?$_Tree_buy@U?$pair@$$CBHPAVfms_fp_item_t@@@std@@V?$allocator@U?$pair@$$CBHPAVfms_fp_item_t@@@std@@@2@@std@@QAEPAU?$_Tree_node@U?$pair@$$CBHPAVfms_fp_item_t@@@std@@PAX@1@ABUpiecewise_construct_t@1@$$QAV?$tuple@$$QAH@1@$$QAV?$tuple@$$$V@1@@Z 10011e80 f i mfdpage_fms.obj
 0001:00010f80       ??$_Buynode@ABUpiecewise_construct_t@std@@V?$tuple@$$QAV?$basic_string@DU?$char_traits@D@std@@V?$allocator@D@2@@std@@@2@V?$tuple@$$$V@2@@?$_Tree_buy@U?$pair@$$CBV?$basic_string@DU?$char_traits@D@std@@V?$allocator@D@2@@std@@M@std@@V?$allocator@U?$pair@$$CBV?$basic_string@DU?$char_traits@D@std@@V?$allocator@D@2@@std@@M@std@@@2@@std@@QAEPAU?$_Tree_node@U?$pair@$$CBV?$basic_string@DU?$char_traits@D@std@@V?$allocator@D@2@@std@@M@std@@PAX@1@ABUpiecewise_construct_t@1@$$QAV?$tuple@$$QAV?$basic_string@DU?$char_traits@D@std@@V?$allocator@D@2@@std@@@1@$$QAV?$tuple@$$$V@1@@Z 10011f80 f i mfdpage_fms.obj
 0001:00011080       ??$_Insert_at@AAU?$pair@$$CBHPAVfms_fp_item_t@@@std@@PAU?$_Tree_node@U?$pair@$$CBHPAVfms_fp_item_t@@@std@@PAX@2@@?$_Tree@V?$_Tmap_traits@HPAVfms_fp_item_t@@U?$less@H@std@@V?$allocator@U?$pair@$$CBHPAVfms_fp_item_t@@@std@@@3@$0A@@std@@@std@@IAE?AV?$_Tree_iterator@V?$_Tree_val@U?$_Tree_simple_types@U?$pair@$$CBHPAVfms_fp_item_t@@@std@@@std@@@std@@@1@_NPAU?$_Tree_node@U?$pair@$$CBHPAVfms_fp_item_t@@@std@@PAX@1@AAU?$pair@$$CBHPAVfms_fp_item_t@@@1@1@Z 10012080 f i mfdpage_fms.obj
 0001:00011080       ??$_Insert_at@AAU?$pair@$$CBHM@std@@PAU?$_Tree_node@U?$pair@$$CBHM@std@@PAX@2@@?$_Tree@V?$_Tmap_traits@HMU?$less@H@std@@V?$allocator@U?$pair@$$CBHM@std@@@2@$0A@@std@@@std@@IAE?AV?$_Tree_iterator@V?$_Tree_val@U?$_Tree_simple_types@U?$pair@$$CBHM@std@@@std@@@std@@@1@_NPAU?$_Tree_node@U?$pair@$$CBHM@std@@PAX@1@AAU?$pair@$$CBHM@1@1@Z 10012080 f i fms_config.obj
 0001:00011080       ??$_Insert_at@AAU?$pair@$$CBHPAVobject_t@@@std@@PAU?$_Tree_node@U?$pair@$$CBHPAVobject_t@@@std@@PAX@2@@?$_Tree@V?$_Tmap_traits@HPAVobject_t@@U?$less@H@std@@V?$allocator@U?$pair@$$CBHPAVobject_t@@@std@@@3@$0A@@std@@@std@@IAE?AV?$_Tree_iterator@V?$_Tree_val@U?$_Tree_simple_types@U?$pair@$$CBHPAVobject_t@@@std@@@std@@@std@@@1@_NPAU?$_Tree_node@U?$pair@$$CBHPAVobject_t@@@std@@PAX@1@AAU?$pair@$$CBHPAVobject_t@@@1@1@Z 10012080 f i mfdpage.obj
 0001:000114b0       ??$_Insert_hint@AAU?$pair@$$CBHPAVfms_fp_item_t@@@std@@PAU?$_Tree_node@U?$pair@$$CBHPAVfms_fp_item_t@@@std@@PAX@2@@?$_Tree@V?$_Tmap_traits@HPAVfms_fp_item_t@@U?$less@H@std@@V?$allocator@U?$pair@$$CBHPAVfms_fp_item_t@@@std@@@3@$0A@@std@@@std@@IAE?AV?$_Tree_iterator@V?$_Tree_val@U?$_Tree_simple_types@U?$pair@$$CBHPAVfms_fp_item_t@@@std@@@std@@@std@@@1@V?$_Tree_const_iterator@V?$_Tree_val@U?$_Tree_simple_types@U?$pair@$$CBHPAVfms_fp_item_t@@@std@@@std@@@std@@@1@AAU?$pair@$$CBHPAVfms_fp_item_t@@@1@PAU?$_Tree_node@U?$pair@$$CBHPAVfms_fp_item_t@@@std@@PAX@1@@Z 100124b0 f i mfdpage_fms.obj
 0001:000114b0       ??$_Insert_hint@AAU?$pair@$$CBHM@std@@PAU?$_Tree_node@U?$pair@$$CBHM@std@@PAX@2@@?$_Tree@V?$_Tmap_traits@HMU?$less@H@std@@V?$allocator@U?$pair@$$CBHM@std@@@2@$0A@@std@@@std@@IAE?AV?$_Tree_iterator@V?$_Tree_val@U?$_Tree_simple_types@U?$pair@$$CBHM@std@@@std@@@std@@@1@V?$_Tree_const_iterator@V?$_Tree_val@U?$_Tree_simple_types@U?$pair@$$CBHM@std@@@std@@@std@@@1@AAU?$pair@$$CBHM@1@PAU?$_Tree_node@U?$pair@$$CBHM@std@@PAX@1@@Z 100124b0 f i fms_config.obj
 0001:000114b0       ??$_Insert_hint@AAU?$pair@$$CBHPAVobject_t@@@std@@PAU?$_Tree_node@U?$pair@$$CBHPAVobject_t@@@std@@PAX@2@@?$_Tree@V?$_Tmap_traits@HPAVobject_t@@U?$less@H@std@@V?$allocator@U?$pair@$$CBHPAVobject_t@@@std@@@3@$0A@@std@@@std@@IAE?AV?$_Tree_iterator@V?$_Tree_val@U?$_Tree_simple_types@U?$pair@$$CBHPAVobject_t@@@std@@@std@@@std@@@1@V?$_Tree_const_iterator@V?$_Tree_val@U?$_Tree_simple_types@U?$pair@$$CBHPAVobject_t@@@std@@@std@@@std@@@1@AAU?$pair@$$CBHPAVobject_t@@@1@PAU?$_Tree_node@U?$pair@$$CBHPAVobject_t@@@std@@PAX@1@@Z 100124b0 f i mfdpage.obj
 0001:00011c60       ??$_Insert_hint@AAU?$pair@$$CBV?$basic_string@DU?$char_traits@D@std@@V?$allocator@D@2@@std@@H@std@@PAU?$_Tree_node@U?$pair@$$CBV?$basic_string@DU?$char_traits@D@std@@V?$allocator@D@2@@std@@H@std@@PAX@2@@?$_Tree@V?$_Tmap_traits@V?$basic_string@DU?$char_traits@D@std@@V?$allocator@D@2@@std@@HU?$less@V?$basic_string@DU?$char_traits@D@std@@V?$allocator@D@2@@std@@@2@V?$allocator@U?$pair@$$CBV?$basic_string@DU?$char_traits@D@std@@V?$allocator@D@2@@std@@H@std@@@2@$0A@@std@@@std@@IAE?AV?$_Tree_iterator@V?$_Tree_val@U?$_Tree_simple_types@U?$pair@$$CBV?$basic_string@DU?$char_traits@D@std@@V?$allocator@D@2@@std@@H@std@@@std@@@std@@@1@V?$_Tree_const_iterator@V?$_Tree_val@U?$_Tree_simple_types@U?$pair@$$CBV?$basic_string@DU?$char_traits@D@std@@V?$allocator@D@2@@std@@H@std@@@std@@@std@@@1@AAU?$pair@$$CBV?$basic_string@DU?$char_traits@D@std@@V?$allocator@D@2@@std@@H@1@PAU?$_Tree_node@U?$pair@$$CBV?$basic_string@DU?$char_traits@D@std@@V?$allocator@D@2@@std@@H@std@@PAX@1@@Z 10012c60 f i mfdpage.obj
 0001:00011c60       ??$_Insert_hint@AAU?$pair@$$CBV?$basic_string@DU?$char_traits@D@std@@V?$allocator@D@2@@std@@PAVfms_fp_item_t@@@std@@PAU?$_Tree_node@U?$pair@$$CBV?$basic_string@DU?$char_traits@D@std@@V?$allocator@D@2@@std@@PAVfms_fp_item_t@@@std@@PAX@2@@?$_Tree@V?$_Tmap_traits@V?$basic_string@DU?$char_traits@D@std@@V?$allocator@D@2@@std@@PAVfms_fp_item_t@@U?$less@V?$basic_string@DU?$char_traits@D@std@@V?$allocator@D@2@@std@@@2@V?$allocator@U?$pair@$$CBV?$basic_string@DU?$char_traits@D@std@@V?$allocator@D@2@@std@@PAVfms_fp_item_t@@@std@@@2@$0A@@std@@@std@@IAE?AV?$_Tree_iterator@V?$_Tree_val@U?$_Tree_simple_types@U?$pair@$$CBV?$basic_string@DU?$char_traits@D@std@@V?$allocator@D@2@@std@@PAVfms_fp_item_t@@@std@@@std@@@std@@@1@V?$_Tree_const_iterator@V?$_Tree_val@U?$_Tree_simple_types@U?$pair@$$CBV?$basic_string@DU?$char_traits@D@std@@V?$allocator@D@2@@std@@PAVfms_fp_item_t@@@std@@@std@@@std@@@1@AAU?$pair@$$CBV?$basic_string@DU?$char_traits@D@std@@V?$allocator@D@2@@std@@PAVfms_fp_item_t@@@1@PAU?$_Tree_node@U?$pair@$$CBV?$basic_string@DU?$char_traits@D@std@@V?$allocator@D@2@@std@@PAVfms_fp_item_t@@@std@@PAX@1@@Z 10012c60 f i fms_fp.obj
 0001:00011c60       ??$_Insert_hint@AAU?$pair@$$CBV?$basic_string@DU?$char_traits@D@std@@V?$allocator@D@2@@std@@D@std@@PAU?$_Tree_node@U?$pair@$$CBV?$basic_string@DU?$char_traits@D@std@@V?$allocator@D@2@@std@@D@std@@PAX@2@@?$_Tree@V?$_Tmap_traits@V?$basic_string@DU?$char_traits@D@std@@V?$allocator@D@2@@std@@DU?$less@V?$basic_string@DU?$char_traits@D@std@@V?$allocator@D@2@@std@@@2@V?$allocator@U?$pair@$$CBV?$basic_string@DU?$char_traits@D@std@@V?$allocator@D@2@@std@@D@std@@@2@$0A@@std@@@std@@IAE?AV?$_Tree_iterator@V?$_Tree_val@U?$_Tree_simple_types@U?$pair@$$CBV?$basic_string@DU?$char_traits@D@std@@V?$allocator@D@2@@std@@D@std@@@std@@@std@@@1@V?$_Tree_const_iterator@V?$_Tree_val@U?$_Tree_simple_types@U?$pair@$$CBV?$basic_string@DU?$char_traits@D@std@@V?$allocator@D@2@@std@@D@std@@@std@@@std@@@1@AAU?$pair@$$CBV?$basic_string@DU?$char_traits@D@std@@V?$allocator@D@2@@std@@D@1@PAU?$_Tree_node@U?$pair@$$CBV?$basic_string@DU?$char_traits@D@std@@V?$allocator@D@2@@std@@D@std@@PAX@1@@Z 10012c60 f i mfdpage.obj
 0001:00011c60       ??$_Insert_hint@AAU?$pair@$$CBV?$basic_string@DU?$char_traits@D@std@@V?$allocator@D@2@@std@@PAVfms_config_item_t@@@std@@PAU?$_Tree_node@U?$pair@$$CBV?$basic_string@DU?$char_traits@D@std@@V?$allocator@D@2@@std@@PAVfms_config_item_t@@@std@@PAX@2@@?$_Tree@V?$_Tmap_traits@V?$basic_string@DU?$char_traits@D@std@@V?$allocator@D@2@@std@@PAVfms_config_item_t@@U?$less@V?$basic_string@DU?$char_traits@D@std@@V?$allocator@D@2@@std@@@2@V?$allocator@U?$pair@$$CBV?$basic_string@DU?$char_traits@D@std@@V?$allocator@D@2@@std@@PAVfms_config_item_t@@@std@@@2@$0A@@std@@@std@@IAE?AV?$_Tree_iterator@V?$_Tree_val@U?$_Tree_simple_types@U?$pair@$$CBV?$basic_string@DU?$char_traits@D@std@@V?$allocator@D@2@@std@@PAVfms_config_item_t@@@std@@@std@@@std@@@1@V?$_Tree_const_iterator@V?$_Tree_val@U?$_Tree_simple_types@U?$pair@$$CBV?$basic_string@DU?$char_traits@D@std@@V?$allocator@D@2@@std@@PAVfms_config_item_t@@@std@@@std@@@std@@@1@AAU?$pair@$$CBV?$basic_string@DU?$char_traits@D@std@@V?$allocator@D@2@@std@@PAVfms_config_item_t@@@1@PAU?$_Tree_node@U?$pair@$$CBV?$basic_string@DU?$char_traits@D@std@@V?$allocator@D@2@@std@@PAVfms_config_item_t@@@std@@PAX@1@@Z 10012c60 f i fms_config.obj
 0001:00011c60       ??$_Insert_hint@AAU?$pair@$$CBV?$basic_string@DU?$char_traits@D@std@@V?$allocator@D@2@@std@@M@std@@PAU?$_Tree_node@U?$pair@$$CBV?$basic_string@DU?$char_traits@D@std@@V?$allocator@D@2@@std@@M@std@@PAX@2@@?$_Tree@V?$_Tmap_traits@V?$basic_string@DU?$char_traits@D@std@@V?$allocator@D@2@@std@@MU?$less@V?$basic_string@DU?$char_traits@D@std@@V?$allocator@D@2@@std@@@2@V?$allocator@U?$pair@$$CBV?$basic_string@DU?$char_traits@D@std@@V?$allocator@D@2@@std@@M@std@@@2@$0A@@std@@@std@@IAE?AV?$_Tree_iterator@V?$_Tree_val@U?$_Tree_simple_types@U?$pair@$$CBV?$basic_string@DU?$char_traits@D@std@@V?$allocator@D@2@@std@@M@std@@@std@@@std@@@1@V?$_Tree_const_iterator@V?$_Tree_val@U?$_Tree_simple_types@U?$pair@$$CBV?$basic_string@DU?$char_traits@D@std@@V?$allocator@D@2@@std@@M@std@@@std@@@std@@@1@AAU?$pair@$$CBV?$basic_string@DU?$char_traits@D@std@@V?$allocator@D@2@@std@@M@1@PAU?$_Tree_node@U?$pair@$$CBV?$basic_string@DU?$char_traits@D@std@@V?$allocator@D@2@@std@@M@std@@PAX@1@@Z 10012c60 f i mfdpage_fms.obj
 0001:00012410       ??$_Insert_nohint@AAU?$pair@$$CBHPAVfms_fp_item_t@@@std@@PAU?$_Tree_node@U?$pair@$$CBHPAVfms_fp_item_t@@@std@@PAX@2@@?$_Tree@V?$_Tmap_traits@HPAVfms_fp_item_t@@U?$less@H@std@@V?$allocator@U?$pair@$$CBHPAVfms_fp_item_t@@@std@@@3@$0A@@std@@@std@@IAE?AU?$pair@V?$_Tree_iterator@V?$_Tree_val@U?$_Tree_simple_types@U?$pair@$$CBHPAVfms_fp_item_t@@@std@@@std@@@std@@@std@@_N@1@_NAAU?$pair@$$CBHPAVfms_fp_item_t@@@1@PAU?$_Tree_node@U?$pair@$$CBHPAVfms_fp_item_t@@@std@@PAX@1@@Z 10013410 f i mfdpage_fms.obj
 0001:00012410       ??$_Insert_nohint@AAU?$pair@$$CBHM@std@@PAU?$_Tree_node@U?$pair@$$CBHM@std@@PAX@2@@?$_Tree@V?$_Tmap_traits@HMU?$less@H@std@@V?$allocator@U?$pair@$$CBHM@std@@@2@$0A@@std@@@std@@IAE?AU?$pair@V?$_Tree_iterator@V?$_Tree_val@U?$_Tree_simple_types@U?$pair@$$CBHM@std@@@std@@@std@@@std@@_N@1@_NAAU?$pair@$$CBHM@1@PAU?$_Tree_node@U?$pair@$$CBHM@std@@PAX@1@@Z 10013410 f i fms_config.obj
 0001:00012410       ??$_Insert_nohint@AAU?$pair@$$CBHPAVobject_t@@@std@@PAU?$_Tree_node@U?$pair@$$CBHPAVobject_t@@@std@@PAX@2@@?$_Tree@V?$_Tmap_traits@HPAVobject_t@@U?$less@H@std@@V?$allocator@U?$pair@$$CBHPAVobject_t@@@std@@@3@$0A@@std@@@std@@IAE?AU?$pair@V?$_Tree_iterator@V?$_Tree_val@U?$_Tree_simple_types@U?$pair@$$CBHPAVobject_t@@@std@@@std@@@std@@@std@@_N@1@_NAAU?$pair@$$CBHPAVobject_t@@@1@PAU?$_Tree_node@U?$pair@$$CBHPAVobject_t@@@std@@PAX@1@@Z 10013410 f i mfdpage.obj
 0001:000126e0       ??$construct@U?$pair@$$CBHPAVobject_t@@@std@@ABUpiecewise_construct_t@2@V?$tuple@$$QAH@2@V?$tuple@$$$V@2@@?$_Wrap_alloc@V?$allocator@U?$_Tree_node@U?$pair@$$CBHPAVobject_t@@@std@@PAX@std@@@std@@@std@@QAEXPAU?$pair@$$CBHPAVobject_t@@@1@ABUpiecewise_construct_t@1@$$QAV?$tuple@$$QAH@1@$$QAV?$tuple@$$$V@1@@Z 100136e0 f i mfdpage_fms.obj
 0001:000126e0       ??$construct@U?$pair@$$CBHPAVfms_fp_item_t@@@std@@ABUpiecewise_construct_t@2@V?$tuple@$$QAH@2@V?$tuple@$$$V@2@@?$_Wrap_alloc@V?$allocator@U?$_Tree_node@U?$pair@$$CBHPAVfms_fp_item_t@@@std@@PAX@std@@@std@@@std@@QAEXPAU?$pair@$$CBHPAVfms_fp_item_t@@@1@ABUpiecewise_construct_t@1@$$QAV?$tuple@$$QAH@1@$$QAV?$tuple@$$$V@1@@Z 100136e0 f i mfdpage_fms.obj
 0001:000126e0       ??$construct@U?$pair@$$CBHPAVobject_t@@@std@@ABUpiecewise_construct_t@2@V?$tuple@ABH@2@V?$tuple@$$$V@2@@?$_Wrap_alloc@V?$allocator@U?$_Tree_node@U?$pair@$$CBHPAVobject_t@@@std@@PAX@std@@@std@@@std@@QAEXPAU?$pair@$$CBHPAVobject_t@@@1@ABUpiecewise_construct_t@1@$$QAV?$tuple@ABH@1@$$QAV?$tuple@$$$V@1@@Z 100136e0 f i mfdpage.obj
 0001:000126e0       ??$construct@U?$pair@$$CBHPAVfms_fp_item_t@@@std@@ABUpiecewise_construct_t@2@V?$tuple@ABH@2@V?$tuple@$$$V@2@@?$_Wrap_alloc@V?$allocator@U?$_Tree_node@U?$pair@$$CBHPAVfms_fp_item_t@@@std@@PAX@std@@@std@@@std@@QAEXPAU?$pair@$$CBHPAVfms_fp_item_t@@@1@ABUpiecewise_construct_t@1@$$QAV?$tuple@ABH@1@$$QAV?$tuple@$$$V@1@@Z 100136e0 f i mfdpage_fms.obj
 0001:00012730       ??$construct@U?$pair@$$CBHPAVfms_fp_item_t@@@std@@ABUpiecewise_construct_t@2@V?$tuple@ABH@2@V?$tuple@$$$V@2@@?$allocator@U?$_Tree_node@U?$pair@$$CBHPAVfms_fp_item_t@@@std@@PAX@std@@@std@@QAEXPAU?$pair@$$CBHPAVfms_fp_item_t@@@1@ABUpiecewise_construct_t@1@$$QAV?$tuple@ABH@1@$$QAV?$tuple@$$$V@1@@Z 10013730 f i mfdpage_fms.obj
 0001:00012730       ??$construct@U?$pair@$$CBHPAVfms_fp_item_t@@@std@@ABUpiecewise_construct_t@2@V?$tuple@$$QAH@2@V?$tuple@$$$V@2@@?$allocator@U?$_Tree_node@U?$pair@$$CBHPAVfms_fp_item_t@@@std@@PAX@std@@@std@@QAEXPAU?$pair@$$CBHPAVfms_fp_item_t@@@1@ABUpiecewise_construct_t@1@$$QAV?$tuple@$$QAH@1@$$QAV?$tuple@$$$V@1@@Z 10013730 f i mfdpage_fms.obj
 0001:00012730       ??$construct@U?$pair@$$CBHPAVobject_t@@@std@@ABUpiecewise_construct_t@2@V?$tuple@$$QAH@2@V?$tuple@$$$V@2@@?$allocator@U?$_Tree_node@U?$pair@$$CBHPAVobject_t@@@std@@PAX@std@@@std@@QAEXPAU?$pair@$$CBHPAVobject_t@@@1@ABUpiecewise_construct_t@1@$$QAV?$tuple@$$QAH@1@$$QAV?$tuple@$$$V@1@@Z 10013730 f i mfdpage_fms.obj
 0001:00012730       ??$construct@U?$pair@$$CBHPAVobject_t@@@std@@ABUpiecewise_construct_t@2@V?$tuple@ABH@2@V?$tuple@$$$V@2@@?$allocator@U?$_Tree_node@U?$pair@$$CBHPAVobject_t@@@std@@PAX@std@@@std@@QAEXPAU?$pair@$$CBHPAVobject_t@@@1@ABUpiecewise_construct_t@1@$$QAV?$tuple@ABH@1@$$QAV?$tuple@$$$V@1@@Z 10013730 f i mfdpage.obj
 0001:000127a0       ??$construct@U?$pair@$$CBHPAVobject_t@@@std@@ABUpiecewise_construct_t@2@V?$tuple@$$QAH@2@V?$tuple@$$$V@2@@?$allocator_traits@V?$allocator@U?$_Tree_node@U?$pair@$$CBHPAVobject_t@@@std@@PAX@std@@@std@@@std@@SAXAAV?$allocator@U?$_Tree_node@U?$pair@$$CBHPAVobject_t@@@std@@PAX@std@@@1@PAU?$pair@$$CBHPAVobject_t@@@1@ABUpiecewise_construct_t@1@$$QAV?$tuple@$$QAH@1@$$QAV?$tuple@$$$V@1@@Z 100137a0 f i mfdpage_fms.obj
 0001:000127a0       ??$construct@U?$pair@$$CBHPAVobject_t@@@std@@ABUpiecewise_construct_t@2@V?$tuple@ABH@2@V?$tuple@$$$V@2@@?$allocator_traits@V?$allocator@U?$_Tree_node@U?$pair@$$CBHPAVobject_t@@@std@@PAX@std@@@std@@@std@@SAXAAV?$allocator@U?$_Tree_node@U?$pair@$$CBHPAVobject_t@@@std@@PAX@std@@@1@PAU?$pair@$$CBHPAVobject_t@@@1@ABUpiecewise_construct_t@1@$$QAV?$tuple@ABH@1@$$QAV?$tuple@$$$V@1@@Z 100137a0 f i mfdpage.obj
 0001:000127a0       ??$construct@U?$pair@$$CBHPAVfms_fp_item_t@@@std@@ABUpiecewise_construct_t@2@V?$tuple@$$QAH@2@V?$tuple@$$$V@2@@?$allocator_traits@V?$allocator@U?$_Tree_node@U?$pair@$$CBHPAVfms_fp_item_t@@@std@@PAX@std@@@std@@@std@@SAXAAV?$allocator@U?$_Tree_node@U?$pair@$$CBHPAVfms_fp_item_t@@@std@@PAX@std@@@1@PAU?$pair@$$CBHPAVfms_fp_item_t@@@1@ABUpiecewise_construct_t@1@$$QAV?$tuple@$$QAH@1@$$QAV?$tuple@$$$V@1@@Z 100137a0 f i mfdpage_fms.obj
 0001:000127a0       ??$construct@U?$pair@$$CBHPAVfms_fp_item_t@@@std@@ABUpiecewise_construct_t@2@V?$tuple@ABH@2@V?$tuple@$$$V@2@@?$allocator_traits@V?$allocator@U?$_Tree_node@U?$pair@$$CBHPAVfms_fp_item_t@@@std@@PAX@std@@@std@@@std@@SAXAAV?$allocator@U?$_Tree_node@U?$pair@$$CBHPAVfms_fp_item_t@@@std@@PAX@std@@@1@PAU?$pair@$$CBHPAVfms_fp_item_t@@@1@ABUpiecewise_construct_t@1@$$QAV?$tuple@ABH@1@$$QAV?$tuple@$$$V@1@@Z 100137a0 f i mfdpage_fms.obj
 0001:000127e0       ??$construct@U?$pair@$$CBV?$basic_string@DU?$char_traits@D@std@@V?$allocator@D@2@@std@@M@std@@ABUpiecewise_construct_t@2@V?$tuple@$$QAV?$basic_string@DU?$char_traits@D@std@@V?$allocator@D@2@@std@@@2@V?$tuple@$$$V@2@@?$_Wrap_alloc@V?$allocator@U?$_Tree_node@U?$pair@$$CBV?$basic_string@DU?$char_traits@D@std@@V?$allocator@D@2@@std@@M@std@@PAX@std@@@std@@@std@@QAEXPAU?$pair@$$CBV?$basic_string@DU?$char_traits@D@std@@V?$allocator@D@2@@std@@M@1@ABUpiecewise_construct_t@1@$$QAV?$tuple@$$QAV?$basic_string@DU?$char_traits@D@std@@V?$allocator@D@2@@std@@@1@$$QAV?$tuple@$$$V@1@@Z 100137e0 f i mfdpage_fms.obj
 0001:00012830       ??$construct@U?$pair@$$CBV?$basic_string@DU?$char_traits@D@std@@V?$allocator@D@2@@std@@M@std@@ABUpiecewise_construct_t@2@V?$tuple@$$QAV?$basic_string@DU?$char_traits@D@std@@V?$allocator@D@2@@std@@@2@V?$tuple@$$$V@2@@?$allocator@U?$_Tree_node@U?$pair@$$CBV?$basic_string@DU?$char_traits@D@std@@V?$allocator@D@2@@std@@M@std@@PAX@std@@@std@@QAEXPAU?$pair@$$CBV?$basic_string@DU?$char_traits@D@std@@V?$allocator@D@2@@std@@M@1@ABUpiecewise_construct_t@1@$$QAV?$tuple@$$QAV?$basic_string@DU?$char_traits@D@std@@V?$allocator@D@2@@std@@@1@$$QAV?$tuple@$$$V@1@@Z 10013830 f i mfdpage_fms.obj
 0001:000128a0       ??$construct@U?$pair@$$CBV?$basic_string@DU?$char_traits@D@std@@V?$allocator@D@2@@std@@M@std@@ABUpiecewise_construct_t@2@V?$tuple@$$QAV?$basic_string@DU?$char_traits@D@std@@V?$allocator@D@2@@std@@@2@V?$tuple@$$$V@2@@?$allocator_traits@V?$allocator@U?$_Tree_node@U?$pair@$$CBV?$basic_string@DU?$char_traits@D@std@@V?$allocator@D@2@@std@@M@std@@PAX@std@@@std@@@std@@SAXAAV?$allocator@U?$_Tree_node@U?$pair@$$CBV?$basic_string@DU?$char_traits@D@std@@V?$allocator@D@2@@std@@M@std@@PAX@std@@@1@PAU?$pair@$$CBV?$basic_string@DU?$char_traits@D@std@@V?$allocator@D@2@@std@@M@1@ABUpiecewise_construct_t@1@$$QAV?$tuple@$$QAV?$basic_string@DU?$char_traits@D@std@@V?$allocator@D@2@@std@@@1@$$QAV?$tuple@$$$V@1@@Z 100138a0 f i mfdpage_fms.obj
 0001:000128e0       ??$destroy@PAU?$_Tree_node@PAVlistener_t@@PAX@std@@@?$_Wrap_alloc@V?$allocator@U?$_Tree_node@PAVlistener_t@@PAX@std@@@std@@@std@@QAEXPAPAU?$_Tree_node@PAVlistener_t@@PAX@1@@Z 100138e0 f i data.obj
 0001:000128e0       ??$destroy@PAU?$_Tree_node@U?$pair@$$CBHM@std@@PAX@std@@@?$_Wrap_alloc@V?$allocator@U?$_Tree_node@U?$pair@$$CBHM@std@@PAX@std@@@std@@@std@@QAEXPAPAU?$_Tree_node@U?$pair@$$CBHM@std@@PAX@1@@Z 100138e0 f i fms_config.obj
 0001:000128e0       ??$destroy@PAU?$_Tree_node@U?$pair@$$CBHPAVobject_t@@@std@@PAX@std@@@?$_Wrap_alloc@V?$allocator@U?$_Tree_node@U?$pair@$$CBHPAVobject_t@@@std@@PAX@std@@@std@@@std@@QAEXPAPAU?$_Tree_node@U?$pair@$$CBHPAVobject_t@@@std@@PAX@1@@Z 100138e0 f i mfdpage.obj
 0001:000128e0       ??$destroy@U?$pair@$$CBHM@std@@@?$_Wrap_alloc@V?$allocator@U?$_Tree_node@U?$pair@$$CBHM@std@@PAX@std@@@std@@@std@@QAEXPAU?$pair@$$CBHM@1@@Z 100138e0 f i fms_config.obj
 0001:000128e0       ??$destroy@PAD@?$_Wrap_alloc@V?$allocator@D@std@@@std@@QAEXPAPAD@Z 100138e0 f i main.obj
 0001:000128e0       ??$destroy@PAU?$_Tree_node@U?$pair@$$CBV?$basic_string@DU?$char_traits@D@std@@V?$allocator@D@2@@std@@H@std@@PAX@std@@@?$_Wrap_alloc@V?$allocator@U?$_Tree_node@U?$pair@$$CBV?$basic_string@DU?$char_traits@D@std@@V?$allocator@D@2@@std@@H@std@@PAX@std@@@std@@@std@@QAEXPAPAU?$_Tree_node@U?$pair@$$CBV?$basic_string@DU?$char_traits@D@std@@V?$allocator@D@2@@std@@H@std@@PAX@1@@Z 100138e0 f i mfdpage.obj
 0001:000128e0       ??$destroy@PAU?$_Tree_node@U?$pair@$$CBHV?$basic_string@DU?$char_traits@D@std@@V?$allocator@D@2@@std@@@std@@PAX@std@@@?$_Wrap_alloc@V?$allocator@U?$_Tree_node@U?$pair@$$CBHV?$basic_string@DU?$char_traits@D@std@@V?$allocator@D@2@@std@@@std@@PAX@std@@@std@@@std@@QAEXPAPAU?$_Tree_node@U?$pair@$$CBHV?$basic_string@DU?$char_traits@D@std@@V?$allocator@D@2@@std@@@std@@PAX@1@@Z 100138e0 f i out_saitek.obj
 0001:000128e0       ??$destroy@PAU?$_Tree_node@U?$pair@$$CBV?$basic_string@DU?$char_traits@D@std@@V?$allocator@D@2@@std@@PAVfms_config_item_t@@@std@@PAX@std@@@?$_Wrap_alloc@V?$allocator@U?$_Tree_node@U?$pair@$$CBV?$basic_string@DU?$char_traits@D@std@@V?$allocator@D@2@@std@@PAVfms_config_item_t@@@std@@PAX@std@@@std@@@std@@QAEXPAPAU?$_Tree_node@U?$pair@$$CBV?$basic_string@DU?$char_traits@D@std@@V?$allocator@D@2@@std@@PAVfms_config_item_t@@@std@@PAX@1@@Z 100138e0 f i fms_config.obj
 0001:000128e0       ??$destroy@PAVlistener_t@@@?$_Wrap_alloc@V?$allocator@U?$_Tree_node@PAVlistener_t@@PAX@std@@@std@@@std@@QAEXPAPAVlistener_t@@@Z 100138e0 f i data.obj
 0001:000128e0       ??$destroy@PAU?$_Tree_node@U?$pair@$$CBV?$basic_string@DU?$char_traits@D@std@@V?$allocator@D@2@@std@@PAVfms_fp_item_t@@@std@@PAX@std@@@?$_Wrap_alloc@V?$allocator@U?$_Tree_node@U?$pair@$$CBV?$basic_string@DU?$char_traits@D@std@@V?$allocator@D@2@@std@@PAVfms_fp_item_t@@@std@@PAX@std@@@std@@@std@@QAEXPAPAU?$_Tree_node@U?$pair@$$CBV?$basic_string@DU?$char_traits@D@std@@V?$allocator@D@2@@std@@PAVfms_fp_item_t@@@std@@PAX@1@@Z 100138e0 f i fms_fp.obj
 0001:000128e0       ??$destroy@PAVmfdpage_t@@@?$_Wrap_alloc@V?$allocator@U?$_Tree_node@PAVmfdpage_t@@PAX@std@@@std@@@std@@QAEXPAPAVmfdpage_t@@@Z 100138e0 f i in.obj
 0001:000128e0       ??$destroy@PAU?$_Tree_node@U?$pair@$$CBV?$basic_string@DU?$char_traits@D@std@@V?$allocator@D@2@@std@@V12@@std@@PAX@std@@@?$_Wrap_alloc@V?$allocator@U?$_Tree_node@U?$pair@$$CBV?$basic_string@DU?$char_traits@D@std@@V?$allocator@D@2@@std@@V12@@std@@PAX@std@@@std@@@std@@QAEXPAPAU?$_Tree_node@U?$pair@$$CBV?$basic_string@DU?$char_traits@D@std@@V?$allocator@D@2@@std@@V12@@std@@PAX@1@@Z 100138e0 f i tools.obj
 0001:000128e0       ??$destroy@PAU?$_Tree_node@U?$pair@$$CBV?$basic_string@DU?$char_traits@D@std@@V?$allocator@D@2@@std@@D@std@@PAX@std@@@?$_Wrap_alloc@V?$allocator@U?$_Tree_node@U?$pair@$$CBV?$basic_string@DU?$char_traits@D@std@@V?$allocator@D@2@@std@@D@std@@PAX@std@@@std@@@std@@QAEXPAPAU?$_Tree_node@U?$pair@$$CBV?$basic_string@DU?$char_traits@D@std@@V?$allocator@D@2@@std@@D@std@@PAX@1@@Z 100138e0 f i mfdpage.obj
 0001:000128e0       ??$destroy@PAVobject_t@@@?$_Wrap_alloc@V?$allocator@U?$_Tree_node@PAVobject_t@@PAX@std@@@std@@@std@@QAEXPAPAVobject_t@@@Z 100138e0 f i data.obj
 0001:000128e0       ??$destroy@PAU?$_Tree_node@PAVmfdpage_t@@PAX@std@@@?$_Wrap_alloc@V?$allocator@U?$_Tree_node@PAVmfdpage_t@@PAX@std@@@std@@@std@@QAEXPAPAU?$_Tree_node@PAVmfdpage_t@@PAX@1@@Z 100138e0 f i in.obj
 0001:000128e0       ??$destroy@PAU?$_Tree_node@U?$pair@$$CBV?$basic_string@DU?$char_traits@D@std@@V?$allocator@D@2@@std@@M@std@@PAX@std@@@?$_Wrap_alloc@V?$allocator@U?$_Tree_node@U?$pair@$$CBV?$basic_string@DU?$char_traits@D@std@@V?$allocator@D@2@@std@@M@std@@PAX@std@@@std@@@std@@QAEXPAPAU?$_Tree_node@U?$pair@$$CBV?$basic_string@DU?$char_traits@D@std@@V?$allocator@D@2@@std@@M@std@@PAX@1@@Z 100138e0 f i mfdpage_fms.obj
 0001:000128e0       ??$destroy@U?$pair@$$CBHPAVobject_t@@@std@@@?$_Wrap_alloc@V?$allocator@U?$_Tree_node@U?$pair@$$CBHPAVobject_t@@@std@@PAX@std@@@std@@@std@@QAEXPAU?$pair@$$CBHPAVobject_t@@@1@@Z 100138e0 f i mfdpage.obj
 0001:000128e0       ??$destroy@PAU?$_Tree_node@U?$pair@$$CBHPAVfms_fp_item_t@@@std@@PAX@std@@@?$_Wrap_alloc@V?$allocator@U?$_Tree_node@U?$pair@$$CBHPAVfms_fp_item_t@@@std@@PAX@std@@@std@@@std@@QAEXPAPAU?$_Tree_node@U?$pair@$$CBHPAVfms_fp_item_t@@@std@@PAX@1@@Z 100138e0 f i mfdpage_fms.obj
 0001:000128e0       ??$destroy@U?$pair@$$CBHPAVfms_fp_item_t@@@std@@@?$_Wrap_alloc@V?$allocator@U?$_Tree_node@U?$pair@$$CBHPAVfms_fp_item_t@@@std@@PAX@std@@@std@@@std@@QAEXPAU?$pair@$$CBHPAVfms_fp_item_t@@@1@@Z 100138e0 f i mfdpage_fms.obj
 0001:000128e0       ??$destroy@PAU?$_Tree_node@PAVobject_t@@PAX@std@@@?$_Wrap_alloc@V?$allocator@U?$_Tree_node@PAVobject_t@@PAX@std@@@std@@@std@@QAEXPAPAU?$_Tree_node@PAVobject_t@@PAX@1@@Z 100138e0 f i data.obj
 0001:00012900       ??$emplace_hint@ABUpiecewise_construct_t@std@@V?$tuple@ABH@2@V?$tuple@$$$V@2@@?$_Tree@V?$_Tmap_traits@HV?$basic_string@DU?$char_traits@D@std@@V?$allocator@D@2@@std@@U?$less@H@2@V?$allocator@U?$pair@$$CBHV?$basic_string@DU?$char_traits@D@std@@V?$allocator@D@2@@std@@@std@@@2@$0A@@std@@@std@@QAE?AV?$_Tree_iterator@V?$_Tree_val@U?$_Tree_simple_types@U?$pair@$$CBHV?$basic_string@DU?$char_traits@D@std@@V?$allocator@D@2@@std@@@std@@@std@@@std@@@1@V?$_Tree_const_iterator@V?$_Tree_val@U?$_Tree_simple_types@U?$pair@$$CBHV?$basic_string@DU?$char_traits@D@std@@V?$allocator@D@2@@std@@@std@@@std@@@std@@@1@ABUpiecewise_construct_t@1@$$QAV?$tuple@ABH@1@$$QAV?$tuple@$$$V@1@@Z 10013900 f i out_saitek.obj
 0001:00012900       ??$emplace_hint@ABUpiecewise_construct_t@std@@V?$tuple@$$QAH@2@V?$tuple@$$$V@2@@?$_Tree@V?$_Tmap_traits@HV?$basic_string@DU?$char_traits@D@std@@V?$allocator@D@2@@std@@U?$less@H@2@V?$allocator@U?$pair@$$CBHV?$basic_string@DU?$char_traits@D@std@@V?$allocator@D@2@@std@@@std@@@2@$0A@@std@@@std@@QAE?AV?$_Tree_iterator@V?$_Tree_val@U?$_Tree_simple_types@U?$pair@$$CBHV?$basic_string@DU?$char_traits@D@std@@V?$allocator@D@2@@std@@@std@@@std@@@std@@@1@V?$_Tree_const_iterator@V?$_Tree_val@U?$_Tree_simple_types@U?$pair@$$CBHV?$basic_string@DU?$char_traits@D@std@@V?$allocator@D@2@@std@@@std@@@std@@@std@@@1@ABUpiecewise_construct_t@1@$$QAV?$tuple@$$QAH@1@$$QAV?$tuple@$$$V@1@@Z 10013900 f i mfdpage_fms.obj
 0001:00012970       ??$emplace_hint@ABUpiecewise_construct_t@std@@V?$tuple@$$QAV?$basic_string@DU?$char_traits@D@std@@V?$allocator@D@2@@std@@@2@V?$tuple@$$$V@2@@?$_Tree@V?$_Tmap_traits@V?$basic_string@DU?$char_traits@D@std@@V?$allocator@D@2@@std@@MU?$less@V?$basic_string@DU?$char_traits@D@std@@V?$allocator@D@2@@std@@@2@V?$allocator@U?$pair@$$CBV?$basic_string@DU?$char_traits@D@std@@V?$allocator@D@2@@std@@M@std@@@2@$0A@@std@@@std@@QAE?AV?$_Tree_iterator@V?$_Tree_val@U?$_Tree_simple_types@U?$pair@$$CBV?$basic_string@DU?$char_traits@D@std@@V?$allocator@D@2@@std@@M@std@@@std@@@std@@@1@V?$_Tree_const_iterator@V?$_Tree_val@U?$_Tree_simple_types@U?$pair@$$CBV?$basic_string@DU?$char_traits@D@std@@V?$allocator@D@2@@std@@M@std@@@std@@@std@@@1@ABUpiecewise_construct_t@1@$$QAV?$tuple@$$QAV?$basic_string@DU?$char_traits@D@std@@V?$allocator@D@2@@std@@@1@$$QAV?$tuple@$$$V@1@@Z 10013970 f i mfdpage_fms.obj
 0001:000129e0       ??$emplace_hint@ABUpiecewise_construct_t@std@@V?$tuple@ABH@2@V?$tuple@$$$V@2@@?$_Tree@V?$_Tmap_traits@HPAVfms_fp_item_t@@U?$less@H@std@@V?$allocator@U?$pair@$$CBHPAVfms_fp_item_t@@@std@@@3@$0A@@std@@@std@@QAE?AV?$_Tree_iterator@V?$_Tree_val@U?$_Tree_simple_types@U?$pair@$$CBHPAVfms_fp_item_t@@@std@@@std@@@std@@@1@V?$_Tree_const_iterator@V?$_Tree_val@U?$_Tree_simple_types@U?$pair@$$CBHPAVfms_fp_item_t@@@std@@@std@@@std@@@1@ABUpiecewise_construct_t@1@$$QAV?$tuple@ABH@1@$$QAV?$tuple@$$$V@1@@Z 100139e0 f i mfdpage_fms.obj
 0001:000129e0       ??$emplace_hint@ABUpiecewise_construct_t@std@@V?$tuple@ABH@2@V?$tuple@$$$V@2@@?$_Tree@V?$_Tmap_traits@HPAVobject_t@@U?$less@H@std@@V?$allocator@U?$pair@$$CBHPAVobject_t@@@std@@@3@$0A@@std@@@std@@QAE?AV?$_Tree_iterator@V?$_Tree_val@U?$_Tree_simple_types@U?$pair@$$CBHPAVobject_t@@@std@@@std@@@std@@@1@V?$_Tree_const_iterator@V?$_Tree_val@U?$_Tree_simple_types@U?$pair@$$CBHPAVobject_t@@@std@@@std@@@std@@@1@ABUpiecewise_construct_t@1@$$QAV?$tuple@ABH@1@$$QAV?$tuple@$$$V@1@@Z 100139e0 f i mfdpage.obj
 0001:000129e0       ??$emplace_hint@ABUpiecewise_construct_t@std@@V?$tuple@$$QAH@2@V?$tuple@$$$V@2@@?$_Tree@V?$_Tmap_traits@HPAVobject_t@@U?$less@H@std@@V?$allocator@U?$pair@$$CBHPAVobject_t@@@std@@@3@$0A@@std@@@std@@QAE?AV?$_Tree_iterator@V?$_Tree_val@U?$_Tree_simple_types@U?$pair@$$CBHPAVobject_t@@@std@@@std@@@std@@@1@V?$_Tree_const_iterator@V?$_Tree_val@U?$_Tree_simple_types@U?$pair@$$CBHPAVobject_t@@@std@@@std@@@std@@@1@ABUpiecewise_construct_t@1@$$QAV?$tuple@$$QAH@1@$$QAV?$tuple@$$$V@1@@Z 100139e0 f i mfdpage_fms.obj
 0001:000129e0       ??$emplace_hint@ABUpiecewise_construct_t@std@@V?$tuple@$$QAH@2@V?$tuple@$$$V@2@@?$_Tree@V?$_Tmap_traits@HPAVfms_fp_item_t@@U?$less@H@std@@V?$allocator@U?$pair@$$CBHPAVfms_fp_item_t@@@std@@@3@$0A@@std@@@std@@QAE?AV?$_Tree_iterator@V?$_Tree_val@U?$_Tree_simple_types@U?$pair@$$CBHPAVfms_fp_item_t@@@std@@@std@@@std@@@1@V?$_Tree_const_iterator@V?$_Tree_val@U?$_Tree_simple_types@U?$pair@$$CBHPAVfms_fp_item_t@@@std@@@std@@@std@@@1@ABUpiecewise_construct_t@1@$$QAV?$tuple@$$QAH@1@$$QAV?$tuple@$$$V@1@@Z 100139e0 f i mfdpage_fms.obj
 0001:00012a50       ??$forward_as_tuple@H@std@@YA?AV?$tuple@$$QAH@0@$$QAH@Z 10013a50 f i mfdpage_fms.obj
 0001:00012a50       ??$forward_as_tuple@V?$basic_string@DU?$char_traits@D@std@@V?$allocator@D@2@@std@@@std@@YA?AV?$tuple@$$QAV?$basic_string@DU?$char_traits@D@std@@V?$allocator@D@2@@std@@@0@$$QAV?$basic_string@DU?$char_traits@D@std@@V?$allocator@D@2@@0@@Z 10013a50 f i tools.obj
 0001:00012a70       ??0?$_Tree_comp@$0A@V?$_Tmap_traits@V?$basic_string@DU?$char_traits@D@std@@V?$allocator@D@2@@std@@PAVfms_config_item_t@@U?$less@V?$basic_string@DU?$char_traits@D@std@@V?$allocator@D@2@@std@@@2@V?$allocator@U?$pair@$$CBV?$basic_string@DU?$char_traits@D@std@@V?$allocator@D@2@@std@@PAVfms_config_item_t@@@std@@@2@$0A@@std@@@std@@QAE@ABU?$less@V?$basic_string@DU?$char_traits@D@std@@V?$allocator@D@2@@std@@@1@ABV?$allocator@U?$pair@$$CBV?$basic_string@DU?$char_traits@D@std@@V?$allocator@D@2@@std@@PAVfms_config_item_t@@@std@@@1@@Z 10013a70 f i fms_config.obj
 0001:00012a70       ??0?$_Tree_comp@$0A@V?$_Tmap_traits@V?$basic_string@DU?$char_traits@D@std@@V?$allocator@D@2@@std@@HU?$less@V?$basic_string@DU?$char_traits@D@std@@V?$allocator@D@2@@std@@@2@V?$allocator@U?$pair@$$CBV?$basic_string@DU?$char_traits@D@std@@V?$allocator@D@2@@std@@H@std@@@2@$0A@@std@@@std@@QAE@ABU?$less@V?$basic_string@DU?$char_traits@D@std@@V?$allocator@D@2@@std@@@1@ABV?$allocator@U?$pair@$$CBV?$basic_string@DU?$char_traits@D@std@@V?$allocator@D@2@@std@@H@std@@@1@@Z 10013a70 f i mfdpage.obj
 0001:00012a70       ??0?$_Tree_comp@$0A@V?$_Tmap_traits@V?$basic_string@DU?$char_traits@D@std@@V?$allocator@D@2@@std@@PAVfms_fp_item_t@@U?$less@V?$basic_string@DU?$char_traits@D@std@@V?$allocator@D@2@@std@@@2@V?$allocator@U?$pair@$$CBV?$basic_string@DU?$char_traits@D@std@@V?$allocator@D@2@@std@@PAVfms_fp_item_t@@@std@@@2@$0A@@std@@@std@@QAE@ABU?$less@V?$basic_string@DU?$char_traits@D@std@@V?$allocator@D@2@@std@@@1@ABV?$allocator@U?$pair@$$CBV?$basic_string@DU?$char_traits@D@std@@V?$allocator@D@2@@std@@PAVfms_fp_item_t@@@std@@@1@@Z 10013a70 f i fms_fp.obj
 0001:00012a70       ??0?$_Tree_comp@$0A@V?$_Tmap_traits@V?$basic_string@DU?$char_traits@D@std@@V?$allocator@D@2@@std@@DU?$less@V?$basic_string@DU?$char_traits@D@std@@V?$allocator@D@2@@std@@@2@V?$allocator@U?$pair@$$CBV?$basic_string@DU?$char_traits@D@std@@V?$allocator@D@2@@std@@D@std@@@2@$0A@@std@@@std@@QAE@ABU?$less@V?$basic_string@DU?$char_traits@D@std@@V?$allocator@D@2@@std@@@1@ABV?$allocator@U?$pair@$$CBV?$basic_string@DU?$char_traits@D@std@@V?$allocator@D@2@@std@@D@std@@@1@@Z 10013a70 f i mfdpage_fms.obj
 0001:00012a70       ??0?$_Tree_comp@$0A@V?$_Tmap_traits@HV?$basic_string@DU?$char_traits@D@std@@V?$allocator@D@2@@std@@U?$less@H@2@V?$allocator@U?$pair@$$CBHV?$basic_string@DU?$char_traits@D@std@@V?$allocator@D@2@@std@@@std@@@2@$0A@@std@@@std@@QAE@ABU?$less@H@1@ABV?$allocator@U?$pair@$$CBHV?$basic_string@DU?$char_traits@D@std@@V?$allocator@D@2@@std@@@std@@@1@@Z 10013a70 f i out_saitek.obj
 0001:00012a70       ??0?$_Tree_comp@$0A@V?$_Tmap_traits@V?$basic_string@DU?$char_traits@D@std@@V?$allocator@D@2@@std@@MU?$less@V?$basic_string@DU?$char_traits@D@std@@V?$allocator@D@2@@std@@@2@V?$allocator@U?$pair@$$CBV?$basic_string@DU?$char_traits@D@std@@V?$allocator@D@2@@std@@M@std@@@2@$0A@@std@@@std@@QAE@ABU?$less@V?$basic_string@DU?$char_traits@D@std@@V?$allocator@D@2@@std@@@1@ABV?$allocator@U?$pair@$$CBV?$basic_string@DU?$char_traits@D@std@@V?$allocator@D@2@@std@@M@std@@@1@@Z 10013a70 f i fms_config.obj
 0001:00012a90       ??0?$map@V?$basic_string@DU?$char_traits@D@std@@V?$allocator@D@2@@std@@PAVfms_fp_item_t@@U?$less@V?$basic_string@DU?$char_traits@D@std@@V?$allocator@D@2@@std@@@2@V?$allocator@U?$pair@$$CBV?$basic_string@DU?$char_traits@D@std@@V?$allocator@D@2@@std@@PAVfms_fp_item_t@@@std@@@2@@std@@QAE@XZ 10013a90 f i fms_fp.obj
 0001:00012a90       ??0?$map@V?$basic_string@DU?$char_traits@D@std@@V?$allocator@D@2@@std@@HU?$less@V?$basic_string@DU?$char_traits@D@std@@V?$allocator@D@2@@std@@@2@V?$allocator@U?$pair@$$CBV?$basic_string@DU?$char_traits@D@std@@V?$allocator@D@2@@std@@H@std@@@2@@std@@QAE@XZ 10013a90 f i mfdpage.obj
 0001:00012a90       ??0?$map@V?$basic_string@DU?$char_traits@D@std@@V?$allocator@D@2@@std@@DU?$less@V?$basic_string@DU?$char_traits@D@std@@V?$allocator@D@2@@std@@@2@V?$allocator@U?$pair@$$CBV?$basic_string@DU?$char_traits@D@std@@V?$allocator@D@2@@std@@D@std@@@2@@std@@QAE@XZ 10013a90 f i mfdpage_fms.obj
 0001:00012a90       ??0?$map@V?$basic_string@DU?$char_traits@D@std@@V?$allocator@D@2@@std@@PAVfms_config_item_t@@U?$less@V?$basic_string@DU?$char_traits@D@std@@V?$allocator@D@2@@std@@@2@V?$allocator@U?$pair@$$CBV?$basic_string@DU?$char_traits@D@std@@V?$allocator@D@2@@std@@PAVfms_config_item_t@@@std@@@2@@std@@QAE@XZ 10013a90 f i fms_config.obj
 0001:00012a90       ??0?$map@V?$basic_string@DU?$char_traits@D@std@@V?$allocator@D@2@@std@@MU?$less@V?$basic_string@DU?$char_traits@D@std@@V?$allocator@D@2@@std@@@2@V?$allocator@U?$pair@$$CBV?$basic_string@DU?$char_traits@D@std@@V?$allocator@D@2@@std@@M@std@@@2@@std@@QAE@XZ 10013a90 f i fms_config.obj
 0001:00012a90       ??0?$map@HV?$basic_string@DU?$char_traits@D@std@@V?$allocator@D@2@@std@@U?$less@H@2@V?$allocator@U?$pair@$$CBHV?$basic_string@DU?$char_traits@D@std@@V?$allocator@D@2@@std@@@std@@@2@@std@@QAE@XZ 10013a90 f i out_saitek.obj
 0001:00012ac0       ??0mfdpage_type_t@@QAE@XZ  10013ac0 f i mfdpage_fms.obj
 0001:00012af0       ??4?$basic_string@DU?$char_traits@D@std@@V?$allocator@D@2@@std@@QAEAAV01@PBD@Z 10013af0 f i mfdpage_fms.obj
 0001:00012b10       ??A?$map@HPAVfms_fp_item_t@@U?$less@H@std@@V?$allocator@U?$pair@$$CBHPAVfms_fp_item_t@@@std@@@3@@std@@QAEAAPAVfms_fp_item_t@@ABH@Z 10013b10 f i mfdpage_fms.obj
 0001:00012bc0       ??A?$map@HPAVfms_fp_item_t@@U?$less@H@std@@V?$allocator@U?$pair@$$CBHPAVfms_fp_item_t@@@std@@@3@@std@@QAEAAPAVfms_fp_item_t@@$$QAH@Z 10013bc0 f i mfdpage_fms.obj
 0001:00012bc0       ??A?$map@HPAVobject_t@@U?$less@H@std@@V?$allocator@U?$pair@$$CBHPAVobject_t@@@std@@@3@@std@@QAEAAPAVobject_t@@$$QAH@Z 10013bc0 f i mfdpage_fms.obj
 0001:00012c80       ??A?$map@HV?$basic_string@DU?$char_traits@D@std@@V?$allocator@D@2@@std@@U?$less@H@2@V?$allocator@U?$pair@$$CBHV?$basic_string@DU?$char_traits@D@std@@V?$allocator@D@2@@std@@@std@@@2@@std@@QAEAAV?$basic_string@DU?$char_traits@D@std@@V?$allocator@D@2@@1@$$QAH@Z 10013c80 f i mfdpage_fms.obj
 0001:00012d40       ??A?$map@V?$basic_string@DU?$char_traits@D@std@@V?$allocator@D@2@@std@@MU?$less@V?$basic_string@DU?$char_traits@D@std@@V?$allocator@D@2@@std@@@2@V?$allocator@U?$pair@$$CBV?$basic_string@DU?$char_traits@D@std@@V?$allocator@D@2@@std@@M@std@@@2@@std@@QAEAAM$$QAV?$basic_string@DU?$char_traits@D@std@@V?$allocator@D@2@@1@@Z 10013d40 f i mfdpage_fms.obj
 0001:00012e00       ?_Buyheadnode@?$_Tree_alloc@$0A@U?$_Tree_base_types@U?$pair@$$CBV?$basic_string@DU?$char_traits@D@std@@V?$allocator@D@2@@std@@PAVfms_fp_item_t@@@std@@V?$allocator@U?$pair@$$CBV?$basic_string@DU?$char_traits@D@std@@V?$allocator@D@2@@std@@PAVfms_fp_item_t@@@std@@@2@@std@@@std@@QAEPAU?$_Tree_node@U?$pair@$$CBV?$basic_string@DU?$char_traits@D@std@@V?$allocator@D@2@@std@@PAVfms_fp_item_t@@@std@@PAX@2@XZ 10013e00 f i fms_fp.obj
 0001:00012e00       ?_Buyheadnode@?$_Tree_alloc@$0A@U?$_Tree_base_types@U?$pair@$$CBHV?$basic_string@DU?$char_traits@D@std@@V?$allocator@D@2@@std@@@std@@V?$allocator@U?$pair@$$CBHV?$basic_string@DU?$char_traits@D@std@@V?$allocator@D@2@@std@@@std@@@2@@std@@@std@@QAEPAU?$_Tree_node@U?$pair@$$CBHV?$basic_string@DU?$char_traits@D@std@@V?$allocator@D@2@@std@@@std@@PAX@2@XZ 10013e00 f i out_saitek.obj
 0001:00012e00       ?_Buyheadnode@?$_Tree_alloc@$0A@U?$_Tree_base_types@U?$pair@$$CBV?$basic_string@DU?$char_traits@D@std@@V?$allocator@D@2@@std@@M@std@@V?$allocator@U?$pair@$$CBV?$basic_string@DU?$char_traits@D@std@@V?$allocator@D@2@@std@@M@std@@@2@@std@@@std@@QAEPAU?$_Tree_node@U?$pair@$$CBV?$basic_string@DU?$char_traits@D@std@@V?$allocator@D@2@@std@@M@std@@PAX@2@XZ 10013e00 f i fms_config.obj
 0001:00012e00       ?_Buyheadnode@?$_Tree_alloc@$0A@U?$_Tree_base_types@U?$pair@$$CBV?$basic_string@DU?$char_traits@D@std@@V?$allocator@D@2@@std@@PAVfms_config_item_t@@@std@@V?$allocator@U?$pair@$$CBV?$basic_string@DU?$char_traits@D@std@@V?$allocator@D@2@@std@@PAVfms_config_item_t@@@std@@@2@@std@@@std@@QAEPAU?$_Tree_node@U?$pair@$$CBV?$basic_string@DU?$char_traits@D@std@@V?$allocator@D@2@@std@@PAVfms_config_item_t@@@std@@PAX@2@XZ 10013e00 f i fms_config.obj
 0001:00012e00       ?_Buyheadnode@?$_Tree_alloc@$0A@U?$_Tree_base_types@U?$pair@$$CBV?$basic_string@DU?$char_traits@D@std@@V?$allocator@D@2@@std@@D@std@@V?$allocator@U?$pair@$$CBV?$basic_string@DU?$char_traits@D@std@@V?$allocator@D@2@@std@@D@std@@@2@@std@@@std@@QAEPAU?$_Tree_node@U?$pair@$$CBV?$basic_string@DU?$char_traits@D@std@@V?$allocator@D@2@@std@@D@std@@PAX@2@XZ 10013e00 f i mfdpage_fms.obj
 0001:00012e00       ?_Buyheadnode@?$_Tree_alloc@$0A@U?$_Tree_base_types@U?$pair@$$CBV?$basic_string@DU?$char_traits@D@std@@V?$allocator@D@2@@std@@H@std@@V?$allocator@U?$pair@$$CBV?$basic_string@DU?$char_traits@D@std@@V?$allocator@D@2@@std@@H@std@@@2@@std@@@std@@QAEPAU?$_Tree_node@U?$pair@$$CBV?$basic_string@DU?$char_traits@D@std@@V?$allocator@D@2@@std@@H@std@@PAX@2@XZ 10013e00 f i mfdpage.obj
 0001:00012f50       ?_Buynode0@?$_Tree_buy@U?$pair@$$CBHM@std@@V?$allocator@U?$pair@$$CBHM@std@@@2@@std@@QAEPAU?$_Tree_node@U?$pair@$$CBHM@std@@PAX@2@XZ 10013f50 f i fms_config.obj
 0001:00012f50       ?_Buynode0@?$_Tree_buy@U?$pair@$$CBHPAVfms_fp_item_t@@@std@@V?$allocator@U?$pair@$$CBHPAVfms_fp_item_t@@@std@@@2@@std@@QAEPAU?$_Tree_node@U?$pair@$$CBHPAVfms_fp_item_t@@@std@@PAX@2@XZ 10013f50 f i mfdpage_fms.obj
 0001:00012f50       ?_Buynode0@?$_Tree_buy@U?$pair@$$CBHPAVobject_t@@@std@@V?$allocator@U?$pair@$$CBHPAVobject_t@@@std@@@2@@std@@QAEPAU?$_Tree_node@U?$pair@$$CBHPAVobject_t@@@std@@PAX@2@XZ 10013f50 f i mfdpage.obj
 0001:00013080       ?_Destroy_if_not_nil@?$_Tree@V?$_Tmap_traits@HPAVfms_fp_item_t@@U?$less@H@std@@V?$allocator@U?$pair@$$CBHPAVfms_fp_item_t@@@std@@@3@$0A@@std@@@std@@IAEXPAU?$_Tree_node@U?$pair@$$CBHPAVfms_fp_item_t@@@std@@PAX@2@@Z 10014080 f i mfdpage_fms.obj
 0001:00013080       ?_Destroy_if_not_nil@?$_Tree@V?$_Tmap_traits@HMU?$less@H@std@@V?$allocator@U?$pair@$$CBHM@std@@@2@$0A@@std@@@std@@IAEXPAU?$_Tree_node@U?$pair@$$CBHM@std@@PAX@2@@Z 10014080 f i fms_config.obj
 0001:00013080       ?_Destroy_if_not_nil@?$_Tree@V?$_Tmap_traits@HPAVobject_t@@U?$less@H@std@@V?$allocator@U?$pair@$$CBHPAVobject_t@@@std@@@3@$0A@@std@@@std@@IAEXPAU?$_Tree_node@U?$pair@$$CBHPAVobject_t@@@std@@PAX@2@@Z 10014080 f i mfdpage.obj
 0001:000130e0       ?_Lbound@?$_Tree@V?$_Tmap_traits@V?$basic_string@DU?$char_traits@D@std@@V?$allocator@D@2@@std@@HU?$less@V?$basic_string@DU?$char_traits@D@std@@V?$allocator@D@2@@std@@@2@V?$allocator@U?$pair@$$CBV?$basic_string@DU?$char_traits@D@std@@V?$allocator@D@2@@std@@H@std@@@2@$0A@@std@@@std@@IAEPAU?$_Tree_node@U?$pair@$$CBV?$basic_string@DU?$char_traits@D@std@@V?$allocator@D@2@@std@@H@std@@PAX@2@ABV?$basic_string@DU?$char_traits@D@std@@V?$allocator@D@2@@2@@Z 100140e0 f i mfdpage.obj
 0001:000130e0       ?_Lbound@?$_Tree@V?$_Tmap_traits@V?$basic_string@DU?$char_traits@D@std@@V?$allocator@D@2@@std@@PAVfms_fp_item_t@@U?$less@V?$basic_string@DU?$char_traits@D@std@@V?$allocator@D@2@@std@@@2@V?$allocator@U?$pair@$$CBV?$basic_string@DU?$char_traits@D@std@@V?$allocator@D@2@@std@@PAVfms_fp_item_t@@@std@@@2@$0A@@std@@@std@@IAEPAU?$_Tree_node@U?$pair@$$CBV?$basic_string@DU?$char_traits@D@std@@V?$allocator@D@2@@std@@PAVfms_fp_item_t@@@std@@PAX@2@ABV?$basic_string@DU?$char_traits@D@std@@V?$allocator@D@2@@2@@Z 100140e0 f i fms_fp.obj
 0001:000130e0       ?_Lbound@?$_Tree@V?$_Tmap_traits@V?$basic_string@DU?$char_traits@D@std@@V?$allocator@D@2@@std@@MU?$less@V?$basic_string@DU?$char_traits@D@std@@V?$allocator@D@2@@std@@@2@V?$allocator@U?$pair@$$CBV?$basic_string@DU?$char_traits@D@std@@V?$allocator@D@2@@std@@M@std@@@2@$0A@@std@@@std@@IAEPAU?$_Tree_node@U?$pair@$$CBV?$basic_string@DU?$char_traits@D@std@@V?$allocator@D@2@@std@@M@std@@PAX@2@ABV?$basic_string@DU?$char_traits@D@std@@V?$allocator@D@2@@2@@Z 100140e0 f i mfdpage_fms.obj
 0001:000130e0       ?_Lbound@?$_Tree@V?$_Tmap_traits@V?$basic_string@DU?$char_traits@D@std@@V?$allocator@D@2@@std@@V12@U?$less@V?$basic_string@DU?$char_traits@D@std@@V?$allocator@D@2@@std@@@2@V?$allocator@U?$pair@$$CBV?$basic_string@DU?$char_traits@D@std@@V?$allocator@D@2@@std@@V12@@std@@@2@$0A@@std@@@std@@IAEPAU?$_Tree_node@U?$pair@$$CBV?$basic_string@DU?$char_traits@D@std@@V?$allocator@D@2@@std@@V12@@std@@PAX@2@ABV?$basic_string@DU?$char_traits@D@std@@V?$allocator@D@2@@2@@Z 100140e0 f i tools.obj
 0001:000130e0       ?_Lbound@?$_Tree@V?$_Tmap_traits@V?$basic_string@DU?$char_traits@D@std@@V?$allocator@D@2@@std@@DU?$less@V?$basic_string@DU?$char_traits@D@std@@V?$allocator@D@2@@std@@@2@V?$allocator@U?$pair@$$CBV?$basic_string@DU?$char_traits@D@std@@V?$allocator@D@2@@std@@D@std@@@2@$0A@@std@@@std@@IAEPAU?$_Tree_node@U?$pair@$$CBV?$basic_string@DU?$char_traits@D@std@@V?$allocator@D@2@@std@@D@std@@PAX@2@ABV?$basic_string@DU?$char_traits@D@std@@V?$allocator@D@2@@2@@Z 100140e0 f i mfdpage.obj
 0001:000130e0       ?_Lbound@?$_Tree@V?$_Tmap_traits@V?$basic_string@DU?$char_traits@D@std@@V?$allocator@D@2@@std@@PAVfms_config_item_t@@U?$less@V?$basic_string@DU?$char_traits@D@std@@V?$allocator@D@2@@std@@@2@V?$allocator@U?$pair@$$CBV?$basic_string@DU?$char_traits@D@std@@V?$allocator@D@2@@std@@PAVfms_config_item_t@@@std@@@2@$0A@@std@@@std@@IAEPAU?$_Tree_node@U?$pair@$$CBV?$basic_string@DU?$char_traits@D@std@@V?$allocator@D@2@@std@@PAVfms_config_item_t@@@std@@PAX@2@ABV?$basic_string@DU?$char_traits@D@std@@V?$allocator@D@2@@2@@Z 100140e0 f i fms_config.obj
 0001:00013180       ?allocate@?$_Wrap_alloc@V?$allocator@U?$_Tree_node@U?$pair@$$CBHPAVobject_t@@@std@@PAX@std@@@std@@@std@@QAEPAU?$_Tree_node@U?$pair@$$CBHPAVobject_t@@@std@@PAX@2@I@Z 10014180 f i mfdpage.obj
 0001:00013180       ?allocate@?$_Wrap_alloc@V?$allocator@U?$_Tree_node@U?$pair@$$CBHM@std@@PAX@std@@@std@@@std@@QAEPAU?$_Tree_node@U?$pair@$$CBHM@std@@PAX@2@I@Z 10014180 f i fms_config.obj
 0001:00013180       ?allocate@?$_Wrap_alloc@V?$allocator@U?$_Tree_node@U?$pair@$$CBHPAVfms_fp_item_t@@@std@@PAX@std@@@std@@@std@@QAEPAU?$_Tree_node@U?$pair@$$CBHPAVfms_fp_item_t@@@std@@PAX@2@I@Z 10014180 f i mfdpage_fms.obj
 0001:000131a0       ?allocate@?$allocator@U?$_Tree_node@U?$pair@$$CBHM@std@@PAX@std@@@std@@QAEPAU?$_Tree_node@U?$pair@$$CBHM@std@@PAX@2@I@Z 100141a0 f i fms_config.obj
 0001:000131a0       ?allocate@?$allocator@U?$_Tree_node@U?$pair@$$CBHPAVobject_t@@@std@@PAX@std@@@std@@QAEPAU?$_Tree_node@U?$pair@$$CBHPAVobject_t@@@std@@PAX@2@I@Z 100141a0 f i mfdpage.obj
 0001:000131a0       ?allocate@?$allocator@U?$_Tree_node@U?$pair@$$CBHPAVfms_fp_item_t@@@std@@PAX@std@@@std@@QAEPAU?$_Tree_node@U?$pair@$$CBHPAVfms_fp_item_t@@@std@@PAX@2@I@Z 100141a0 f i mfdpage_fms.obj
 0001:000131c0       ?lower_bound@?$_Tree@V?$_Tmap_traits@V?$basic_string@DU?$char_traits@D@std@@V?$allocator@D@2@@std@@HU?$less@V?$basic_string@DU?$char_traits@D@std@@V?$allocator@D@2@@std@@@2@V?$allocator@U?$pair@$$CBV?$basic_string@DU?$char_traits@D@std@@V?$allocator@D@2@@std@@H@std@@@2@$0A@@std@@@std@@QAE?AV?$_Tree_iterator@V?$_Tree_val@U?$_Tree_simple_types@U?$pair@$$CBV?$basic_string@DU?$char_traits@D@std@@V?$allocator@D@2@@std@@H@std@@@std@@@std@@@2@ABV?$basic_string@DU?$char_traits@D@std@@V?$allocator@D@2@@2@@Z 100141c0 f i mfdpage.obj
 0001:000131c0       ?lower_bound@?$_Tree@V?$_Tmap_traits@V?$basic_string@DU?$char_traits@D@std@@V?$allocator@D@2@@std@@MU?$less@V?$basic_string@DU?$char_traits@D@std@@V?$allocator@D@2@@std@@@2@V?$allocator@U?$pair@$$CBV?$basic_string@DU?$char_traits@D@std@@V?$allocator@D@2@@std@@M@std@@@2@$0A@@std@@@std@@QAE?AV?$_Tree_iterator@V?$_Tree_val@U?$_Tree_simple_types@U?$pair@$$CBV?$basic_string@DU?$char_traits@D@std@@V?$allocator@D@2@@std@@M@std@@@std@@@std@@@2@ABV?$basic_string@DU?$char_traits@D@std@@V?$allocator@D@2@@2@@Z 100141c0 f i mfdpage_fms.obj
 0001:000131c0       ?lower_bound@?$_Tree@V?$_Tmap_traits@V?$basic_string@DU?$char_traits@D@std@@V?$allocator@D@2@@std@@PAVfms_fp_item_t@@U?$less@V?$basic_string@DU?$char_traits@D@std@@V?$allocator@D@2@@std@@@2@V?$allocator@U?$pair@$$CBV?$basic_string@DU?$char_traits@D@std@@V?$allocator@D@2@@std@@PAVfms_fp_item_t@@@std@@@2@$0A@@std@@@std@@QAE?AV?$_Tree_iterator@V?$_Tree_val@U?$_Tree_simple_types@U?$pair@$$CBV?$basic_string@DU?$char_traits@D@std@@V?$allocator@D@2@@std@@PAVfms_fp_item_t@@@std@@@std@@@std@@@2@ABV?$basic_string@DU?$char_traits@D@std@@V?$allocator@D@2@@2@@Z 100141c0 f i fms_fp.obj
 0001:000131c0       ?lower_bound@?$_Tree@V?$_Tmap_traits@V?$basic_string@DU?$char_traits@D@std@@V?$allocator@D@2@@std@@DU?$less@V?$basic_string@DU?$char_traits@D@std@@V?$allocator@D@2@@std@@@2@V?$allocator@U?$pair@$$CBV?$basic_string@DU?$char_traits@D@std@@V?$allocator@D@2@@std@@D@std@@@2@$0A@@std@@@std@@QAE?AV?$_Tree_iterator@V?$_Tree_val@U?$_Tree_simple_types@U?$pair@$$CBV?$basic_string@DU?$char_traits@D@std@@V?$allocator@D@2@@std@@D@std@@@std@@@std@@@2@ABV?$basic_string@DU?$char_traits@D@std@@V?$allocator@D@2@@2@@Z 100141c0 f i mfdpage.obj
 0001:000131c0       ?lower_bound@?$_Tree@V?$_Tmap_traits@V?$basic_string@DU?$char_traits@D@std@@V?$allocator@D@2@@std@@PAVfms_config_item_t@@U?$less@V?$basic_string@DU?$char_traits@D@std@@V?$allocator@D@2@@std@@@2@V?$allocator@U?$pair@$$CBV?$basic_string@DU?$char_traits@D@std@@V?$allocator@D@2@@std@@PAVfms_config_item_t@@@std@@@2@$0A@@std@@@std@@QAE?AV?$_Tree_iterator@V?$_Tree_val@U?$_Tree_simple_types@U?$pair@$$CBV?$basic_string@DU?$char_traits@D@std@@V?$allocator@D@2@@std@@PAVfms_config_item_t@@@std@@@std@@@std@@@2@ABV?$basic_string@DU?$char_traits@D@std@@V?$allocator@D@2@@2@@Z 100141c0 f i fms_config.obj
 0001:000131c0       ?lower_bound@?$_Tree@V?$_Tmap_traits@V?$basic_string@DU?$char_traits@D@std@@V?$allocator@D@2@@std@@V12@U?$less@V?$basic_string@DU?$char_traits@D@std@@V?$allocator@D@2@@std@@@2@V?$allocator@U?$pair@$$CBV?$basic_string@DU?$char_traits@D@std@@V?$allocator@D@2@@std@@V12@@std@@@2@$0A@@std@@@std@@QAE?AV?$_Tree_iterator@V?$_Tree_val@U?$_Tree_simple_types@U?$pair@$$CBV?$basic_string@DU?$char_traits@D@std@@V?$allocator@D@2@@std@@V12@@std@@@std@@@std@@@2@ABV?$basic_string@DU?$char_traits@D@std@@V?$allocator@D@2@@2@@Z 100141c0 f i tools.obj
 0001:000131f0       ?max_size@?$_Tree@V?$_Tmap_traits@HPAVobject_t@@U?$less@H@std@@V?$allocator@U?$pair@$$CBHPAVobject_t@@@std@@@3@$0A@@std@@@std@@QBEIXZ 100141f0 f i mfdpage.obj
 0001:000131f0       ?max_size@?$_Tree@V?$_Tmap_traits@HPAVfms_fp_item_t@@U?$less@H@std@@V?$allocator@U?$pair@$$CBHPAVfms_fp_item_t@@@std@@@3@$0A@@std@@@std@@QBEIXZ 100141f0 f i mfdpage_fms.obj
 0001:000131f0       ?max_size@?$_Tree@V?$_Tmap_traits@HMU?$less@H@std@@V?$allocator@U?$pair@$$CBHM@std@@@2@$0A@@std@@@std@@QBEIXZ 100141f0 f i fms_config.obj
 0001:00013210       ?max_size@?$_Wrap_alloc@V?$allocator@U?$_Tree_node@U?$pair@$$CBHPAVfms_fp_item_t@@@std@@PAX@std@@@std@@@std@@QBEIXZ 10014210 f i mfdpage_fms.obj
 0001:00013210       ?max_size@?$_Wrap_alloc@V?$allocator@U?$_Tree_node@U?$pair@$$CBHM@std@@PAX@std@@@std@@@std@@QBEIXZ 10014210 f i fms_config.obj
 0001:00013210       ?max_size@?$_Wrap_alloc@V?$allocator@U?$_Tree_node@U?$pair@$$CBHPAVobject_t@@@std@@PAX@std@@@std@@@std@@QBEIXZ 10014210 f i mfdpage.obj
 0001:00013230       ?max_size@?$allocator@U?$_Tree_node@U?$pair@$$CBHPAVfms_fp_item_t@@@std@@PAX@std@@@std@@QBEIXZ 10014230 f i mfdpage_fms.obj
 0001:00013230       ?max_size@?$allocator@U?$_Tree_node@U?$pair@$$CBHPAVobject_t@@@std@@PAX@std@@@std@@QBEIXZ 10014230 f i mfdpage.obj
 0001:00013230       ?max_size@?$allocator@U?$_Tree_node@U?$pair@$$CBHM@std@@PAX@std@@@std@@QBEIXZ 10014230 f i fms_config.obj
 0001:00013240       ??0mfdpage_flight_t@@QAE@V?$basic_string@DU?$char_traits@D@std@@V?$allocator@D@2@@std@@@Z 10014240 f   mfdpage_flight.obj
 0001:00013290       ?get_template@mfdpage_flight_t@@UAE?AV?$basic_string@DU?$char_traits@D@std@@V?$allocator@D@2@@std@@V23@AAV?$map@HV?$basic_string@DU?$char_traits@D@std@@V?$allocator@D@2@@std@@U?$less@H@2@V?$allocator@U?$pair@$$CBHV?$basic_string@DU?$char_traits@D@std@@V?$allocator@D@2@@std@@@std@@@2@@3@@Z 10014290 f   mfdpage_flight.obj
 0001:00013840       ?do_refresh@mfdpage_flight_t@@UAEXPAVobject_t@@@Z 10014840 f   mfdpage_flight.obj
 0001:00013850       ?refresh_interval@mfdpage_flight_t@@UAEHV?$basic_string@DU?$char_traits@D@std@@V?$allocator@D@2@@std@@@Z 10014850 f   mfdpage_flight.obj
 0001:00013880       ?refresh_template@mfdpage_flight_t@@UAE?AV?$basic_string@DU?$char_traits@D@std@@V?$allocator@D@2@@std@@V23@V?$map@HPAVobject_t@@U?$less@H@std@@V?$allocator@U?$pair@$$CBHPAVobject_t@@@std@@@3@@3@0@Z 10014880 f   mfdpage_flight.obj
 0001:00014190       ?fabs@@YAMM@Z              10015190 f i mfdpage_flight.obj
 0001:000141b0       ?find@?$basic_string@DU?$char_traits@D@std@@V?$allocator@D@2@@std@@QBEIDI@Z 100151b0 f i mfdpage_flight.obj
 0001:000141d0       ?replace@?$basic_string@DU?$char_traits@D@std@@V?$allocator@D@2@@std@@QAEAAV12@IIPBD@Z 100151d0 f i mfdpage_flight.obj
 0001:00014200       _fabsf                     10015200 f i mfdpage_flight.obj
 0001:00014270       ??0mfdpage_time_t@@QAE@V?$basic_string@DU?$char_traits@D@std@@V?$allocator@D@2@@std@@@Z 10015270 f   mfdpage_time.obj
 0001:000142f0       ?get_template@mfdpage_time_t@@UAE?AV?$basic_string@DU?$char_traits@D@std@@V?$allocator@D@2@@std@@V23@AAV?$map@HV?$basic_string@DU?$char_traits@D@std@@V?$allocator@D@2@@std@@U?$less@H@2@V?$allocator@U?$pair@$$CBHV?$basic_string@DU?$char_traits@D@std@@V?$allocator@D@2@@std@@@std@@@2@@3@@Z 100152f0 f   mfdpage_time.obj
 0001:00014340       ?do_refresh@mfdpage_time_t@@UAEXPAVobject_t@@@Z 10015340 f   mfdpage_time.obj
 0001:00014390       ?refresh_interval@mfdpage_time_t@@UAEHV?$basic_string@DU?$char_traits@D@std@@V?$allocator@D@2@@std@@@Z 10015390 f   mfdpage_time.obj
 0001:000143c0       ?refresh_template@mfdpage_time_t@@UAE?AV?$basic_string@DU?$char_traits@D@std@@V?$allocator@D@2@@std@@V23@V?$map@HPAVobject_t@@U?$less@H@std@@V?$allocator@U?$pair@$$CBHPAVobject_t@@@std@@@3@@3@0@Z 100153c0 f   mfdpage_time.obj
 0001:00014580       ??0mfdpage_weather_t@@QAE@V?$basic_string@DU?$char_traits@D@std@@V?$allocator@D@2@@std@@@Z 10015580 f   mfdpage_weather.obj
 0001:000145d0       ?get_template@mfdpage_weather_t@@UAE?AV?$basic_string@DU?$char_traits@D@std@@V?$allocator@D@2@@std@@V23@AAV?$map@HV?$basic_string@DU?$char_traits@D@std@@V?$allocator@D@2@@std@@U?$less@H@2@V?$allocator@U?$pair@$$CBHV?$basic_string@DU?$char_traits@D@std@@V?$allocator@D@2@@std@@@std@@@2@@3@@Z 100155d0 f   mfdpage_weather.obj
 0001:00014b80       ?do_refresh@mfdpage_weather_t@@UAEXPAVobject_t@@@Z 10015b80 f   mfdpage_weather.obj
 0001:00014b90       ?refresh_interval@mfdpage_weather_t@@UAEHV?$basic_string@DU?$char_traits@D@std@@V?$allocator@D@2@@std@@@Z 10015b90 f   mfdpage_weather.obj
 0001:00014bc0       ?refresh_template@mfdpage_weather_t@@UAE?AV?$basic_string@DU?$char_traits@D@std@@V?$allocator@D@2@@std@@V23@V?$map@HPAVobject_t@@U?$less@H@std@@V?$allocator@U?$pair@$$CBHPAVobject_t@@@std@@@3@@3@0@Z 10015bc0 f   mfdpage_weather.obj
 0001:00015340       ??0mfdpage_std_t@@QAE@V?$basic_string@DU?$char_traits@D@std@@V?$allocator@D@2@@std@@@Z 10016340 f   mfdpage_std.obj
 0001:00015390       ?get_template@mfdpage_std_t@@UAE?AV?$basic_string@DU?$char_traits@D@std@@V?$allocator@D@2@@std@@V23@AAV?$map@HV?$basic_string@DU?$char_traits@D@std@@V?$allocator@D@2@@std@@U?$less@H@2@V?$allocator@U?$pair@$$CBHV?$basic_string@DU?$char_traits@D@std@@V?$allocator@D@2@@std@@@std@@@2@@3@@Z 10016390 f   mfdpage_std.obj
 0001:000156f0       ?do_refresh@mfdpage_std_t@@UAEXPAVobject_t@@@Z 100166f0 f   mfdpage_std.obj
 0001:00015700       ?refresh_interval@mfdpage_std_t@@UAEHV?$basic_string@DU?$char_traits@D@std@@V?$allocator@D@2@@std@@@Z 10016700 f   mfdpage_std.obj
 0001:00015780       ?refresh_template@mfdpage_std_t@@UAE?AV?$basic_string@DU?$char_traits@D@std@@V?$allocator@D@2@@std@@V23@V?$map@HPAVobject_t@@U?$less@H@std@@V?$allocator@U?$pair@$$CBHPAVobject_t@@@std@@@3@@3@0@Z 10016780 f   mfdpage_std.obj
 0001:00015b20       ??0mfdpage_led_t@@QAE@V?$basic_string@DU?$char_traits@D@std@@V?$allocator@D@2@@std@@@Z 10016b20 f   mfdpage_led.obj
 0001:00015b80       ??0mfdpage_led_t@@QAE@V?$basic_string@DU?$char_traits@D@std@@V?$allocator@D@2@@std@@PAVout_t@@@Z 10016b80 f   mfdpage_led.obj
 0001:00015bf0       ?get_template@mfdpage_led_t@@UAE?AV?$basic_string@DU?$char_traits@D@std@@V?$allocator@D@2@@std@@V23@AAV?$map@HV?$basic_string@DU?$char_traits@D@std@@V?$allocator@D@2@@std@@U?$less@H@2@V?$allocator@U?$pair@$$CBHV?$basic_string@DU?$char_traits@D@std@@V?$allocator@D@2@@std@@@std@@@2@@3@@Z 10016bf0 f   mfdpage_led.obj
 0001:00016090       ?do_refresh@mfdpage_led_t@@UAEXPAVobject_t@@@Z 10017090 f   mfdpage_led.obj
 0001:00016750       ?refresh_interval@mfdpage_led_t@@UAEHV?$basic_string@DU?$char_traits@D@std@@V?$allocator@D@2@@std@@@Z 10017750 f   mfdpage_led.obj
 0001:00016780       ?refresh_template@mfdpage_led_t@@UAE?AV?$basic_string@DU?$char_traits@D@std@@V?$allocator@D@2@@std@@V23@V?$map@HPAVobject_t@@U?$less@H@std@@V?$allocator@U?$pair@$$CBHPAVobject_t@@@std@@@3@@3@0@Z 10017780 f   mfdpage_led.obj
 0001:000167c0       ?set_led_by_name@mfdpage_led_t@@AAAXHPBDH0ZZ 100177c0 f   mfdpage_led.obj
 0001:00016f90       ??$?0V?$basic_string@DU?$char_traits@D@std@@V?$allocator@D@2@@std@@V01@X@?$pair@$$CBV?$basic_string@DU?$char_traits@D@std@@V?$allocator@D@2@@std@@V12@@std@@QAE@$$QAV?$basic_string@DU?$char_traits@D@std@@V?$allocator@D@2@@1@0@Z 10017f90 f i mfdpage_led.obj
 0001:00016fd0       ??$_Buynode@V?$basic_string@DU?$char_traits@D@std@@V?$allocator@D@2@@std@@V12@@?$_Tree_buy@U?$pair@$$CBV?$basic_string@DU?$char_traits@D@std@@V?$allocator@D@2@@std@@V12@@std@@V?$allocator@U?$pair@$$CBV?$basic_string@DU?$char_traits@D@std@@V?$allocator@D@2@@std@@V12@@std@@@2@@std@@QAEPAU?$_Tree_node@U?$pair@$$CBV?$basic_string@DU?$char_traits@D@std@@V?$allocator@D@2@@std@@V12@@std@@PAX@1@$$QAV?$basic_string@DU?$char_traits@D@std@@V?$allocator@D@2@@1@0@Z 10017fd0 f i mfdpage_led.obj
 0001:000170c0       ??$_Copy@U?$integral_constant@_N$00@std@@@?$_Tree@V?$_Tmap_traits@V?$basic_string@DU?$char_traits@D@std@@V?$allocator@D@2@@std@@V12@U?$less@V?$basic_string@DU?$char_traits@D@std@@V?$allocator@D@2@@std@@@2@V?$allocator@U?$pair@$$CBV?$basic_string@DU?$char_traits@D@std@@V?$allocator@D@2@@std@@V12@@std@@@2@$0A@@std@@@std@@IAEXABV01@U?$integral_constant@_N$00@1@@Z 100180c0 f i mfdpage_led.obj
 0001:00017180       ??$_Copy_nodes@U?$integral_constant@_N$00@std@@@?$_Tree@V?$_Tmap_traits@V?$basic_string@DU?$char_traits@D@std@@V?$allocator@D@2@@std@@V12@U?$less@V?$basic_string@DU?$char_traits@D@std@@V?$allocator@D@2@@std@@@2@V?$allocator@U?$pair@$$CBV?$basic_string@DU?$char_traits@D@std@@V?$allocator@D@2@@std@@V12@@std@@@2@$0A@@std@@@std@@IAEPAU?$_Tree_node@U?$pair@$$CBV?$basic_string@DU?$char_traits@D@std@@V?$allocator@D@2@@std@@V12@@std@@PAX@1@PAU21@0U?$integral_constant@_N$00@1@@Z 10018180 f i mfdpage_led.obj
 0001:000172e0       ??$_Copy_or_move@H@?$_Tree@V?$_Tmap_traits@V?$basic_string@DU?$char_traits@D@std@@V?$allocator@D@2@@std@@V12@U?$less@V?$basic_string@DU?$char_traits@D@std@@V?$allocator@D@2@@std@@@2@V?$allocator@U?$pair@$$CBV?$basic_string@DU?$char_traits@D@std@@V?$allocator@D@2@@std@@V12@@std@@@2@$0A@@std@@@std@@IAEPAU?$_Tree_node@U?$pair@$$CBV?$basic_string@DU?$char_traits@D@std@@V?$allocator@D@2@@std@@V12@@std@@PAX@1@PAU21@U?$integral_constant@_N$00@1@1U?$integral_constant@_N$0A@@1@H@Z 100182e0 f i mfdpage_led.obj
 0001:00017330       ??$_Swap_adl@PAU?$_Tree_node@U?$pair@$$CBV?$basic_string@DU?$char_traits@D@std@@V?$allocator@D@2@@std@@V12@@std@@PAX@std@@@std@@YAXAAPAU?$_Tree_node@U?$pair@$$CBV?$basic_string@DU?$char_traits@D@std@@V?$allocator@D@2@@std@@V12@@std@@PAX@0@0@Z 10018330 f i mfdpage_led.obj
 0001:00017350       ??$_Transform@PADV?$_String_iterator@V?$_String_val@U?$_Simple_types@D@std@@@std@@@std@@P6AHH@Z@std@@YA?AV?$_String_iterator@V?$_String_val@U?$_Simple_types@D@std@@@std@@@0@PAD0V10@P6AHH@Z@Z 10018350 f i mfdpage_led.obj
 0001:000173a0       ??$_Unchecked@V?$_String_val@U?$_Simple_types@D@std@@@std@@@std@@YAPADV?$_String_iterator@V?$_String_val@U?$_Simple_types@D@std@@@std@@@0@@Z 100183a0 f i mfdpage_led.obj
 0001:000173b0       ??$construct@U?$pair@$$CBV?$basic_string@DU?$char_traits@D@std@@V?$allocator@D@2@@std@@V12@@std@@V?$basic_string@DU?$char_traits@D@std@@V?$allocator@D@2@@2@V32@@?$_Wrap_alloc@V?$allocator@U?$_Tree_node@U?$pair@$$CBV?$basic_string@DU?$char_traits@D@std@@V?$allocator@D@2@@std@@V12@@std@@PAX@std@@@std@@@std@@QAEXPAU?$pair@$$CBV?$basic_string@DU?$char_traits@D@std@@V?$allocator@D@2@@std@@V12@@1@$$QAV?$basic_string@DU?$char_traits@D@std@@V?$allocator@D@2@@1@1@Z 100183b0 f i mfdpage_led.obj
 0001:000173f0       ??$construct@U?$pair@$$CBV?$basic_string@DU?$char_traits@D@std@@V?$allocator@D@2@@std@@V12@@std@@V?$basic_string@DU?$char_traits@D@std@@V?$allocator@D@2@@2@V32@@?$allocator@U?$_Tree_node@U?$pair@$$CBV?$basic_string@DU?$char_traits@D@std@@V?$allocator@D@2@@std@@V12@@std@@PAX@std@@@std@@QAEXPAU?$pair@$$CBV?$basic_string@DU?$char_traits@D@std@@V?$allocator@D@2@@std@@V12@@1@$$QAV?$basic_string@DU?$char_traits@D@std@@V?$allocator@D@2@@1@1@Z 100183f0 f i mfdpage_led.obj
 0001:00017450       ??$construct@U?$pair@$$CBV?$basic_string@DU?$char_traits@D@std@@V?$allocator@D@2@@std@@V12@@std@@V?$basic_string@DU?$char_traits@D@std@@V?$allocator@D@2@@2@V32@@?$allocator_traits@V?$allocator@U?$_Tree_node@U?$pair@$$CBV?$basic_string@DU?$char_traits@D@std@@V?$allocator@D@2@@std@@V12@@std@@PAX@std@@@std@@@std@@SAXAAV?$allocator@U?$_Tree_node@U?$pair@$$CBV?$basic_string@DU?$char_traits@D@std@@V?$allocator@D@2@@std@@V12@@std@@PAX@std@@@1@PAU?$pair@$$CBV?$basic_string@DU?$char_traits@D@std@@V?$allocator@D@2@@std@@V12@@1@$$QAV?$basic_string@DU?$char_traits@D@std@@V?$allocator@D@2@@1@2@Z 10018450 f i mfdpage_led.obj
 0001:00017480       ??$swap@PAU?$_Tree_node@U?$pair@$$CBV?$basic_string@DU?$char_traits@D@std@@V?$allocator@D@2@@std@@V12@@std@@PAX@std@@@std@@YAXAAPAU?$_Tree_node@U?$pair@$$CBV?$basic_string@DU?$char_traits@D@std@@V?$allocator@D@2@@std@@V12@@std@@PAX@0@0@Z 10018480 f i mfdpage_led.obj
 0001:00017480       ??$swap@I@std@@YAXAAI0@Z   10018480 f i mfdpage_led.obj
 0001:000174c0       ??$transform@V?$_String_iterator@V?$_String_val@U?$_Simple_types@D@std@@@std@@@std@@V12@P6AHH@Z@std@@YA?AV?$_String_iterator@V?$_String_val@U?$_Simple_types@D@std@@@std@@@0@V10@00P6AHH@Z@Z 100184c0 f i mfdpage_led.obj
 0001:00017520       ??0?$_Tree@V?$_Tmap_traits@V?$basic_string@DU?$char_traits@D@std@@V?$allocator@D@2@@std@@V12@U?$less@V?$basic_string@DU?$char_traits@D@std@@V?$allocator@D@2@@std@@@2@V?$allocator@U?$pair@$$CBV?$basic_string@DU?$char_traits@D@std@@V?$allocator@D@2@@std@@V12@@std@@@2@$0A@@std@@@std@@QAE@ABU?$less@V?$basic_string@DU?$char_traits@D@std@@V?$allocator@D@2@@std@@@1@ABV?$allocator@U?$pair@$$CBV?$basic_string@DU?$char_traits@D@std@@V?$allocator@D@2@@std@@V12@@std@@@1@@Z 10018520 f i mfdpage_led.obj
 0001:00017540       ??0?$_Tree_alloc@$0A@U?$_Tree_base_types@U?$pair@$$CBV?$basic_string@DU?$char_traits@D@std@@V?$allocator@D@2@@std@@V12@@std@@V?$allocator@U?$pair@$$CBV?$basic_string@DU?$char_traits@D@std@@V?$allocator@D@2@@std@@V12@@std@@@2@@std@@@std@@QAE@ABV?$allocator@U?$pair@$$CBV?$basic_string@DU?$char_traits@D@std@@V?$allocator@D@2@@std@@V12@@std@@@1@@Z 10018540 f i mfdpage_led.obj
 0001:00017570       ??0?$_Tree_buy@U?$pair@$$CBV?$basic_string@DU?$char_traits@D@std@@V?$allocator@D@2@@std@@V12@@std@@V?$allocator@U?$pair@$$CBV?$basic_string@DU?$char_traits@D@std@@V?$allocator@D@2@@std@@V12@@std@@@2@@std@@QAE@ABV?$allocator@U?$pair@$$CBV?$basic_string@DU?$char_traits@D@std@@V?$allocator@D@2@@std@@V12@@std@@@1@@Z 10018570 f i mfdpage_led.obj
 0001:00017590       ??0?$_Tree_comp@$0A@V?$_Tmap_traits@V?$basic_string@DU?$char_traits@D@std@@V?$allocator@D@2@@std@@V12@U?$less@V?$basic_string@DU?$char_traits@D@std@@V?$allocator@D@2@@std@@@2@V?$allocator@U?$pair@$$CBV?$basic_string@DU?$char_traits@D@std@@V?$allocator@D@2@@std@@V12@@std@@@2@$0A@@std@@@std@@QAE@ABU?$less@V?$basic_string@DU?$char_traits@D@std@@V?$allocator@D@2@@std@@@1@ABV?$allocator@U?$pair@$$CBV?$basic_string@DU?$char_traits@D@std@@V?$allocator@D@2@@std@@V12@@std@@@1@@Z 10018590 f i mfdpage_led.obj
 0001:000175b0       ??0?$basic_string@DU?$char_traits@D@std@@V?$allocator@D@2@@std@@QAE@ABV01@IIABV?$allocator@D@1@@Z 100185b0 f i mfdpage_led.obj
 0001:000175f0       ??0?$map@V?$basic_string@DU?$char_traits@D@std@@V?$allocator@D@2@@std@@V12@U?$less@V?$basic_string@DU?$char_traits@D@std@@V?$allocator@D@2@@std@@@2@V?$allocator@U?$pair@$$CBV?$basic_string@DU?$char_traits@D@std@@V?$allocator@D@2@@std@@V12@@std@@@2@@std@@QAE@XZ 100185f0 f i mfdpage_led.obj
 0001:00017620       ??4?$_Tree@V?$_Tmap_traits@V?$basic_string@DU?$char_traits@D@std@@V?$allocator@D@2@@std@@V12@U?$less@V?$basic_string@DU?$char_traits@D@std@@V?$allocator@D@2@@std@@@2@V?$allocator@U?$pair@$$CBV?$basic_string@DU?$char_traits@D@std@@V?$allocator@D@2@@std@@V12@@std@@@2@$0A@@std@@@std@@QAEAAV01@$$QAV01@@Z 10018620 f i mfdpage_led.obj
 0001:00017670       ??4?$map@V?$basic_string@DU?$char_traits@D@std@@V?$allocator@D@2@@std@@V12@U?$less@V?$basic_string@DU?$char_traits@D@std@@V?$allocator@D@2@@std@@@2@V?$allocator@U?$pair@$$CBV?$basic_string@DU?$char_traits@D@std@@V?$allocator@D@2@@std@@V12@@std@@@2@@std@@QAEAAV01@$$QAV01@@Z 10018670 f i mfdpage_led.obj
 0001:000176a0       ??9?$_String_const_iterator@V?$_String_val@U?$_Simple_types@D@std@@@std@@@std@@QBE_NABV01@@Z 100186a0 f i mfdpage_led.obj
 0001:000176e0       ??E?$_String_const_iterator@V?$_String_val@U?$_Simple_types@D@std@@@std@@@std@@QAEAAV01@XZ 100186e0 f i mfdpage_led.obj
 0001:00017700       ??E?$_String_iterator@V?$_String_val@U?$_Simple_types@D@std@@@std@@@std@@QAEAAV01@XZ 10018700 f i mfdpage_led.obj
 0001:00017720       ??E?$_Tree_iterator@V?$_Tree_val@U?$_Tree_simple_types@U?$pair@$$CBV?$basic_string@DU?$char_traits@D@std@@V?$allocator@D@2@@std@@V12@@std@@@std@@@std@@@std@@QAEAAV01@XZ 10018720 f i mfdpage_led.obj
 0001:00017720       ??E?$_Tree_iterator@V?$_Tree_val@U?$_Tree_simple_types@U?$pair@$$CBHM@std@@@std@@@std@@@std@@QAEAAV01@XZ 10018720 f i fms_config.obj
 0001:00017720       ??E?$_Tree_iterator@V?$_Tree_val@U?$_Tree_simple_types@U?$pair@$$CBHPAVfms_fp_item_t@@@std@@@std@@@std@@@std@@QAEAAV01@XZ 10018720 f i fms_fp.obj
 0001:00017720       ??E?$_Tree_iterator@V?$_Tree_val@U?$_Tree_simple_types@U?$pair@$$CBHV?$basic_string@DU?$char_traits@D@std@@V?$allocator@D@2@@std@@@std@@@std@@@std@@@std@@QAEAAV01@XZ 10018720 f i mfdpage.obj
 0001:00017720       ??E?$_Tree_iterator@V?$_Tree_val@U?$_Tree_simple_types@U?$pair@$$CBV?$basic_string@DU?$char_traits@D@std@@V?$allocator@D@2@@std@@H@std@@@std@@@std@@@std@@QAEAAV01@XZ 10018720 f i mfdpage.obj
 0001:00017720       ??E?$_Tree_iterator@V?$_Tree_val@U?$_Tree_simple_types@U?$pair@$$CBHPAVobject_t@@@std@@@std@@@std@@@std@@QAEAAV01@XZ 10018720 f i mfdpage.obj
 0001:00017740       ??Y?$basic_string@DU?$char_traits@D@std@@V?$allocator@D@2@@std@@QAEAAV01@PBD@Z 10018740 f i mfdpage_led.obj
 0001:00017760       ?_Assign_rv@?$_Tree@V?$_Tmap_traits@V?$basic_string@DU?$char_traits@D@std@@V?$allocator@D@2@@std@@V12@U?$less@V?$basic_string@DU?$char_traits@D@std@@V?$allocator@D@2@@std@@@2@V?$allocator@U?$pair@$$CBV?$basic_string@DU?$char_traits@D@std@@V?$allocator@D@2@@std@@V12@@std@@@2@$0A@@std@@@std@@QAEX$$QAV12@@Z 10018760 f i mfdpage_led.obj
 0001:00017790       ?_Assign_rv@?$_Tree@V?$_Tmap_traits@V?$basic_string@DU?$char_traits@D@std@@V?$allocator@D@2@@std@@V12@U?$less@V?$basic_string@DU?$char_traits@D@std@@V?$allocator@D@2@@std@@@2@V?$allocator@U?$pair@$$CBV?$basic_string@DU?$char_traits@D@std@@V?$allocator@D@2@@std@@V12@@std@@@2@$0A@@std@@@std@@QAEX$$QAV12@U?$integral_constant@_N$00@2@@Z 10018790 f i mfdpage_led.obj
 0001:000177f0       ?_Assign_rv@?$_Tree@V?$_Tmap_traits@V?$basic_string@DU?$char_traits@D@std@@V?$allocator@D@2@@std@@V12@U?$less@V?$basic_string@DU?$char_traits@D@std@@V?$allocator@D@2@@std@@@2@V?$allocator@U?$pair@$$CBV?$basic_string@DU?$char_traits@D@std@@V?$allocator@D@2@@std@@V12@@std@@@2@$0A@@std@@@std@@QAEX$$QAV12@U?$integral_constant@_N$0A@@2@@Z 100187f0 f i mfdpage_led.obj
 0001:00017860       ?_Buyheadnode@?$_Tree_alloc@$0A@U?$_Tree_base_types@U?$pair@$$CBV?$basic_string@DU?$char_traits@D@std@@V?$allocator@D@2@@std@@V12@@std@@V?$allocator@U?$pair@$$CBV?$basic_string@DU?$char_traits@D@std@@V?$allocator@D@2@@std@@V12@@std@@@2@@std@@@std@@QAEPAU?$_Tree_node@U?$pair@$$CBV?$basic_string@DU?$char_traits@D@std@@V?$allocator@D@2@@std@@V12@@std@@PAX@2@XZ 10018860 f i mfdpage_led.obj
 0001:000179b0       ?append@?$basic_string@DU?$char_traits@D@std@@V?$allocator@D@2@@std@@QAEAAV12@ABV12@II@Z 100189b0 f i mfdpage_led.obj
 0001:00017a70       ?append@?$basic_string@DU?$char_traits@D@std@@V?$allocator@D@2@@std@@QAEAAV12@PBD@Z 10018a70 f i mfdpage_led.obj
 0001:00017aa0       ?append@?$basic_string@DU?$char_traits@D@std@@V?$allocator@D@2@@std@@QAEAAV12@PBDI@Z 10018aa0 f i mfdpage_led.obj
 0001:00017b50       ?substr@?$basic_string@DU?$char_traits@D@std@@V?$allocator@D@2@@std@@QBE?AV12@II@Z 10018b50 f i mfdpage_led.obj
 0001:00017b90       ??0fms_t@@QAE@XZ           10018b90 f   fms.obj
 0001:00017bd0       ??1fms_t@@QAE@XZ           10018bd0 f   fms.obj
 0001:00017c70       ?refresh@fms_t@@QAEXXZ     10018c70 f   fms.obj
 0001:00017e40       ?reset@fms_t@@QAEXXZ       10018e40 f   fms.obj
 0001:00017f40       ?load@fms_t@@QAEXXZ        10018f40 f   fms.obj
 0001:00017f80       ?displayed_index@fms_t@@QAEHXZ 10018f80 f   fms.obj
 0001:00017fd0       ?entry_name@fms_t@@QAE?AV?$basic_string@DU?$char_traits@D@std@@V?$allocator@D@2@@std@@H@Z 10018fd0 f   fms.obj
 0001:00018030       ?entry_type@fms_t@@QAE?AV?$basic_string@DU?$char_traits@D@std@@V?$allocator@D@2@@std@@H@Z 10019030 f   fms.obj
 0001:00018090       ?distance_to_entry@fms_t@@QAEMH@Z 10019090 f   fms.obj
 0001:00018180       ?remaining_distance_from_entry@fms_t@@QAEMH@Z 10019180 f   fms.obj
 0001:000181e0       ?minutes_to_entry@fms_t@@QAEMH@Z 100191e0 f   fms.obj
 0001:000182f0       ?time_to_entry@fms_t@@QAE?AV?$basic_string@DU?$char_traits@D@std@@V?$allocator@D@2@@std@@H@Z 100192f0 f   fms.obj
 0001:00018330       ?eta_to_entry@fms_t@@QAE?AV?$basic_string@DU?$char_traits@D@std@@V?$allocator@D@2@@std@@HM@Z 10019330 f   fms.obj
 0001:000183d0       ?remaining_distance@fms_t@@QAEMXZ 100193d0 f   fms.obj
 0001:000183f0       ?remaining_time@fms_t@@QAEMXZ 100193f0 f   fms.obj
 0001:00018410       ?flying_index@fms_t@@QAEHXZ 10019410 f   fms.obj
 0001:00018460       ?percentage@fms_t@@QAEMXZ  10019460 f   fms.obj
 0001:00018510       ?check_takeoff@fms_t@@QAEXM@Z 10019510 f   fms.obj
 0001:00018960       ?check_landing@fms_t@@QAEXM@Z 10019960 f   fms.obj
 0001:00018e50       ?check_position@fms_t@@QAEXXZ 10019e50 f   fms.obj
 0001:00019810       ?check_gate_departure@fms_t@@QAEXM@Z 1001a810 f   fms.obj
 0001:00019c20       ?check_gate_arrival@fms_t@@QAEXXZ 1001ac20 f   fms.obj
 0001:00019ec0       ?distance_to_current@fms_t@@AAEMXZ 1001aec0 f   fms.obj
 0001:00019f20       ?speed_to_current@fms_t@@AAEMXZ 1001af20 f   fms.obj
 0001:00019f80       ?time_to_current@fms_t@@AAEMXZ 1001af80 f   fms.obj
 0001:0001a040       ??$?9DU?$char_traits@D@std@@V?$allocator@D@1@@std@@YA_NABV?$basic_string@DU?$char_traits@D@std@@V?$allocator@D@2@@0@PBD@Z 1001b040 f i fms.obj
 0001:0001a080       ??_Gfms_config_t@@QAEPAXI@Z 1001b080 f i fms.obj
 0001:0001a0b0       ??_Gfms_fp_t@@QAEPAXI@Z    1001b0b0 f i fms.obj
 0001:0001a0e0       ??_Gfms_fuel_t@@QAEPAXI@Z  1001b0e0 f i fms.obj
 0001:0001a110       ??0fms_config_t@@QAE@XZ    1001b110 f   fms_config.obj
 0001:0001a170       ??1fms_config_t@@QAE@XZ    1001b170 f   fms_config.obj
 0001:0001a1b0       ?load@fms_config_t@@QAEXXZ 1001b1b0 f   fms_config.obj
 0001:0001a210       ?value_from_profile@fms_config_t@@QAEMV?$basic_string@DU?$char_traits@D@std@@V?$allocator@D@2@@std@@H@Z 1001b210 f   fms_config.obj
 0001:0001a400       ?load_config@fms_config_t@@AAEXXZ 1001b400 f   fms_config.obj
 0001:0001a9d0       ?load_profiles@fms_config_t@@AAEXXZ 1001b9d0 f   fms_config.obj
 0001:0001ab20       ?load_profile@fms_config_t@@AAEXV?$basic_string@DU?$char_traits@D@std@@V?$allocator@D@2@@std@@@Z 1001bb20 f   fms_config.obj
 0001:0001ace0       ?reverse_profile@fms_config_t@@AAEXV?$basic_string@DU?$char_traits@D@std@@V?$allocator@D@2@@std@@0@Z 1001bce0 f   fms_config.obj
 0001:0001ae30       ?combine_profile@fms_config_t@@AAEXV?$basic_string@DU?$char_traits@D@std@@V?$allocator@D@2@@std@@00@Z 1001be30 f   fms_config.obj
 0001:0001aff0       ?calculate_climb_desc@fms_config_t@@AAEXXZ 1001bff0 f   fms_config.obj
 0001:0001b2d0       ??0fms_config_item_t@@QAE@XZ 1001c2d0 f   fms_config.obj
 0001:0001b300       ??$?0ABH$$$V@?$pair@$$CBHM@std@@QAE@Upiecewise_construct_t@1@V?$tuple@ABH@1@V?$tuple@$$$V@1@@Z 1001c300 f i fms_config.obj
 0001:0001b340       ??$?0V?$tuple@ABH@std@@V?$tuple@$$$V@1@$0A@$S@?$pair@$$CBHM@std@@QAE@AAV?$tuple@ABH@1@AAV?$tuple@$$$V@1@U?$_Arg_idx@$0A@@1@U?$_Arg_idx@$S@1@@Z 1001c340 f i fms_config.obj
 0001:0001b380       ??$_Allocate@U?$_Tree_node@U?$pair@$$CBV?$basic_string@DU?$char_traits@D@std@@V?$allocator@D@2@@std@@M@std@@PAX@std@@@std@@YAPAU?$_Tree_node@U?$pair@$$CBV?$basic_string@DU?$char_traits@D@std@@V?$allocator@D@2@@std@@M@std@@PAX@0@IPAU10@@Z 1001c380 f i mfdpage_fms.obj
 0001:0001b380       ??$_Allocate@U?$_Tree_node@U?$pair@$$CBV?$basic_string@DU?$char_traits@D@std@@V?$allocator@D@2@@std@@PAVfms_config_item_t@@@std@@PAX@std@@@std@@YAPAU?$_Tree_node@U?$pair@$$CBV?$basic_string@DU?$char_traits@D@std@@V?$allocator@D@2@@std@@PAVfms_config_item_t@@@std@@PAX@0@IPAU10@@Z 1001c380 f i fms_config.obj
 0001:0001b380       ??$_Allocate@U?$_Tree_node@U?$pair@$$CBHV?$basic_string@DU?$char_traits@D@std@@V?$allocator@D@2@@std@@@std@@PAX@std@@@std@@YAPAU?$_Tree_node@U?$pair@$$CBHV?$basic_string@DU?$char_traits@D@std@@V?$allocator@D@2@@std@@@std@@PAX@0@IPAU10@@Z 1001c380 f i out_saitek.obj
 0001:0001b380       ??$_Allocate@U?$_Tree_node@U?$pair@$$CBV?$basic_string@DU?$char_traits@D@std@@V?$allocator@D@2@@std@@D@std@@PAX@std@@@std@@YAPAU?$_Tree_node@U?$pair@$$CBV?$basic_string@DU?$char_traits@D@std@@V?$allocator@D@2@@std@@D@std@@PAX@0@IPAU10@@Z 1001c380 f i mfdpage.obj
 0001:0001b380       ??$_Allocate@U?$_Tree_node@U?$pair@$$CBV?$basic_string@DU?$char_traits@D@std@@V?$allocator@D@2@@std@@PAVfms_fp_item_t@@@std@@PAX@std@@@std@@YAPAU?$_Tree_node@U?$pair@$$CBV?$basic_string@DU?$char_traits@D@std@@V?$allocator@D@2@@std@@PAVfms_fp_item_t@@@std@@PAX@0@IPAU10@@Z 1001c380 f i fms_fp.obj
 0001:0001b380       ??$_Allocate@U?$_Tree_node@U?$pair@$$CBV?$basic_string@DU?$char_traits@D@std@@V?$allocator@D@2@@std@@H@std@@PAX@std@@@std@@YAPAU?$_Tree_node@U?$pair@$$CBV?$basic_string@DU?$char_traits@D@std@@V?$allocator@D@2@@std@@H@std@@PAX@0@IPAU10@@Z 1001c380 f i mfdpage.obj
 0001:0001b3c0       ??$_Buynode@ABUpiecewise_construct_t@std@@V?$tuple@ABH@2@V?$tuple@$$$V@2@@?$_Tree_buy@U?$pair@$$CBHM@std@@V?$allocator@U?$pair@$$CBHM@std@@@2@@std@@QAEPAU?$_Tree_node@U?$pair@$$CBHM@std@@PAX@1@ABUpiecewise_construct_t@1@$$QAV?$tuple@ABH@1@$$QAV?$tuple@$$$V@1@@Z 1001c3c0 f i fms_config.obj
 0001:0001b4c0       ??$construct@U?$pair@$$CBHM@std@@ABUpiecewise_construct_t@2@V?$tuple@ABH@2@V?$tuple@$$$V@2@@?$_Wrap_alloc@V?$allocator@U?$_Tree_node@U?$pair@$$CBHM@std@@PAX@std@@@std@@@std@@QAEXPAU?$pair@$$CBHM@1@ABUpiecewise_construct_t@1@$$QAV?$tuple@ABH@1@$$QAV?$tuple@$$$V@1@@Z 1001c4c0 f i fms_config.obj
 0001:0001b510       ??$construct@U?$pair@$$CBHM@std@@ABUpiecewise_construct_t@2@V?$tuple@ABH@2@V?$tuple@$$$V@2@@?$allocator@U?$_Tree_node@U?$pair@$$CBHM@std@@PAX@std@@@std@@QAEXPAU?$pair@$$CBHM@1@ABUpiecewise_construct_t@1@$$QAV?$tuple@ABH@1@$$QAV?$tuple@$$$V@1@@Z 1001c510 f i fms_config.obj
 0001:0001b580       ??$construct@U?$pair@$$CBHM@std@@ABUpiecewise_construct_t@2@V?$tuple@ABH@2@V?$tuple@$$$V@2@@?$allocator_traits@V?$allocator@U?$_Tree_node@U?$pair@$$CBHM@std@@PAX@std@@@std@@@std@@SAXAAV?$allocator@U?$_Tree_node@U?$pair@$$CBHM@std@@PAX@std@@@1@PAU?$pair@$$CBHM@1@ABUpiecewise_construct_t@1@$$QAV?$tuple@ABH@1@$$QAV?$tuple@$$$V@1@@Z 1001c580 f i fms_config.obj
 0001:0001b5c0       ??$destroy@PAU?$_Tree_node@U?$pair@$$CBHPAVobject_t@@@std@@PAX@std@@@?$allocator_traits@V?$allocator@U?$_Tree_node@U?$pair@$$CBHPAVobject_t@@@std@@PAX@std@@@std@@@std@@SAXAAV?$allocator@U?$_Tree_node@U?$pair@$$CBHPAVobject_t@@@std@@PAX@std@@@1@PAPAU?$_Tree_node@U?$pair@$$CBHPAVobject_t@@@std@@PAX@1@@Z 1001c5c0 f i mfdpage.obj
 0001:0001b5c0       ??$destroy@PAU?$_Tree_node@U?$pair@$$CBV?$basic_string@DU?$char_traits@D@std@@V?$allocator@D@2@@std@@V12@@std@@PAX@std@@@?$allocator_traits@V?$allocator@U?$_Tree_node@U?$pair@$$CBV?$basic_string@DU?$char_traits@D@std@@V?$allocator@D@2@@std@@V12@@std@@PAX@std@@@std@@@std@@SAXAAV?$allocator@U?$_Tree_node@U?$pair@$$CBV?$basic_string@DU?$char_traits@D@std@@V?$allocator@D@2@@std@@V12@@std@@PAX@std@@@1@PAPAU?$_Tree_node@U?$pair@$$CBV?$basic_string@DU?$char_traits@D@std@@V?$allocator@D@2@@std@@V12@@std@@PAX@1@@Z 1001c5c0 f i tools.obj
 0001:0001b5c0       ??$destroy@PAU?$_Tree_node@U?$pair@$$CBV?$basic_string@DU?$char_traits@D@std@@V?$allocator@D@2@@std@@H@std@@PAX@std@@@?$allocator_traits@V?$allocator@U?$_Tree_node@U?$pair@$$CBV?$basic_string@DU?$char_traits@D@std@@V?$allocator@D@2@@std@@H@std@@PAX@std@@@std@@@std@@SAXAAV?$allocator@U?$_Tree_node@U?$pair@$$CBV?$basic_string@DU?$char_traits@D@std@@V?$allocator@D@2@@std@@H@std@@PAX@std@@@1@PAPAU?$_Tree_node@U?$pair@$$CBV?$basic_string@DU?$char_traits@D@std@@V?$allocator@D@2@@std@@H@std@@PAX@1@@Z 1001c5c0 f i mfdpage.obj
 0001:0001b5c0       ??$destroy@PAU?$_Tree_node@U?$pair@$$CBV?$basic_string@DU?$char_traits@D@std@@V?$allocator@D@2@@std@@PAVfms_fp_item_t@@@std@@PAX@std@@@?$allocator_traits@V?$allocator@U?$_Tree_node@U?$pair@$$CBV?$basic_string@DU?$char_traits@D@std@@V?$allocator@D@2@@std@@PAVfms_fp_item_t@@@std@@PAX@std@@@std@@@std@@SAXAAV?$allocator@U?$_Tree_node@U?$pair@$$CBV?$basic_string@DU?$char_traits@D@std@@V?$allocator@D@2@@std@@PAVfms_fp_item_t@@@std@@PAX@std@@@1@PAPAU?$_Tree_node@U?$pair@$$CBV?$basic_string@DU?$char_traits@D@std@@V?$allocator@D@2@@std@@PAVfms_fp_item_t@@@std@@PAX@1@@Z 1001c5c0 f i fms_fp.obj
 0001:0001b5c0       ??$destroy@PAVmfdpage_t@@@?$allocator_traits@V?$allocator@U?$_Tree_node@PAVmfdpage_t@@PAX@std@@@std@@@std@@SAXAAV?$allocator@U?$_Tree_node@PAVmfdpage_t@@PAX@std@@@1@PAPAVmfdpage_t@@@Z 1001c5c0 f i in.obj
 0001:0001b5c0       ??$destroy@PAU?$_Tree_node@U?$pair@$$CBHV?$basic_string@DU?$char_traits@D@std@@V?$allocator@D@2@@std@@@std@@PAX@std@@@?$allocator_traits@V?$allocator@U?$_Tree_node@U?$pair@$$CBHV?$basic_string@DU?$char_traits@D@std@@V?$allocator@D@2@@std@@@std@@PAX@std@@@std@@@std@@SAXAAV?$allocator@U?$_Tree_node@U?$pair@$$CBHV?$basic_string@DU?$char_traits@D@std@@V?$allocator@D@2@@std@@@std@@PAX@std@@@1@PAPAU?$_Tree_node@U?$pair@$$CBHV?$basic_string@DU?$char_traits@D@std@@V?$allocator@D@2@@std@@@std@@PAX@1@@Z 1001c5c0 f i out_saitek.obj
 0001:0001b5c0       ??$destroy@PAU?$_Tree_node@U?$pair@$$CBV?$basic_string@DU?$char_traits@D@std@@V?$allocator@D@2@@std@@D@std@@PAX@std@@@?$allocator_traits@V?$allocator@U?$_Tree_node@U?$pair@$$CBV?$basic_string@DU?$char_traits@D@std@@V?$allocator@D@2@@std@@D@std@@PAX@std@@@std@@@std@@SAXAAV?$allocator@U?$_Tree_node@U?$pair@$$CBV?$basic_string@DU?$char_traits@D@std@@V?$allocator@D@2@@std@@D@std@@PAX@std@@@1@PAPAU?$_Tree_node@U?$pair@$$CBV?$basic_string@DU?$char_traits@D@std@@V?$allocator@D@2@@std@@D@std@@PAX@1@@Z 1001c5c0 f i mfdpage.obj
 0001:0001b5c0       ??$destroy@PAU?$_Tree_node@PAVlistener_t@@PAX@std@@@?$allocator_traits@V?$allocator@U?$_Tree_node@PAVlistener_t@@PAX@std@@@std@@@std@@SAXAAV?$allocator@U?$_Tree_node@PAVlistener_t@@PAX@std@@@1@PAPAU?$_Tree_node@PAVlistener_t@@PAX@1@@Z 1001c5c0 f i data.obj
 0001:0001b5c0       ??$destroy@PAU?$_Tree_node@PAVobject_t@@PAX@std@@@?$allocator_traits@V?$allocator@U?$_Tree_node@PAVobject_t@@PAX@std@@@std@@@std@@SAXAAV?$allocator@U?$_Tree_node@PAVobject_t@@PAX@std@@@1@PAPAU?$_Tree_node@PAVobject_t@@PAX@1@@Z 1001c5c0 f i data.obj
 0001:0001b5c0       ??$destroy@PAU?$_Tree_node@U?$pair@$$CBV?$basic_string@DU?$char_traits@D@std@@V?$allocator@D@2@@std@@M@std@@PAX@std@@@?$allocator_traits@V?$allocator@U?$_Tree_node@U?$pair@$$CBV?$basic_string@DU?$char_traits@D@std@@V?$allocator@D@2@@std@@M@std@@PAX@std@@@std@@@std@@SAXAAV?$allocator@U?$_Tree_node@U?$pair@$$CBV?$basic_string@DU?$char_traits@D@std@@V?$allocator@D@2@@std@@M@std@@PAX@std@@@1@PAPAU?$_Tree_node@U?$pair@$$CBV?$basic_string@DU?$char_traits@D@std@@V?$allocator@D@2@@std@@M@std@@PAX@1@@Z 1001c5c0 f i mfdpage_fms.obj
 0001:0001b5c0       ??$destroy@PAVobject_t@@@?$allocator_traits@V?$allocator@U?$_Tree_node@PAVobject_t@@PAX@std@@@std@@@std@@SAXAAV?$allocator@U?$_Tree_node@PAVobject_t@@PAX@std@@@1@PAPAVobject_t@@@Z 1001c5c0 f i data.obj
 0001:0001b5c0       ??$destroy@U?$pair@$$CBHPAVobject_t@@@std@@@?$allocator_traits@V?$allocator@U?$_Tree_node@U?$pair@$$CBHPAVobject_t@@@std@@PAX@std@@@std@@@std@@SAXAAV?$allocator@U?$_Tree_node@U?$pair@$$CBHPAVobject_t@@@std@@PAX@std@@@1@PAU?$pair@$$CBHPAVobject_t@@@1@@Z 1001c5c0 f i mfdpage.obj
 0001:0001b5c0       ??$destroy@PAU?$_Tree_node@U?$pair@$$CBHPAVfms_fp_item_t@@@std@@PAX@std@@@?$allocator_traits@V?$allocator@U?$_Tree_node@U?$pair@$$CBHPAVfms_fp_item_t@@@std@@PAX@std@@@std@@@std@@SAXAAV?$allocator@U?$_Tree_node@U?$pair@$$CBHPAVfms_fp_item_t@@@std@@PAX@std@@@1@PAPAU?$_Tree_node@U?$pair@$$CBHPAVfms_fp_item_t@@@std@@PAX@1@@Z 1001c5c0 f i mfdpage_fms.obj
 0001:0001b5c0       ??$destroy@PAD@?$allocator_traits@V?$allocator@D@std@@@std@@SAXAAV?$allocator@D@1@PAPAD@Z 1001c5c0 f i main.obj
 0001:0001b5c0       ??$destroy@U?$pair@$$CBHPAVfms_fp_item_t@@@std@@@?$allocator_traits@V?$allocator@U?$_Tree_node@U?$pair@$$CBHPAVfms_fp_item_t@@@std@@PAX@std@@@std@@@std@@SAXAAV?$allocator@U?$_Tree_node@U?$pair@$$CBHPAVfms_fp_item_t@@@std@@PAX@std@@@1@PAU?$pair@$$CBHPAVfms_fp_item_t@@@1@@Z 1001c5c0 f i mfdpage_fms.obj
 0001:0001b5c0       ??$destroy@PAU?$_Tree_node@U?$pair@$$CBV?$basic_string@DU?$char_traits@D@std@@V?$allocator@D@2@@std@@PAVfms_config_item_t@@@std@@PAX@std@@@?$allocator_traits@V?$allocator@U?$_Tree_node@U?$pair@$$CBV?$basic_string@DU?$char_traits@D@std@@V?$allocator@D@2@@std@@PAVfms_config_item_t@@@std@@PAX@std@@@std@@@std@@SAXAAV?$allocator@U?$_Tree_node@U?$pair@$$CBV?$basic_string@DU?$char_traits@D@std@@V?$allocator@D@2@@std@@PAVfms_config_item_t@@@std@@PAX@std@@@1@PAPAU?$_Tree_node@U?$pair@$$CBV?$basic_string@DU?$char_traits@D@std@@V?$allocator@D@2@@std@@PAVfms_config_item_t@@@std@@PAX@1@@Z 1001c5c0 f i fms_config.obj
 0001:0001b5c0       ??$destroy@PAU?$_Tree_node@U?$pair@$$CBHM@std@@PAX@std@@@?$allocator_traits@V?$allocator@U?$_Tree_node@U?$pair@$$CBHM@std@@PAX@std@@@std@@@std@@SAXAAV?$allocator@U?$_Tree_node@U?$pair@$$CBHM@std@@PAX@std@@@1@PAPAU?$_Tree_node@U?$pair@$$CBHM@std@@PAX@1@@Z 1001c5c0 f i fms_config.obj
 0001:0001b5c0       ??$destroy@U?$pair@$$CBHM@std@@@?$allocator_traits@V?$allocator@U?$_Tree_node@U?$pair@$$CBHM@std@@PAX@std@@@std@@@std@@SAXAAV?$allocator@U?$_Tree_node@U?$pair@$$CBHM@std@@PAX@std@@@1@PAU?$pair@$$CBHM@1@@Z 1001c5c0 f i fms_config.obj
 0001:0001b5c0       ??$destroy@PAU?$_Tree_node@PAVmfdpage_t@@PAX@std@@@?$allocator_traits@V?$allocator@U?$_Tree_node@PAVmfdpage_t@@PAX@std@@@std@@@std@@SAXAAV?$allocator@U?$_Tree_node@PAVmfdpage_t@@PAX@std@@@1@PAPAU?$_Tree_node@PAVmfdpage_t@@PAX@1@@Z 1001c5c0 f i in.obj
 0001:0001b5c0       ??$destroy@PAVlistener_t@@@?$allocator_traits@V?$allocator@U?$_Tree_node@PAVlistener_t@@PAX@std@@@std@@@std@@SAXAAV?$allocator@U?$_Tree_node@PAVlistener_t@@PAX@std@@@1@PAPAVlistener_t@@@Z 1001c5c0 f i data.obj
 0001:0001b5e0       ??$emplace_hint@ABUpiecewise_construct_t@std@@V?$tuple@ABH@2@V?$tuple@$$$V@2@@?$_Tree@V?$_Tmap_traits@HMU?$less@H@std@@V?$allocator@U?$pair@$$CBHM@std@@@2@$0A@@std@@@std@@QAE?AV?$_Tree_iterator@V?$_Tree_val@U?$_Tree_simple_types@U?$pair@$$CBHM@std@@@std@@@std@@@1@V?$_Tree_const_iterator@V?$_Tree_val@U?$_Tree_simple_types@U?$pair@$$CBHM@std@@@std@@@std@@@1@ABUpiecewise_construct_t@1@$$QAV?$tuple@ABH@1@$$QAV?$tuple@$$$V@1@@Z 1001c5e0 f i fms_config.obj
 0001:0001b650       ??$emplace_hint@ABUpiecewise_construct_t@std@@V?$tuple@ABV?$basic_string@DU?$char_traits@D@std@@V?$allocator@D@2@@std@@@2@V?$tuple@$$$V@2@@?$_Tree@V?$_Tmap_traits@V?$basic_string@DU?$char_traits@D@std@@V?$allocator@D@2@@std@@PAVfms_fp_item_t@@U?$less@V?$basic_string@DU?$char_traits@D@std@@V?$allocator@D@2@@std@@@2@V?$allocator@U?$pair@$$CBV?$basic_string@DU?$char_traits@D@std@@V?$allocator@D@2@@std@@PAVfms_fp_item_t@@@std@@@2@$0A@@std@@@std@@QAE?AV?$_Tree_iterator@V?$_Tree_val@U?$_Tree_simple_types@U?$pair@$$CBV?$basic_string@DU?$char_traits@D@std@@V?$allocator@D@2@@std@@PAVfms_fp_item_t@@@std@@@std@@@std@@@1@V?$_Tree_const_iterator@V?$_Tree_val@U?$_Tree_simple_types@U?$pair@$$CBV?$basic_string@DU?$char_traits@D@std@@V?$allocator@D@2@@std@@PAVfms_fp_item_t@@@std@@@std@@@std@@@1@ABUpiecewise_construct_t@1@$$QAV?$tuple@ABV?$basic_string@DU?$char_traits@D@std@@V?$allocator@D@2@@std@@@1@$$QAV?$tuple@$$$V@1@@Z 1001c650 f i fms_fp.obj
 0001:0001b650       ??$emplace_hint@ABUpiecewise_construct_t@std@@V?$tuple@ABV?$basic_string@DU?$char_traits@D@std@@V?$allocator@D@2@@std@@@2@V?$tuple@$$$V@2@@?$_Tree@V?$_Tmap_traits@V?$basic_string@DU?$char_traits@D@std@@V?$allocator@D@2@@std@@PAVfms_config_item_t@@U?$less@V?$basic_string@DU?$char_traits@D@std@@V?$allocator@D@2@@std@@@2@V?$allocator@U?$pair@$$CBV?$basic_string@DU?$char_traits@D@std@@V?$allocator@D@2@@std@@PAVfms_config_item_t@@@std@@@2@$0A@@std@@@std@@QAE?AV?$_Tree_iterator@V?$_Tree_val@U?$_Tree_simple_types@U?$pair@$$CBV?$basic_string@DU?$char_traits@D@std@@V?$allocator@D@2@@std@@PAVfms_config_item_t@@@std@@@std@@@std@@@1@V?$_Tree_const_iterator@V?$_Tree_val@U?$_Tree_simple_types@U?$pair@$$CBV?$basic_string@DU?$char_traits@D@std@@V?$allocator@D@2@@std@@PAVfms_config_item_t@@@std@@@std@@@std@@@1@ABUpiecewise_construct_t@1@$$QAV?$tuple@ABV?$basic_string@DU?$char_traits@D@std@@V?$allocator@D@2@@std@@@1@$$QAV?$tuple@$$$V@1@@Z 1001c650 f i fms_config.obj
 0001:0001b6c0       ??0?$_Tree@V?$_Tmap_traits@HPAVobject_t@@U?$less@H@std@@V?$allocator@U?$pair@$$CBHPAVobject_t@@@std@@@3@$0A@@std@@@std@@QAE@ABU?$less@H@1@ABV?$allocator@U?$pair@$$CBHPAVobject_t@@@std@@@1@@Z 1001c6c0 f i mfdpage.obj
 0001:0001b6c0       ??0?$_Tree@V?$_Tmap_traits@HPAVfms_fp_item_t@@U?$less@H@std@@V?$allocator@U?$pair@$$CBHPAVfms_fp_item_t@@@std@@@3@$0A@@std@@@std@@QAE@ABU?$less@H@1@ABV?$allocator@U?$pair@$$CBHPAVfms_fp_item_t@@@std@@@1@@Z 1001c6c0 f i fms_fp.obj
 0001:0001b6c0       ??0?$_Tree@V?$_Tmap_traits@HMU?$less@H@std@@V?$allocator@U?$pair@$$CBHM@std@@@2@$0A@@std@@@std@@QAE@ABU?$less@H@1@ABV?$allocator@U?$pair@$$CBHM@std@@@1@@Z 1001c6c0 f i fms_config.obj
 0001:0001b6e0       ??0?$_Tree@V?$_Tmap_traits@V?$basic_string@DU?$char_traits@D@std@@V?$allocator@D@2@@std@@DU?$less@V?$basic_string@DU?$char_traits@D@std@@V?$allocator@D@2@@std@@@2@V?$allocator@U?$pair@$$CBV?$basic_string@DU?$char_traits@D@std@@V?$allocator@D@2@@std@@D@std@@@2@$0A@@std@@@std@@QAE@ABU?$less@V?$basic_string@DU?$char_traits@D@std@@V?$allocator@D@2@@std@@@1@ABV?$allocator@U?$pair@$$CBV?$basic_string@DU?$char_traits@D@std@@V?$allocator@D@2@@std@@D@std@@@1@@Z 1001c6e0 f i mfdpage_fms.obj
 0001:0001b6e0       ??0?$_Tree@V?$_Tmap_traits@HV?$basic_string@DU?$char_traits@D@std@@V?$allocator@D@2@@std@@U?$less@H@2@V?$allocator@U?$pair@$$CBHV?$basic_string@DU?$char_traits@D@std@@V?$allocator@D@2@@std@@@std@@@2@$0A@@std@@@std@@QAE@ABU?$less@H@1@ABV?$allocator@U?$pair@$$CBHV?$basic_string@DU?$char_traits@D@std@@V?$allocator@D@2@@std@@@std@@@1@@Z 1001c6e0 f i out_saitek.obj
 0001:0001b6e0       ??0?$_Tree@V?$_Tmap_traits@V?$basic_string@DU?$char_traits@D@std@@V?$allocator@D@2@@std@@PAVfms_config_item_t@@U?$less@V?$basic_string@DU?$char_traits@D@std@@V?$allocator@D@2@@std@@@2@V?$allocator@U?$pair@$$CBV?$basic_string@DU?$char_traits@D@std@@V?$allocator@D@2@@std@@PAVfms_config_item_t@@@std@@@2@$0A@@std@@@std@@QAE@ABU?$less@V?$basic_string@DU?$char_traits@D@std@@V?$allocator@D@2@@std@@@1@ABV?$allocator@U?$pair@$$CBV?$basic_string@DU?$char_traits@D@std@@V?$allocator@D@2@@std@@PAVfms_config_item_t@@@std@@@1@@Z 1001c6e0 f i fms_config.obj
 0001:0001b6e0       ??0?$_Tree@V?$_Tmap_traits@V?$basic_string@DU?$char_traits@D@std@@V?$allocator@D@2@@std@@PAVfms_fp_item_t@@U?$less@V?$basic_string@DU?$char_traits@D@std@@V?$allocator@D@2@@std@@@2@V?$allocator@U?$pair@$$CBV?$basic_string@DU?$char_traits@D@std@@V?$allocator@D@2@@std@@PAVfms_fp_item_t@@@std@@@2@$0A@@std@@@std@@QAE@ABU?$less@V?$basic_string@DU?$char_traits@D@std@@V?$allocator@D@2@@std@@@1@ABV?$allocator@U?$pair@$$CBV?$basic_string@DU?$char_traits@D@std@@V?$allocator@D@2@@std@@PAVfms_fp_item_t@@@std@@@1@@Z 1001c6e0 f i fms_fp.obj
 0001:0001b6e0       ??0?$_Tree@V?$_Tmap_traits@V?$basic_string@DU?$char_traits@D@std@@V?$allocator@D@2@@std@@HU?$less@V?$basic_string@DU?$char_traits@D@std@@V?$allocator@D@2@@std@@@2@V?$allocator@U?$pair@$$CBV?$basic_string@DU?$char_traits@D@std@@V?$allocator@D@2@@std@@H@std@@@2@$0A@@std@@@std@@QAE@ABU?$less@V?$basic_string@DU?$char_traits@D@std@@V?$allocator@D@2@@std@@@1@ABV?$allocator@U?$pair@$$CBV?$basic_string@DU?$char_traits@D@std@@V?$allocator@D@2@@std@@H@std@@@1@@Z 1001c6e0 f i mfdpage.obj
 0001:0001b6e0       ??0?$_Tree@V?$_Tmap_traits@V?$basic_string@DU?$char_traits@D@std@@V?$allocator@D@2@@std@@MU?$less@V?$basic_string@DU?$char_traits@D@std@@V?$allocator@D@2@@std@@@2@V?$allocator@U?$pair@$$CBV?$basic_string@DU?$char_traits@D@std@@V?$allocator@D@2@@std@@M@std@@@2@$0A@@std@@@std@@QAE@ABU?$less@V?$basic_string@DU?$char_traits@D@std@@V?$allocator@D@2@@std@@@1@ABV?$allocator@U?$pair@$$CBV?$basic_string@DU?$char_traits@D@std@@V?$allocator@D@2@@std@@M@std@@@1@@Z 1001c6e0 f i fms_config.obj
 0001:0001b700       ??1?$_Tree_comp@$0A@V?$_Tset_traits@PAVobject_t@@U?$less@PAVobject_t@@@std@@V?$allocator@PAVobject_t@@@3@$0A@@std@@@std@@QAE@XZ 1001c700 f i data.obj
 0001:0001b700       ??1?$_Tree_comp@$0A@V?$_Tmap_traits@HPAVfms_fp_item_t@@U?$less@H@std@@V?$allocator@U?$pair@$$CBHPAVfms_fp_item_t@@@std@@@3@$0A@@std@@@std@@QAE@XZ 1001c700 f i fms_fp.obj
 0001:0001b700       ??1?$_Tree_comp@$0A@V?$_Tmap_traits@HV?$basic_string@DU?$char_traits@D@std@@V?$allocator@D@2@@std@@U?$less@H@2@V?$allocator@U?$pair@$$CBHV?$basic_string@DU?$char_traits@D@std@@V?$allocator@D@2@@std@@@std@@@2@$0A@@std@@@std@@QAE@XZ 1001c700 f i mfdpage.obj
 0001:0001b700       ??1?$_Tree_comp@$0A@V?$_Tmap_traits@V?$basic_string@DU?$char_traits@D@std@@V?$allocator@D@2@@std@@HU?$less@V?$basic_string@DU?$char_traits@D@std@@V?$allocator@D@2@@std@@@2@V?$allocator@U?$pair@$$CBV?$basic_string@DU?$char_traits@D@std@@V?$allocator@D@2@@std@@H@std@@@2@$0A@@std@@@std@@QAE@XZ 1001c700 f i mfdpage.obj
 0001:0001b700       ??1?$_Tree_comp@$0A@V?$_Tset_traits@PAVlistener_t@@U?$less@PAVlistener_t@@@std@@V?$allocator@PAVlistener_t@@@3@$0A@@std@@@std@@QAE@XZ 1001c700 f i data.obj
 0001:0001b700       ??1?$_Tree_comp@$0A@V?$_Tset_traits@PAVmfdpage_t@@U?$less@PAVmfdpage_t@@@std@@V?$allocator@PAVmfdpage_t@@@3@$0A@@std@@@std@@QAE@XZ 1001c700 f i in.obj
 0001:0001b700       ??1?$_Tree_comp@$0A@V?$_Tmap_traits@V?$basic_string@DU?$char_traits@D@std@@V?$allocator@D@2@@std@@V12@U?$less@V?$basic_string@DU?$char_traits@D@std@@V?$allocator@D@2@@std@@@2@V?$allocator@U?$pair@$$CBV?$basic_string@DU?$char_traits@D@std@@V?$allocator@D@2@@std@@V12@@std@@@2@$0A@@std@@@std@@QAE@XZ 1001c700 f i tools.obj
 0001:0001b700       ??1?$_Tree_comp@$0A@V?$_Tmap_traits@V?$basic_string@DU?$char_traits@D@std@@V?$allocator@D@2@@std@@PAVfms_config_item_t@@U?$less@V?$basic_string@DU?$char_traits@D@std@@V?$allocator@D@2@@std@@@2@V?$allocator@U?$pair@$$CBV?$basic_string@DU?$char_traits@D@std@@V?$allocator@D@2@@std@@PAVfms_config_item_t@@@std@@@2@$0A@@std@@@std@@QAE@XZ 1001c700 f i fms_config.obj
 0001:0001b700       ??1?$_Tree_comp@$0A@V?$_Tmap_traits@V?$basic_string@DU?$char_traits@D@std@@V?$allocator@D@2@@std@@MU?$less@V?$basic_string@DU?$char_traits@D@std@@V?$allocator@D@2@@std@@@2@V?$allocator@U?$pair@$$CBV?$basic_string@DU?$char_traits@D@std@@V?$allocator@D@2@@std@@M@std@@@2@$0A@@std@@@std@@QAE@XZ 1001c700 f i fms_config.obj
 0001:0001b700       ??1?$_Tree_comp@$0A@V?$_Tmap_traits@HPAVobject_t@@U?$less@H@std@@V?$allocator@U?$pair@$$CBHPAVobject_t@@@std@@@3@$0A@@std@@@std@@QAE@XZ 1001c700 f i mfdpage.obj
 0001:0001b700       ??1?$_Tree_comp@$0A@V?$_Tmap_traits@V?$basic_string@DU?$char_traits@D@std@@V?$allocator@D@2@@std@@PAVfms_fp_item_t@@U?$less@V?$basic_string@DU?$char_traits@D@std@@V?$allocator@D@2@@std@@@2@V?$allocator@U?$pair@$$CBV?$basic_string@DU?$char_traits@D@std@@V?$allocator@D@2@@std@@PAVfms_fp_item_t@@@std@@@2@$0A@@std@@@std@@QAE@XZ 1001c700 f i fms_fp.obj
 0001:0001b720       ??9?$_Tree_const_iterator@V?$_Tree_val@U?$_Tree_simple_types@PAVlistener_t@@@std@@@std@@@std@@QBE_NABV01@@Z 1001c720 f i data.obj
 0001:0001b720       ??9?$_Tree_const_iterator@V?$_Tree_val@U?$_Tree_simple_types@U?$pair@$$CBHPAVfms_fp_item_t@@@std@@@std@@@std@@@std@@QBE_NABV01@@Z 1001c720 f i fms_fp.obj
 0001:0001b720       ??9?$_Tree_const_iterator@V?$_Tree_val@U?$_Tree_simple_types@U?$pair@$$CBHM@std@@@std@@@std@@@std@@QBE_NABV01@@Z 1001c720 f i fms_config.obj
 0001:0001b720       ??9?$_Tree_const_iterator@V?$_Tree_val@U?$_Tree_simple_types@U?$pair@$$CBV?$basic_string@DU?$char_traits@D@std@@V?$allocator@D@2@@std@@PAVfms_config_item_t@@@std@@@std@@@std@@@std@@QBE_NABV01@@Z 1001c720 f i fms_config.obj
 0001:0001b720       ??9?$_Tree_const_iterator@V?$_Tree_val@U?$_Tree_simple_types@U?$pair@$$CBV?$basic_string@DU?$char_traits@D@std@@V?$allocator@D@2@@std@@H@std@@@std@@@std@@@std@@QBE_NABV01@@Z 1001c720 f i mfdpage.obj
 0001:0001b720       ??9?$_Tree_const_iterator@V?$_Tree_val@U?$_Tree_simple_types@U?$pair@$$CBHV?$basic_string@DU?$char_traits@D@std@@V?$allocator@D@2@@std@@@std@@@std@@@std@@@std@@QBE_NABV01@@Z 1001c720 f i mfdpage.obj
 0001:0001b720       ??9?$_Tree_const_iterator@V?$_Tree_val@U?$_Tree_simple_types@U?$pair@$$CBV?$basic_string@DU?$char_traits@D@std@@V?$allocator@D@2@@std@@M@std@@@std@@@std@@@std@@QBE_NABV01@@Z 1001c720 f i fms_config.obj
 0001:0001b720       ??9?$_Tree_const_iterator@V?$_Tree_val@U?$_Tree_simple_types@U?$pair@$$CBV?$basic_string@DU?$char_traits@D@std@@V?$allocator@D@2@@std@@V12@@std@@@std@@@std@@@std@@QBE_NABV01@@Z 1001c720 f i tools.obj
 0001:0001b720       ??9?$_Tree_const_iterator@V?$_Tree_val@U?$_Tree_simple_types@U?$pair@$$CBHPAVobject_t@@@std@@@std@@@std@@@std@@QBE_NABV01@@Z 1001c720 f i mfdpage.obj
 0001:0001b720       ??9?$_Tree_const_iterator@V?$_Tree_val@U?$_Tree_simple_types@U?$pair@$$CBV?$basic_string@DU?$char_traits@D@std@@V?$allocator@D@2@@std@@PAVfms_fp_item_t@@@std@@@std@@@std@@@std@@QBE_NABV01@@Z 1001c720 f i fms_fp.obj
 0001:0001b720       ??9?$_Tree_const_iterator@V?$_Tree_val@U?$_Tree_simple_types@PAVobject_t@@@std@@@std@@@std@@QBE_NABV01@@Z 1001c720 f i data.obj
 0001:0001b720       ??9?$_Tree_const_iterator@V?$_Tree_val@U?$_Tree_simple_types@PAVmfdpage_t@@@std@@@std@@@std@@QBE_NABV01@@Z 1001c720 f i in.obj
 0001:0001b760       ??A?$map@HMU?$less@H@std@@V?$allocator@U?$pair@$$CBHM@std@@@2@@std@@QAEAAMABH@Z 1001c760 f i fms_config.obj
 0001:0001b810       ??A?$map@V?$basic_string@DU?$char_traits@D@std@@V?$allocator@D@2@@std@@PAVfms_config_item_t@@U?$less@V?$basic_string@DU?$char_traits@D@std@@V?$allocator@D@2@@std@@@2@V?$allocator@U?$pair@$$CBV?$basic_string@DU?$char_traits@D@std@@V?$allocator@D@2@@std@@PAVfms_config_item_t@@@std@@@2@@std@@QAEAAPAVfms_config_item_t@@ABV?$basic_string@DU?$char_traits@D@std@@V?$allocator@D@2@@1@@Z 1001c810 f i fms_config.obj
 0001:0001b8c0       ??D?$_Tree_iterator@V?$_Tree_val@U?$_Tree_simple_types@U?$pair@$$CBHM@std@@@std@@@std@@@std@@QBEAAU?$pair@$$CBHM@1@XZ 1001c8c0 f i fms_config.obj
 0001:0001b8c0       ??D?$_Tree_iterator@V?$_Tree_val@U?$_Tree_simple_types@U?$pair@$$CBV?$basic_string@DU?$char_traits@D@std@@V?$allocator@D@2@@std@@PAVfms_config_item_t@@@std@@@std@@@std@@@std@@QBEAAU?$pair@$$CBV?$basic_string@DU?$char_traits@D@std@@V?$allocator@D@2@@std@@PAVfms_config_item_t@@@1@XZ 1001c8c0 f i fms_config.obj
 0001:0001b8c0       ??D?$_Tree_iterator@V?$_Tree_val@U?$_Tree_simple_types@U?$pair@$$CBHV?$basic_string@DU?$char_traits@D@std@@V?$allocator@D@2@@std@@@std@@@std@@@std@@@std@@QBEAAU?$pair@$$CBHV?$basic_string@DU?$char_traits@D@std@@V?$allocator@D@2@@std@@@1@XZ 1001c8c0 f i out_saitek.obj
 0001:0001b8c0       ??D?$_Tree_iterator@V?$_Tree_val@U?$_Tree_simple_types@U?$pair@$$CBV?$basic_string@DU?$char_traits@D@std@@V?$allocator@D@2@@std@@M@std@@@std@@@std@@@std@@QBEAAU?$pair@$$CBV?$basic_string@DU?$char_traits@D@std@@V?$allocator@D@2@@std@@M@1@XZ 1001c8c0 f i mfdpage_fms.obj
 0001:0001b8c0       ??D?$_Tree_iterator@V?$_Tree_val@U?$_Tree_simple_types@U?$pair@$$CBHPAVobject_t@@@std@@@std@@@std@@@std@@QBEAAU?$pair@$$CBHPAVobject_t@@@1@XZ 1001c8c0 f i mfdpage.obj
 0001:0001b8c0       ??D?$_Tree_iterator@V?$_Tree_val@U?$_Tree_simple_types@U?$pair@$$CBV?$basic_string@DU?$char_traits@D@std@@V?$allocator@D@2@@std@@PAVfms_fp_item_t@@@std@@@std@@@std@@@std@@QBEAAU?$pair@$$CBV?$basic_string@DU?$char_traits@D@std@@V?$allocator@D@2@@std@@PAVfms_fp_item_t@@@1@XZ 1001c8c0 f i fms_fp.obj
 0001:0001b8c0       ??D?$_Tree_iterator@V?$_Tree_val@U?$_Tree_simple_types@U?$pair@$$CBV?$basic_string@DU?$char_traits@D@std@@V?$allocator@D@2@@std@@H@std@@@std@@@std@@@std@@QBEAAU?$pair@$$CBV?$basic_string@DU?$char_traits@D@std@@V?$allocator@D@2@@std@@H@1@XZ 1001c8c0 f i mfdpage.obj
 0001:0001b8c0       ??D?$_Tree_iterator@V?$_Tree_val@U?$_Tree_simple_types@U?$pair@$$CBV?$basic_string@DU?$char_traits@D@std@@V?$allocator@D@2@@std@@D@std@@@std@@@std@@@std@@QBEAAU?$pair@$$CBV?$basic_string@DU?$char_traits@D@std@@V?$allocator@D@2@@std@@D@1@XZ 1001c8c0 f i mfdpage.obj
 0001:0001b8c0       ??D?$_Tree_iterator@V?$_Tree_val@U?$_Tree_simple_types@U?$pair@$$CBHPAVfms_fp_item_t@@@std@@@std@@@std@@@std@@QBEAAU?$pair@$$CBHPAVfms_fp_item_t@@@1@XZ 1001c8c0 f i mfdpage_fms.obj
 0001:0001b8c0       ??D?$_Tree_iterator@V?$_Tree_val@U?$_Tree_simple_types@U?$pair@$$CBV?$basic_string@DU?$char_traits@D@std@@V?$allocator@D@2@@std@@V12@@std@@@std@@@std@@@std@@QBEAAU?$pair@$$CBV?$basic_string@DU?$char_traits@D@std@@V?$allocator@D@2@@std@@V12@@1@XZ 1001c8c0 f i tools.obj
 0001:0001b8e0       ??E?$_Tree_const_iterator@V?$_Tree_val@U?$_Tree_simple_types@PAVlistener_t@@@std@@@std@@@std@@QAE?AV01@H@Z 1001c8e0 f i data.obj
 0001:0001b8e0       ??E?$_Tree_const_iterator@V?$_Tree_val@U?$_Tree_simple_types@U?$pair@$$CBHPAVfms_fp_item_t@@@std@@@std@@@std@@@std@@QAE?AV01@H@Z 1001c8e0 f i fms_fp.obj
 0001:0001b8e0       ??E?$_Tree_const_iterator@V?$_Tree_val@U?$_Tree_simple_types@U?$pair@$$CBV?$basic_string@DU?$char_traits@D@std@@V?$allocator@D@2@@std@@V12@@std@@@std@@@std@@@std@@QAE?AV01@H@Z 1001c8e0 f i tools.obj
 0001:0001b8e0       ??E?$_Tree_const_iterator@V?$_Tree_val@U?$_Tree_simple_types@U?$pair@$$CBHPAVobject_t@@@std@@@std@@@std@@@std@@QAE?AV01@H@Z 1001c8e0 f i mfdpage.obj
 0001:0001b8e0       ??E?$_Tree_const_iterator@V?$_Tree_val@U?$_Tree_simple_types@U?$pair@$$CBV?$basic_string@DU?$char_traits@D@std@@V?$allocator@D@2@@std@@H@std@@@std@@@std@@@std@@QAE?AV01@H@Z 1001c8e0 f i mfdpage.obj
 0001:0001b8e0       ??E?$_Tree_const_iterator@V?$_Tree_val@U?$_Tree_simple_types@PAVobject_t@@@std@@@std@@@std@@QAE?AV01@H@Z 1001c8e0 f i data.obj
 0001:0001b8e0       ??E?$_Tree_const_iterator@V?$_Tree_val@U?$_Tree_simple_types@PAVmfdpage_t@@@std@@@std@@@std@@QAE?AV01@H@Z 1001c8e0 f i in.obj
 0001:0001b8e0       ??E?$_Tree_const_iterator@V?$_Tree_val@U?$_Tree_simple_types@U?$pair@$$CBV?$basic_string@DU?$char_traits@D@std@@V?$allocator@D@2@@std@@PAVfms_fp_item_t@@@std@@@std@@@std@@@std@@QAE?AV01@H@Z 1001c8e0 f i fms_fp.obj
 0001:0001b8e0       ??E?$_Tree_const_iterator@V?$_Tree_val@U?$_Tree_simple_types@U?$pair@$$CBV?$basic_string@DU?$char_traits@D@std@@V?$allocator@D@2@@std@@M@std@@@std@@@std@@@std@@QAE?AV01@H@Z 1001c8e0 f i fms_config.obj
 0001:0001b8e0       ??E?$_Tree_const_iterator@V?$_Tree_val@U?$_Tree_simple_types@U?$pair@$$CBV?$basic_string@DU?$char_traits@D@std@@V?$allocator@D@2@@std@@PAVfms_config_item_t@@@std@@@std@@@std@@@std@@QAE?AV01@H@Z 1001c8e0 f i fms_config.obj
 0001:0001b8e0       ??E?$_Tree_const_iterator@V?$_Tree_val@U?$_Tree_simple_types@U?$pair@$$CBHV?$basic_string@DU?$char_traits@D@std@@V?$allocator@D@2@@std@@@std@@@std@@@std@@@std@@QAE?AV01@H@Z 1001c8e0 f i mfdpage.obj
 0001:0001b910       ?_Getal@?$_Tree_alloc@$0A@U?$_Tree_base_types@U?$pair@$$CBV?$basic_string@DU?$char_traits@D@std@@V?$allocator@D@2@@std@@M@std@@V?$allocator@U?$pair@$$CBV?$basic_string@DU?$char_traits@D@std@@V?$allocator@D@2@@std@@M@std@@@2@@std@@@std@@QBE?AU?$_Wrap_alloc@V?$allocator@U?$_Tree_node@U?$pair@$$CBV?$basic_string@DU?$char_traits@D@std@@V?$allocator@D@2@@std@@M@std@@PAX@std@@@std@@@2@XZ 1001c910 f i mfdpage_fms.obj
 0001:0001b910       ?_Getal@?$_Tree_alloc@$0A@U?$_Tree_base_types@U?$pair@$$CBHPAVfms_fp_item_t@@@std@@V?$allocator@U?$pair@$$CBHPAVfms_fp_item_t@@@std@@@2@@std@@@std@@QBE?AU?$_Wrap_alloc@V?$allocator@U?$_Tree_node@U?$pair@$$CBHPAVfms_fp_item_t@@@std@@PAX@std@@@std@@@2@XZ 1001c910 f i mfdpage_fms.obj
 0001:0001b910       ?_Getal@?$_Tree_alloc@$0A@U?$_Tree_base_types@U?$pair@$$CBV?$basic_string@DU?$char_traits@D@std@@V?$allocator@D@2@@std@@PAVfms_config_item_t@@@std@@V?$allocator@U?$pair@$$CBV?$basic_string@DU?$char_traits@D@std@@V?$allocator@D@2@@std@@PAVfms_config_item_t@@@std@@@2@@std@@@std@@QBE?AU?$_Wrap_alloc@V?$allocator@U?$_Tree_node@U?$pair@$$CBV?$basic_string@DU?$char_traits@D@std@@V?$allocator@D@2@@std@@PAVfms_config_item_t@@@std@@PAX@std@@@std@@@2@XZ 1001c910 f i fms_config.obj
 0001:0001b910       ?_Getal@?$_Tree_alloc@$0A@U?$_Tree_base_types@U?$pair@$$CBV?$basic_string@DU?$char_traits@D@std@@V?$allocator@D@2@@std@@H@std@@V?$allocator@U?$pair@$$CBV?$basic_string@DU?$char_traits@D@std@@V?$allocator@D@2@@std@@H@std@@@2@@std@@@std@@QBE?AU?$_Wrap_alloc@V?$allocator@U?$_Tree_node@U?$pair@$$CBV?$basic_string@DU?$char_traits@D@std@@V?$allocator@D@2@@std@@H@std@@PAX@std@@@std@@@2@XZ 1001c910 f i mfdpage.obj
 0001:0001b910       ?_Getal@?$_Tree_alloc@$0A@U?$_Tree_base_types@PAVobject_t@@V?$allocator@PAVobject_t@@@std@@@std@@@std@@QBE?AU?$_Wrap_alloc@V?$allocator@U?$_Tree_node@PAVobject_t@@PAX@std@@@std@@@2@XZ 1001c910 f i data.obj
 0001:0001b910       ?_Getal@?$_Tree_alloc@$0A@U?$_Tree_base_types@PAVmfdpage_t@@V?$allocator@PAVmfdpage_t@@@std@@@std@@@std@@QBE?AU?$_Wrap_alloc@V?$allocator@U?$_Tree_node@PAVmfdpage_t@@PAX@std@@@std@@@2@XZ 1001c910 f i in.obj
 0001:0001b910       ?_Getal@?$_Tree_alloc@$0A@U?$_Tree_base_types@U?$pair@$$CBHM@std@@V?$allocator@U?$pair@$$CBHM@std@@@2@@std@@@std@@QBE?AU?$_Wrap_alloc@V?$allocator@U?$_Tree_node@U?$pair@$$CBHM@std@@PAX@std@@@std@@@2@XZ 1001c910 f i fms_config.obj
 0001:0001b910       ?_Getal@?$_Tree_alloc@$0A@U?$_Tree_base_types@U?$pair@$$CBV?$basic_string@DU?$char_traits@D@std@@V?$allocator@D@2@@std@@D@std@@V?$allocator@U?$pair@$$CBV?$basic_string@DU?$char_traits@D@std@@V?$allocator@D@2@@std@@D@std@@@2@@std@@@std@@QBE?AU?$_Wrap_alloc@V?$allocator@U?$_Tree_node@U?$pair@$$CBV?$basic_string@DU?$char_traits@D@std@@V?$allocator@D@2@@std@@D@std@@PAX@std@@@std@@@2@XZ 1001c910 f i mfdpage.obj
 0001:0001b910       ?_Getal@?$_Tree_alloc@$0A@U?$_Tree_base_types@U?$pair@$$CBV?$basic_string@DU?$char_traits@D@std@@V?$allocator@D@2@@std@@V12@@std@@V?$allocator@U?$pair@$$CBV?$basic_string@DU?$char_traits@D@std@@V?$allocator@D@2@@std@@V12@@std@@@2@@std@@@std@@QBE?AU?$_Wrap_alloc@V?$allocator@U?$_Tree_node@U?$pair@$$CBV?$basic_string@DU?$char_traits@D@std@@V?$allocator@D@2@@std@@V12@@std@@PAX@std@@@std@@@2@XZ 1001c910 f i tools.obj
 0001:0001b910       ?_Getal@?$_Tree_alloc@$0A@U?$_Tree_base_types@PAVlistener_t@@V?$allocator@PAVlistener_t@@@std@@@std@@@std@@QBE?AU?$_Wrap_alloc@V?$allocator@U?$_Tree_node@PAVlistener_t@@PAX@std@@@std@@@2@XZ 1001c910 f i data.obj
 0001:0001b910       ?_Getal@?$_Tree_alloc@$0A@U?$_Tree_base_types@U?$pair@$$CBV?$basic_string@DU?$char_traits@D@std@@V?$allocator@D@2@@std@@PAVfms_fp_item_t@@@std@@V?$allocator@U?$pair@$$CBV?$basic_string@DU?$char_traits@D@std@@V?$allocator@D@2@@std@@PAVfms_fp_item_t@@@std@@@2@@std@@@std@@QBE?AU?$_Wrap_alloc@V?$allocator@U?$_Tree_node@U?$pair@$$CBV?$basic_string@DU?$char_traits@D@std@@V?$allocator@D@2@@std@@PAVfms_fp_item_t@@@std@@PAX@std@@@std@@@2@XZ 1001c910 f i fms_fp.obj
 0001:0001b910       ?_Getal@?$_Tree_alloc@$0A@U?$_Tree_base_types@U?$pair@$$CBHV?$basic_string@DU?$char_traits@D@std@@V?$allocator@D@2@@std@@@std@@V?$allocator@U?$pair@$$CBHV?$basic_string@DU?$char_traits@D@std@@V?$allocator@D@2@@std@@@std@@@2@@std@@@std@@QBE?AU?$_Wrap_alloc@V?$allocator@U?$_Tree_node@U?$pair@$$CBHV?$basic_string@DU?$char_traits@D@std@@V?$allocator@D@2@@std@@@std@@PAX@std@@@std@@@2@XZ 1001c910 f i out_saitek.obj
 0001:0001b910       ?_Getal@?$_String_alloc@$0A@U?$_String_base_types@DV?$allocator@D@std@@@std@@@std@@QBE?AU?$_Wrap_alloc@V?$allocator@D@std@@@2@XZ 1001c910 f i main.obj
 0001:0001b910       ?_Getal@?$_Tree_alloc@$0A@U?$_Tree_base_types@U?$pair@$$CBHPAVobject_t@@@std@@V?$allocator@U?$pair@$$CBHPAVobject_t@@@std@@@2@@std@@@std@@QBE?AU?$_Wrap_alloc@V?$allocator@U?$_Tree_node@U?$pair@$$CBHPAVobject_t@@@std@@PAX@std@@@std@@@2@XZ 1001c910 f i mfdpage.obj
 0001:0001b930       ?_Getcomp@?$_Tree_comp@$0A@V?$_Tset_traits@PAVlistener_t@@U?$less@PAVlistener_t@@@std@@V?$allocator@PAVlistener_t@@@3@$0A@@std@@@std@@QBE?AU?$less@PAVlistener_t@@@2@XZ 1001c930 f i data.obj
 0001:0001b930       ?_Getcomp@?$_Tree_comp@$0A@V?$_Tmap_traits@V?$basic_string@DU?$char_traits@D@std@@V?$allocator@D@2@@std@@DU?$less@V?$basic_string@DU?$char_traits@D@std@@V?$allocator@D@2@@std@@@2@V?$allocator@U?$pair@$$CBV?$basic_string@DU?$char_traits@D@std@@V?$allocator@D@2@@std@@D@std@@@2@$0A@@std@@@std@@QBE?AU?$less@V?$basic_string@DU?$char_traits@D@std@@V?$allocator@D@2@@std@@@2@XZ 1001c930 f i mfdpage.obj
 0001:0001b930       ?_Getcomp@?$_Tree_comp@$0A@V?$_Tmap_traits@HMU?$less@H@std@@V?$allocator@U?$pair@$$CBHM@std@@@2@$0A@@std@@@std@@QBE?AU?$less@H@2@XZ 1001c930 f i fms_config.obj
 0001:0001b930       ?_Getcomp@?$_Tree_comp@$0A@V?$_Tmap_traits@V?$basic_string@DU?$char_traits@D@std@@V?$allocator@D@2@@std@@PAVfms_fp_item_t@@U?$less@V?$basic_string@DU?$char_traits@D@std@@V?$allocator@D@2@@std@@@2@V?$allocator@U?$pair@$$CBV?$basic_string@DU?$char_traits@D@std@@V?$allocator@D@2@@std@@PAVfms_fp_item_t@@@std@@@2@$0A@@std@@@std@@QBE?AU?$less@V?$basic_string@DU?$char_traits@D@std@@V?$allocator@D@2@@std@@@2@XZ 1001c930 f i fms_fp.obj
 0001:0001b930       ?_Getcomp@?$_Tree_comp@$0A@V?$_Tmap_traits@V?$basic_string@DU?$char_traits@D@std@@V?$allocator@D@2@@std@@V12@U?$less@V?$basic_string@DU?$char_traits@D@std@@V?$allocator@D@2@@std@@@2@V?$allocator@U?$pair@$$CBV?$basic_string@DU?$char_traits@D@std@@V?$allocator@D@2@@std@@V12@@std@@@2@$0A@@std@@@std@@QBE?AU?$less@V?$basic_string@DU?$char_traits@D@std@@V?$allocator@D@2@@std@@@2@XZ 1001c930 f i tools.obj
 0001:0001b930       ?_Getcomp@?$_Tree_comp@$0A@V?$_Tset_traits@PAVmfdpage_t@@U?$less@PAVmfdpage_t@@@std@@V?$allocator@PAVmfdpage_t@@@3@$0A@@std@@@std@@QBE?AU?$less@PAVmfdpage_t@@@2@XZ 1001c930 f i in.obj
 0001:0001b930       ?_Getcomp@?$_Tree_comp@$0A@V?$_Tmap_traits@HV?$basic_string@DU?$char_traits@D@std@@V?$allocator@D@2@@std@@U?$less@H@2@V?$allocator@U?$pair@$$CBHV?$basic_string@DU?$char_traits@D@std@@V?$allocator@D@2@@std@@@std@@@2@$0A@@std@@@std@@QBE?AU?$less@H@2@XZ 1001c930 f i out_saitek.obj
 0001:0001b930       ?_Getcomp@?$_Tree_comp@$0A@V?$_Tmap_traits@HPAVfms_fp_item_t@@U?$less@H@std@@V?$allocator@U?$pair@$$CBHPAVfms_fp_item_t@@@std@@@3@$0A@@std@@@std@@QBE?AU?$less@H@2@XZ 1001c930 f i mfdpage_fms.obj
 0001:0001b930       ?_Getcomp@?$_Tree_comp@$0A@V?$_Tmap_traits@V?$basic_string@DU?$char_traits@D@std@@V?$allocator@D@2@@std@@HU?$less@V?$basic_string@DU?$char_traits@D@std@@V?$allocator@D@2@@std@@@2@V?$allocator@U?$pair@$$CBV?$basic_string@DU?$char_traits@D@std@@V?$allocator@D@2@@std@@H@std@@@2@$0A@@std@@@std@@QBE?AU?$less@V?$basic_string@DU?$char_traits@D@std@@V?$allocator@D@2@@std@@@2@XZ 1001c930 f i mfdpage.obj
 0001:0001b930       ?_Getcomp@?$_Tree_comp@$0A@V?$_Tmap_traits@V?$basic_string@DU?$char_traits@D@std@@V?$allocator@D@2@@std@@MU?$less@V?$basic_string@DU?$char_traits@D@std@@V?$allocator@D@2@@std@@@2@V?$allocator@U?$pair@$$CBV?$basic_string@DU?$char_traits@D@std@@V?$allocator@D@2@@std@@M@std@@@2@$0A@@std@@@std@@QBE?AU?$less@V?$basic_string@DU?$char_traits@D@std@@V?$allocator@D@2@@std@@@2@XZ 1001c930 f i mfdpage_fms.obj
 0001:0001b930       ?_Getcomp@?$_Tree_comp@$0A@V?$_Tmap_traits@V?$basic_string@DU?$char_traits@D@std@@V?$allocator@D@2@@std@@PAVfms_config_item_t@@U?$less@V?$basic_string@DU?$char_traits@D@std@@V?$allocator@D@2@@std@@@2@V?$allocator@U?$pair@$$CBV?$basic_string@DU?$char_traits@D@std@@V?$allocator@D@2@@std@@PAVfms_config_item_t@@@std@@@2@$0A@@std@@@std@@QBE?AU?$less@V?$basic_string@DU?$char_traits@D@std@@V?$allocator@D@2@@std@@@2@XZ 1001c930 f i fms_config.obj
 0001:0001b930       ?_Getcomp@?$_Tree_comp@$0A@V?$_Tmap_traits@HPAVobject_t@@U?$less@H@std@@V?$allocator@U?$pair@$$CBHPAVobject_t@@@std@@@3@$0A@@std@@@std@@QBE?AU?$less@H@2@XZ 1001c930 f i mfdpage.obj
 0001:0001b930       ?_Getcomp@?$_Tree_comp@$0A@V?$_Tset_traits@PAVobject_t@@U?$less@PAVobject_t@@@std@@V?$allocator@PAVobject_t@@@3@$0A@@std@@@std@@QBE?AU?$less@PAVobject_t@@@2@XZ 1001c930 f i data.obj
 0001:0001b940       ?allocate@?$_Wrap_alloc@V?$allocator@U?$_Tree_node@U?$pair@$$CBV?$basic_string@DU?$char_traits@D@std@@V?$allocator@D@2@@std@@D@std@@PAX@std@@@std@@@std@@QAEPAU?$_Tree_node@U?$pair@$$CBV?$basic_string@DU?$char_traits@D@std@@V?$allocator@D@2@@std@@D@std@@PAX@2@I@Z 1001c940 f i mfdpage.obj
 0001:0001b940       ?allocate@?$_Wrap_alloc@V?$allocator@U?$_Tree_node@U?$pair@$$CBHV?$basic_string@DU?$char_traits@D@std@@V?$allocator@D@2@@std@@@std@@PAX@std@@@std@@@std@@QAEPAU?$_Tree_node@U?$pair@$$CBHV?$basic_string@DU?$char_traits@D@std@@V?$allocator@D@2@@std@@@std@@PAX@2@I@Z 1001c940 f i out_saitek.obj
 0001:0001b940       ?allocate@?$_Wrap_alloc@V?$allocator@U?$_Tree_node@U?$pair@$$CBV?$basic_string@DU?$char_traits@D@std@@V?$allocator@D@2@@std@@H@std@@PAX@std@@@std@@@std@@QAEPAU?$_Tree_node@U?$pair@$$CBV?$basic_string@DU?$char_traits@D@std@@V?$allocator@D@2@@std@@H@std@@PAX@2@I@Z 1001c940 f i mfdpage.obj
 0001:0001b940       ?allocate@?$_Wrap_alloc@V?$allocator@U?$_Tree_node@U?$pair@$$CBV?$basic_string@DU?$char_traits@D@std@@V?$allocator@D@2@@std@@M@std@@PAX@std@@@std@@@std@@QAEPAU?$_Tree_node@U?$pair@$$CBV?$basic_string@DU?$char_traits@D@std@@V?$allocator@D@2@@std@@M@std@@PAX@2@I@Z 1001c940 f i mfdpage_fms.obj
 0001:0001b940       ?allocate@?$_Wrap_alloc@V?$allocator@U?$_Tree_node@U?$pair@$$CBV?$basic_string@DU?$char_traits@D@std@@V?$allocator@D@2@@std@@PAVfms_fp_item_t@@@std@@PAX@std@@@std@@@std@@QAEPAU?$_Tree_node@U?$pair@$$CBV?$basic_string@DU?$char_traits@D@std@@V?$allocator@D@2@@std@@PAVfms_fp_item_t@@@std@@PAX@2@I@Z 1001c940 f i fms_fp.obj
 0001:0001b940       ?allocate@?$_Wrap_alloc@V?$allocator@U?$_Tree_node@U?$pair@$$CBV?$basic_string@DU?$char_traits@D@std@@V?$allocator@D@2@@std@@PAVfms_config_item_t@@@std@@PAX@std@@@std@@@std@@QAEPAU?$_Tree_node@U?$pair@$$CBV?$basic_string@DU?$char_traits@D@std@@V?$allocator@D@2@@std@@PAVfms_config_item_t@@@std@@PAX@2@I@Z 1001c940 f i fms_config.obj
 0001:0001b960       ?allocate@?$allocator@U?$_Tree_node@U?$pair@$$CBV?$basic_string@DU?$char_traits@D@std@@V?$allocator@D@2@@std@@D@std@@PAX@std@@@std@@QAEPAU?$_Tree_node@U?$pair@$$CBV?$basic_string@DU?$char_traits@D@std@@V?$allocator@D@2@@std@@D@std@@PAX@2@I@Z 1001c960 f i mfdpage.obj
 0001:0001b960       ?allocate@?$allocator@U?$_Tree_node@U?$pair@$$CBV?$basic_string@DU?$char_traits@D@std@@V?$allocator@D@2@@std@@PAVfms_fp_item_t@@@std@@PAX@std@@@std@@QAEPAU?$_Tree_node@U?$pair@$$CBV?$basic_string@DU?$char_traits@D@std@@V?$allocator@D@2@@std@@PAVfms_fp_item_t@@@std@@PAX@2@I@Z 1001c960 f i fms_fp.obj
 0001:0001b960       ?allocate@?$allocator@U?$_Tree_node@U?$pair@$$CBHV?$basic_string@DU?$char_traits@D@std@@V?$allocator@D@2@@std@@@std@@PAX@std@@@std@@QAEPAU?$_Tree_node@U?$pair@$$CBHV?$basic_string@DU?$char_traits@D@std@@V?$allocator@D@2@@std@@@std@@PAX@2@I@Z 1001c960 f i out_saitek.obj
 0001:0001b960       ?allocate@?$allocator@U?$_Tree_node@U?$pair@$$CBV?$basic_string@DU?$char_traits@D@std@@V?$allocator@D@2@@std@@PAVfms_config_item_t@@@std@@PAX@std@@@std@@QAEPAU?$_Tree_node@U?$pair@$$CBV?$basic_string@DU?$char_traits@D@std@@V?$allocator@D@2@@std@@PAVfms_config_item_t@@@std@@PAX@2@I@Z 1001c960 f i fms_config.obj
 0001:0001b960       ?allocate@?$allocator@U?$_Tree_node@U?$pair@$$CBV?$basic_string@DU?$char_traits@D@std@@V?$allocator@D@2@@std@@M@std@@PAX@std@@@std@@QAEPAU?$_Tree_node@U?$pair@$$CBV?$basic_string@DU?$char_traits@D@std@@V?$allocator@D@2@@std@@M@std@@PAX@2@I@Z 1001c960 f i mfdpage_fms.obj
 0001:0001b960       ?allocate@?$allocator@U?$_Tree_node@U?$pair@$$CBV?$basic_string@DU?$char_traits@D@std@@V?$allocator@D@2@@std@@H@std@@PAX@std@@@std@@QAEPAU?$_Tree_node@U?$pair@$$CBV?$basic_string@DU?$char_traits@D@std@@V?$allocator@D@2@@std@@H@std@@PAX@2@I@Z 1001c960 f i mfdpage.obj
 0001:0001b980       ?begin@?$_Tree@V?$_Tmap_traits@V?$basic_string@DU?$char_traits@D@std@@V?$allocator@D@2@@std@@PAVfms_fp_item_t@@U?$less@V?$basic_string@DU?$char_traits@D@std@@V?$allocator@D@2@@std@@@2@V?$allocator@U?$pair@$$CBV?$basic_string@DU?$char_traits@D@std@@V?$allocator@D@2@@std@@PAVfms_fp_item_t@@@std@@@2@$0A@@std@@@std@@QAE?AV?$_Tree_iterator@V?$_Tree_val@U?$_Tree_simple_types@U?$pair@$$CBV?$basic_string@DU?$char_traits@D@std@@V?$allocator@D@2@@std@@PAVfms_fp_item_t@@@std@@@std@@@std@@@2@XZ 1001c980 f i fms_fp.obj
 0001:0001b980       ?begin@?$_Tree@V?$_Tmap_traits@V?$basic_string@DU?$char_traits@D@std@@V?$allocator@D@2@@std@@HU?$less@V?$basic_string@DU?$char_traits@D@std@@V?$allocator@D@2@@std@@@2@V?$allocator@U?$pair@$$CBV?$basic_string@DU?$char_traits@D@std@@V?$allocator@D@2@@std@@H@std@@@2@$0A@@std@@@std@@QAE?AV?$_Tree_iterator@V?$_Tree_val@U?$_Tree_simple_types@U?$pair@$$CBV?$basic_string@DU?$char_traits@D@std@@V?$allocator@D@2@@std@@H@std@@@std@@@std@@@2@XZ 1001c980 f i mfdpage.obj
 0001:0001b980       ?begin@?$_Tree@V?$_Tmap_traits@V?$basic_string@DU?$char_traits@D@std@@V?$allocator@D@2@@std@@V12@U?$less@V?$basic_string@DU?$char_traits@D@std@@V?$allocator@D@2@@std@@@2@V?$allocator@U?$pair@$$CBV?$basic_string@DU?$char_traits@D@std@@V?$allocator@D@2@@std@@V12@@std@@@2@$0A@@std@@@std@@QAE?AV?$_Tree_iterator@V?$_Tree_val@U?$_Tree_simple_types@U?$pair@$$CBV?$basic_string@DU?$char_traits@D@std@@V?$allocator@D@2@@std@@V12@@std@@@std@@@std@@@2@XZ 1001c980 f i tools.obj
 0001:0001b980       ?begin@?$_Tree@V?$_Tmap_traits@V?$basic_string@DU?$char_traits@D@std@@V?$allocator@D@2@@std@@DU?$less@V?$basic_string@DU?$char_traits@D@std@@V?$allocator@D@2@@std@@@2@V?$allocator@U?$pair@$$CBV?$basic_string@DU?$char_traits@D@std@@V?$allocator@D@2@@std@@D@std@@@2@$0A@@std@@@std@@QAE?AV?$_Tree_iterator@V?$_Tree_val@U?$_Tree_simple_types@U?$pair@$$CBV?$basic_string@DU?$char_traits@D@std@@V?$allocator@D@2@@std@@D@std@@@std@@@std@@@2@XZ 1001c980 f i mfdpage.obj
 0001:0001b980       ?begin@?$_Tree@V?$_Tmap_traits@HPAVfms_fp_item_t@@U?$less@H@std@@V?$allocator@U?$pair@$$CBHPAVfms_fp_item_t@@@std@@@3@$0A@@std@@@std@@QAE?AV?$_Tree_iterator@V?$_Tree_val@U?$_Tree_simple_types@U?$pair@$$CBHPAVfms_fp_item_t@@@std@@@std@@@std@@@2@XZ 1001c980 f i mfdpage_fms.obj
 0001:0001b980       ?begin@?$_Tree@V?$_Tmap_traits@V?$basic_string@DU?$char_traits@D@std@@V?$allocator@D@2@@std@@PAVfms_config_item_t@@U?$less@V?$basic_string@DU?$char_traits@D@std@@V?$allocator@D@2@@std@@@2@V?$allocator@U?$pair@$$CBV?$basic_string@DU?$char_traits@D@std@@V?$allocator@D@2@@std@@PAVfms_config_item_t@@@std@@@2@$0A@@std@@@std@@QAE?AV?$_Tree_iterator@V?$_Tree_val@U?$_Tree_simple_types@U?$pair@$$CBV?$basic_string@DU?$char_traits@D@std@@V?$allocator@D@2@@std@@PAVfms_config_item_t@@@std@@@std@@@std@@@2@XZ 1001c980 f i fms_config.obj
 0001:0001b980       ?begin@?$_Tree@V?$_Tmap_traits@V?$basic_string@DU?$char_traits@D@std@@V?$allocator@D@2@@std@@MU?$less@V?$basic_string@DU?$char_traits@D@std@@V?$allocator@D@2@@std@@@2@V?$allocator@U?$pair@$$CBV?$basic_string@DU?$char_traits@D@std@@V?$allocator@D@2@@std@@M@std@@@2@$0A@@std@@@std@@QAE?AV?$_Tree_iterator@V?$_Tree_val@U?$_Tree_simple_types@U?$pair@$$CBV?$basic_string@DU?$char_traits@D@std@@V?$allocator@D@2@@std@@M@std@@@std@@@std@@@2@XZ 1001c980 f i mfdpage_fms.obj
 0001:0001b980       ?begin@?$_Tree@V?$_Tmap_traits@HPAVobject_t@@U?$less@H@std@@V?$allocator@U?$pair@$$CBHPAVobject_t@@@std@@@3@$0A@@std@@@std@@QAE?AV?$_Tree_iterator@V?$_Tree_val@U?$_Tree_simple_types@U?$pair@$$CBHPAVobject_t@@@std@@@std@@@std@@@2@XZ 1001c980 f i mfdpage.obj
 0001:0001b980       ?begin@?$_Tree@V?$_Tmap_traits@HMU?$less@H@std@@V?$allocator@U?$pair@$$CBHM@std@@@2@$0A@@std@@@std@@QAE?AV?$_Tree_iterator@V?$_Tree_val@U?$_Tree_simple_types@U?$pair@$$CBHM@std@@@std@@@std@@@2@XZ 1001c980 f i fms_config.obj
 0001:0001b980       ?begin@?$_Tree@V?$_Tmap_traits@HV?$basic_string@DU?$char_traits@D@std@@V?$allocator@D@2@@std@@U?$less@H@2@V?$allocator@U?$pair@$$CBHV?$basic_string@DU?$char_traits@D@std@@V?$allocator@D@2@@std@@@std@@@2@$0A@@std@@@std@@QAE?AV?$_Tree_iterator@V?$_Tree_val@U?$_Tree_simple_types@U?$pair@$$CBHV?$basic_string@DU?$char_traits@D@std@@V?$allocator@D@2@@std@@@std@@@std@@@std@@@2@XZ 1001c980 f i out_saitek.obj
 0001:0001b9b0       ?end@?$_Tree@V?$_Tmap_traits@V?$basic_string@DU?$char_traits@D@std@@V?$allocator@D@2@@std@@V12@U?$less@V?$basic_string@DU?$char_traits@D@std@@V?$allocator@D@2@@std@@@2@V?$allocator@U?$pair@$$CBV?$basic_string@DU?$char_traits@D@std@@V?$allocator@D@2@@std@@V12@@std@@@2@$0A@@std@@@std@@QAE?AV?$_Tree_iterator@V?$_Tree_val@U?$_Tree_simple_types@U?$pair@$$CBV?$basic_string@DU?$char_traits@D@std@@V?$allocator@D@2@@std@@V12@@std@@@std@@@std@@@2@XZ 1001c9b0 f i tools.obj
 0001:0001b9b0       ?end@?$_Tree@V?$_Tmap_traits@V?$basic_string@DU?$char_traits@D@std@@V?$allocator@D@2@@std@@MU?$less@V?$basic_string@DU?$char_traits@D@std@@V?$allocator@D@2@@std@@@2@V?$allocator@U?$pair@$$CBV?$basic_string@DU?$char_traits@D@std@@V?$allocator@D@2@@std@@M@std@@@2@$0A@@std@@@std@@QAE?AV?$_Tree_iterator@V?$_Tree_val@U?$_Tree_simple_types@U?$pair@$$CBV?$basic_string@DU?$char_traits@D@std@@V?$allocator@D@2@@std@@M@std@@@std@@@std@@@2@XZ 1001c9b0 f i mfdpage_fms.obj
 0001:0001b9b0       ?end@?$_Tree@V?$_Tmap_traits@V?$basic_string@DU?$char_traits@D@std@@V?$allocator@D@2@@std@@PAVfms_fp_item_t@@U?$less@V?$basic_string@DU?$char_traits@D@std@@V?$allocator@D@2@@std@@@2@V?$allocator@U?$pair@$$CBV?$basic_string@DU?$char_traits@D@std@@V?$allocator@D@2@@std@@PAVfms_fp_item_t@@@std@@@2@$0A@@std@@@std@@QAE?AV?$_Tree_iterator@V?$_Tree_val@U?$_Tree_simple_types@U?$pair@$$CBV?$basic_string@DU?$char_traits@D@std@@V?$allocator@D@2@@std@@PAVfms_fp_item_t@@@std@@@std@@@std@@@2@XZ 1001c9b0 f i fms_fp.obj
 0001:0001b9b0       ?end@?$_Tree@V?$_Tmap_traits@V?$basic_string@DU?$char_traits@D@std@@V?$allocator@D@2@@std@@HU?$less@V?$basic_string@DU?$char_traits@D@std@@V?$allocator@D@2@@std@@@2@V?$allocator@U?$pair@$$CBV?$basic_string@DU?$char_traits@D@std@@V?$allocator@D@2@@std@@H@std@@@2@$0A@@std@@@std@@QAE?AV?$_Tree_iterator@V?$_Tree_val@U?$_Tree_simple_types@U?$pair@$$CBV?$basic_string@DU?$char_traits@D@std@@V?$allocator@D@2@@std@@H@std@@@std@@@std@@@2@XZ 1001c9b0 f i mfdpage.obj
 0001:0001b9b0       ?end@?$_Tree@V?$_Tmap_traits@V?$basic_string@DU?$char_traits@D@std@@V?$allocator@D@2@@std@@PAVfms_config_item_t@@U?$less@V?$basic_string@DU?$char_traits@D@std@@V?$allocator@D@2@@std@@@2@V?$allocator@U?$pair@$$CBV?$basic_string@DU?$char_traits@D@std@@V?$allocator@D@2@@std@@PAVfms_config_item_t@@@std@@@2@$0A@@std@@@std@@QAE?AV?$_Tree_iterator@V?$_Tree_val@U?$_Tree_simple_types@U?$pair@$$CBV?$basic_string@DU?$char_traits@D@std@@V?$allocator@D@2@@std@@PAVfms_config_item_t@@@std@@@std@@@std@@@2@XZ 1001c9b0 f i fms_config.obj
 0001:0001b9b0       ?end@?$_Tree@V?$_Tmap_traits@HMU?$less@H@std@@V?$allocator@U?$pair@$$CBHM@std@@@2@$0A@@std@@@std@@QAE?AV?$_Tree_iterator@V?$_Tree_val@U?$_Tree_simple_types@U?$pair@$$CBHM@std@@@std@@@std@@@2@XZ 1001c9b0 f i fms_config.obj
 0001:0001b9b0       ?end@?$_Tree@V?$_Tmap_traits@HV?$basic_string@DU?$char_traits@D@std@@V?$allocator@D@2@@std@@U?$less@H@2@V?$allocator@U?$pair@$$CBHV?$basic_string@DU?$char_traits@D@std@@V?$allocator@D@2@@std@@@std@@@2@$0A@@std@@@std@@QAE?AV?$_Tree_iterator@V?$_Tree_val@U?$_Tree_simple_types@U?$pair@$$CBHV?$basic_string@DU?$char_traits@D@std@@V?$allocator@D@2@@std@@@std@@@std@@@std@@@2@XZ 1001c9b0 f i out_saitek.obj
 0001:0001b9b0       ?end@?$_Tree@V?$_Tmap_traits@HPAVfms_fp_item_t@@U?$less@H@std@@V?$allocator@U?$pair@$$CBHPAVfms_fp_item_t@@@std@@@3@$0A@@std@@@std@@QAE?AV?$_Tree_iterator@V?$_Tree_val@U?$_Tree_simple_types@U?$pair@$$CBHPAVfms_fp_item_t@@@std@@@std@@@std@@@2@XZ 1001c9b0 f i mfdpage_fms.obj
 0001:0001b9b0       ?end@?$_Tree@V?$_Tmap_traits@HPAVobject_t@@U?$less@H@std@@V?$allocator@U?$pair@$$CBHPAVobject_t@@@std@@@3@$0A@@std@@@std@@QAE?AV?$_Tree_iterator@V?$_Tree_val@U?$_Tree_simple_types@U?$pair@$$CBHPAVobject_t@@@std@@@std@@@std@@@2@XZ 1001c9b0 f i mfdpage.obj
 0001:0001b9b0       ?end@?$_Tree@V?$_Tmap_traits@V?$basic_string@DU?$char_traits@D@std@@V?$allocator@D@2@@std@@DU?$less@V?$basic_string@DU?$char_traits@D@std@@V?$allocator@D@2@@std@@@2@V?$allocator@U?$pair@$$CBV?$basic_string@DU?$char_traits@D@std@@V?$allocator@D@2@@std@@D@std@@@2@$0A@@std@@@std@@QAE?AV?$_Tree_iterator@V?$_Tree_val@U?$_Tree_simple_types@U?$pair@$$CBV?$basic_string@DU?$char_traits@D@std@@V?$allocator@D@2@@std@@D@std@@@std@@@std@@@2@XZ 1001c9b0 f i mfdpage.obj
 0001:0001b9e0       ?max_size@?$_Wrap_alloc@V?$allocator@U?$_Tree_node@U?$pair@$$CBV?$basic_string@DU?$char_traits@D@std@@V?$allocator@D@2@@std@@D@std@@PAX@std@@@std@@@std@@QBEIXZ 1001c9e0 f i mfdpage.obj
 0001:0001b9e0       ?max_size@?$_Wrap_alloc@V?$allocator@U?$_Tree_node@U?$pair@$$CBV?$basic_string@DU?$char_traits@D@std@@V?$allocator@D@2@@std@@PAVfms_fp_item_t@@@std@@PAX@std@@@std@@@std@@QBEIXZ 1001c9e0 f i fms_fp.obj
 0001:0001b9e0       ?max_size@?$_Wrap_alloc@V?$allocator@U?$_Tree_node@U?$pair@$$CBHV?$basic_string@DU?$char_traits@D@std@@V?$allocator@D@2@@std@@@std@@PAX@std@@@std@@@std@@QBEIXZ 1001c9e0 f i out_saitek.obj
 0001:0001b9e0       ?max_size@?$_Wrap_alloc@V?$allocator@U?$_Tree_node@U?$pair@$$CBV?$basic_string@DU?$char_traits@D@std@@V?$allocator@D@2@@std@@PAVfms_config_item_t@@@std@@PAX@std@@@std@@@std@@QBEIXZ 1001c9e0 f i fms_config.obj
 0001:0001b9e0       ?max_size@?$_Wrap_alloc@V?$allocator@U?$_Tree_node@U?$pair@$$CBV?$basic_string@DU?$char_traits@D@std@@V?$allocator@D@2@@std@@H@std@@PAX@std@@@std@@@std@@QBEIXZ 1001c9e0 f i mfdpage.obj
 0001:0001b9e0       ?max_size@?$_Wrap_alloc@V?$allocator@U?$_Tree_node@U?$pair@$$CBV?$basic_string@DU?$char_traits@D@std@@V?$allocator@D@2@@std@@M@std@@PAX@std@@@std@@@std@@QBEIXZ 1001c9e0 f i mfdpage_fms.obj
 0001:0001ba00       ??0fms_fuel_t@@QAE@XZ      1001ca00 f   fms_fuel.obj
 0001:0001ba30       ??0fms_fuel_t@@QAE@PAVfms_config_t@@@Z 1001ca30 f   fms_fuel.obj
 0001:0001ba80       ??1fms_fuel_t@@QAE@XZ      1001ca80 f   fms_fuel.obj
 0001:0001ba90       ?load@fms_fuel_t@@QAEXXZ   1001ca90 f   fms_fuel.obj
 0001:0001bac0       ?remaining@fms_fuel_t@@QAE?AV?$basic_string@DU?$char_traits@D@std@@V?$allocator@D@2@@std@@XZ 1001cac0 f   fms_fuel.obj
 0001:0001bbc0       ?fuel_flow@fms_fuel_t@@QAEMXZ 1001cbc0 f   fms_fuel.obj
 0001:0001bc20       ?num_engines@fms_fuel_t@@AAEHXZ 1001cc20 f   fms_fuel.obj
 0001:0001bc70       ?lb_to_load@fms_fuel_t@@AAEMXZ 1001cc70 f   fms_fuel.obj
 0001:0001bec0       ?fuel_on_board@fms_fuel_t@@AAEMXZ 1001cec0 f   fms_fuel.obj
 0001:0001bf20       ??0fms_fp_t@@QAE@XZ        1001cf20 f   fms_fp.obj
 0001:0001bf70       ??0fms_fp_t@@QAE@PAVfms_config_t@@@Z 1001cf70 f   fms_fp.obj
 0001:0001c050       ??1fms_fp_t@@QAE@XZ        1001d050 f   fms_fp.obj
 0001:0001c0a0       ?load@fms_fp_t@@QAEXXZ     1001d0a0 f   fms_fp.obj
 0001:0001cc90       ?status2string@fms_fp_t@@QAE?AV?$basic_string@DU?$char_traits@D@std@@V?$allocator@D@2@@std@@H@Z 1001dc90 f   fms_fp.obj
 0001:0001cdd0       ?has_changed@fms_fp_t@@QAEHV?$basic_string@DU?$char_traits@D@std@@V?$allocator@D@2@@std@@@Z 1001ddd0 f   fms_fp.obj
 0001:0001d120       ?update_expected_time@fms_fp_t@@QAEXM@Z 1001e120 f   fms_fp.obj
 0001:0001d220       ?save@fms_fp_t@@AAEXXZ     1001e220 f   fms_fp.obj
 0001:0001d690       ?num_entries@fms_fp_t@@AAEHXZ 1001e690 f   fms_fp.obj
 0001:0001d6b0       ?load_entry@fms_fp_t@@AAEXHPAVfms_fp_item_t@@@Z 1001e6b0 f   fms_fp.obj
 0001:0001d7f0       ?load_entry_type@fms_fp_t@@AAE?AV?$basic_string@DU?$char_traits@D@std@@V?$allocator@D@2@@std@@H@Z 1001e7f0 f   fms_fp.obj
 0001:0001d910       ?load_cache@fms_fp_t@@AAEXPAVfms_fp_item_t@@@Z 1001e910 f   fms_fp.obj
 0001:0001d9f0       ?load_distance@fms_fp_t@@AAEXPAVfms_fp_item_t@@0@Z 1001e9f0 f   fms_fp.obj
 0001:0001dac0       ?load_flight_status@fms_fp_t@@AAEXPAVfms_fp_item_t@@@Z 1001eac0 f   fms_fp.obj
 0001:0001dc00       ?load_time@fms_fp_t@@AAEXPAVfms_fp_item_t@@0@Z 1001ec00 f   fms_fp.obj
 0001:0001e690       ?distance_between@fms_fp_t@@AAEMPAVfms_fp_item_t@@0H@Z 1001f690 f   fms_fp.obj
 0001:0001e790       ?calculate_distance@fms_fp_t@@AAENNNNNH@Z 1001f790 f   fms_fp.obj
 0001:0001e960       ??0fms_fp_item_t@@QAE@XZ   1001f960 f   fms_fp.obj
 0001:0001ead0       ??$?0ABV?$basic_string@DU?$char_traits@D@std@@V?$allocator@D@2@@std@@$$$V@?$pair@$$CBV?$basic_string@DU?$char_traits@D@std@@V?$allocator@D@2@@std@@PAVfms_config_item_t@@@std@@QAE@Upiecewise_construct_t@1@V?$tuple@ABV?$basic_string@DU?$char_traits@D@std@@V?$allocator@D@2@@std@@@1@V?$tuple@$$$V@1@@Z 1001fad0 f i fms_config.obj
 0001:0001ead0       ??$?0ABV?$basic_string@DU?$char_traits@D@std@@V?$allocator@D@2@@std@@$$$V@?$pair@$$CBV?$basic_string@DU?$char_traits@D@std@@V?$allocator@D@2@@std@@PAVfms_fp_item_t@@@std@@QAE@Upiecewise_construct_t@1@V?$tuple@ABV?$basic_string@DU?$char_traits@D@std@@V?$allocator@D@2@@std@@@1@V?$tuple@$$$V@1@@Z 1001fad0 f i fms_fp.obj
 0001:0001eb10       ??$?0V?$tuple@ABV?$basic_string@DU?$char_traits@D@std@@V?$allocator@D@2@@std@@@std@@V?$tuple@$$$V@1@$0A@$S@?$pair@$$CBV?$basic_string@DU?$char_traits@D@std@@V?$allocator@D@2@@std@@PAVfms_fp_item_t@@@std@@QAE@AAV?$tuple@ABV?$basic_string@DU?$char_traits@D@std@@V?$allocator@D@2@@std@@@1@AAV?$tuple@$$$V@1@U?$_Arg_idx@$0A@@1@U?$_Arg_idx@$S@1@@Z 1001fb10 f i fms_fp.obj
 0001:0001eb10       ??$?0V?$tuple@ABV?$basic_string@DU?$char_traits@D@std@@V?$allocator@D@2@@std@@@std@@V?$tuple@$$$V@1@$0A@$S@?$pair@$$CBV?$basic_string@DU?$char_traits@D@std@@V?$allocator@D@2@@std@@PAVfms_config_item_t@@@std@@QAE@AAV?$tuple@ABV?$basic_string@DU?$char_traits@D@std@@V?$allocator@D@2@@std@@@1@AAV?$tuple@$$$V@1@U?$_Arg_idx@$0A@@1@U?$_Arg_idx@$S@1@@Z 1001fb10 f i fms_config.obj
 0001:0001eb50       ??$_Buynode@ABUpiecewise_construct_t@std@@V?$tuple@ABV?$basic_string@DU?$char_traits@D@std@@V?$allocator@D@2@@std@@@2@V?$tuple@$$$V@2@@?$_Tree_buy@U?$pair@$$CBV?$basic_string@DU?$char_traits@D@std@@V?$allocator@D@2@@std@@PAVfms_fp_item_t@@@std@@V?$allocator@U?$pair@$$CBV?$basic_string@DU?$char_traits@D@std@@V?$allocator@D@2@@std@@PAVfms_fp_item_t@@@std@@@2@@std@@QAEPAU?$_Tree_node@U?$pair@$$CBV?$basic_string@DU?$char_traits@D@std@@V?$allocator@D@2@@std@@PAVfms_fp_item_t@@@std@@PAX@1@ABUpiecewise_construct_t@1@$$QAV?$tuple@ABV?$basic_string@DU?$char_traits@D@std@@V?$allocator@D@2@@std@@@1@$$QAV?$tuple@$$$V@1@@Z 1001fb50 f i fms_fp.obj
 0001:0001eb50       ??$_Buynode@ABUpiecewise_construct_t@std@@V?$tuple@ABV?$basic_string@DU?$char_traits@D@std@@V?$allocator@D@2@@std@@@2@V?$tuple@$$$V@2@@?$_Tree_buy@U?$pair@$$CBV?$basic_string@DU?$char_traits@D@std@@V?$allocator@D@2@@std@@PAVfms_config_item_t@@@std@@V?$allocator@U?$pair@$$CBV?$basic_string@DU?$char_traits@D@std@@V?$allocator@D@2@@std@@PAVfms_config_item_t@@@std@@@2@@std@@QAEPAU?$_Tree_node@U?$pair@$$CBV?$basic_string@DU?$char_traits@D@std@@V?$allocator@D@2@@std@@PAVfms_config_item_t@@@std@@PAX@1@ABUpiecewise_construct_t@1@$$QAV?$tuple@ABV?$basic_string@DU?$char_traits@D@std@@V?$allocator@D@2@@std@@@1@$$QAV?$tuple@$$$V@1@@Z 1001fb50 f i fms_config.obj
 0001:0001ec50       ??$_Insert_at@AAU?$pair@$$CBV?$basic_string@DU?$char_traits@D@std@@V?$allocator@D@2@@std@@H@std@@PAU?$_Tree_node@U?$pair@$$CBV?$basic_string@DU?$char_traits@D@std@@V?$allocator@D@2@@std@@H@std@@PAX@2@@?$_Tree@V?$_Tmap_traits@V?$basic_string@DU?$char_traits@D@std@@V?$allocator@D@2@@std@@HU?$less@V?$basic_string@DU?$char_traits@D@std@@V?$allocator@D@2@@std@@@2@V?$allocator@U?$pair@$$CBV?$basic_string@DU?$char_traits@D@std@@V?$allocator@D@2@@std@@H@std@@@2@$0A@@std@@@std@@IAE?AV?$_Tree_iterator@V?$_Tree_val@U?$_Tree_simple_types@U?$pair@$$CBV?$basic_string@DU?$char_traits@D@std@@V?$allocator@D@2@@std@@H@std@@@std@@@std@@@1@_NPAU?$_Tree_node@U?$pair@$$CBV?$basic_string@DU?$char_traits@D@std@@V?$allocator@D@2@@std@@H@std@@PAX@1@AAU?$pair@$$CBV?$basic_string@DU?$char_traits@D@std@@V?$allocator@D@2@@std@@H@1@1@Z 1001fc50 f i mfdpage.obj
 0001:0001ec50       ??$_Insert_at@AAU?$pair@$$CBV?$basic_string@DU?$char_traits@D@std@@V?$allocator@D@2@@std@@D@std@@PAU?$_Tree_node@U?$pair@$$CBV?$basic_string@DU?$char_traits@D@std@@V?$allocator@D@2@@std@@D@std@@PAX@2@@?$_Tree@V?$_Tmap_traits@V?$basic_string@DU?$char_traits@D@std@@V?$allocator@D@2@@std@@DU?$less@V?$basic_string@DU?$char_traits@D@std@@V?$allocator@D@2@@std@@@2@V?$allocator@U?$pair@$$CBV?$basic_string@DU?$char_traits@D@std@@V?$allocator@D@2@@std@@D@std@@@2@$0A@@std@@@std@@IAE?AV?$_Tree_iterator@V?$_Tree_val@U?$_Tree_simple_types@U?$pair@$$CBV?$basic_string@DU?$char_traits@D@std@@V?$allocator@D@2@@std@@D@std@@@std@@@std@@@1@_NPAU?$_Tree_node@U?$pair@$$CBV?$basic_string@DU?$char_traits@D@std@@V?$allocator@D@2@@std@@D@std@@PAX@1@AAU?$pair@$$CBV?$basic_string@DU?$char_traits@D@std@@V?$allocator@D@2@@std@@D@1@1@Z 1001fc50 f i mfdpage.obj
 0001:0001ec50       ??$_Insert_at@AAU?$pair@$$CBV?$basic_string@DU?$char_traits@D@std@@V?$allocator@D@2@@std@@PAVfms_fp_item_t@@@std@@PAU?$_Tree_node@U?$pair@$$CBV?$basic_string@DU?$char_traits@D@std@@V?$allocator@D@2@@std@@PAVfms_fp_item_t@@@std@@PAX@2@@?$_Tree@V?$_Tmap_traits@V?$basic_string@DU?$char_traits@D@std@@V?$allocator@D@2@@std@@PAVfms_fp_item_t@@U?$less@V?$basic_string@DU?$char_traits@D@std@@V?$allocator@D@2@@std@@@2@V?$allocator@U?$pair@$$CBV?$basic_string@DU?$char_traits@D@std@@V?$allocator@D@2@@std@@PAVfms_fp_item_t@@@std@@@2@$0A@@std@@@std@@IAE?AV?$_Tree_iterator@V?$_Tree_val@U?$_Tree_simple_types@U?$pair@$$CBV?$basic_string@DU?$char_traits@D@std@@V?$allocator@D@2@@std@@PAVfms_fp_item_t@@@std@@@std@@@std@@@1@_NPAU?$_Tree_node@U?$pair@$$CBV?$basic_string@DU?$char_traits@D@std@@V?$allocator@D@2@@std@@PAVfms_fp_item_t@@@std@@PAX@1@AAU?$pair@$$CBV?$basic_string@DU?$char_traits@D@std@@V?$allocator@D@2@@std@@PAVfms_fp_item_t@@@1@1@Z 1001fc50 f i fms_fp.obj
 0001:0001ec50       ??$_Insert_at@AAU?$pair@$$CBV?$basic_string@DU?$char_traits@D@std@@V?$allocator@D@2@@std@@M@std@@PAU?$_Tree_node@U?$pair@$$CBV?$basic_string@DU?$char_traits@D@std@@V?$allocator@D@2@@std@@M@std@@PAX@2@@?$_Tree@V?$_Tmap_traits@V?$basic_string@DU?$char_traits@D@std@@V?$allocator@D@2@@std@@MU?$less@V?$basic_string@DU?$char_traits@D@std@@V?$allocator@D@2@@std@@@2@V?$allocator@U?$pair@$$CBV?$basic_string@DU?$char_traits@D@std@@V?$allocator@D@2@@std@@M@std@@@2@$0A@@std@@@std@@IAE?AV?$_Tree_iterator@V?$_Tree_val@U?$_Tree_simple_types@U?$pair@$$CBV?$basic_string@DU?$char_traits@D@std@@V?$allocator@D@2@@std@@M@std@@@std@@@std@@@1@_NPAU?$_Tree_node@U?$pair@$$CBV?$basic_string@DU?$char_traits@D@std@@V?$allocator@D@2@@std@@M@std@@PAX@1@AAU?$pair@$$CBV?$basic_string@DU?$char_traits@D@std@@V?$allocator@D@2@@std@@M@1@1@Z 1001fc50 f i mfdpage_fms.obj
 0001:0001ec50       ??$_Insert_at@AAU?$pair@$$CBV?$basic_string@DU?$char_traits@D@std@@V?$allocator@D@2@@std@@PAVfms_config_item_t@@@std@@PAU?$_Tree_node@U?$pair@$$CBV?$basic_string@DU?$char_traits@D@std@@V?$allocator@D@2@@std@@PAVfms_config_item_t@@@std@@PAX@2@@?$_Tree@V?$_Tmap_traits@V?$basic_string@DU?$char_traits@D@std@@V?$allocator@D@2@@std@@PAVfms_config_item_t@@U?$less@V?$basic_string@DU?$char_traits@D@std@@V?$allocator@D@2@@std@@@2@V?$allocator@U?$pair@$$CBV?$basic_string@DU?$char_traits@D@std@@V?$allocator@D@2@@std@@PAVfms_config_item_t@@@std@@@2@$0A@@std@@@std@@IAE?AV?$_Tree_iterator@V?$_Tree_val@U?$_Tree_simple_types@U?$pair@$$CBV?$basic_string@DU?$char_traits@D@std@@V?$allocator@D@2@@std@@PAVfms_config_item_t@@@std@@@std@@@std@@@1@_NPAU?$_Tree_node@U?$pair@$$CBV?$basic_string@DU?$char_traits@D@std@@V?$allocator@D@2@@std@@PAVfms_config_item_t@@@std@@PAX@1@AAU?$pair@$$CBV?$basic_string@DU?$char_traits@D@std@@V?$allocator@D@2@@std@@PAVfms_config_item_t@@@1@1@Z 1001fc50 f i fms_config.obj
 0001:0001f080       ??$_Insert_nohint@AAU?$pair@$$CBV?$basic_string@DU?$char_traits@D@std@@V?$allocator@D@2@@std@@D@std@@PAU?$_Tree_node@U?$pair@$$CBV?$basic_string@DU?$char_traits@D@std@@V?$allocator@D@2@@std@@D@std@@PAX@2@@?$_Tree@V?$_Tmap_traits@V?$basic_string@DU?$char_traits@D@std@@V?$allocator@D@2@@std@@DU?$less@V?$basic_string@DU?$char_traits@D@std@@V?$allocator@D@2@@std@@@2@V?$allocator@U?$pair@$$CBV?$basic_string@DU?$char_traits@D@std@@V?$allocator@D@2@@std@@D@std@@@2@$0A@@std@@@std@@IAE?AU?$pair@V?$_Tree_iterator@V?$_Tree_val@U?$_Tree_simple_types@U?$pair@$$CBV?$basic_string@DU?$char_traits@D@std@@V?$allocator@D@2@@std@@D@std@@@std@@@std@@@std@@_N@1@_NAAU?$pair@$$CBV?$basic_string@DU?$char_traits@D@std@@V?$allocator@D@2@@std@@D@1@PAU?$_Tree_node@U?$pair@$$CBV?$basic_string@DU?$char_traits@D@std@@V?$allocator@D@2@@std@@D@std@@PAX@1@@Z 10020080 f i mfdpage.obj
 0001:0001f080       ??$_Insert_nohint@AAU?$pair@$$CBV?$basic_string@DU?$char_traits@D@std@@V?$allocator@D@2@@std@@M@std@@PAU?$_Tree_node@U?$pair@$$CBV?$basic_string@DU?$char_traits@D@std@@V?$allocator@D@2@@std@@M@std@@PAX@2@@?$_Tree@V?$_Tmap_traits@V?$basic_string@DU?$char_traits@D@std@@V?$allocator@D@2@@std@@MU?$less@V?$basic_string@DU?$char_traits@D@std@@V?$allocator@D@2@@std@@@2@V?$allocator@U?$pair@$$CBV?$basic_string@DU?$char_traits@D@std@@V?$allocator@D@2@@std@@M@std@@@2@$0A@@std@@@std@@IAE?AU?$pair@V?$_Tree_iterator@V?$_Tree_val@U?$_Tree_simple_types@U?$pair@$$CBV?$basic_string@DU?$char_traits@D@std@@V?$allocator@D@2@@std@@M@std@@@std@@@std@@@std@@_N@1@_NAAU?$pair@$$CBV?$basic_string@DU?$char_traits@D@std@@V?$allocator@D@2@@std@@M@1@PAU?$_Tree_node@U?$pair@$$CBV?$basic_string@DU?$char_traits@D@std@@V?$allocator@D@2@@std@@M@std@@PAX@1@@Z 10020080 f i mfdpage_fms.obj
 0001:0001f080       ??$_Insert_nohint@AAU?$pair@$$CBV?$basic_string@DU?$char_traits@D@std@@V?$allocator@D@2@@std@@PAVfms_config_item_t@@@std@@PAU?$_Tree_node@U?$pair@$$CBV?$basic_string@DU?$char_traits@D@std@@V?$allocator@D@2@@std@@PAVfms_config_item_t@@@std@@PAX@2@@?$_Tree@V?$_Tmap_traits@V?$basic_string@DU?$char_traits@D@std@@V?$allocator@D@2@@std@@PAVfms_config_item_t@@U?$less@V?$basic_string@DU?$char_traits@D@std@@V?$allocator@D@2@@std@@@2@V?$allocator@U?$pair@$$CBV?$basic_string@DU?$char_traits@D@std@@V?$allocator@D@2@@std@@PAVfms_config_item_t@@@std@@@2@$0A@@std@@@std@@IAE?AU?$pair@V?$_Tree_iterator@V?$_Tree_val@U?$_Tree_simple_types@U?$pair@$$CBV?$basic_string@DU?$char_traits@D@std@@V?$allocator@D@2@@std@@PAVfms_config_item_t@@@std@@@std@@@std@@@std@@_N@1@_NAAU?$pair@$$CBV?$basic_string@DU?$char_traits@D@std@@V?$allocator@D@2@@std@@PAVfms_config_item_t@@@1@PAU?$_Tree_node@U?$pair@$$CBV?$basic_string@DU?$char_traits@D@std@@V?$allocator@D@2@@std@@PAVfms_config_item_t@@@std@@PAX@1@@Z 10020080 f i fms_config.obj
 0001:0001f080       ??$_Insert_nohint@AAU?$pair@$$CBV?$basic_string@DU?$char_traits@D@std@@V?$allocator@D@2@@std@@PAVfms_fp_item_t@@@std@@PAU?$_Tree_node@U?$pair@$$CBV?$basic_string@DU?$char_traits@D@std@@V?$allocator@D@2@@std@@PAVfms_fp_item_t@@@std@@PAX@2@@?$_Tree@V?$_Tmap_traits@V?$basic_string@DU?$char_traits@D@std@@V?$allocator@D@2@@std@@PAVfms_fp_item_t@@U?$less@V?$basic_string@DU?$char_traits@D@std@@V?$allocator@D@2@@std@@@2@V?$allocator@U?$pair@$$CBV?$basic_string@DU?$char_traits@D@std@@V?$allocator@D@2@@std@@PAVfms_fp_item_t@@@std@@@2@$0A@@std@@@std@@IAE?AU?$pair@V?$_Tree_iterator@V?$_Tree_val@U?$_Tree_simple_types@U?$pair@$$CBV?$basic_string@DU?$char_traits@D@std@@V?$allocator@D@2@@std@@PAVfms_fp_item_t@@@std@@@std@@@std@@@std@@_N@1@_NAAU?$pair@$$CBV?$basic_string@DU?$char_traits@D@std@@V?$allocator@D@2@@std@@PAVfms_fp_item_t@@@1@PAU?$_Tree_node@U?$pair@$$CBV?$basic_string@DU?$char_traits@D@std@@V?$allocator@D@2@@std@@PAVfms_fp_item_t@@@std@@PAX@1@@Z 10020080 f i fms_fp.obj
 0001:0001f080       ??$_Insert_nohint@AAU?$pair@$$CBV?$basic_string@DU?$char_traits@D@std@@V?$allocator@D@2@@std@@H@std@@PAU?$_Tree_node@U?$pair@$$CBV?$basic_string@DU?$char_traits@D@std@@V?$allocator@D@2@@std@@H@std@@PAX@2@@?$_Tree@V?$_Tmap_traits@V?$basic_string@DU?$char_traits@D@std@@V?$allocator@D@2@@std@@HU?$less@V?$basic_string@DU?$char_traits@D@std@@V?$allocator@D@2@@std@@@2@V?$allocator@U?$pair@$$CBV?$basic_string@DU?$char_traits@D@std@@V?$allocator@D@2@@std@@H@std@@@2@$0A@@std@@@std@@IAE?AU?$pair@V?$_Tree_iterator@V?$_Tree_val@U?$_Tree_simple_types@U?$pair@$$CBV?$basic_string@DU?$char_traits@D@std@@V?$allocator@D@2@@std@@H@std@@@std@@@std@@@std@@_N@1@_NAAU?$pair@$$CBV?$basic_string@DU?$char_traits@D@std@@V?$allocator@D@2@@std@@H@1@PAU?$_Tree_node@U?$pair@$$CBV?$basic_string@DU?$char_traits@D@std@@V?$allocator@D@2@@std@@H@std@@PAX@1@@Z 10020080 f i mfdpage.obj
 0001:0001f350       ??$construct@U?$pair@$$CBV?$basic_string@DU?$char_traits@D@std@@V?$allocator@D@2@@std@@PAVfms_config_item_t@@@std@@ABUpiecewise_construct_t@2@V?$tuple@ABV?$basic_string@DU?$char_traits@D@std@@V?$allocator@D@2@@std@@@2@V?$tuple@$$$V@2@@?$_Wrap_alloc@V?$allocator@U?$_Tree_node@U?$pair@$$CBV?$basic_string@DU?$char_traits@D@std@@V?$allocator@D@2@@std@@PAVfms_config_item_t@@@std@@PAX@std@@@std@@@std@@QAEXPAU?$pair@$$CBV?$basic_string@DU?$char_traits@D@std@@V?$allocator@D@2@@std@@PAVfms_config_item_t@@@1@ABUpiecewise_construct_t@1@$$QAV?$tuple@ABV?$basic_string@DU?$char_traits@D@std@@V?$allocator@D@2@@std@@@1@$$QAV?$tuple@$$$V@1@@Z 10020350 f i fms_config.obj
 0001:0001f350       ??$construct@U?$pair@$$CBV?$basic_string@DU?$char_traits@D@std@@V?$allocator@D@2@@std@@PAVfms_fp_item_t@@@std@@ABUpiecewise_construct_t@2@V?$tuple@ABV?$basic_string@DU?$char_traits@D@std@@V?$allocator@D@2@@std@@@2@V?$tuple@$$$V@2@@?$_Wrap_alloc@V?$allocator@U?$_Tree_node@U?$pair@$$CBV?$basic_string@DU?$char_traits@D@std@@V?$allocator@D@2@@std@@PAVfms_fp_item_t@@@std@@PAX@std@@@std@@@std@@QAEXPAU?$pair@$$CBV?$basic_string@DU?$char_traits@D@std@@V?$allocator@D@2@@std@@PAVfms_fp_item_t@@@1@ABUpiecewise_construct_t@1@$$QAV?$tuple@ABV?$basic_string@DU?$char_traits@D@std@@V?$allocator@D@2@@std@@@1@$$QAV?$tuple@$$$V@1@@Z 10020350 f i fms_fp.obj
 0001:0001f3a0       ??$construct@U?$pair@$$CBV?$basic_string@DU?$char_traits@D@std@@V?$allocator@D@2@@std@@PAVfms_fp_item_t@@@std@@ABUpiecewise_construct_t@2@V?$tuple@ABV?$basic_string@DU?$char_traits@D@std@@V?$allocator@D@2@@std@@@2@V?$tuple@$$$V@2@@?$allocator@U?$_Tree_node@U?$pair@$$CBV?$basic_string@DU?$char_traits@D@std@@V?$allocator@D@2@@std@@PAVfms_fp_item_t@@@std@@PAX@std@@@std@@QAEXPAU?$pair@$$CBV?$basic_string@DU?$char_traits@D@std@@V?$allocator@D@2@@std@@PAVfms_fp_item_t@@@1@ABUpiecewise_construct_t@1@$$QAV?$tuple@ABV?$basic_string@DU?$char_traits@D@std@@V?$allocator@D@2@@std@@@1@$$QAV?$tuple@$$$V@1@@Z 100203a0 f i fms_fp.obj
 0001:0001f3a0       ??$construct@U?$pair@$$CBV?$basic_string@DU?$char_traits@D@std@@V?$allocator@D@2@@std@@PAVfms_config_item_t@@@std@@ABUpiecewise_construct_t@2@V?$tuple@ABV?$basic_string@DU?$char_traits@D@std@@V?$allocator@D@2@@std@@@2@V?$tuple@$$$V@2@@?$allocator@U?$_Tree_node@U?$pair@$$CBV?$basic_string@DU?$char_traits@D@std@@V?$allocator@D@2@@std@@PAVfms_config_item_t@@@std@@PAX@std@@@std@@QAEXPAU?$pair@$$CBV?$basic_string@DU?$char_traits@D@std@@V?$allocator@D@2@@std@@PAVfms_config_item_t@@@1@ABUpiecewise_construct_t@1@$$QAV?$tuple@ABV?$basic_string@DU?$char_traits@D@std@@V?$allocator@D@2@@std@@@1@$$QAV?$tuple@$$$V@1@@Z 100203a0 f i fms_config.obj
 0001:0001f410       ??$construct@U?$pair@$$CBV?$basic_string@DU?$char_traits@D@std@@V?$allocator@D@2@@std@@PAVfms_fp_item_t@@@std@@ABUpiecewise_construct_t@2@V?$tuple@ABV?$basic_string@DU?$char_traits@D@std@@V?$allocator@D@2@@std@@@2@V?$tuple@$$$V@2@@?$allocator_traits@V?$allocator@U?$_Tree_node@U?$pair@$$CBV?$basic_string@DU?$char_traits@D@std@@V?$allocator@D@2@@std@@PAVfms_fp_item_t@@@std@@PAX@std@@@std@@@std@@SAXAAV?$allocator@U?$_Tree_node@U?$pair@$$CBV?$basic_string@DU?$char_traits@D@std@@V?$allocator@D@2@@std@@PAVfms_fp_item_t@@@std@@PAX@std@@@1@PAU?$pair@$$CBV?$basic_string@DU?$char_traits@D@std@@V?$allocator@D@2@@std@@PAVfms_fp_item_t@@@1@ABUpiecewise_construct_t@1@$$QAV?$tuple@ABV?$basic_string@DU?$char_traits@D@std@@V?$allocator@D@2@@std@@@1@$$QAV?$tuple@$$$V@1@@Z 10020410 f i fms_fp.obj
 0001:0001f410       ??$construct@U?$pair@$$CBV?$basic_string@DU?$char_traits@D@std@@V?$allocator@D@2@@std@@PAVfms_config_item_t@@@std@@ABUpiecewise_construct_t@2@V?$tuple@ABV?$basic_string@DU?$char_traits@D@std@@V?$allocator@D@2@@std@@@2@V?$tuple@$$$V@2@@?$allocator_traits@V?$allocator@U?$_Tree_node@U?$pair@$$CBV?$basic_string@DU?$char_traits@D@std@@V?$allocator@D@2@@std@@PAVfms_config_item_t@@@std@@PAX@std@@@std@@@std@@SAXAAV?$allocator@U?$_Tree_node@U?$pair@$$CBV?$basic_string@DU?$char_traits@D@std@@V?$allocator@D@2@@std@@PAVfms_config_item_t@@@std@@PAX@std@@@1@PAU?$pair@$$CBV?$basic_string@DU?$char_traits@D@std@@V?$allocator@D@2@@std@@PAVfms_config_item_t@@@1@ABUpiecewise_construct_t@1@$$QAV?$tuple@ABV?$basic_string@DU?$char_traits@D@std@@V?$allocator@D@2@@std@@@1@$$QAV?$tuple@$$$V@1@@Z 10020410 f i fms_config.obj
 0001:0001f450       ??0?$_Tree_alloc@$0A@U?$_Tree_base_types@U?$pair@$$CBHPAVobject_t@@@std@@V?$allocator@U?$pair@$$CBHPAVobject_t@@@std@@@2@@std@@@std@@QAE@ABV?$allocator@U?$pair@$$CBHPAVobject_t@@@std@@@1@@Z 10020450 f i mfdpage.obj
 0001:0001f450       ??0?$_Tree_alloc@$0A@U?$_Tree_base_types@U?$pair@$$CBHM@std@@V?$allocator@U?$pair@$$CBHM@std@@@2@@std@@@std@@QAE@ABV?$allocator@U?$pair@$$CBHM@std@@@1@@Z 10020450 f i fms_config.obj
 0001:0001f450       ??0?$_Tree_alloc@$0A@U?$_Tree_base_types@U?$pair@$$CBHPAVfms_fp_item_t@@@std@@V?$allocator@U?$pair@$$CBHPAVfms_fp_item_t@@@std@@@2@@std@@@std@@QAE@ABV?$allocator@U?$pair@$$CBHPAVfms_fp_item_t@@@std@@@1@@Z 10020450 f i fms_fp.obj
 0001:0001f480       ??0?$_Tree_buy@U?$pair@$$CBHPAVobject_t@@@std@@V?$allocator@U?$pair@$$CBHPAVobject_t@@@std@@@2@@std@@QAE@ABV?$allocator@U?$pair@$$CBHPAVobject_t@@@std@@@1@@Z 10020480 f i mfdpage.obj
 0001:0001f480       ??0?$_Tree_buy@U?$pair@$$CBHPAVfms_fp_item_t@@@std@@V?$allocator@U?$pair@$$CBHPAVfms_fp_item_t@@@std@@@2@@std@@QAE@ABV?$allocator@U?$pair@$$CBHPAVfms_fp_item_t@@@std@@@1@@Z 10020480 f i fms_fp.obj
 0001:0001f480       ??0?$_Tree_buy@U?$pair@$$CBHM@std@@V?$allocator@U?$pair@$$CBHM@std@@@2@@std@@QAE@ABV?$allocator@U?$pair@$$CBHM@std@@@1@@Z 10020480 f i fms_config.obj
 0001:0001f4a0       ??0?$_Tree_comp@$0A@V?$_Tmap_traits@HMU?$less@H@std@@V?$allocator@U?$pair@$$CBHM@std@@@2@$0A@@std@@@std@@QAE@ABU?$less@H@1@ABV?$allocator@U?$pair@$$CBHM@std@@@1@@Z 100204a0 f i fms_config.obj
 0001:0001f4a0       ??0?$_Tree_comp@$0A@V?$_Tmap_traits@HPAVobject_t@@U?$less@H@std@@V?$allocator@U?$pair@$$CBHPAVobject_t@@@std@@@3@$0A@@std@@@std@@QAE@ABU?$less@H@1@ABV?$allocator@U?$pair@$$CBHPAVobject_t@@@std@@@1@@Z 100204a0 f i mfdpage.obj
 0001:0001f4a0       ??0?$_Tree_comp@$0A@V?$_Tmap_traits@HPAVfms_fp_item_t@@U?$less@H@std@@V?$allocator@U?$pair@$$CBHPAVfms_fp_item_t@@@std@@@3@$0A@@std@@@std@@QAE@ABU?$less@H@1@ABV?$allocator@U?$pair@$$CBHPAVfms_fp_item_t@@@std@@@1@@Z 100204a0 f i fms_fp.obj
 0001:0001f4c0       ??0?$_Tree_const_iterator@V?$_Tree_val@U?$_Tree_simple_types@U?$pair@$$CBV?$basic_string@DU?$char_traits@D@std@@V?$allocator@D@2@@std@@PAVfms_config_item_t@@@std@@@std@@@std@@@std@@QAE@XZ 100204c0 f i fms_config.obj
 0001:0001f4c0       ??0?$_Tree_const_iterator@V?$_Tree_val@U?$_Tree_simple_types@U?$pair@$$CBV?$basic_string@DU?$char_traits@D@std@@V?$allocator@D@2@@std@@PAVfms_fp_item_t@@@std@@@std@@@std@@@std@@QAE@XZ 100204c0 f i fms_fp.obj
 0001:0001f4c0       ??0?$_Tree_const_iterator@V?$_Tree_val@U?$_Tree_simple_types@U?$pair@$$CBHV?$basic_string@DU?$char_traits@D@std@@V?$allocator@D@2@@std@@@std@@@std@@@std@@@std@@QAE@XZ 100204c0 f i out_saitek.obj
 0001:0001f4c0       ??0?$_Tree_const_iterator@V?$_Tree_val@U?$_Tree_simple_types@U?$pair@$$CBV?$basic_string@DU?$char_traits@D@std@@V?$allocator@D@2@@std@@V12@@std@@@std@@@std@@@std@@QAE@XZ 100204c0 f i tools.obj
 0001:0001f4c0       ??0?$_Tree_const_iterator@V?$_Tree_val@U?$_Tree_simple_types@U?$pair@$$CBV?$basic_string@DU?$char_traits@D@std@@V?$allocator@D@2@@std@@D@std@@@std@@@std@@@std@@QAE@XZ 100204c0 f i mfdpage.obj
 0001:0001f4c0       ??0?$_Tree_const_iterator@V?$_Tree_val@U?$_Tree_simple_types@U?$pair@$$CBHPAVobject_t@@@std@@@std@@@std@@@std@@QAE@XZ 100204c0 f i mfdpage.obj
 0001:0001f4c0       ??0?$_Tree_const_iterator@V?$_Tree_val@U?$_Tree_simple_types@U?$pair@$$CBV?$basic_string@DU?$char_traits@D@std@@V?$allocator@D@2@@std@@H@std@@@std@@@std@@@std@@QAE@XZ 100204c0 f i mfdpage.obj
 0001:0001f4c0       ??0?$_Tree_const_iterator@V?$_Tree_val@U?$_Tree_simple_types@U?$pair@$$CBHPAVfms_fp_item_t@@@std@@@std@@@std@@@std@@QAE@XZ 100204c0 f i mfdpage_fms.obj
 0001:0001f4c0       ??0?$_Tree_const_iterator@V?$_Tree_val@U?$_Tree_simple_types@U?$pair@$$CBHM@std@@@std@@@std@@@std@@QAE@XZ 100204c0 f i fms_config.obj
 0001:0001f4c0       ??0?$_Tree_const_iterator@V?$_Tree_val@U?$_Tree_simple_types@U?$pair@$$CBV?$basic_string@DU?$char_traits@D@std@@V?$allocator@D@2@@std@@M@std@@@std@@@std@@@std@@QAE@XZ 100204c0 f i mfdpage_fms.obj
 0001:0001f4e0       ??A?$map@V?$basic_string@DU?$char_traits@D@std@@V?$allocator@D@2@@std@@PAVfms_fp_item_t@@U?$less@V?$basic_string@DU?$char_traits@D@std@@V?$allocator@D@2@@std@@@2@V?$allocator@U?$pair@$$CBV?$basic_string@DU?$char_traits@D@std@@V?$allocator@D@2@@std@@PAVfms_fp_item_t@@@std@@@2@@std@@QAEAAPAVfms_fp_item_t@@ABV?$basic_string@DU?$char_traits@D@std@@V?$allocator@D@2@@1@@Z 100204e0 f i fms_fp.obj
 0001:0001f590       ?_Destroy_if_not_nil@?$_Tree@V?$_Tmap_traits@V?$basic_string@DU?$char_traits@D@std@@V?$allocator@D@2@@std@@PAVfms_fp_item_t@@U?$less@V?$basic_string@DU?$char_traits@D@std@@V?$allocator@D@2@@std@@@2@V?$allocator@U?$pair@$$CBV?$basic_string@DU?$char_traits@D@std@@V?$allocator@D@2@@std@@PAVfms_fp_item_t@@@std@@@2@$0A@@std@@@std@@IAEXPAU?$_Tree_node@U?$pair@$$CBV?$basic_string@DU?$char_traits@D@std@@V?$allocator@D@2@@std@@PAVfms_fp_item_t@@@std@@PAX@2@@Z 10020590 f i fms_fp.obj
 0001:0001f590       ?_Destroy_if_not_nil@?$_Tree@V?$_Tmap_traits@V?$basic_string@DU?$char_traits@D@std@@V?$allocator@D@2@@std@@MU?$less@V?$basic_string@DU?$char_traits@D@std@@V?$allocator@D@2@@std@@@2@V?$allocator@U?$pair@$$CBV?$basic_string@DU?$char_traits@D@std@@V?$allocator@D@2@@std@@M@std@@@2@$0A@@std@@@std@@IAEXPAU?$_Tree_node@U?$pair@$$CBV?$basic_string@DU?$char_traits@D@std@@V?$allocator@D@2@@std@@M@std@@PAX@2@@Z 10020590 f i mfdpage_fms.obj
 0001:0001f590       ?_Destroy_if_not_nil@?$_Tree@V?$_Tmap_traits@V?$basic_string@DU?$char_traits@D@std@@V?$allocator@D@2@@std@@HU?$less@V?$basic_string@DU?$char_traits@D@std@@V?$allocator@D@2@@std@@@2@V?$allocator@U?$pair@$$CBV?$basic_string@DU?$char_traits@D@std@@V?$allocator@D@2@@std@@H@std@@@2@$0A@@std@@@std@@IAEXPAU?$_Tree_node@U?$pair@$$CBV?$basic_string@DU?$char_traits@D@std@@V?$allocator@D@2@@std@@H@std@@PAX@2@@Z 10020590 f i mfdpage.obj
 0001:0001f590       ?_Destroy_if_not_nil@?$_Tree@V?$_Tmap_traits@V?$basic_string@DU?$char_traits@D@std@@V?$allocator@D@2@@std@@DU?$less@V?$basic_string@DU?$char_traits@D@std@@V?$allocator@D@2@@std@@@2@V?$allocator@U?$pair@$$CBV?$basic_string@DU?$char_traits@D@std@@V?$allocator@D@2@@std@@D@std@@@2@$0A@@std@@@std@@IAEXPAU?$_Tree_node@U?$pair@$$CBV?$basic_string@DU?$char_traits@D@std@@V?$allocator@D@2@@std@@D@std@@PAX@2@@Z 10020590 f i mfdpage.obj
 0001:0001f590       ?_Destroy_if_not_nil@?$_Tree@V?$_Tmap_traits@V?$basic_string@DU?$char_traits@D@std@@V?$allocator@D@2@@std@@PAVfms_config_item_t@@U?$less@V?$basic_string@DU?$char_traits@D@std@@V?$allocator@D@2@@std@@@2@V?$allocator@U?$pair@$$CBV?$basic_string@DU?$char_traits@D@std@@V?$allocator@D@2@@std@@PAVfms_config_item_t@@@std@@@2@$0A@@std@@@std@@IAEXPAU?$_Tree_node@U?$pair@$$CBV?$basic_string@DU?$char_traits@D@std@@V?$allocator@D@2@@std@@PAVfms_config_item_t@@@std@@PAX@2@@Z 10020590 f i fms_config.obj
 0001:0001f5f0       ?erase@?$_Tree@V?$_Tmap_traits@V?$basic_string@DU?$char_traits@D@std@@V?$allocator@D@2@@std@@MU?$less@V?$basic_string@DU?$char_traits@D@std@@V?$allocator@D@2@@std@@@2@V?$allocator@U?$pair@$$CBV?$basic_string@DU?$char_traits@D@std@@V?$allocator@D@2@@std@@M@std@@@2@$0A@@std@@@std@@QAE?AV?$_Tree_iterator@V?$_Tree_val@U?$_Tree_simple_types@U?$pair@$$CBV?$basic_string@DU?$char_traits@D@std@@V?$allocator@D@2@@std@@M@std@@@std@@@std@@@2@V?$_Tree_const_iterator@V?$_Tree_val@U?$_Tree_simple_types@U?$pair@$$CBV?$basic_string@DU?$char_traits@D@std@@V?$allocator@D@2@@std@@M@std@@@std@@@std@@@2@@Z 100205f0 f i fms_config.obj
 0001:0001f5f0       ?erase@?$_Tree@V?$_Tmap_traits@V?$basic_string@DU?$char_traits@D@std@@V?$allocator@D@2@@std@@HU?$less@V?$basic_string@DU?$char_traits@D@std@@V?$allocator@D@2@@std@@@2@V?$allocator@U?$pair@$$CBV?$basic_string@DU?$char_traits@D@std@@V?$allocator@D@2@@std@@H@std@@@2@$0A@@std@@@std@@QAE?AV?$_Tree_iterator@V?$_Tree_val@U?$_Tree_simple_types@U?$pair@$$CBV?$basic_string@DU?$char_traits@D@std@@V?$allocator@D@2@@std@@H@std@@@std@@@std@@@2@V?$_Tree_const_iterator@V?$_Tree_val@U?$_Tree_simple_types@U?$pair@$$CBV?$basic_string@DU?$char_traits@D@std@@V?$allocator@D@2@@std@@H@std@@@std@@@std@@@2@@Z 100205f0 f i mfdpage.obj
 0001:0001f5f0       ?erase@?$_Tree@V?$_Tmap_traits@V?$basic_string@DU?$char_traits@D@std@@V?$allocator@D@2@@std@@PAVfms_fp_item_t@@U?$less@V?$basic_string@DU?$char_traits@D@std@@V?$allocator@D@2@@std@@@2@V?$allocator@U?$pair@$$CBV?$basic_string@DU?$char_traits@D@std@@V?$allocator@D@2@@std@@PAVfms_fp_item_t@@@std@@@2@$0A@@std@@@std@@QAE?AV?$_Tree_iterator@V?$_Tree_val@U?$_Tree_simple_types@U?$pair@$$CBV?$basic_string@DU?$char_traits@D@std@@V?$allocator@D@2@@std@@PAVfms_fp_item_t@@@std@@@std@@@std@@@2@V?$_Tree_const_iterator@V?$_Tree_val@U?$_Tree_simple_types@U?$pair@$$CBV?$basic_string@DU?$char_traits@D@std@@V?$allocator@D@2@@std@@PAVfms_fp_item_t@@@std@@@std@@@std@@@2@@Z 100205f0 f i fms_fp.obj
 0001:0001f5f0       ?erase@?$_Tree@V?$_Tmap_traits@V?$basic_string@DU?$char_traits@D@std@@V?$allocator@D@2@@std@@PAVfms_config_item_t@@U?$less@V?$basic_string@DU?$char_traits@D@std@@V?$allocator@D@2@@std@@@2@V?$allocator@U?$pair@$$CBV?$basic_string@DU?$char_traits@D@std@@V?$allocator@D@2@@std@@PAVfms_config_item_t@@@std@@@2@$0A@@std@@@std@@QAE?AV?$_Tree_iterator@V?$_Tree_val@U?$_Tree_simple_types@U?$pair@$$CBV?$basic_string@DU?$char_traits@D@std@@V?$allocator@D@2@@std@@PAVfms_config_item_t@@@std@@@std@@@std@@@2@V?$_Tree_const_iterator@V?$_Tree_val@U?$_Tree_simple_types@U?$pair@$$CBV?$basic_string@DU?$char_traits@D@std@@V?$allocator@D@2@@std@@PAVfms_config_item_t@@@std@@@std@@@std@@@2@@Z 100205f0 f i fms_config.obj
 0001:0001fd70       ?max_size@?$allocator@U?$_Tree_node@U?$pair@$$CBV?$basic_string@DU?$char_traits@D@std@@V?$allocator@D@2@@std@@M@std@@PAX@std@@@std@@QBEIXZ 10020d70 f i mfdpage_fms.obj
 0001:0001fd70       ?max_size@?$allocator@U?$_Tree_node@U?$pair@$$CBV?$basic_string@DU?$char_traits@D@std@@V?$allocator@D@2@@std@@PAVfms_config_item_t@@@std@@PAX@std@@@std@@QBEIXZ 10020d70 f i fms_config.obj
 0001:0001fd70       ?max_size@?$allocator@U?$_Tree_node@U?$pair@$$CBHV?$basic_string@DU?$char_traits@D@std@@V?$allocator@D@2@@std@@@std@@PAX@std@@@std@@QBEIXZ 10020d70 f i out_saitek.obj
 0001:0001fd70       ?max_size@?$allocator@U?$_Tree_node@U?$pair@$$CBV?$basic_string@DU?$char_traits@D@std@@V?$allocator@D@2@@std@@PAVfms_fp_item_t@@@std@@PAX@std@@@std@@QBEIXZ 10020d70 f i fms_fp.obj
 0001:0001fd70       ?max_size@?$allocator@U?$_Tree_node@U?$pair@$$CBV?$basic_string@DU?$char_traits@D@std@@V?$allocator@D@2@@std@@H@std@@PAX@std@@@std@@QBEIXZ 10020d70 f i mfdpage.obj
 0001:0001fd70       ?max_size@?$allocator@U?$_Tree_node@U?$pair@$$CBV?$basic_string@DU?$char_traits@D@std@@V?$allocator@D@2@@std@@D@std@@PAX@std@@@std@@QBEIXZ 10020d70 f i mfdpage.obj
 0001:0001fd80       ?max_size@?$allocator_traits@V?$allocator@U?$_Tree_node@U?$pair@$$CBV?$basic_string@DU?$char_traits@D@std@@V?$allocator@D@2@@std@@D@std@@PAX@std@@@std@@@std@@SAIABV?$allocator@U?$_Tree_node@U?$pair@$$CBV?$basic_string@DU?$char_traits@D@std@@V?$allocator@D@2@@std@@D@std@@PAX@std@@@2@@Z 10020d80 f i mfdpage.obj
 0001:0001fd80       ?max_size@?$allocator_traits@V?$allocator@U?$_Tree_node@U?$pair@$$CBV?$basic_string@DU?$char_traits@D@std@@V?$allocator@D@2@@std@@PAVfms_config_item_t@@@std@@PAX@std@@@std@@@std@@SAIABV?$allocator@U?$_Tree_node@U?$pair@$$CBV?$basic_string@DU?$char_traits@D@std@@V?$allocator@D@2@@std@@PAVfms_config_item_t@@@std@@PAX@std@@@2@@Z 10020d80 f i fms_config.obj
 0001:0001fd80       ?max_size@?$allocator_traits@V?$allocator@U?$_Tree_node@U?$pair@$$CBHV?$basic_string@DU?$char_traits@D@std@@V?$allocator@D@2@@std@@@std@@PAX@std@@@std@@@std@@SAIABV?$allocator@U?$_Tree_node@U?$pair@$$CBHV?$basic_string@DU?$char_traits@D@std@@V?$allocator@D@2@@std@@@std@@PAX@std@@@2@@Z 10020d80 f i out_saitek.obj
 0001:0001fd80       ?max_size@?$allocator_traits@V?$allocator@U?$_Tree_node@U?$pair@$$CBV?$basic_string@DU?$char_traits@D@std@@V?$allocator@D@2@@std@@H@std@@PAX@std@@@std@@@std@@SAIABV?$allocator@U?$_Tree_node@U?$pair@$$CBV?$basic_string@DU?$char_traits@D@std@@V?$allocator@D@2@@std@@H@std@@PAX@std@@@2@@Z 10020d80 f i mfdpage.obj
 0001:0001fd80       ?max_size@?$allocator_traits@V?$allocator@U?$_Tree_node@U?$pair@$$CBV?$basic_string@DU?$char_traits@D@std@@V?$allocator@D@2@@std@@M@std@@PAX@std@@@std@@@std@@SAIABV?$allocator@U?$_Tree_node@U?$pair@$$CBV?$basic_string@DU?$char_traits@D@std@@V?$allocator@D@2@@std@@M@std@@PAX@std@@@2@@Z 10020d80 f i mfdpage_fms.obj
 0001:0001fd80       ?max_size@?$allocator_traits@V?$allocator@U?$_Tree_node@U?$pair@$$CBV?$basic_string@DU?$char_traits@D@std@@V?$allocator@D@2@@std@@PAVfms_fp_item_t@@@std@@PAX@std@@@std@@@std@@SAIABV?$allocator@U?$_Tree_node@U?$pair@$$CBV?$basic_string@DU?$char_traits@D@std@@V?$allocator@D@2@@std@@PAVfms_fp_item_t@@@std@@PAX@std@@@2@@Z 10020d80 f i fms_fp.obj
 0001:0001fd90       ??0fms_utils_t@@QAE@XZ     10020d90 f   fms_utils.obj
 0001:0001fda0       ?time2minutes@fms_utils_t@@QAEMV?$basic_string@DU?$char_traits@D@std@@V?$allocator@D@2@@std@@@Z 10020da0 f   fms_utils.obj
 0001:0001fe10       ?minutes2time@fms_utils_t@@QAE?AV?$basic_string@DU?$char_traits@D@std@@V?$allocator@D@2@@std@@M@Z 10020e10 f   fms_utils.obj
 0001:0001ff40       ?zulu2time@fms_utils_t@@QAE?AV?$basic_string@DU?$char_traits@D@std@@V?$allocator@D@2@@std@@M@Z 10020f40 f   fms_utils.obj
 0001:0001ff80       ?zulu2minutes@fms_utils_t@@QAEMM@Z 10020f80 f   fms_utils.obj
 0001:0001fff0       ?kts2kmm@fms_utils_t@@QAEMM@Z 10020ff0 f   fms_utils.obj
 0001:00020020       ?ms2kts@fms_utils_t@@QAEMM@Z 10021020 f   fms_utils.obj
 0001:00020050       ?nm2km@fms_utils_t@@QAEMM@Z 10021050 f   fms_utils.obj
 0001:00020080       ?deg2rad@fms_utils_t@@QAENN@Z 10021080 f   fms_utils.obj
 0001:000200b0       ?rad2deg@fms_utils_t@@QAENN@Z 100210b0 f   fms_utils.obj
 0001:000200e0       ?altitude2string@fms_utils_t@@QAE?AV?$basic_string@DU?$char_traits@D@std@@V?$allocator@D@2@@std@@M@Z 100210e0 f   fms_utils.obj
 0001:00020250       ?delay2string@fms_utils_t@@QAE?AV?$basic_string@DU?$char_traits@D@std@@V?$allocator@D@2@@std@@M@Z 10021250 f   fms_utils.obj
 0001:00020400       ?getInstance@config_t@@SAPAV1@XZ 10021400 f   config.obj
 0001:00020470       ?read_config@config_t@@QAEXXZ 10021470 f   config.obj
 0001:00020490       ?read_config_main@config_t@@QAEXXZ 10021490 f   config.obj
 0001:000204d0       ?read_config_fms@config_t@@QAEXXZ 100214d0 f   config.obj
 0001:00020580       ?get_config@config_t@@QAE?AV?$map@V?$basic_string@DU?$char_traits@D@std@@V?$allocator@D@2@@std@@V12@U?$less@V?$basic_string@DU?$char_traits@D@std@@V?$allocator@D@2@@std@@@2@V?$allocator@U?$pair@$$CBV?$basic_string@DU?$char_traits@D@std@@V?$allocator@D@2@@std@@V12@@std@@@2@@std@@XZ 10021580 f   config.obj
 0001:000205a0       ?get_config_fms@config_t@@QAE?AV?$map@V?$basic_string@DU?$char_traits@D@std@@V?$allocator@D@2@@std@@V12@U?$less@V?$basic_string@DU?$char_traits@D@std@@V?$allocator@D@2@@std@@@2@V?$allocator@U?$pair@$$CBV?$basic_string@DU?$char_traits@D@std@@V?$allocator@D@2@@std@@V12@@std@@@2@@std@@XZ 100215a0 f   config.obj
 0001:000205c0       ?set_fms_config@config_t@@QAEXV?$basic_string@DU?$char_traits@D@std@@V?$allocator@D@2@@std@@00@Z 100215c0 f   config.obj
 0001:000206c0       ?get_fms_local_path@config_t@@AAE?AV?$basic_string@DU?$char_traits@D@std@@V?$allocator@D@2@@std@@XZ 100216c0 f   config.obj
 0001:00020820       ?do_read_config@config_t@@AAE?AV?$map@V?$basic_string@DU?$char_traits@D@std@@V?$allocator@D@2@@std@@V12@U?$less@V?$basic_string@DU?$char_traits@D@std@@V?$allocator@D@2@@std@@@2@V?$allocator@U?$pair@$$CBV?$basic_string@DU?$char_traits@D@std@@V?$allocator@D@2@@std@@V12@@std@@@2@@std@@PAD@Z 10021820 f   config.obj
 0001:00020ae0       ?debug_out@config_t@@AAAXHPBDZZ 10021ae0 f   config.obj
 0001:00020d10       ??$_Buynode@AAU?$pair@$$CBV?$basic_string@DU?$char_traits@D@std@@V?$allocator@D@2@@std@@V12@@std@@@?$_Tree_buy@U?$pair@$$CBV?$basic_string@DU?$char_traits@D@std@@V?$allocator@D@2@@std@@V12@@std@@V?$allocator@U?$pair@$$CBV?$basic_string@DU?$char_traits@D@std@@V?$allocator@D@2@@std@@V12@@std@@@2@@std@@QAEPAU?$_Tree_node@U?$pair@$$CBV?$basic_string@DU?$char_traits@D@std@@V?$allocator@D@2@@std@@V12@@std@@PAX@1@AAU?$pair@$$CBV?$basic_string@DU?$char_traits@D@std@@V?$allocator@D@2@@std@@V12@@1@@Z 10021d10 f i config.obj
 0001:00020df0       ??$_Copy@U?$integral_constant@_N$0A@@std@@@?$_Tree@V?$_Tmap_traits@V?$basic_string@DU?$char_traits@D@std@@V?$allocator@D@2@@std@@V12@U?$less@V?$basic_string@DU?$char_traits@D@std@@V?$allocator@D@2@@std@@@2@V?$allocator@U?$pair@$$CBV?$basic_string@DU?$char_traits@D@std@@V?$allocator@D@2@@std@@V12@@std@@@2@$0A@@std@@@std@@IAEXABV01@U?$integral_constant@_N$0A@@1@@Z 10021df0 f i config.obj
 0001:00020eb0       ??$_Copy_nodes@U?$integral_constant@_N$0A@@std@@@?$_Tree@V?$_Tmap_traits@V?$basic_string@DU?$char_traits@D@std@@V?$allocator@D@2@@std@@V12@U?$less@V?$basic_string@DU?$char_traits@D@std@@V?$allocator@D@2@@std@@@2@V?$allocator@U?$pair@$$CBV?$basic_string@DU?$char_traits@D@std@@V?$allocator@D@2@@std@@V12@@std@@@2@$0A@@std@@@std@@IAEPAU?$_Tree_node@U?$pair@$$CBV?$basic_string@DU?$char_traits@D@std@@V?$allocator@D@2@@std@@V12@@std@@PAX@1@PAU21@0U?$integral_constant@_N$0A@@1@@Z 10021eb0 f i config.obj
