 win_32.xpl

 Timestamp is 53e65ff7 (Sat Aug 09 19:52:55 2014)

 Preferred load address is 10000000

 Start         Length     Name                   Class
 0001:00000000 000006a9H .text$di                CODE
 0001:000006b0 0002640eH .text$mn                CODE
 0001:00026ac0 0000050bH .text$x                 CODE
 0001:00026fd0 00000039H .text$yd                CODE
 0002:00000000 00000304H .idata$5                DATA
 0002:00000304 00000004H .CRT$XCA                DATA
 0002:00000308 00000004H .CRT$XCL                DATA
 0002:0000030c 00000194H .CRT$XCU                DATA
 0002:000004a0 00000004H .CRT$XCZ                DATA
 0002:000004a4 00000004H .CRT$XIA                DATA
 0002:000004a8 00000004H .CRT$XIAA               DATA
 0002:000004ac 00000008H .CRT$XIC                DATA
 0002:000004b4 00000004H .CRT$XIZ                DATA
 0002:000004b8 00004ed8H .rdata                  DATA
 0002:00005390 00000ab8H .rdata$r                DATA
 0002:00005e50 000000a4H .rdata$sxdata           DATA
 0002:00005ef4 00000004H .rtc$IAA                DATA
 0002:00005ef8 00000004H .rtc$IZZ                DATA
 0002:00005efc 00000004H .rtc$TAA                DATA
 0002:00005f00 00000004H .rtc$TZZ                DATA
 0002:00005f08 00000fdcH .xdata$x                DATA
 0002:00006ef0 000000b5H .edata                  DATA
 0002:00006fa8 00000078H .idata$2                DATA
 0002:00007020 00000014H .idata$3                DATA
 0002:00007034 00000304H .idata$4                DATA
 0002:00007338 0000179cH .idata$6                DATA
 0003:00000000 00000018H .data                   DATA
 0003:00000018 000005ccH .data$r                 DATA
 0003:000005e8 00000468H .bss                    DATA

  Address         Publics by Value              Rva+Base       Lib:Object

 0000:00000000       ___guard_fids_count        00000000     <absolute>
 0000:00000000       ___guard_flags             00000000     <absolute>
 0000:00000000       __except_list              00000000     <absolute>
 0000:00000000       ___guard_fids_table        00000000     <absolute>
 0000:00000029       ___safe_se_handler_count   00000029     <absolute>
 0000:00009876       __ldused                   00009876     <absolute>
 0000:00009876       __fltused                  00009876     <absolute>
 0000:00000000       ___ImageBase               10000000     <linker-defined>
 0001:000006b0       _XPluginStart              100016b0 f   main.obj
 0001:000007f0       _XPluginEnable             100017f0 f   main.obj
 0001:00000820       _XPluginDisable            10001820 f   main.obj
 0001:00000840       _XPluginStop               10001840 f   main.obj
 0001:00000880       _XPluginReceiveMessage     10001880 f   main.obj
 0001:00000890       _DllMain@12                10001890 f   main.obj
 0001:000008b0       ??$_Allocate@D@std@@YAPADIPAD@Z 100018b0 f i main.obj
 0001:000008f0       ??$destroy@U?$pair@$$CBHM@std@@@?$allocator@U?$_Tree_node@U?$pair@$$CBHM@std@@PAX@std@@@std@@QAEXPAU?$pair@$$CBHM@1@@Z 100018f0 f i fms_config.obj
 0001:000008f0       ??$destroy@PAU?$_Tree_node@PAVmfdpage_t@@PAX@std@@@?$allocator@U?$_Tree_node@PAVmfdpage_t@@PAX@std@@@std@@QAEXPAPAU?$_Tree_node@PAVmfdpage_t@@PAX@1@@Z 100018f0 f i in.obj
 0001:000008f0       ??$destroy@PAU?$_Tree_node@U?$pair@$$CBV?$basic_string@DU?$char_traits@D@std@@V?$allocator@D@2@@std@@D@std@@PAX@std@@@?$allocator@U?$_Tree_node@U?$pair@$$CBV?$basic_string@DU?$char_traits@D@std@@V?$allocator@D@2@@std@@D@std@@PAX@std@@@std@@QAEXPAPAU?$_Tree_node@U?$pair@$$CBV?$basic_string@DU?$char_traits@D@std@@V?$allocator@D@2@@std@@D@std@@PAX@1@@Z 100018f0 f i mfdpage.obj
 0001:000008f0       ??$destroy@PAU?$_Tree_node@U?$pair@$$CBV?$basic_string@DU?$char_traits@D@std@@V?$allocator@D@2@@std@@PAVfms_fp_item_t@@@std@@PAX@std@@@?$allocator@U?$_Tree_node@U?$pair@$$CBV?$basic_string@DU?$char_traits@D@std@@V?$allocator@D@2@@std@@PAVfms_fp_item_t@@@std@@PAX@std@@@std@@QAEXPAPAU?$_Tree_node@U?$pair@$$CBV?$basic_string@DU?$char_traits@D@std@@V?$allocator@D@2@@std@@PAVfms_fp_item_t@@@std@@PAX@1@@Z 100018f0 f i fms_fp.obj
 0001:000008f0       ??$destroy@PAVlistener_t@@@?$allocator@U?$_Tree_node@PAVlistener_t@@PAX@std@@@std@@QAEXPAPAVlistener_t@@@Z 100018f0 f i data.obj
 0001:000008f0       ??$destroy@PAU?$_Tree_node@U?$pair@$$CBV?$basic_string@DU?$char_traits@D@std@@V?$allocator@D@2@@std@@V12@@std@@PAX@std@@@?$allocator@U?$_Tree_node@U?$pair@$$CBV?$basic_string@DU?$char_traits@D@std@@V?$allocator@D@2@@std@@V12@@std@@PAX@std@@@std@@QAEXPAPAU?$_Tree_node@U?$pair@$$CBV?$basic_string@DU?$char_traits@D@std@@V?$allocator@D@2@@std@@V12@@std@@PAX@1@@Z 100018f0 f i tools.obj
 0001:000008f0       ?_Destroy_if_not_nil@?$_Tree@V?$_Tset_traits@PAVmfdpage_t@@U?$less@PAVmfdpage_t@@@std@@V?$allocator@PAVmfdpage_t@@@3@$0A@@std@@@std@@IAEXU_Nil@2@@Z 100018f0 f i in.obj
 0001:000008f0       ??$destroy@PAU?$_Tree_node@PAVobject_t@@PAX@std@@@?$allocator@U?$_Tree_node@PAVobject_t@@PAX@std@@@std@@QAEXPAPAU?$_Tree_node@PAVobject_t@@PAX@1@@Z 100018f0 f i data.obj
 0001:000008f0       ??$destroy@PAU?$_Tree_node@PAVlistener_t@@PAX@std@@@?$allocator@U?$_Tree_node@PAVlistener_t@@PAX@std@@@std@@QAEXPAPAU?$_Tree_node@PAVlistener_t@@PAX@1@@Z 100018f0 f i data.obj
 0001:000008f0       ??$destroy@PAU?$_Tree_node@U?$pair@$$CBV?$basic_string@DU?$char_traits@D@std@@V?$allocator@D@2@@std@@M@std@@PAX@std@@@?$allocator@U?$_Tree_node@U?$pair@$$CBV?$basic_string@DU?$char_traits@D@std@@V?$allocator@D@2@@std@@M@std@@PAX@std@@@std@@QAEXPAPAU?$_Tree_node@U?$pair@$$CBV?$basic_string@DU?$char_traits@D@std@@V?$allocator@D@2@@std@@M@std@@PAX@1@@Z 100018f0 f i mfdpage_fms.obj
 0001:000008f0       ?_Compat@?$_String_const_iterator@V?$_String_val@U?$_Simple_types@D@std@@@std@@@std@@QBEXABV12@@Z 100018f0 f i mfdpage.obj
 0001:000008f0       ?_Destroy_if_not_nil@?$_Tree@V?$_Tset_traits@PAVobject_t@@U?$less@PAVobject_t@@@std@@V?$allocator@PAVobject_t@@@3@$0A@@std@@@std@@IAEXU_Nil@2@@Z 100018f0 f i data.obj
 0001:000008f0       ??$destroy@PAD@?$allocator@D@std@@QAEXPAPAD@Z 100018f0 f i main.obj
 0001:000008f0       ?_Change_alloc@?$_String_alloc@$0A@U?$_String_base_types@DV?$allocator@D@std@@@std@@@std@@QAEXABU?$_Wrap_alloc@V?$allocator@D@std@@@2@@Z 100018f0 f i data.obj
 0001:000008f0       ??$destroy@PAU?$_Tree_node@U?$pair@$$CBHPAVobject_t@@@std@@PAX@std@@@?$allocator@U?$_Tree_node@U?$pair@$$CBHPAVobject_t@@@std@@PAX@std@@@std@@QAEXPAPAU?$_Tree_node@U?$pair@$$CBHPAVobject_t@@@std@@PAX@1@@Z 100018f0 f i mfdpage.obj
 0001:000008f0       ??$destroy@PAU?$_Tree_node@U?$pair@$$CBHV?$basic_string@DU?$char_traits@D@std@@V?$allocator@D@2@@std@@@std@@PAX@std@@@?$allocator@U?$_Tree_node@U?$pair@$$CBHV?$basic_string@DU?$char_traits@D@std@@V?$allocator@D@2@@std@@@std@@PAX@std@@@std@@QAEXPAPAU?$_Tree_node@U?$pair@$$CBHV?$basic_string@DU?$char_traits@D@std@@V?$allocator@D@2@@std@@@std@@PAX@1@@Z 100018f0 f i out_saitek.obj
 0001:000008f0       ??$destroy@U?$pair@$$CBHPAVobject_t@@@std@@@?$allocator@U?$_Tree_node@U?$pair@$$CBHPAVobject_t@@@std@@PAX@std@@@std@@QAEXPAU?$pair@$$CBHPAVobject_t@@@1@@Z 100018f0 f i mfdpage.obj
 0001:000008f0       ?_Swapcomp@?$_Tree_comp@$0A@V?$_Tmap_traits@V?$basic_string@DU?$char_traits@D@std@@V?$allocator@D@2@@std@@V12@U?$less@V?$basic_string@DU?$char_traits@D@std@@V?$allocator@D@2@@std@@@2@V?$allocator@U?$pair@$$CBV?$basic_string@DU?$char_traits@D@std@@V?$allocator@D@2@@std@@V12@@std@@@2@$0A@@std@@@std@@QAEXABU?$less@V?$basic_string@DU?$char_traits@D@std@@V?$allocator@D@2@@std@@@2@@Z 100018f0 f i mfdpage_led.obj
 0001:000008f0       ??$destroy@PAVobject_t@@@?$allocator@U?$_Tree_node@PAVobject_t@@PAX@std@@@std@@QAEXPAPAVobject_t@@@Z 100018f0 f i data.obj
 0001:000008f0       ??$destroy@PAU?$_Tree_node@U?$pair@$$CBHM@std@@PAX@std@@@?$allocator@U?$_Tree_node@U?$pair@$$CBHM@std@@PAX@std@@@std@@QAEXPAPAU?$_Tree_node@U?$pair@$$CBHM@std@@PAX@1@@Z 100018f0 f i fms_config.obj
 0001:000008f0       ??$destroy@PAU?$_Tree_node@U?$pair@$$CBHPAVfms_fp_item_t@@@std@@PAX@std@@@?$allocator@U?$_Tree_node@U?$pair@$$CBHPAVfms_fp_item_t@@@std@@PAX@std@@@std@@QAEXPAPAU?$_Tree_node@U?$pair@$$CBHPAVfms_fp_item_t@@@std@@PAX@1@@Z 100018f0 f i mfdpage_fms.obj
 0001:000008f0       ??$destroy@PAVmfdpage_t@@@?$allocator@U?$_Tree_node@PAVmfdpage_t@@PAX@std@@@std@@QAEXPAPAVmfdpage_t@@@Z 100018f0 f i in.obj
 0001:000008f0       ??$destroy@PAU?$_Tree_node@U?$pair@$$CBV?$basic_string@DU?$char_traits@D@std@@V?$allocator@D@2@@std@@H@std@@PAX@std@@@?$allocator@U?$_Tree_node@U?$pair@$$CBV?$basic_string@DU?$char_traits@D@std@@V?$allocator@D@2@@std@@H@std@@PAX@std@@@std@@QAEXPAPAU?$_Tree_node@U?$pair@$$CBV?$basic_string@DU?$char_traits@D@std@@V?$allocator@D@2@@std@@H@std@@PAX@1@@Z 100018f0 f i mfdpage.obj
 0001:000008f0       ??$destroy@PAU?$_Tree_node@U?$pair@$$CBV?$basic_string@DU?$char_traits@D@std@@V?$allocator@D@2@@std@@PAVfms_config_item_t@@@std@@PAX@std@@@?$allocator@U?$_Tree_node@U?$pair@$$CBV?$basic_string@DU?$char_traits@D@std@@V?$allocator@D@2@@std@@PAVfms_config_item_t@@@std@@PAX@std@@@std@@QAEXPAPAU?$_Tree_node@U?$pair@$$CBV?$basic_string@DU?$char_traits@D@std@@V?$allocator@D@2@@std@@PAVfms_config_item_t@@@std@@PAX@1@@Z 100018f0 f i fms_config.obj
 0001:000008f0       ?_Destroy_if_not_nil@?$_Tree@V?$_Tset_traits@PAVlistener_t@@U?$less@PAVlistener_t@@@std@@V?$allocator@PAVlistener_t@@@3@$0A@@std@@@std@@IAEXU_Nil@2@@Z 100018f0 f i data.obj
 0001:000008f0       ??$destroy@U?$pair@$$CBHPAVfms_fp_item_t@@@std@@@?$allocator@U?$_Tree_node@U?$pair@$$CBHPAVfms_fp_item_t@@@std@@PAX@std@@@std@@QAEXPAU?$pair@$$CBHPAVfms_fp_item_t@@@1@@Z 100018f0 f i mfdpage_fms.obj
 0001:000008f0       ?_Change_alloc@?$_Tree_alloc@$0A@U?$_Tree_base_types@U?$pair@$$CBV?$basic_string@DU?$char_traits@D@std@@V?$allocator@D@2@@std@@V12@@std@@V?$allocator@U?$pair@$$CBV?$basic_string@DU?$char_traits@D@std@@V?$allocator@D@2@@std@@V12@@std@@@2@@std@@@std@@QAEXABU?$_Wrap_alloc@V?$allocator@U?$_Tree_node@U?$pair@$$CBV?$basic_string@DU?$char_traits@D@std@@V?$allocator@D@2@@std@@V12@@std@@PAX@std@@@std@@@2@@Z 100018f0 f i mfdpage_led.obj
 0001:000008f0       ?_Adopt@_Iterator_base0@std@@QAEXPBX@Z 100018f0 f i tools.obj
 0001:00000900       ??0?$_String_alloc@$0A@U?$_String_base_types@DV?$allocator@D@std@@@std@@@std@@QAE@ABV?$allocator@D@1@@Z 10001900 f i main.obj
 0001:00000920       ??0?$_String_val@U?$_Simple_types@D@std@@@std@@QAE@XZ 10001920 f i main.obj
 0001:00000950       ??0?$_Wrap_alloc@V?$allocator@U?$_Tree_node@U?$pair@$$CBV?$basic_string@DU?$char_traits@D@std@@V?$allocator@D@2@@std@@PAVfms_config_item_t@@@std@@PAX@std@@@std@@@std@@QAE@XZ 10001950 f i fms_config.obj
 0001:00000950       ??0?$_Wrap_alloc@V?$allocator@U?$_Tree_node@PAVobject_t@@PAX@std@@@std@@@std@@QAE@XZ 10001950 f i data.obj
 0001:00000950       ??0?$_Wrap_alloc@V?$allocator@U?$_Tree_node@U?$pair@$$CBHV?$basic_string@DU?$char_traits@D@std@@V?$allocator@D@2@@std@@@std@@PAX@std@@@std@@@std@@QAE@XZ 10001950 f i out_saitek.obj
 0001:00000950       ??0?$_Wrap_alloc@V?$allocator@U?$_Tree_node@U?$pair@$$CBHPAVobject_t@@@std@@PAX@std@@@std@@@std@@QAE@XZ 10001950 f i mfdpage.obj
 0001:00000950       ??0?$_Wrap_alloc@V?$allocator@U?$_Tree_node@U?$pair@$$CBHPAVfms_fp_item_t@@@std@@PAX@std@@@std@@@std@@QAE@XZ 10001950 f i mfdpage_fms.obj
 0001:00000950       ??0?$_Wrap_alloc@V?$allocator@U?$_Tree_node@U?$pair@$$CBV?$basic_string@DU?$char_traits@D@std@@V?$allocator@D@2@@std@@H@std@@PAX@std@@@std@@@std@@QAE@XZ 10001950 f i mfdpage.obj
 0001:00000950       ??0?$_Wrap_alloc@V?$allocator@U?$_Tree_node@U?$pair@$$CBV?$basic_string@DU?$char_traits@D@std@@V?$allocator@D@2@@std@@V12@@std@@PAX@std@@@std@@@std@@QAE@XZ 10001950 f i tools.obj
 0001:00000950       ??0?$_Wrap_alloc@V?$allocator@U?$_Tree_node@U?$pair@$$CBV?$basic_string@DU?$char_traits@D@std@@V?$allocator@D@2@@std@@PAVfms_fp_item_t@@@std@@PAX@std@@@std@@@std@@QAE@XZ 10001950 f i fms_fp.obj
 0001:00000950       ??0?$_Wrap_alloc@V?$allocator@U?$_Tree_node@U?$pair@$$CBV?$basic_string@DU?$char_traits@D@std@@V?$allocator@D@2@@std@@D@std@@PAX@std@@@std@@@std@@QAE@XZ 10001950 f i mfdpage.obj
 0001:00000950       ??0?$_Wrap_alloc@V?$allocator@U?$_Tree_node@U?$pair@$$CBHM@std@@PAX@std@@@std@@@std@@QAE@XZ 10001950 f i fms_config.obj
 0001:00000950       ??0?$_Wrap_alloc@V?$allocator@U?$_Tree_node@PAVlistener_t@@PAX@std@@@std@@@std@@QAE@XZ 10001950 f i data.obj
 0001:00000950       ??0?$_Wrap_alloc@V?$allocator@U?$_Tree_node@PAVmfdpage_t@@PAX@std@@@std@@@std@@QAE@XZ 10001950 f i in.obj
 0001:00000950       ??0?$_Wrap_alloc@V?$allocator@U?$_Tree_node@U?$pair@$$CBV?$basic_string@DU?$char_traits@D@std@@V?$allocator@D@2@@std@@M@std@@PAX@std@@@std@@@std@@QAE@XZ 10001950 f i mfdpage_fms.obj
 0001:00000950       ??0?$_Wrap_alloc@V?$allocator@D@std@@@std@@QAE@XZ 10001950 f i main.obj
 0001:00000970       ??0?$basic_string@DU?$char_traits@D@std@@V?$allocator@D@2@@std@@QAE@PBD@Z 10001970 f i main.obj
 0001:000009b0       ??0_Generic_error_category@std@@QAE@XZ 100019b0 f i main.obj
 0001:000009d0       ??0_Iostream_error_category@std@@QAE@XZ 100019d0 f i main.obj
 0001:000009f0       ??0_System_error_category@std@@QAE@XZ 100019f0 f i main.obj
 0001:00000a10       ??0error_category@std@@QAE@XZ 10001a10 f i main.obj
 0001:00000a30       ??0error_condition@std@@QAE@HABVerror_category@1@@Z 10001a30 f i main.obj
 0001:00000a60       ??1_Generic_error_category@std@@UAE@XZ 10001a60 f i main.obj
 0001:00000a80       ??1_Iostream_error_category@std@@UAE@XZ 10001a80 f i main.obj
 0001:00000a80       ??1_System_error_category@std@@UAE@XZ 10001a80 f i main.obj
 0001:00000aa0       ??1error_category@std@@UAE@XZ 10001aa0 f i main.obj
 0001:00000ac0       ??2@YAPAXIPAX@Z            10001ac0 f i main.obj
 0001:00000ad0       ??8error_category@std@@QBE_NABV01@@Z 10001ad0 f i main.obj
 0001:00000b00       ??8error_condition@std@@QBE_NABV01@@Z 10001b00 f i main.obj
 0001:00000b60       ??_G_Generic_error_category@std@@UAEPAXI@Z 10001b60 f i main.obj
 0001:00000b60       ??_E_Generic_error_category@std@@UAEPAXI@Z 10001b60 f i main.obj
 0001:00000b90       ??_G_System_error_category@std@@UAEPAXI@Z 10001b90 f i main.obj
 0001:00000b90       ??_E_Iostream_error_category@std@@UAEPAXI@Z 10001b90 f i main.obj
 0001:00000b90       ??_G_Iostream_error_category@std@@UAEPAXI@Z 10001b90 f i main.obj
 0001:00000b90       ??_E_System_error_category@std@@UAEPAXI@Z 10001b90 f i main.obj
 0001:00000bc0       ??_Eerror_category@std@@UAEPAXI@Z 10001bc0 f i main.obj
 0001:00000bc0       ??_Gerror_category@std@@UAEPAXI@Z 10001bc0 f i main.obj
 0001:00000bf0       ??_Gsession_t@@QAEPAXI@Z   10001bf0 f i main.obj
 0001:00000c20       ?_Copy@?$basic_string@DU?$char_traits@D@std@@V?$allocator@D@2@@std@@QAEXII@Z 10001c20 f i main.obj
 0001:00000dd0       ?_Eos@?$basic_string@DU?$char_traits@D@std@@V?$allocator@D@2@@std@@QAEXI@Z 10001dd0 f i main.obj
 0001:00000e10       ?_Grow@?$basic_string@DU?$char_traits@D@std@@V?$allocator@D@2@@std@@QAE_NI_N@Z 10001e10 f i main.obj
 0001:00000ec0       ?_Inside@?$basic_string@DU?$char_traits@D@std@@V?$allocator@D@2@@std@@QAE_NPBD@Z 10001ec0 f i main.obj
 0001:00000f00       ?_Myptr@?$_String_val@U?$_Simple_types@D@std@@@std@@QAEPADXZ 10001f00 f i main.obj
 0001:00000f00       ?_Myptr@?$_String_val@U?$_Simple_types@D@std@@@std@@QBEPBDXZ 10001f00 f i main.obj
 0001:00000f40       ?_Tidy@?$basic_string@DU?$char_traits@D@std@@V?$allocator@D@2@@std@@QAEX_NI@Z 10001f40 f i main.obj
 0001:00000fe0       ?_Xlen@?$basic_string@DU?$char_traits@D@std@@V?$allocator@D@2@@std@@QBEXXZ 10001fe0 f i main.obj
 0001:00001000       ?_Xran@?$basic_string@DU?$char_traits@D@std@@V?$allocator@D@2@@std@@QBEXXZ 10002000 f i main.obj
 0001:00001020       ?allocate@?$_Wrap_alloc@V?$allocator@D@std@@@std@@QAEPADI@Z 10002020 f i main.obj
 0001:00001040       ?allocate@?$allocator@D@std@@QAEPADI@Z 10002040 f i main.obj
 0001:00001060       ?assign@?$basic_string@DU?$char_traits@D@std@@V?$allocator@D@2@@std@@QAEAAV12@ABV12@II@Z 10002060 f i main.obj
 0001:00001110       ?assign@?$basic_string@DU?$char_traits@D@std@@V?$allocator@D@2@@std@@QAEAAV12@PBD@Z 10002110 f i main.obj
 0001:00001140       ?assign@?$basic_string@DU?$char_traits@D@std@@V?$allocator@D@2@@std@@QAEAAV12@PBDI@Z 10002140 f i main.obj
 0001:000011c0       ?assign@?$char_traits@D@std@@SAXAADABD@Z 100021c0 f i main.obj
 0001:000011d0       ?copy@?$char_traits@D@std@@SAPADPADPBDI@Z 100021d0 f i main.obj
 0001:00001200       ?deallocate@?$_Wrap_alloc@V?$allocator@U?$_Tree_node@U?$pair@$$CBHPAVobject_t@@@std@@PAX@std@@@std@@@std@@QAEXPAU?$_Tree_node@U?$pair@$$CBHPAVobject_t@@@std@@PAX@2@I@Z 10002200 f i mfdpage.obj
 0001:00001200       ?deallocate@?$_Wrap_alloc@V?$allocator@U?$_Tree_node@U?$pair@$$CBV?$basic_string@DU?$char_traits@D@std@@V?$allocator@D@2@@std@@M@std@@PAX@std@@@std@@@std@@QAEXPAU?$_Tree_node@U?$pair@$$CBV?$basic_string@DU?$char_traits@D@std@@V?$allocator@D@2@@std@@M@std@@PAX@2@I@Z 10002200 f i mfdpage_fms.obj
 0001:00001200       ?deallocate@?$_Wrap_alloc@V?$allocator@U?$_Tree_node@PAVmfdpage_t@@PAX@std@@@std@@@std@@QAEXPAU?$_Tree_node@PAVmfdpage_t@@PAX@2@I@Z 10002200 f i in.obj
 0001:00001200       ?deallocate@?$_Wrap_alloc@V?$allocator@U?$_Tree_node@PAVobject_t@@PAX@std@@@std@@@std@@QAEXPAU?$_Tree_node@PAVobject_t@@PAX@2@I@Z 10002200 f i data.obj
 0001:00001200       ?deallocate@?$_Wrap_alloc@V?$allocator@U?$_Tree_node@U?$pair@$$CBV?$basic_string@DU?$char_traits@D@std@@V?$allocator@D@2@@std@@PAVfms_fp_item_t@@@std@@PAX@std@@@std@@@std@@QAEXPAU?$_Tree_node@U?$pair@$$CBV?$basic_string@DU?$char_traits@D@std@@V?$allocator@D@2@@std@@PAVfms_fp_item_t@@@std@@PAX@2@I@Z 10002200 f i fms_fp.obj
 0001:00001200       ?deallocate@?$_Wrap_alloc@V?$allocator@U?$_Tree_node@PAVlistener_t@@PAX@std@@@std@@@std@@QAEXPAU?$_Tree_node@PAVlistener_t@@PAX@2@I@Z 10002200 f i data.obj
 0001:00001200       ?deallocate@?$_Wrap_alloc@V?$allocator@U?$_Tree_node@U?$pair@$$CBHPAVfms_fp_item_t@@@std@@PAX@std@@@std@@@std@@QAEXPAU?$_Tree_node@U?$pair@$$CBHPAVfms_fp_item_t@@@std@@PAX@2@I@Z 10002200 f i mfdpage_fms.obj
 0001:00001200       ?deallocate@?$_Wrap_alloc@V?$allocator@U?$_Tree_node@U?$pair@$$CBHV?$basic_string@DU?$char_traits@D@std@@V?$allocator@D@2@@std@@@std@@PAX@std@@@std@@@std@@QAEXPAU?$_Tree_node@U?$pair@$$CBHV?$basic_string@DU?$char_traits@D@std@@V?$allocator@D@2@@std@@@std@@PAX@2@I@Z 10002200 f i out_saitek.obj
 0001:00001200       ?deallocate@?$_Wrap_alloc@V?$allocator@U?$_Tree_node@U?$pair@$$CBV?$basic_string@DU?$char_traits@D@std@@V?$allocator@D@2@@std@@V12@@std@@PAX@std@@@std@@@std@@QAEXPAU?$_Tree_node@U?$pair@$$CBV?$basic_string@DU?$char_traits@D@std@@V?$allocator@D@2@@std@@V12@@std@@PAX@2@I@Z 10002200 f i tools.obj
 0001:00001200       ?deallocate@?$_Wrap_alloc@V?$allocator@U?$_Tree_node@U?$pair@$$CBV?$basic_string@DU?$char_traits@D@std@@V?$allocator@D@2@@std@@D@std@@PAX@std@@@std@@@std@@QAEXPAU?$_Tree_node@U?$pair@$$CBV?$basic_string@DU?$char_traits@D@std@@V?$allocator@D@2@@std@@D@std@@PAX@2@I@Z 10002200 f i mfdpage.obj
 0001:00001200       ?deallocate@?$_Wrap_alloc@V?$allocator@U?$_Tree_node@U?$pair@$$CBV?$basic_string@DU?$char_traits@D@std@@V?$allocator@D@2@@std@@PAVfms_config_item_t@@@std@@PAX@std@@@std@@@std@@QAEXPAU?$_Tree_node@U?$pair@$$CBV?$basic_string@DU?$char_traits@D@std@@V?$allocator@D@2@@std@@PAVfms_config_item_t@@@std@@PAX@2@I@Z 10002200 f i fms_config.obj
 0001:00001200       ?deallocate@?$_Wrap_alloc@V?$allocator@D@std@@@std@@QAEXPADI@Z 10002200 f i main.obj
 0001:00001200       ?deallocate@?$_Wrap_alloc@V?$allocator@U?$_Tree_node@U?$pair@$$CBHM@std@@PAX@std@@@std@@@std@@QAEXPAU?$_Tree_node@U?$pair@$$CBHM@std@@PAX@2@I@Z 10002200 f i fms_config.obj
 0001:00001200       ?deallocate@?$_Wrap_alloc@V?$allocator@U?$_Tree_node@U?$pair@$$CBV?$basic_string@DU?$char_traits@D@std@@V?$allocator@D@2@@std@@H@std@@PAX@std@@@std@@@std@@QAEXPAU?$_Tree_node@U?$pair@$$CBV?$basic_string@DU?$char_traits@D@std@@V?$allocator@D@2@@std@@H@std@@PAX@2@I@Z 10002200 f i mfdpage.obj
 0001:00001220       ?deallocate@?$allocator@U?$_Tree_node@PAVobject_t@@PAX@std@@@std@@QAEXPAU?$_Tree_node@PAVobject_t@@PAX@2@I@Z 10002220 f i data.obj
 0001:00001220       ?deallocate@?$allocator@U?$_Tree_node@U?$pair@$$CBV?$basic_string@DU?$char_traits@D@std@@V?$allocator@D@2@@std@@V12@@std@@PAX@std@@@std@@QAEXPAU?$_Tree_node@U?$pair@$$CBV?$basic_string@DU?$char_traits@D@std@@V?$allocator@D@2@@std@@V12@@std@@PAX@2@I@Z 10002220 f i tools.obj
 0001:00001220       ?deallocate@?$allocator@U?$_Tree_node@PAVlistener_t@@PAX@std@@@std@@QAEXPAU?$_Tree_node@PAVlistener_t@@PAX@2@I@Z 10002220 f i data.obj
 0001:00001220       ?deallocate@?$allocator@U?$_Tree_node@U?$pair@$$CBHM@std@@PAX@std@@@std@@QAEXPAU?$_Tree_node@U?$pair@$$CBHM@std@@PAX@2@I@Z 10002220 f i fms_config.obj
 0001:00001220       ?deallocate@?$allocator@U?$_Tree_node@U?$pair@$$CBV?$basic_string@DU?$char_traits@D@std@@V?$allocator@D@2@@std@@D@std@@PAX@std@@@std@@QAEXPAU?$_Tree_node@U?$pair@$$CBV?$basic_string@DU?$char_traits@D@std@@V?$allocator@D@2@@std@@D@std@@PAX@2@I@Z 10002220 f i mfdpage.obj
 0001:00001220       ?deallocate@?$allocator@U?$_Tree_node@PAVmfdpage_t@@PAX@std@@@std@@QAEXPAU?$_Tree_node@PAVmfdpage_t@@PAX@2@I@Z 10002220 f i in.obj
 0001:00001220       ?deallocate@?$allocator@U?$_Tree_node@U?$pair@$$CBHV?$basic_string@DU?$char_traits@D@std@@V?$allocator@D@2@@std@@@std@@PAX@std@@@std@@QAEXPAU?$_Tree_node@U?$pair@$$CBHV?$basic_string@DU?$char_traits@D@std@@V?$allocator@D@2@@std@@@std@@PAX@2@I@Z 10002220 f i out_saitek.obj
 0001:00001220       ?deallocate@?$allocator@U?$_Tree_node@U?$pair@$$CBV?$basic_string@DU?$char_traits@D@std@@V?$allocator@D@2@@std@@PAVfms_config_item_t@@@std@@PAX@std@@@std@@QAEXPAU?$_Tree_node@U?$pair@$$CBV?$basic_string@DU?$char_traits@D@std@@V?$allocator@D@2@@std@@PAVfms_config_item_t@@@std@@PAX@2@I@Z 10002220 f i fms_config.obj
 0001:00001220       ?deallocate@?$allocator@U?$_Tree_node@U?$pair@$$CBV?$basic_string@DU?$char_traits@D@std@@V?$allocator@D@2@@std@@PAVfms_fp_item_t@@@std@@PAX@std@@@std@@QAEXPAU?$_Tree_node@U?$pair@$$CBV?$basic_string@DU?$char_traits@D@std@@V?$allocator@D@2@@std@@PAVfms_fp_item_t@@@std@@PAX@2@I@Z 10002220 f i fms_fp.obj
 0001:00001220       ?deallocate@?$allocator@D@std@@QAEXPADI@Z 10002220 f i main.obj
 0001:00001220       ?deallocate@?$allocator@U?$_Tree_node@U?$pair@$$CBV?$basic_string@DU?$char_traits@D@std@@V?$allocator@D@2@@std@@H@std@@PAX@std@@@std@@QAEXPAU?$_Tree_node@U?$pair@$$CBV?$basic_string@DU?$char_traits@D@std@@V?$allocator@D@2@@std@@H@std@@PAX@2@I@Z 10002220 f i mfdpage.obj
 0001:00001220       ?deallocate@?$allocator@U?$_Tree_node@U?$pair@$$CBHPAVobject_t@@@std@@PAX@std@@@std@@QAEXPAU?$_Tree_node@U?$pair@$$CBHPAVobject_t@@@std@@PAX@2@I@Z 10002220 f i mfdpage.obj
 0001:00001220       ?deallocate@?$allocator@U?$_Tree_node@U?$pair@$$CBHPAVfms_fp_item_t@@@std@@PAX@std@@@std@@QAEXPAU?$_Tree_node@U?$pair@$$CBHPAVfms_fp_item_t@@@std@@PAX@2@I@Z 10002220 f i mfdpage_fms.obj
 0001:00001220       ?deallocate@?$allocator@U?$_Tree_node@U?$pair@$$CBV?$basic_string@DU?$char_traits@D@std@@V?$allocator@D@2@@std@@M@std@@PAX@std@@@std@@QAEXPAU?$_Tree_node@U?$pair@$$CBV?$basic_string@DU?$char_traits@D@std@@V?$allocator@D@2@@std@@M@std@@PAX@2@I@Z 10002220 f i mfdpage_fms.obj
 0001:00001240       ?default_error_condition@_System_error_category@std@@UBE?AVerror_condition@2@H@Z 10002240 f i main.obj
 0001:00001290       ?default_error_condition@error_category@std@@UBE?AVerror_condition@2@H@Z 10002290 f i main.obj
 0001:000012b0       ?equivalent@error_category@std@@UBE_NABVerror_code@2@H@Z 100022b0 f i main.obj
 0001:00001300       ?equivalent@error_category@std@@UBE_NHABVerror_condition@2@@Z 10002300 f i main.obj
 0001:00001330       ?erase@?$basic_string@DU?$char_traits@D@std@@V?$allocator@D@2@@std@@QAEAAV12@I@Z 10002330 f i main.obj
 0001:00001360       ?erase@?$basic_string@DU?$char_traits@D@std@@V?$allocator@D@2@@std@@QAEAAV12@II@Z 10002360 f i main.obj
 0001:000013f0       ?generic_category@std@@YAABVerror_category@1@XZ 100023f0 f i main.obj
 0001:00001400       ?length@?$char_traits@D@std@@SAIPBD@Z 10002400 f i main.obj
 0001:00001430       ?max_size@?$_Wrap_alloc@V?$allocator@D@std@@@std@@QBEIXZ 10002430 f i main.obj
 0001:00001450       ?max_size@?$allocator@D@std@@QBEIXZ 10002450 f i main.obj
 0001:00001460       ?max_size@?$allocator_traits@V?$allocator@D@std@@@std@@SAIABV?$allocator@D@2@@Z 10002460 f i main.obj
 0001:00001470       ?max_size@?$basic_string@DU?$char_traits@D@std@@V?$allocator@D@2@@std@@QBEIXZ 10002470 f i main.obj
 0001:000014b0       ?message@_Generic_error_category@std@@UBE?AV?$basic_string@DU?$char_traits@D@std@@V?$allocator@D@2@@2@H@Z 100024b0 f i main.obj
 0001:00001500       ?message@_Iostream_error_category@std@@UBE?AV?$basic_string@DU?$char_traits@D@std@@V?$allocator@D@2@@2@H@Z 10002500 f i main.obj
 0001:00001540       ?message@_System_error_category@std@@UBE?AV?$basic_string@DU?$char_traits@D@std@@V?$allocator@D@2@@2@H@Z 10002540 f i main.obj
 0001:00001590       ?move@?$char_traits@D@std@@SAPADPADPBDI@Z 10002590 f i main.obj
 0001:000015d0       ?name@_Generic_error_category@std@@UBEPBDXZ 100025d0 f i main.obj
 0001:000015e0       ?name@_Iostream_error_category@std@@UBEPBDXZ 100025e0 f i main.obj
 0001:000015f0       ?name@_System_error_category@std@@UBEPBDXZ 100025f0 f i main.obj
 0001:00001600       ?system_category@std@@YAABVerror_category@1@XZ 10002600 f i main.obj
 0001:00001610       ??0session_t@@QAE@XZ       10002610 f   session.obj
 0001:00001820       ??1session_t@@QAE@XZ       10002820 f   session.obj
 0001:00001960       ?enable@session_t@@QAEHXZ  10002960 f   session.obj
 0001:00001990       ?disable@session_t@@QAEXXZ 10002990 f   session.obj
 0001:000019b0       ??_Gfms_t@@QAEPAXI@Z       100029b0 f i session.obj
 0001:000019e0       ??_Ggui_t@@QAEPAXI@Z       100029e0 f i session.obj
 0001:00001a10       ??_Gin_t@@QAEPAXI@Z        10002a10 f i session.obj
 0001:00001a40       ??_Gmfdpages_t@@QAEPAXI@Z  10002a40 f i session.obj
 0001:00001a70       ??_Gout_t@@QAEPAXI@Z       10002a70 f i session.obj
 0001:00001ae0       ??0tools_t@@QAE@XZ         10002ae0 f   tools.obj
 0001:00001af0       ?debug_out@tools_t@@QAAXHPBDZZ 10002af0 f   tools.obj
 0001:00001d20       ?debug_out@tools_t@@SAXPBDZZ 10002d20 f   tools.obj
 0001:00001da0       ??$?0$$QAV?$basic_string@DU?$char_traits@D@std@@V?$allocator@D@2@@std@@$$$V@?$pair@$$CBV?$basic_string@DU?$char_traits@D@std@@V?$allocator@D@2@@std@@V12@@std@@QAE@Upiecewise_construct_t@1@V?$tuple@$$QAV?$basic_string@DU?$char_traits@D@std@@V?$allocator@D@2@@std@@@1@V?$tuple@$$$V@1@@Z 10002da0 f i tools.obj
 0001:00001de0       ??$?0ABHPAPAX@?$tuple@ABH@std@@QAE@$$QAV01@@Z 10002de0 f i out_saitek.obj
 0001:00001de0       ??$?0$$QAHPAPAX@?$tuple@$$QAH@std@@QAE@$$QAV01@@Z 10002de0 f i mfdpage_fms.obj
 0001:00001de0       ??$?0$$QAV?$basic_string@DU?$char_traits@D@std@@V?$allocator@D@2@@std@@PAPAX@?$tuple@$$QAV?$basic_string@DU?$char_traits@D@std@@V?$allocator@D@2@@std@@@std@@QAE@$$QAV01@@Z 10002de0 f i tools.obj
 0001:00001de0       ??$?0ABV?$basic_string@DU?$char_traits@D@std@@V?$allocator@D@2@@std@@PAPAX@?$tuple@ABV?$basic_string@DU?$char_traits@D@std@@V?$allocator@D@2@@std@@@std@@QAE@$$QAV01@@Z 10002de0 f i mfdpage.obj
 0001:00001e30       ??$?0V?$basic_string@DU?$char_traits@D@std@@V?$allocator@D@2@@std@@@?$_Tuple_val@$$QAV?$basic_string@DU?$char_traits@D@std@@V?$allocator@D@2@@std@@@std@@QAE@$$QAV?$basic_string@DU?$char_traits@D@std@@V?$allocator@D@2@@1@@Z 10002e30 f i tools.obj
 0001:00001e30       ??$?0H@?$_Tuple_val@$$QAH@std@@QAE@$$QAH@Z 10002e30 f i mfdpage_fms.obj
 0001:00001e30       ??$?0ABH@?$_Tuple_val@ABH@std@@QAE@ABH@Z 10002e30 f i out_saitek.obj
 0001:00001e30       ??$?0ABV?$basic_string@DU?$char_traits@D@std@@V?$allocator@D@2@@std@@@?$_Tuple_val@ABV?$basic_string@DU?$char_traits@D@std@@V?$allocator@D@2@@std@@@std@@QAE@ABV?$basic_string@DU?$char_traits@D@std@@V?$allocator@D@2@@1@@Z 10002e30 f i mfdpage.obj
 0001:00001e60       ??$?0V?$tuple@$$QAV?$basic_string@DU?$char_traits@D@std@@V?$allocator@D@2@@std@@@std@@V?$tuple@$$$V@1@$0A@$S@?$pair@$$CBV?$basic_string@DU?$char_traits@D@std@@V?$allocator@D@2@@std@@V12@@std@@QAE@AAV?$tuple@$$QAV?$basic_string@DU?$char_traits@D@std@@V?$allocator@D@2@@std@@@1@AAV?$tuple@$$$V@1@U?$_Arg_idx@$0A@@1@U?$_Arg_idx@$S@1@@Z 10002e60 f i tools.obj
 0001:00001ea0       ??$?MDU?$char_traits@D@std@@V?$allocator@D@1@@std@@YA_NABV?$basic_string@DU?$char_traits@D@std@@V?$allocator@D@2@@0@0@Z 10002ea0 f i tools.obj
 0001:00001ed0       ??$_Allocate@U?$_Tree_node@U?$pair@$$CBV?$basic_string@DU?$char_traits@D@std@@V?$allocator@D@2@@std@@V12@@std@@PAX@std@@@std@@YAPAU?$_Tree_node@U?$pair@$$CBV?$basic_string@DU?$char_traits@D@std@@V?$allocator@D@2@@std@@V12@@std@@PAX@0@IPAU10@@Z 10002ed0 f i tools.obj
 0001:00001f20       ??$_Buynode@ABUpiecewise_construct_t@std@@V?$tuple@$$QAV?$basic_string@DU?$char_traits@D@std@@V?$allocator@D@2@@std@@@2@V?$tuple@$$$V@2@@?$_Tree_buy@U?$pair@$$CBV?$basic_string@DU?$char_traits@D@std@@V?$allocator@D@2@@std@@V12@@std@@V?$allocator@U?$pair@$$CBV?$basic_string@DU?$char_traits@D@std@@V?$allocator@D@2@@std@@V12@@std@@@2@@std@@QAEPAU?$_Tree_node@U?$pair@$$CBV?$basic_string@DU?$char_traits@D@std@@V?$allocator@D@2@@std@@V12@@std@@PAX@1@ABUpiecewise_construct_t@1@$$QAV?$tuple@$$QAV?$basic_string@DU?$char_traits@D@std@@V?$allocator@D@2@@std@@@1@$$QAV?$tuple@$$$V@1@@Z 10002f20 f i tools.obj
 0001:00002020       ??$_Insert_at@AAU?$pair@$$CBV?$basic_string@DU?$char_traits@D@std@@V?$allocator@D@2@@std@@V12@@std@@PAU?$_Tree_node@U?$pair@$$CBV?$basic_string@DU?$char_traits@D@std@@V?$allocator@D@2@@std@@V12@@std@@PAX@2@@?$_Tree@V?$_Tmap_traits@V?$basic_string@DU?$char_traits@D@std@@V?$allocator@D@2@@std@@V12@U?$less@V?$basic_string@DU?$char_traits@D@std@@V?$allocator@D@2@@std@@@2@V?$allocator@U?$pair@$$CBV?$basic_string@DU?$char_traits@D@std@@V?$allocator@D@2@@std@@V12@@std@@@2@$0A@@std@@@std@@IAE?AV?$_Tree_iterator@V?$_Tree_val@U?$_Tree_simple_types@U?$pair@$$CBV?$basic_string@DU?$char_traits@D@std@@V?$allocator@D@2@@std@@V12@@std@@@std@@@std@@@1@_NPAU?$_Tree_node@U?$pair@$$CBV?$basic_string@DU?$char_traits@D@std@@V?$allocator@D@2@@std@@V12@@std@@PAX@1@AAU?$pair@$$CBV?$basic_string@DU?$char_traits@D@std@@V?$allocator@D@2@@std@@V12@@1@1@Z 10003020 f i tools.obj
 0001:00002450       ??$_Insert_hint@AAU?$pair@$$CBV?$basic_string@DU?$char_traits@D@std@@V?$allocator@D@2@@std@@V12@@std@@PAU?$_Tree_node@U?$pair@$$CBV?$basic_string@DU?$char_traits@D@std@@V?$allocator@D@2@@std@@V12@@std@@PAX@2@@?$_Tree@V?$_Tmap_traits@V?$basic_string@DU?$char_traits@D@std@@V?$allocator@D@2@@std@@V12@U?$less@V?$basic_string@DU?$char_traits@D@std@@V?$allocator@D@2@@std@@@2@V?$allocator@U?$pair@$$CBV?$basic_string@DU?$char_traits@D@std@@V?$allocator@D@2@@std@@V12@@std@@@2@$0A@@std@@@std@@IAE?AV?$_Tree_iterator@V?$_Tree_val@U?$_Tree_simple_types@U?$pair@$$CBV?$basic_string@DU?$char_traits@D@std@@V?$allocator@D@2@@std@@V12@@std@@@std@@@std@@@1@V?$_Tree_const_iterator@V?$_Tree_val@U?$_Tree_simple_types@U?$pair@$$CBV?$basic_string@DU?$char_traits@D@std@@V?$allocator@D@2@@std@@V12@@std@@@std@@@std@@@1@AAU?$pair@$$CBV?$basic_string@DU?$char_traits@D@std@@V?$allocator@D@2@@std@@V12@@1@PAU?$_Tree_node@U?$pair@$$CBV?$basic_string@DU?$char_traits@D@std@@V?$allocator@D@2@@std@@V12@@std@@PAX@1@@Z 10003450 f i tools.obj
 0001:00002c00       ??$_Insert_nohint@AAU?$pair@$$CBV?$basic_string@DU?$char_traits@D@std@@V?$allocator@D@2@@std@@V12@@std@@PAU?$_Tree_node@U?$pair@$$CBV?$basic_string@DU?$char_traits@D@std@@V?$allocator@D@2@@std@@V12@@std@@PAX@2@@?$_Tree@V?$_Tmap_traits@V?$basic_string@DU?$char_traits@D@std@@V?$allocator@D@2@@std@@V12@U?$less@V?$basic_string@DU?$char_traits@D@std@@V?$allocator@D@2@@std@@@2@V?$allocator@U?$pair@$$CBV?$basic_string@DU?$char_traits@D@std@@V?$allocator@D@2@@std@@V12@@std@@@2@$0A@@std@@@std@@IAE?AU?$pair@V?$_Tree_iterator@V?$_Tree_val@U?$_Tree_simple_types@U?$pair@$$CBV?$basic_string@DU?$char_traits@D@std@@V?$allocator@D@2@@std@@V12@@std@@@std@@@std@@@std@@_N@1@_NAAU?$pair@$$CBV?$basic_string@DU?$char_traits@D@std@@V?$allocator@D@2@@std@@V12@@1@PAU?$_Tree_node@U?$pair@$$CBV?$basic_string@DU?$char_traits@D@std@@V?$allocator@D@2@@std@@V12@@std@@PAX@1@@Z 10003c00 f i tools.obj
 0001:00002ed0       ??$construct@U?$pair@$$CBV?$basic_string@DU?$char_traits@D@std@@V?$allocator@D@2@@std@@V12@@std@@ABUpiecewise_construct_t@2@V?$tuple@$$QAV?$basic_string@DU?$char_traits@D@std@@V?$allocator@D@2@@std@@@2@V?$tuple@$$$V@2@@?$_Wrap_alloc@V?$allocator@U?$_Tree_node@U?$pair@$$CBV?$basic_string@DU?$char_traits@D@std@@V?$allocator@D@2@@std@@V12@@std@@PAX@std@@@std@@@std@@QAEXPAU?$pair@$$CBV?$basic_string@DU?$char_traits@D@std@@V?$allocator@D@2@@std@@V12@@1@ABUpiecewise_construct_t@1@$$QAV?$tuple@$$QAV?$basic_string@DU?$char_traits@D@std@@V?$allocator@D@2@@std@@@1@$$QAV?$tuple@$$$V@1@@Z 10003ed0 f i tools.obj
 0001:00002f20       ??$construct@U?$pair@$$CBV?$basic_string@DU?$char_traits@D@std@@V?$allocator@D@2@@std@@V12@@std@@ABUpiecewise_construct_t@2@V?$tuple@$$QAV?$basic_string@DU?$char_traits@D@std@@V?$allocator@D@2@@std@@@2@V?$tuple@$$$V@2@@?$allocator@U?$_Tree_node@U?$pair@$$CBV?$basic_string@DU?$char_traits@D@std@@V?$allocator@D@2@@std@@V12@@std@@PAX@std@@@std@@QAEXPAU?$pair@$$CBV?$basic_string@DU?$char_traits@D@std@@V?$allocator@D@2@@std@@V12@@1@ABUpiecewise_construct_t@1@$$QAV?$tuple@$$QAV?$basic_string@DU?$char_traits@D@std@@V?$allocator@D@2@@std@@@1@$$QAV?$tuple@$$$V@1@@Z 10003f20 f i tools.obj
 0001:00002f90       ??$construct@U?$pair@$$CBV?$basic_string@DU?$char_traits@D@std@@V?$allocator@D@2@@std@@V12@@std@@ABUpiecewise_construct_t@2@V?$tuple@$$QAV?$basic_string@DU?$char_traits@D@std@@V?$allocator@D@2@@std@@@2@V?$tuple@$$$V@2@@?$allocator_traits@V?$allocator@U?$_Tree_node@U?$pair@$$CBV?$basic_string@DU?$char_traits@D@std@@V?$allocator@D@2@@std@@V12@@std@@PAX@std@@@std@@@std@@SAXAAV?$allocator@U?$_Tree_node@U?$pair@$$CBV?$basic_string@DU?$char_traits@D@std@@V?$allocator@D@2@@std@@V12@@std@@PAX@std@@@1@PAU?$pair@$$CBV?$basic_string@DU?$char_traits@D@std@@V?$allocator@D@2@@std@@V12@@1@ABUpiecewise_construct_t@1@$$QAV?$tuple@$$QAV?$basic_string@DU?$char_traits@D@std@@V?$allocator@D@2@@std@@@1@$$QAV?$tuple@$$$V@1@@Z 10003f90 f i tools.obj
 0001:00002fd0       ??$destroy@U?$pair@$$CBV?$basic_string@DU?$char_traits@D@std@@V?$allocator@D@2@@std@@V12@@std@@@?$_Wrap_alloc@V?$allocator@U?$_Tree_node@U?$pair@$$CBV?$basic_string@DU?$char_traits@D@std@@V?$allocator@D@2@@std@@V12@@std@@PAX@std@@@std@@@std@@QAEXPAU?$pair@$$CBV?$basic_string@DU?$char_traits@D@std@@V?$allocator@D@2@@std@@V12@@1@@Z 10003fd0 f i tools.obj
 0001:00002ff0       ??$destroy@U?$pair@$$CBV?$basic_string@DU?$char_traits@D@std@@V?$allocator@D@2@@std@@V12@@std@@@?$allocator@U?$_Tree_node@U?$pair@$$CBV?$basic_string@DU?$char_traits@D@std@@V?$allocator@D@2@@std@@V12@@std@@PAX@std@@@std@@QAEXPAU?$pair@$$CBV?$basic_string@DU?$char_traits@D@std@@V?$allocator@D@2@@std@@V12@@1@@Z 10003ff0 f i tools.obj
 0001:00003010       ??$destroy@U?$pair@$$CBV?$basic_string@DU?$char_traits@D@std@@V?$allocator@D@2@@std@@V12@@std@@@?$allocator_traits@V?$allocator@U?$_Tree_node@U?$pair@$$CBV?$basic_string@DU?$char_traits@D@std@@V?$allocator@D@2@@std@@V12@@std@@PAX@std@@@std@@@std@@SAXAAV?$allocator@U?$_Tree_node@U?$pair@$$CBV?$basic_string@DU?$char_traits@D@std@@V?$allocator@D@2@@std@@V12@@std@@PAX@std@@@1@PAU?$pair@$$CBV?$basic_string@DU?$char_traits@D@std@@V?$allocator@D@2@@std@@V12@@1@@Z 10004010 f i tools.obj
 0001:00003030       ??$emplace_hint@ABUpiecewise_construct_t@std@@V?$tuple@$$QAV?$basic_string@DU?$char_traits@D@std@@V?$allocator@D@2@@std@@@2@V?$tuple@$$$V@2@@?$_Tree@V?$_Tmap_traits@V?$basic_string@DU?$char_traits@D@std@@V?$allocator@D@2@@std@@V12@U?$less@V?$basic_string@DU?$char_traits@D@std@@V?$allocator@D@2@@std@@@2@V?$allocator@U?$pair@$$CBV?$basic_string@DU?$char_traits@D@std@@V?$allocator@D@2@@std@@V12@@std@@@2@$0A@@std@@@std@@QAE?AV?$_Tree_iterator@V?$_Tree_val@U?$_Tree_simple_types@U?$pair@$$CBV?$basic_string@DU?$char_traits@D@std@@V?$allocator@D@2@@std@@V12@@std@@@std@@@std@@@1@V?$_Tree_const_iterator@V?$_Tree_val@U?$_Tree_simple_types@U?$pair@$$CBV?$basic_string@DU?$char_traits@D@std@@V?$allocator@D@2@@std@@V12@@std@@@std@@@std@@@1@ABUpiecewise_construct_t@1@$$QAV?$tuple@$$QAV?$basic_string@DU?$char_traits@D@std@@V?$allocator@D@2@@std@@@1@$$QAV?$tuple@$$$V@1@@Z 10004030 f i tools.obj
 0001:000030a0       ??$swap@D@std@@YAXAAD0@Z   100040a0 f i tools.obj
 0001:000030e0       ??0?$basic_string@DU?$char_traits@D@std@@V?$allocator@D@2@@std@@QAE@$$QAV01@@Z 100040e0 f i tools.obj
 0001:00003130       ??0?$basic_string@DU?$char_traits@D@std@@V?$allocator@D@2@@std@@QAE@XZ 10004130 f i tools.obj
 0001:00003160       ??1?$_Tree@V?$_Tmap_traits@V?$basic_string@DU?$char_traits@D@std@@V?$allocator@D@2@@std@@V12@U?$less@V?$basic_string@DU?$char_traits@D@std@@V?$allocator@D@2@@std@@@2@V?$allocator@U?$pair@$$CBV?$basic_string@DU?$char_traits@D@std@@V?$allocator@D@2@@std@@V12@@std@@@2@$0A@@std@@@std@@QAE@XZ 10004160 f i tools.obj
 0001:00003180       ??1?$basic_string@DU?$char_traits@D@std@@V?$allocator@D@2@@std@@QAE@XZ 10004180 f i tools.obj
 0001:000031a0       ??1?$map@V?$basic_string@DU?$char_traits@D@std@@V?$allocator@D@2@@std@@V12@U?$less@V?$basic_string@DU?$char_traits@D@std@@V?$allocator@D@2@@std@@@2@V?$allocator@U?$pair@$$CBV?$basic_string@DU?$char_traits@D@std@@V?$allocator@D@2@@std@@V12@@std@@@2@@std@@QAE@XZ 100041a0 f i tools.obj
 0001:000031c0       ??1?$pair@$$CBV?$basic_string@DU?$char_traits@D@std@@V?$allocator@D@2@@std@@V12@@std@@QAE@XZ 100041c0 f i tools.obj
 0001:000031e0       ??A?$map@V?$basic_string@DU?$char_traits@D@std@@V?$allocator@D@2@@std@@V12@U?$less@V?$basic_string@DU?$char_traits@D@std@@V?$allocator@D@2@@std@@@2@V?$allocator@U?$pair@$$CBV?$basic_string@DU?$char_traits@D@std@@V?$allocator@D@2@@std@@V12@@std@@@2@@std@@QAEAAV?$basic_string@DU?$char_traits@D@std@@V?$allocator@D@2@@1@$$QAV21@@Z 100041e0 f i tools.obj
 0001:000032a0       ??C?$_Tree_iterator@V?$_Tree_val@U?$_Tree_simple_types@U?$pair@$$CBV?$basic_string@DU?$char_traits@D@std@@V?$allocator@D@2@@std@@V12@@std@@@std@@@std@@@std@@QBEPAU?$pair@$$CBV?$basic_string@DU?$char_traits@D@std@@V?$allocator@D@2@@std@@V12@@1@XZ 100042a0 f i tools.obj
 0001:000032a0       ??C?$_Tree_iterator@V?$_Tree_val@U?$_Tree_simple_types@U?$pair@$$CBV?$basic_string@DU?$char_traits@D@std@@V?$allocator@D@2@@std@@PAVfms_fp_item_t@@@std@@@std@@@std@@@std@@QBEPAU?$pair@$$CBV?$basic_string@DU?$char_traits@D@std@@V?$allocator@D@2@@std@@PAVfms_fp_item_t@@@1@XZ 100042a0 f i fms_fp.obj
 0001:000032a0       ??C?$_Tree_iterator@V?$_Tree_val@U?$_Tree_simple_types@U?$pair@$$CBV?$basic_string@DU?$char_traits@D@std@@V?$allocator@D@2@@std@@PAVfms_config_item_t@@@std@@@std@@@std@@@std@@QBEPAU?$pair@$$CBV?$basic_string@DU?$char_traits@D@std@@V?$allocator@D@2@@std@@PAVfms_config_item_t@@@1@XZ 100042a0 f i fms_config.obj
 0001:000032a0       ??C?$_Tree_iterator@V?$_Tree_val@U?$_Tree_simple_types@U?$pair@$$CBV?$basic_string@DU?$char_traits@D@std@@V?$allocator@D@2@@std@@H@std@@@std@@@std@@@std@@QBEPAU?$pair@$$CBV?$basic_string@DU?$char_traits@D@std@@V?$allocator@D@2@@std@@H@1@XZ 100042a0 f i mfdpage.obj
 0001:000032a0       ??C?$_Tree_iterator@V?$_Tree_val@U?$_Tree_simple_types@U?$pair@$$CBHM@std@@@std@@@std@@@std@@QBEPAU?$pair@$$CBHM@1@XZ 100042a0 f i fms_config.obj
 0001:000032a0       ??C?$_Tree_iterator@V?$_Tree_val@U?$_Tree_simple_types@U?$pair@$$CBHPAVfms_fp_item_t@@@std@@@std@@@std@@@std@@QBEPAU?$pair@$$CBHPAVfms_fp_item_t@@@1@XZ 100042a0 f i mfdpage_fms.obj
 0001:000032a0       ??C?$_Tree_iterator@V?$_Tree_val@U?$_Tree_simple_types@U?$pair@$$CBV?$basic_string@DU?$char_traits@D@std@@V?$allocator@D@2@@std@@D@std@@@std@@@std@@@std@@QBEPAU?$pair@$$CBV?$basic_string@DU?$char_traits@D@std@@V?$allocator@D@2@@std@@D@1@XZ 100042a0 f i mfdpage.obj
 0001:000032a0       ??C?$_Tree_iterator@V?$_Tree_val@U?$_Tree_simple_types@U?$pair@$$CBV?$basic_string@DU?$char_traits@D@std@@V?$allocator@D@2@@std@@M@std@@@std@@@std@@@std@@QBEPAU?$pair@$$CBV?$basic_string@DU?$char_traits@D@std@@V?$allocator@D@2@@std@@M@1@XZ 100042a0 f i mfdpage_fms.obj
 0001:000032a0       ??C?$_Tree_iterator@V?$_Tree_val@U?$_Tree_simple_types@U?$pair@$$CBHPAVobject_t@@@std@@@std@@@std@@@std@@QBEPAU?$pair@$$CBHPAVobject_t@@@1@XZ 100042a0 f i mfdpage.obj
 0001:000032a0       ??C?$_Tree_iterator@V?$_Tree_val@U?$_Tree_simple_types@U?$pair@$$CBHV?$basic_string@DU?$char_traits@D@std@@V?$allocator@D@2@@std@@@std@@@std@@@std@@@std@@QBEPAU?$pair@$$CBHV?$basic_string@DU?$char_traits@D@std@@V?$allocator@D@2@@std@@@1@XZ 100042a0 f i out_saitek.obj
 0001:000032c0       ??R?$less@V?$basic_string@DU?$char_traits@D@std@@V?$allocator@D@2@@std@@@std@@QBE_NABV?$basic_string@DU?$char_traits@D@std@@V?$allocator@D@2@@1@0@Z 100042c0 f i tools.obj
 0001:000032e0       ??_G?$pair@$$CBV?$basic_string@DU?$char_traits@D@std@@V?$allocator@D@2@@std@@V12@@std@@QAEPAXI@Z 100042e0 f i tools.obj
 0001:00003310       ?_Assign_rv@?$basic_string@DU?$char_traits@D@std@@V?$allocator@D@2@@std@@QAEX$$QAV12@@Z 10004310 f i tools.obj
 0001:00003390       ?_Buynode0@?$_Tree_buy@U?$pair@$$CBV?$basic_string@DU?$char_traits@D@std@@V?$allocator@D@2@@std@@V12@@std@@V?$allocator@U?$pair@$$CBV?$basic_string@DU?$char_traits@D@std@@V?$allocator@D@2@@std@@V12@@std@@@2@@std@@QAEPAU?$_Tree_node@U?$pair@$$CBV?$basic_string@DU?$char_traits@D@std@@V?$allocator@D@2@@std@@V12@@std@@PAX@2@XZ 10004390 f i tools.obj
 0001:000034c0       ?_Destroy_if_not_nil@?$_Tree@V?$_Tmap_traits@V?$basic_string@DU?$char_traits@D@std@@V?$allocator@D@2@@std@@V12@U?$less@V?$basic_string@DU?$char_traits@D@std@@V?$allocator@D@2@@std@@@2@V?$allocator@U?$pair@$$CBV?$basic_string@DU?$char_traits@D@std@@V?$allocator@D@2@@std@@V12@@std@@@2@$0A@@std@@@std@@IAEXPAU?$_Tree_node@U?$pair@$$CBV?$basic_string@DU?$char_traits@D@std@@V?$allocator@D@2@@std@@V12@@std@@PAX@2@@Z 100044c0 f i tools.obj
 0001:00003520       ?_Erase@?$_Tree@V?$_Tmap_traits@V?$basic_string@DU?$char_traits@D@std@@V?$allocator@D@2@@std@@V12@U?$less@V?$basic_string@DU?$char_traits@D@std@@V?$allocator@D@2@@std@@@2@V?$allocator@U?$pair@$$CBV?$basic_string@DU?$char_traits@D@std@@V?$allocator@D@2@@std@@V12@@std@@@2@$0A@@std@@@std@@IAEXPAU?$_Tree_node@U?$pair@$$CBV?$basic_string@DU?$char_traits@D@std@@V?$allocator@D@2@@std@@V12@@std@@PAX@2@@Z 10004520 f i tools.obj
 0001:000035c0       ?_Myval@?$_Tree_val@U?$_Tree_simple_types@U?$pair@$$CBV?$basic_string@DU?$char_traits@D@std@@V?$allocator@D@2@@std@@V12@@std@@@std@@@std@@SAAAU?$pair@$$CBV?$basic_string@DU?$char_traits@D@std@@V?$allocator@D@2@@std@@V12@@2@PAU?$_Tree_node@U?$pair@$$CBV?$basic_string@DU?$char_traits@D@std@@V?$allocator@D@2@@std@@V12@@std@@PAX@2@@Z 100045c0 f i tools.obj
 0001:000035c0       ?_Myval@?$_Tree_val@U?$_Tree_simple_types@U?$pair@$$CBHV?$basic_string@DU?$char_traits@D@std@@V?$allocator@D@2@@std@@@std@@@std@@@std@@SAAAU?$pair@$$CBHV?$basic_string@DU?$char_traits@D@std@@V?$allocator@D@2@@std@@@2@PAU?$_Tree_node@U?$pair@$$CBHV?$basic_string@DU?$char_traits@D@std@@V?$allocator@D@2@@std@@@std@@PAX@2@@Z 100045c0 f i out_saitek.obj
 0001:000035c0       ?_Myval@?$_Tree_val@U?$_Tree_simple_types@PAVmfdpage_t@@@std@@@std@@SAAAPAVmfdpage_t@@PAU?$_Tree_node@PAVmfdpage_t@@PAX@2@@Z 100045c0 f i in.obj
 0001:000035c0       ?_Myval@?$_Tree_val@U?$_Tree_simple_types@U?$pair@$$CBHPAVfms_fp_item_t@@@std@@@std@@@std@@SAAAU?$pair@$$CBHPAVfms_fp_item_t@@@2@PAU?$_Tree_node@U?$pair@$$CBHPAVfms_fp_item_t@@@std@@PAX@2@@Z 100045c0 f i mfdpage_fms.obj
 0001:000035c0       ?_Myval@?$_Tree_val@U?$_Tree_simple_types@U?$pair@$$CBV?$basic_string@DU?$char_traits@D@std@@V?$allocator@D@2@@std@@PAVfms_config_item_t@@@std@@@std@@@std@@SAAAU?$pair@$$CBV?$basic_string@DU?$char_traits@D@std@@V?$allocator@D@2@@std@@PAVfms_config_item_t@@@2@PAU?$_Tree_node@U?$pair@$$CBV?$basic_string@DU?$char_traits@D@std@@V?$allocator@D@2@@std@@PAVfms_config_item_t@@@std@@PAX@2@@Z 100045c0 f i fms_config.obj
 0001:000035c0       ?_Myval@?$_Tree_val@U?$_Tree_simple_types@U?$pair@$$CBHPAVobject_t@@@std@@@std@@@std@@SAAAU?$pair@$$CBHPAVobject_t@@@2@PAU?$_Tree_node@U?$pair@$$CBHPAVobject_t@@@std@@PAX@2@@Z 100045c0 f i mfdpage.obj
 0001:000035c0       ?_Myval@?$_Tree_val@U?$_Tree_simple_types@U?$pair@$$CBHM@std@@@std@@@std@@SAAAU?$pair@$$CBHM@2@PAU?$_Tree_node@U?$pair@$$CBHM@std@@PAX@2@@Z 100045c0 f i fms_config.obj
 0001:000035c0       ?_Myval@?$_Tree_val@U?$_Tree_simple_types@PAVobject_t@@@std@@@std@@SAAAPAVobject_t@@PAU?$_Tree_node@PAVobject_t@@PAX@2@@Z 100045c0 f i data.obj
 0001:000035c0       ?_Myval@?$_Tree_val@U?$_Tree_simple_types@U?$pair@$$CBV?$basic_string@DU?$char_traits@D@std@@V?$allocator@D@2@@std@@D@std@@@std@@@std@@SAAAU?$pair@$$CBV?$basic_string@DU?$char_traits@D@std@@V?$allocator@D@2@@std@@D@2@PAU?$_Tree_node@U?$pair@$$CBV?$basic_string@DU?$char_traits@D@std@@V?$allocator@D@2@@std@@D@std@@PAX@2@@Z 100045c0 f i mfdpage.obj
 0001:000035c0       ?_Myval@?$_Tree_val@U?$_Tree_simple_types@U?$pair@$$CBV?$basic_string@DU?$char_traits@D@std@@V?$allocator@D@2@@std@@M@std@@@std@@@std@@SAAAU?$pair@$$CBV?$basic_string@DU?$char_traits@D@std@@V?$allocator@D@2@@std@@M@2@PAU?$_Tree_node@U?$pair@$$CBV?$basic_string@DU?$char_traits@D@std@@V?$allocator@D@2@@std@@M@std@@PAX@2@@Z 100045c0 f i mfdpage_fms.obj
 0001:000035c0       ?_Myval@?$_Tree_val@U?$_Tree_simple_types@PAVlistener_t@@@std@@@std@@SAAAPAVlistener_t@@PAU?$_Tree_node@PAVlistener_t@@PAX@2@@Z 100045c0 f i data.obj
 0001:000035c0       ?_Myval@?$_Tree_val@U?$_Tree_simple_types@U?$pair@$$CBV?$basic_string@DU?$char_traits@D@std@@V?$allocator@D@2@@std@@H@std@@@std@@@std@@SAAAU?$pair@$$CBV?$basic_string@DU?$char_traits@D@std@@V?$allocator@D@2@@std@@H@2@PAU?$_Tree_node@U?$pair@$$CBV?$basic_string@DU?$char_traits@D@std@@V?$allocator@D@2@@std@@H@std@@PAX@2@@Z 100045c0 f i mfdpage.obj
 0001:000035c0       ?_Myval@?$_Tree_val@U?$_Tree_simple_types@U?$pair@$$CBV?$basic_string@DU?$char_traits@D@std@@V?$allocator@D@2@@std@@PAVfms_fp_item_t@@@std@@@std@@@std@@SAAAU?$pair@$$CBV?$basic_string@DU?$char_traits@D@std@@V?$allocator@D@2@@std@@PAVfms_fp_item_t@@@2@PAU?$_Tree_node@U?$pair@$$CBV?$basic_string@DU?$char_traits@D@std@@V?$allocator@D@2@@std@@PAVfms_fp_item_t@@@std@@PAX@2@@Z 100045c0 f i fms_fp.obj
 0001:000035d0       ?_Tidy@?$_Tree@V?$_Tmap_traits@V?$basic_string@DU?$char_traits@D@std@@V?$allocator@D@2@@std@@V12@U?$less@V?$basic_string@DU?$char_traits@D@std@@V?$allocator@D@2@@std@@@2@V?$allocator@U?$pair@$$CBV?$basic_string@DU?$char_traits@D@std@@V?$allocator@D@2@@std@@V12@@std@@@2@$0A@@std@@@std@@IAEXXZ 100045d0 f i tools.obj
 0001:00003620       ?allocate@?$_Wrap_alloc@V?$allocator@U?$_Tree_node@U?$pair@$$CBV?$basic_string@DU?$char_traits@D@std@@V?$allocator@D@2@@std@@V12@@std@@PAX@std@@@std@@@std@@QAEPAU?$_Tree_node@U?$pair@$$CBV?$basic_string@DU?$char_traits@D@std@@V?$allocator@D@2@@std@@V12@@std@@PAX@2@I@Z 10004620 f i tools.obj
 0001:00003640       ?allocate@?$allocator@U?$_Tree_node@U?$pair@$$CBV?$basic_string@DU?$char_traits@D@std@@V?$allocator@D@2@@std@@V12@@std@@PAX@std@@@std@@QAEPAU?$_Tree_node@U?$pair@$$CBV?$basic_string@DU?$char_traits@D@std@@V?$allocator@D@2@@std@@V12@@std@@PAX@2@I@Z 10004640 f i tools.obj
 0001:00003660       ?c_str@?$basic_string@DU?$char_traits@D@std@@V?$allocator@D@2@@std@@QBEPBDXZ 10004660 f i tools.obj
 0001:00003680       ?clear@?$_Tree@V?$_Tmap_traits@V?$basic_string@DU?$char_traits@D@std@@V?$allocator@D@2@@std@@V12@U?$less@V?$basic_string@DU?$char_traits@D@std@@V?$allocator@D@2@@std@@@2@V?$allocator@U?$pair@$$CBV?$basic_string@DU?$char_traits@D@std@@V?$allocator@D@2@@std@@V12@@std@@@2@$0A@@std@@@std@@QAEXXZ 10004680 f i tools.obj
 0001:000036e0       ?compare@?$basic_string@DU?$char_traits@D@std@@V?$allocator@D@2@@std@@QBEHABV12@@Z 100046e0 f i tools.obj
 0001:00003710       ?compare@?$basic_string@DU?$char_traits@D@std@@V?$allocator@D@2@@std@@QBEHIIPBDI@Z 10004710 f i tools.obj
 0001:000037d0       ?compare@?$char_traits@D@std@@SAHPBD0I@Z 100047d0 f i tools.obj
 0001:00003810       ?erase@?$_Tree@V?$_Tmap_traits@V?$basic_string@DU?$char_traits@D@std@@V?$allocator@D@2@@std@@V12@U?$less@V?$basic_string@DU?$char_traits@D@std@@V?$allocator@D@2@@std@@@2@V?$allocator@U?$pair@$$CBV?$basic_string@DU?$char_traits@D@std@@V?$allocator@D@2@@std@@V12@@std@@@2@$0A@@std@@@std@@QAE?AV?$_Tree_iterator@V?$_Tree_val@U?$_Tree_simple_types@U?$pair@$$CBV?$basic_string@DU?$char_traits@D@std@@V?$allocator@D@2@@std@@V12@@std@@@std@@@std@@@2@V?$_Tree_const_iterator@V?$_Tree_val@U?$_Tree_simple_types@U?$pair@$$CBV?$basic_string@DU?$char_traits@D@std@@V?$allocator@D@2@@std@@V12@@std@@@std@@@std@@@2@0@Z 10004810 f i tools.obj
 0001:000038c0       ?erase@?$_Tree@V?$_Tmap_traits@V?$basic_string@DU?$char_traits@D@std@@V?$allocator@D@2@@std@@V12@U?$less@V?$basic_string@DU?$char_traits@D@std@@V?$allocator@D@2@@std@@@2@V?$allocator@U?$pair@$$CBV?$basic_string@DU?$char_traits@D@std@@V?$allocator@D@2@@std@@V12@@std@@@2@$0A@@std@@@std@@QAE?AV?$_Tree_iterator@V?$_Tree_val@U?$_Tree_simple_types@U?$pair@$$CBV?$basic_string@DU?$char_traits@D@std@@V?$allocator@D@2@@std@@V12@@std@@@std@@@std@@@2@V?$_Tree_const_iterator@V?$_Tree_val@U?$_Tree_simple_types@U?$pair@$$CBV?$basic_string@DU?$char_traits@D@std@@V?$allocator@D@2@@std@@V12@@std@@@std@@@std@@@2@@Z 100048c0 f i tools.obj
 0001:00004040       ?max_size@?$_Tree@V?$_Tmap_traits@V?$basic_string@DU?$char_traits@D@std@@V?$allocator@D@2@@std@@V12@U?$less@V?$basic_string@DU?$char_traits@D@std@@V?$allocator@D@2@@std@@@2@V?$allocator@U?$pair@$$CBV?$basic_string@DU?$char_traits@D@std@@V?$allocator@D@2@@std@@V12@@std@@@2@$0A@@std@@@std@@QBEIXZ 10005040 f i tools.obj
 0001:00004060       ?max_size@?$_Wrap_alloc@V?$allocator@U?$_Tree_node@U?$pair@$$CBV?$basic_string@DU?$char_traits@D@std@@V?$allocator@D@2@@std@@V12@@std@@PAX@std@@@std@@@std@@QBEIXZ 10005060 f i tools.obj
 0001:00004080       ?max_size@?$allocator@U?$_Tree_node@U?$pair@$$CBV?$basic_string@DU?$char_traits@D@std@@V?$allocator@D@2@@std@@V12@@std@@PAX@std@@@std@@QBEIXZ 10005080 f i tools.obj
 0001:00004090       ?max_size@?$allocator_traits@V?$allocator@U?$_Tree_node@U?$pair@$$CBV?$basic_string@DU?$char_traits@D@std@@V?$allocator@D@2@@std@@V12@@std@@PAX@std@@@std@@@std@@SAIABV?$allocator@U?$_Tree_node@U?$pair@$$CBV?$basic_string@DU?$char_traits@D@std@@V?$allocator@D@2@@std@@V12@@std@@PAX@std@@@2@@Z 10005090 f i tools.obj
 0001:000040a0       ?pointer_to@?$pointer_traits@PAU?$pair@$$CBV?$basic_string@DU?$char_traits@D@std@@V?$allocator@D@2@@std@@PAVfms_config_item_t@@@std@@@std@@SAPAU?$pair@$$CBV?$basic_string@DU?$char_traits@D@std@@V?$allocator@D@2@@std@@PAVfms_config_item_t@@@2@AAU32@@Z 100050a0 f i fms_config.obj
 0001:000040a0       ?pointer_to@?$pointer_traits@PAU?$pair@$$CBV?$basic_string@DU?$char_traits@D@std@@V?$allocator@D@2@@std@@PAVfms_fp_item_t@@@std@@@std@@SAPAU?$pair@$$CBV?$basic_string@DU?$char_traits@D@std@@V?$allocator@D@2@@std@@PAVfms_fp_item_t@@@2@AAU32@@Z 100050a0 f i fms_fp.obj
 0001:000040a0       ?pointer_to@?$pointer_traits@PAU?$pair@$$CBHPAVfms_fp_item_t@@@std@@@std@@SAPAU?$pair@$$CBHPAVfms_fp_item_t@@@2@AAU32@@Z 100050a0 f i mfdpage_fms.obj
 0001:000040a0       ?pointer_to@?$pointer_traits@PAU?$pair@$$CBV?$basic_string@DU?$char_traits@D@std@@V?$allocator@D@2@@std@@H@std@@@std@@SAPAU?$pair@$$CBV?$basic_string@DU?$char_traits@D@std@@V?$allocator@D@2@@std@@H@2@AAU32@@Z 100050a0 f i mfdpage.obj
 0001:000040a0       ?pointer_to@?$pointer_traits@PAU?$pair@$$CBHPAVobject_t@@@std@@@std@@SAPAU?$pair@$$CBHPAVobject_t@@@2@AAU32@@Z 100050a0 f i mfdpage.obj
 0001:000040a0       ?pointer_to@?$pointer_traits@PAU?$pair@$$CBV?$basic_string@DU?$char_traits@D@std@@V?$allocator@D@2@@std@@D@std@@@std@@SAPAU?$pair@$$CBV?$basic_string@DU?$char_traits@D@std@@V?$allocator@D@2@@std@@D@2@AAU32@@Z 100050a0 f i mfdpage.obj
 0001:000040a0       ?pointer_to@?$pointer_traits@PAU?$pair@$$CBHM@std@@@std@@SAPAU?$pair@$$CBHM@2@AAU32@@Z 100050a0 f i fms_config.obj
 0001:000040a0       ?pointer_to@?$pointer_traits@PAU?$pair@$$CBV?$basic_string@DU?$char_traits@D@std@@V?$allocator@D@2@@std@@M@std@@@std@@SAPAU?$pair@$$CBV?$basic_string@DU?$char_traits@D@std@@V?$allocator@D@2@@std@@M@2@AAU32@@Z 100050a0 f i mfdpage_fms.obj
 0001:000040a0       ?pointer_to@?$pointer_traits@PAU?$pair@$$CBHV?$basic_string@DU?$char_traits@D@std@@V?$allocator@D@2@@std@@@std@@@std@@SAPAU?$pair@$$CBHV?$basic_string@DU?$char_traits@D@std@@V?$allocator@D@2@@std@@@2@AAU32@@Z 100050a0 f i out_saitek.obj
 0001:000040a0       ?pointer_to@?$pointer_traits@PAU?$pair@$$CBV?$basic_string@DU?$char_traits@D@std@@V?$allocator@D@2@@std@@V12@@std@@@std@@SAPAU?$pair@$$CBV?$basic_string@DU?$char_traits@D@std@@V?$allocator@D@2@@std@@V12@@2@AAU32@@Z 100050a0 f i tools.obj
 0001:000040c0       ?size@?$_Tree@V?$_Tmap_traits@V?$basic_string@DU?$char_traits@D@std@@V?$allocator@D@2@@std@@HU?$less@V?$basic_string@DU?$char_traits@D@std@@V?$allocator@D@2@@std@@@2@V?$allocator@U?$pair@$$CBV?$basic_string@DU?$char_traits@D@std@@V?$allocator@D@2@@std@@H@std@@@2@$0A@@std@@@std@@QBEIXZ 100050c0 f i mfdpage.obj
 0001:000040c0       ?category@error_condition@std@@QBEABVerror_category@2@XZ 100050c0 f i main.obj
 0001:000040c0       ?size@?$_Tree@V?$_Tmap_traits@HPAVfms_fp_item_t@@U?$less@H@std@@V?$allocator@U?$pair@$$CBHPAVfms_fp_item_t@@@std@@@3@$0A@@std@@@std@@QBEIXZ 100050c0 f i mfdpage_fms.obj
 0001:000040c0       ?size@?$_Tree@V?$_Tmap_traits@HPAVobject_t@@U?$less@H@std@@V?$allocator@U?$pair@$$CBHPAVobject_t@@@std@@@3@$0A@@std@@@std@@QBEIXZ 100050c0 f i mfdpage.obj
 0001:000040c0       ?size@?$_Tree@V?$_Tmap_traits@V?$basic_string@DU?$char_traits@D@std@@V?$allocator@D@2@@std@@MU?$less@V?$basic_string@DU?$char_traits@D@std@@V?$allocator@D@2@@std@@@2@V?$allocator@U?$pair@$$CBV?$basic_string@DU?$char_traits@D@std@@V?$allocator@D@2@@std@@M@std@@@2@$0A@@std@@@std@@QBEIXZ 100050c0 f i mfdpage_fms.obj
 0001:000040c0       ?size@?$_Tree@V?$_Tmap_traits@HV?$basic_string@DU?$char_traits@D@std@@V?$allocator@D@2@@std@@U?$less@H@2@V?$allocator@U?$pair@$$CBHV?$basic_string@DU?$char_traits@D@std@@V?$allocator@D@2@@std@@@std@@@2@$0A@@std@@@std@@QBEIXZ 100050c0 f i out_saitek.obj
 0001:000040c0       ?size@?$_Tree@V?$_Tmap_traits@V?$basic_string@DU?$char_traits@D@std@@V?$allocator@D@2@@std@@V12@U?$less@V?$basic_string@DU?$char_traits@D@std@@V?$allocator@D@2@@std@@@2@V?$allocator@U?$pair@$$CBV?$basic_string@DU?$char_traits@D@std@@V?$allocator@D@2@@std@@V12@@std@@@2@$0A@@std@@@std@@QBEIXZ 100050c0 f i tools.obj
 0001:000040c0       ?size@?$_Tree@V?$_Tmap_traits@HMU?$less@H@std@@V?$allocator@U?$pair@$$CBHM@std@@@2@$0A@@std@@@std@@QBEIXZ 100050c0 f i fms_config.obj
 0001:000040c0       ?size@?$_Tree@V?$_Tset_traits@PAVmfdpage_t@@U?$less@PAVmfdpage_t@@@std@@V?$allocator@PAVmfdpage_t@@@3@$0A@@std@@@std@@QBEIXZ 100050c0 f i in.obj
 0001:000040c0       ?size@?$_Tree@V?$_Tmap_traits@V?$basic_string@DU?$char_traits@D@std@@V?$allocator@D@2@@std@@PAVfms_fp_item_t@@U?$less@V?$basic_string@DU?$char_traits@D@std@@V?$allocator@D@2@@std@@@2@V?$allocator@U?$pair@$$CBV?$basic_string@DU?$char_traits@D@std@@V?$allocator@D@2@@std@@PAVfms_fp_item_t@@@std@@@2@$0A@@std@@@std@@QBEIXZ 100050c0 f i fms_fp.obj
 0001:000040c0       ?size@?$_Tree@V?$_Tmap_traits@V?$basic_string@DU?$char_traits@D@std@@V?$allocator@D@2@@std@@DU?$less@V?$basic_string@DU?$char_traits@D@std@@V?$allocator@D@2@@std@@@2@V?$allocator@U?$pair@$$CBV?$basic_string@DU?$char_traits@D@std@@V?$allocator@D@2@@std@@D@std@@@2@$0A@@std@@@std@@QBEIXZ 100050c0 f i mfdpage.obj
 0001:000040c0       ?size@?$_Tree@V?$_Tmap_traits@V?$basic_string@DU?$char_traits@D@std@@V?$allocator@D@2@@std@@PAVfms_config_item_t@@U?$less@V?$basic_string@DU?$char_traits@D@std@@V?$allocator@D@2@@std@@@2@V?$allocator@U?$pair@$$CBV?$basic_string@DU?$char_traits@D@std@@V?$allocator@D@2@@std@@PAVfms_config_item_t@@@std@@@2@$0A@@std@@@std@@QBEIXZ 100050c0 f i fms_config.obj
 0001:000040c0       ?category@error_code@std@@QBEABVerror_category@2@XZ 100050c0 f i main.obj
 0001:000040e0       ??0datasource_t@@QAE@PBD@Z 100050e0 f   data.obj
 0001:000041d0       ??1datasource_t@@UAE@XZ    100051d0 f   data.obj
 0001:00004230       ?name@datasource_t@@UAEABV?$basic_string@DU?$char_traits@D@std@@V?$allocator@D@2@@std@@XZ 10005230 f   data.obj
 0001:00004250       ?newdata_available@datasource_t@@QAE_NXZ 10005250 f   data.obj
 0001:00004270       ?mark_dirty@datasource_t@@UAEXXZ 10005270 f   data.obj
 0001:00004290       ??Bdatasource_t@@UAEHXZ    10005290 f   data.obj
 0001:000042e0       ??Bdatasource_t@@UAEMXZ    100052e0 f   data.obj
 0001:00004340       ??Bdatasource_t@@UAENXZ    10005340 f   data.obj
 0001:00004390       ??Bdatasource_t@@UAEABV?$basic_string@DU?$char_traits@D@std@@V?$allocator@D@2@@std@@XZ 10005390 f   data.obj
 0001:000044d0       ??Bdatasource_t@@UAEPBDXZ  100054d0 f   data.obj
 0001:00004610       ?refresh@datasource_t@@UAE_NXZ 10005610 f   data.obj
 0001:00004ac0       ?getType@datasource_t@@UAEHXZ 10005ac0 f   data.obj
 0001:00004ae0       ??0data_t@@QAE@XZ          10005ae0 f   data.obj
 0001:00004b30       ??1data_t@@UAE@XZ          10005b30 f   data.obj
 0001:00004c00       ?add_listener@data_t@@QAEXPAVlistener_t@@@Z 10005c00 f   data.obj
 0001:00004c70       ?remove_listener@data_t@@QAEXPAVlistener_t@@@Z 10005c70 f   data.obj
 0001:00004cd0       ?add_datasource@data_t@@QAEPAVobject_t@@PBD@Z 10005cd0 f   data.obj
 0001:00004e30       ?remove_datasource@data_t@@QAEXPAVobject_t@@@Z 10005e30 f   data.obj
 0001:00004ec0       ?remove_datasource@data_t@@QAEXPBD@Z 10005ec0 f   data.obj
 0001:00004f60       ?connect@data_t@@QAEXM@Z   10005f60 f   data.obj
 0001:00004fc0       ?disconnect@data_t@@QAEXXZ 10005fc0 f   data.obj
 0001:00005000       ?upd_interval@data_t@@QAEABMXZ 10006000 f   data.obj
 0001:00005020       ?update@data_t@@CAMMMHPAX@Z 10006020 f   data.obj
 0001:00005050       ?refresh_datasources@data_t@@EAEXXZ 10006050 f   data.obj
 0001:000051b0       ?refresh_listeners@data_t@@EAEXPAVobject_t@@@Z 100061b0 f   data.obj
 0001:00005280       ??$?0AAV?$_Tree_const_iterator@V?$_Tree_val@U?$_Tree_simple_types@PAVlistener_t@@@std@@@std@@@std@@AAV01@X@?$pair@V?$_Tree_const_iterator@V?$_Tree_val@U?$_Tree_simple_types@PAVlistener_t@@@std@@@std@@@std@@V12@@std@@QAE@AAV?$_Tree_const_iterator@V?$_Tree_val@U?$_Tree_simple_types@PAVlistener_t@@@std@@@std@@@1@0@Z 10006280 f i data.obj
 0001:00005280       ??$?0AAV?$_Tree_const_iterator@V?$_Tree_val@U?$_Tree_simple_types@PAVobject_t@@@std@@@std@@@std@@AAV01@X@?$pair@V?$_Tree_const_iterator@V?$_Tree_val@U?$_Tree_simple_types@PAVobject_t@@@std@@@std@@@std@@V12@@std@@QAE@AAV?$_Tree_const_iterator@V?$_Tree_val@U?$_Tree_simple_types@PAVobject_t@@@std@@@std@@@1@0@Z 10006280 f i data.obj
 0001:000052c0       ??$?8DD@std@@YA_NABV?$allocator@D@0@0@Z 100062c0 f i data.obj
 0001:000052c0       ??$?8U?$pair@$$CBV?$basic_string@DU?$char_traits@D@std@@V?$allocator@D@2@@std@@V12@@std@@U01@@std@@YA_NABV?$allocator@U?$pair@$$CBV?$basic_string@DU?$char_traits@D@std@@V?$allocator@D@2@@std@@V12@@std@@@0@0@Z 100062c0 f i mfdpage_led.obj
 0001:000052d0       ??$?8DU?$char_traits@D@std@@V?$allocator@D@1@@std@@YA_NABV?$basic_string@DU?$char_traits@D@std@@V?$allocator@D@2@@0@0@Z 100062d0 f i data.obj
 0001:00005300       ??$?8DU?$char_traits@D@std@@V?$allocator@D@1@@std@@YA_NABV?$basic_string@DU?$char_traits@D@std@@V?$allocator@D@2@@0@PBD@Z 10006300 f i data.obj
 0001:00005330       ??$?8DU?$char_traits@D@std@@V?$allocator@D@1@@std@@YA_NPBDABV?$basic_string@DU?$char_traits@D@std@@V?$allocator@D@2@@0@@Z 10006330 f i data.obj
 0001:00005360       ??$?8V?$allocator@D@std@@V01@@std@@YA_NABU?$_Wrap_alloc@V?$allocator@D@std@@@0@0@Z 10006360 f i data.obj
 0001:00005390       ??$?9DD@std@@YA_NABV?$allocator@D@0@0@Z 10006390 f i data.obj
 0001:000053d0       ??$?9DU?$char_traits@D@std@@V?$allocator@D@1@@std@@YA_NABV?$basic_string@DU?$char_traits@D@std@@V?$allocator@D@2@@0@0@Z 100063d0 f i data.obj
 0001:00005410       ??$?9V?$allocator@D@std@@V01@@std@@YA_NABU?$_Wrap_alloc@V?$allocator@D@std@@@0@0@Z 10006410 f i data.obj
 0001:00005450       ??$_Allocate@U?$_Tree_node@PAVlistener_t@@PAX@std@@@std@@YAPAU?$_Tree_node@PAVlistener_t@@PAX@0@IPAU10@@Z 10006450 f i data.obj
 0001:00005450       ??$_Allocate@U?$_Tree_node@PAVmfdpage_t@@PAX@std@@@std@@YAPAU?$_Tree_node@PAVmfdpage_t@@PAX@0@IPAU10@@Z 10006450 f i in.obj
 0001:00005450       ??$_Allocate@U?$_Tree_node@PAVobject_t@@PAX@std@@@std@@YAPAU?$_Tree_node@PAVobject_t@@PAX@0@IPAU10@@Z 10006450 f i data.obj
 0001:00005490       ??$_Buynode@ABQAVlistener_t@@@?$_Tree_buy@PAVlistener_t@@V?$allocator@PAVlistener_t@@@std@@@std@@QAEPAU?$_Tree_node@PAVlistener_t@@PAX@1@ABQAVlistener_t@@@Z 10006490 f i data.obj
 0001:00005490       ??$_Buynode@ABQAVobject_t@@@?$_Tree_buy@PAVobject_t@@V?$allocator@PAVobject_t@@@std@@@std@@QAEPAU?$_Tree_node@PAVobject_t@@PAX@1@ABQAVobject_t@@@Z 10006490 f i data.obj
 0001:00005490       ??$_Buynode@ABQAVmfdpage_t@@@?$_Tree_buy@PAVmfdpage_t@@V?$allocator@PAVmfdpage_t@@@std@@@std@@QAEPAU?$_Tree_node@PAVmfdpage_t@@PAX@1@ABQAVmfdpage_t@@@Z 10006490 f i in.obj
 0001:00005570       ??$_Buynode_if_nil@ABQAVobject_t@@@?$_Tree@V?$_Tset_traits@PAVobject_t@@U?$less@PAVobject_t@@@std@@V?$allocator@PAVobject_t@@@3@$0A@@std@@@std@@IAEPAU?$_Tree_node@PAVobject_t@@PAX@1@U_Nil@1@ABQAVobject_t@@@Z 10006570 f i data.obj
 0001:00005570       ??$_Buynode_if_nil@ABQAVmfdpage_t@@@?$_Tree@V?$_Tset_traits@PAVmfdpage_t@@U?$less@PAVmfdpage_t@@@std@@V?$allocator@PAVmfdpage_t@@@3@$0A@@std@@@std@@IAEPAU?$_Tree_node@PAVmfdpage_t@@PAX@1@U_Nil@1@ABQAVmfdpage_t@@@Z 10006570 f i in.obj
 0001:00005570       ??$_Buynode_if_nil@ABQAVlistener_t@@@?$_Tree@V?$_Tset_traits@PAVlistener_t@@U?$less@PAVlistener_t@@@std@@V?$allocator@PAVlistener_t@@@3@$0A@@std@@@std@@IAEPAU?$_Tree_node@PAVlistener_t@@PAX@1@U_Nil@1@ABQAVlistener_t@@@Z 10006570 f i data.obj
 0001:000055a0       ??$_Distance2@V?$_Tree_const_iterator@V?$_Tree_val@U?$_Tree_simple_types@PAVobject_t@@@std@@@std@@@std@@I@std@@YAXV?$_Tree_const_iterator@V?$_Tree_val@U?$_Tree_simple_types@PAVobject_t@@@std@@@std@@@0@0AAIUbidirectional_iterator_tag@0@@Z 100065a0 f i data.obj
 0001:000055a0       ??$_Distance2@V?$_Tree_const_iterator@V?$_Tree_val@U?$_Tree_simple_types@PAVlistener_t@@@std@@@std@@@std@@I@std@@YAXV?$_Tree_const_iterator@V?$_Tree_val@U?$_Tree_simple_types@PAVlistener_t@@@std@@@std@@@0@0AAIUbidirectional_iterator_tag@0@@Z 100065a0 f i data.obj
 0001:000055e0       ??$_Distance@V?$_Tree_const_iterator@V?$_Tree_val@U?$_Tree_simple_types@PAVlistener_t@@@std@@@std@@@std@@I@std@@YAXV?$_Tree_const_iterator@V?$_Tree_val@U?$_Tree_simple_types@PAVlistener_t@@@std@@@std@@@0@0AAI@Z 100065e0 f i data.obj
 0001:000055e0       ??$_Distance@V?$_Tree_const_iterator@V?$_Tree_val@U?$_Tree_simple_types@PAVobject_t@@@std@@@std@@@std@@I@std@@YAXV?$_Tree_const_iterator@V?$_Tree_val@U?$_Tree_simple_types@PAVobject_t@@@std@@@std@@@0@0AAI@Z 100065e0 f i data.obj
 0001:00005620       ??$_Insert_at@ABQAVobject_t@@U_Nil@std@@@?$_Tree@V?$_Tset_traits@PAVobject_t@@U?$less@PAVobject_t@@@std@@V?$allocator@PAVobject_t@@@3@$0A@@std@@@std@@IAE?AV?$_Tree_const_iterator@V?$_Tree_val@U?$_Tree_simple_types@PAVobject_t@@@std@@@std@@@1@_NPAU?$_Tree_node@PAVobject_t@@PAX@1@ABQAVobject_t@@U_Nil@1@@Z 10006620 f i data.obj
 0001:00005620       ??$_Insert_at@ABQAVmfdpage_t@@U_Nil@std@@@?$_Tree@V?$_Tset_traits@PAVmfdpage_t@@U?$less@PAVmfdpage_t@@@std@@V?$allocator@PAVmfdpage_t@@@3@$0A@@std@@@std@@IAE?AV?$_Tree_const_iterator@V?$_Tree_val@U?$_Tree_simple_types@PAVmfdpage_t@@@std@@@std@@@1@_NPAU?$_Tree_node@PAVmfdpage_t@@PAX@1@ABQAVmfdpage_t@@U_Nil@1@@Z 10006620 f i in.obj
 0001:00005620       ??$_Insert_at@ABQAVlistener_t@@U_Nil@std@@@?$_Tree@V?$_Tset_traits@PAVlistener_t@@U?$less@PAVlistener_t@@@std@@V?$allocator@PAVlistener_t@@@3@$0A@@std@@@std@@IAE?AV?$_Tree_const_iterator@V?$_Tree_val@U?$_Tree_simple_types@PAVlistener_t@@@std@@@std@@@1@_NPAU?$_Tree_node@PAVlistener_t@@PAX@1@ABQAVlistener_t@@U_Nil@1@@Z 10006620 f i data.obj
 0001:00005a50       ??$_Insert_nohint@ABQAVlistener_t@@U_Nil@std@@@?$_Tree@V?$_Tset_traits@PAVlistener_t@@U?$less@PAVlistener_t@@@std@@V?$allocator@PAVlistener_t@@@3@$0A@@std@@@std@@IAE?AU?$pair@V?$_Tree_const_iterator@V?$_Tree_val@U?$_Tree_simple_types@PAVlistener_t@@@std@@@std@@@std@@_N@1@_NABQAVlistener_t@@U_Nil@1@@Z 10006a50 f i data.obj
 0001:00005a50       ??$_Insert_nohint@ABQAVobject_t@@U_Nil@std@@@?$_Tree@V?$_Tset_traits@PAVobject_t@@U?$less@PAVobject_t@@@std@@V?$allocator@PAVobject_t@@@3@$0A@@std@@@std@@IAE?AU?$pair@V?$_Tree_const_iterator@V?$_Tree_val@U?$_Tree_simple_types@PAVobject_t@@@std@@@std@@@std@@_N@1@_NABQAVobject_t@@U_Nil@1@@Z 10006a50 f i data.obj
 0001:00005a50       ??$_Insert_nohint@ABQAVmfdpage_t@@U_Nil@std@@@?$_Tree@V?$_Tset_traits@PAVmfdpage_t@@U?$less@PAVmfdpage_t@@@std@@V?$allocator@PAVmfdpage_t@@@3@$0A@@std@@@std@@IAE?AU?$pair@V?$_Tree_const_iterator@V?$_Tree_val@U?$_Tree_simple_types@PAVmfdpage_t@@@std@@@std@@@std@@_N@1@_NABQAVmfdpage_t@@U_Nil@1@@Z 10006a50 f i in.obj
 0001:00005d20       ??$_Iter_cat@V?$_Tree_const_iterator@V?$_Tree_val@U?$_Tree_simple_types@PAVobject_t@@@std@@@std@@@std@@@std@@YA?AUbidirectional_iterator_tag@0@ABV?$_Tree_const_iterator@V?$_Tree_val@U?$_Tree_simple_types@PAVobject_t@@@std@@@std@@@0@@Z 10006d20 f i data.obj
 0001:00005d20       ??$_Iter_cat@V?$_Tree_const_iterator@V?$_Tree_val@U?$_Tree_simple_types@PAVlistener_t@@@std@@@std@@@std@@@std@@YA?AUbidirectional_iterator_tag@0@ABV?$_Tree_const_iterator@V?$_Tree_val@U?$_Tree_simple_types@PAVlistener_t@@@std@@@std@@@0@@Z 10006d20 f i data.obj
 0001:00005d40       ??0?$_Tree@V?$_Tset_traits@PAVlistener_t@@U?$less@PAVlistener_t@@@std@@V?$allocator@PAVlistener_t@@@3@$0A@@std@@@std@@QAE@ABU?$less@PAVlistener_t@@@1@ABV?$allocator@PAVlistener_t@@@1@@Z 10006d40 f i data.obj
 0001:00005d40       ??0?$_Tree@V?$_Tset_traits@PAVobject_t@@U?$less@PAVobject_t@@@std@@V?$allocator@PAVobject_t@@@3@$0A@@std@@@std@@QAE@ABU?$less@PAVobject_t@@@1@ABV?$allocator@PAVobject_t@@@1@@Z 10006d40 f i data.obj
 0001:00005d40       ??0?$_Tree@V?$_Tset_traits@PAVmfdpage_t@@U?$less@PAVmfdpage_t@@@std@@V?$allocator@PAVmfdpage_t@@@3@$0A@@std@@@std@@QAE@ABU?$less@PAVmfdpage_t@@@1@ABV?$allocator@PAVmfdpage_t@@@1@@Z 10006d40 f i in.obj
 0001:00005d60       ??0?$_Tree_alloc@$0A@U?$_Tree_base_types@PAVlistener_t@@V?$allocator@PAVlistener_t@@@std@@@std@@@std@@QAE@ABV?$allocator@PAVlistener_t@@@1@@Z 10006d60 f i data.obj
 0001:00005d60       ??0?$_Tree_alloc@$0A@U?$_Tree_base_types@PAVobject_t@@V?$allocator@PAVobject_t@@@std@@@std@@@std@@QAE@ABV?$allocator@PAVobject_t@@@1@@Z 10006d60 f i data.obj
 0001:00005d60       ??0?$_Tree_alloc@$0A@U?$_Tree_base_types@PAVmfdpage_t@@V?$allocator@PAVmfdpage_t@@@std@@@std@@@std@@QAE@ABV?$allocator@PAVmfdpage_t@@@1@@Z 10006d60 f i in.obj
 0001:00005d90       ??0?$_Tree_buy@PAVmfdpage_t@@V?$allocator@PAVmfdpage_t@@@std@@@std@@QAE@ABV?$allocator@PAVmfdpage_t@@@1@@Z 10006d90 f i in.obj
 0001:00005d90       ??0?$_Tree_buy@PAVobject_t@@V?$allocator@PAVobject_t@@@std@@@std@@QAE@ABV?$allocator@PAVobject_t@@@1@@Z 10006d90 f i data.obj
 0001:00005d90       ??0?$_Tree_buy@PAVlistener_t@@V?$allocator@PAVlistener_t@@@std@@@std@@QAE@ABV?$allocator@PAVlistener_t@@@1@@Z 10006d90 f i data.obj
 0001:00005db0       ??0?$_Tree_const_iterator@V?$_Tree_val@U?$_Tree_simple_types@U?$pair@$$CBHM@std@@@std@@@std@@@std@@QAE@PAU?$_Tree_node@U?$pair@$$CBHM@std@@PAX@1@PBV?$_Tree_val@U?$_Tree_simple_types@U?$pair@$$CBHM@std@@@std@@@1@@Z 10006db0 f i fms_config.obj
 0001:00005db0       ??0?$_Tree_const_iterator@V?$_Tree_val@U?$_Tree_simple_types@U?$pair@$$CBHPAVfms_fp_item_t@@@std@@@std@@@std@@@std@@QAE@PAU?$_Tree_node@U?$pair@$$CBHPAVfms_fp_item_t@@@std@@PAX@1@PBV?$_Tree_val@U?$_Tree_simple_types@U?$pair@$$CBHPAVfms_fp_item_t@@@std@@@std@@@1@@Z 10006db0 f i mfdpage_fms.obj
 0001:00005db0       ??0?$_Tree_const_iterator@V?$_Tree_val@U?$_Tree_simple_types@U?$pair@$$CBV?$basic_string@DU?$char_traits@D@std@@V?$allocator@D@2@@std@@D@std@@@std@@@std@@@std@@QAE@PAU?$_Tree_node@U?$pair@$$CBV?$basic_string@DU?$char_traits@D@std@@V?$allocator@D@2@@std@@D@std@@PAX@1@PBV?$_Tree_val@U?$_Tree_simple_types@U?$pair@$$CBV?$basic_string@DU?$char_traits@D@std@@V?$allocator@D@2@@std@@D@std@@@std@@@1@@Z 10006db0 f i mfdpage.obj
 0001:00005db0       ??0?$_Tree_const_iterator@V?$_Tree_val@U?$_Tree_simple_types@U?$pair@$$CBHPAVobject_t@@@std@@@std@@@std@@@std@@QAE@PAU?$_Tree_node@U?$pair@$$CBHPAVobject_t@@@std@@PAX@1@PBV?$_Tree_val@U?$_Tree_simple_types@U?$pair@$$CBHPAVobject_t@@@std@@@std@@@1@@Z 10006db0 f i mfdpage.obj
 0001:00005db0       ??0?$_Tree_const_iterator@V?$_Tree_val@U?$_Tree_simple_types@U?$pair@$$CBV?$basic_string@DU?$char_traits@D@std@@V?$allocator@D@2@@std@@M@std@@@std@@@std@@@std@@QAE@PAU?$_Tree_node@U?$pair@$$CBV?$basic_string@DU?$char_traits@D@std@@V?$allocator@D@2@@std@@M@std@@PAX@1@PBV?$_Tree_val@U?$_Tree_simple_types@U?$pair@$$CBV?$basic_string@DU?$char_traits@D@std@@V?$allocator@D@2@@std@@M@std@@@std@@@1@@Z 10006db0 f i mfdpage_fms.obj
 0001:00005db0       ??0?$_Tree_const_iterator@V?$_Tree_val@U?$_Tree_simple_types@PAVobject_t@@@std@@@std@@@std@@QAE@PAU?$_Tree_node@PAVobject_t@@PAX@1@PBV?$_Tree_val@U?$_Tree_simple_types@PAVobject_t@@@std@@@1@@Z 10006db0 f i data.obj
 0001:00005db0       ??0?$_Tree_const_iterator@V?$_Tree_val@U?$_Tree_simple_types@U?$pair@$$CBHV?$basic_string@DU?$char_traits@D@std@@V?$allocator@D@2@@std@@@std@@@std@@@std@@@std@@QAE@PAU?$_Tree_node@U?$pair@$$CBHV?$basic_string@DU?$char_traits@D@std@@V?$allocator@D@2@@std@@@std@@PAX@1@PBV?$_Tree_val@U?$_Tree_simple_types@U?$pair@$$CBHV?$basic_string@DU?$char_traits@D@std@@V?$allocator@D@2@@std@@@std@@@std@@@1@@Z 10006db0 f i out_saitek.obj
 0001:00005db0       ??0?$_Tree_const_iterator@V?$_Tree_val@U?$_Tree_simple_types@U?$pair@$$CBV?$basic_string@DU?$char_traits@D@std@@V?$allocator@D@2@@std@@V12@@std@@@std@@@std@@@std@@QAE@PAU?$_Tree_node@U?$pair@$$CBV?$basic_string@DU?$char_traits@D@std@@V?$allocator@D@2@@std@@V12@@std@@PAX@1@PBV?$_Tree_val@U?$_Tree_simple_types@U?$pair@$$CBV?$basic_string@DU?$char_traits@D@std@@V?$allocator@D@2@@std@@V12@@std@@@std@@@1@@Z 10006db0 f i tools.obj
 0001:00005db0       ??0?$_Tree_const_iterator@V?$_Tree_val@U?$_Tree_simple_types@U?$pair@$$CBV?$basic_string@DU?$char_traits@D@std@@V?$allocator@D@2@@std@@H@std@@@std@@@std@@@std@@QAE@PAU?$_Tree_node@U?$pair@$$CBV?$basic_string@DU?$char_traits@D@std@@V?$allocator@D@2@@std@@H@std@@PAX@1@PBV?$_Tree_val@U?$_Tree_simple_types@U?$pair@$$CBV?$basic_string@DU?$char_traits@D@std@@V?$allocator@D@2@@std@@H@std@@@std@@@1@@Z 10006db0 f i mfdpage.obj
 0001:00005db0       ??0?$_Tree_const_iterator@V?$_Tree_val@U?$_Tree_simple_types@PAVlistener_t@@@std@@@std@@@std@@QAE@PAU?$_Tree_node@PAVlistener_t@@PAX@1@PBV?$_Tree_val@U?$_Tree_simple_types@PAVlistener_t@@@std@@@1@@Z 10006db0 f i data.obj
 0001:00005db0       ??0?$_Tree_const_iterator@V?$_Tree_val@U?$_Tree_simple_types@U?$pair@$$CBV?$basic_string@DU?$char_traits@D@std@@V?$allocator@D@2@@std@@PAVfms_fp_item_t@@@std@@@std@@@std@@@std@@QAE@PAU?$_Tree_node@U?$pair@$$CBV?$basic_string@DU?$char_traits@D@std@@V?$allocator@D@2@@std@@PAVfms_fp_item_t@@@std@@PAX@1@PBV?$_Tree_val@U?$_Tree_simple_types@U?$pair@$$CBV?$basic_string@DU?$char_traits@D@std@@V?$allocator@D@2@@std@@PAVfms_fp_item_t@@@std@@@std@@@1@@Z 10006db0 f i fms_fp.obj
 0001:00005db0       ??0?$_Tree_const_iterator@V?$_Tree_val@U?$_Tree_simple_types@U?$pair@$$CBV?$basic_string@DU?$char_traits@D@std@@V?$allocator@D@2@@std@@PAVfms_config_item_t@@@std@@@std@@@std@@@std@@QAE@PAU?$_Tree_node@U?$pair@$$CBV?$basic_string@DU?$char_traits@D@std@@V?$allocator@D@2@@std@@PAVfms_config_item_t@@@std@@PAX@1@PBV?$_Tree_val@U?$_Tree_simple_types@U?$pair@$$CBV?$basic_string@DU?$char_traits@D@std@@V?$allocator@D@2@@std@@PAVfms_config_item_t@@@std@@@std@@@1@@Z 10006db0 f i fms_config.obj
 0001:00005db0       ??0?$_Tree_const_iterator@V?$_Tree_val@U?$_Tree_simple_types@PAVmfdpage_t@@@std@@@std@@@std@@QAE@PAU?$_Tree_node@PAVmfdpage_t@@PAX@1@PBV?$_Tree_val@U?$_Tree_simple_types@PAVmfdpage_t@@@std@@@1@@Z 10006db0 f i in.obj
 0001:00005dd0       ??0?$_Tree_unchecked_const_iterator@V?$_Tree_val@U?$_Tree_simple_types@U?$pair@$$CBHM@std@@@std@@@std@@U_Iterator_base0@2@@std@@QAE@PAU?$_Tree_node@U?$pair@$$CBHM@std@@PAX@1@PBV?$_Tree_val@U?$_Tree_simple_types@U?$pair@$$CBHM@std@@@std@@@1@@Z 10006dd0 f i fms_config.obj
 0001:00005dd0       ??0?$_Tree_unchecked_const_iterator@V?$_Tree_val@U?$_Tree_simple_types@U?$pair@$$CBV?$basic_string@DU?$char_traits@D@std@@V?$allocator@D@2@@std@@H@std@@@std@@@std@@U_Iterator_base0@2@@std@@QAE@PAU?$_Tree_node@U?$pair@$$CBV?$basic_string@DU?$char_traits@D@std@@V?$allocator@D@2@@std@@H@std@@PAX@1@PBV?$_Tree_val@U?$_Tree_simple_types@U?$pair@$$CBV?$basic_string@DU?$char_traits@D@std@@V?$allocator@D@2@@std@@H@std@@@std@@@1@@Z 10006dd0 f i mfdpage.obj
 0001:00005dd0       ??0?$_Tree_unchecked_const_iterator@V?$_Tree_val@U?$_Tree_simple_types@PAVlistener_t@@@std@@@std@@U_Iterator_base0@2@@std@@QAE@PAU?$_Tree_node@PAVlistener_t@@PAX@1@PBV?$_Tree_val@U?$_Tree_simple_types@PAVlistener_t@@@std@@@1@@Z 10006dd0 f i data.obj
 0001:00005dd0       ??0?$_Tree_unchecked_const_iterator@V?$_Tree_val@U?$_Tree_simple_types@U?$pair@$$CBHV?$basic_string@DU?$char_traits@D@std@@V?$allocator@D@2@@std@@@std@@@std@@@std@@U_Iterator_base0@2@@std@@QAE@PAU?$_Tree_node@U?$pair@$$CBHV?$basic_string@DU?$char_traits@D@std@@V?$allocator@D@2@@std@@@std@@PAX@1@PBV?$_Tree_val@U?$_Tree_simple_types@U?$pair@$$CBHV?$basic_string@DU?$char_traits@D@std@@V?$allocator@D@2@@std@@@std@@@std@@@1@@Z 10006dd0 f i out_saitek.obj
 0001:00005dd0       ??0?$_Tree_unchecked_const_iterator@V?$_Tree_val@U?$_Tree_simple_types@U?$pair@$$CBV?$basic_string@DU?$char_traits@D@std@@V?$allocator@D@2@@std@@M@std@@@std@@@std@@U_Iterator_base0@2@@std@@QAE@PAU?$_Tree_node@U?$pair@$$CBV?$basic_string@DU?$char_traits@D@std@@V?$allocator@D@2@@std@@M@std@@PAX@1@PBV?$_Tree_val@U?$_Tree_simple_types@U?$pair@$$CBV?$basic_string@DU?$char_traits@D@std@@V?$allocator@D@2@@std@@M@std@@@std@@@1@@Z 10006dd0 f i mfdpage_fms.obj
 0001:00005dd0       ??0?$_Tree_unchecked_const_iterator@V?$_Tree_val@U?$_Tree_simple_types@U?$pair@$$CBHPAVfms_fp_item_t@@@std@@@std@@@std@@U_Iterator_base0@2@@std@@QAE@PAU?$_Tree_node@U?$pair@$$CBHPAVfms_fp_item_t@@@std@@PAX@1@PBV?$_Tree_val@U?$_Tree_simple_types@U?$pair@$$CBHPAVfms_fp_item_t@@@std@@@std@@@1@@Z 10006dd0 f i mfdpage_fms.obj
 0001:00005dd0       ??0?$_Tree_unchecked_const_iterator@V?$_Tree_val@U?$_Tree_simple_types@U?$pair@$$CBV?$basic_string@DU?$char_traits@D@std@@V?$allocator@D@2@@std@@V12@@std@@@std@@@std@@U_Iterator_base0@2@@std@@QAE@PAU?$_Tree_node@U?$pair@$$CBV?$basic_string@DU?$char_traits@D@std@@V?$allocator@D@2@@std@@V12@@std@@PAX@1@PBV?$_Tree_val@U?$_Tree_simple_types@U?$pair@$$CBV?$basic_string@DU?$char_traits@D@std@@V?$allocator@D@2@@std@@V12@@std@@@std@@@1@@Z 10006dd0 f i tools.obj
 0001:00005dd0       ??0?$_Tree_unchecked_const_iterator@V?$_Tree_val@U?$_Tree_simple_types@PAVobject_t@@@std@@@std@@U_Iterator_base0@2@@std@@QAE@PAU?$_Tree_node@PAVobject_t@@PAX@1@PBV?$_Tree_val@U?$_Tree_simple_types@PAVobject_t@@@std@@@1@@Z 10006dd0 f i data.obj
 0001:00005dd0       ??0?$_Tree_unchecked_const_iterator@V?$_Tree_val@U?$_Tree_simple_types@PAVmfdpage_t@@@std@@@std@@U_Iterator_base0@2@@std@@QAE@PAU?$_Tree_node@PAVmfdpage_t@@PAX@1@PBV?$_Tree_val@U?$_Tree_simple_types@PAVmfdpage_t@@@std@@@1@@Z 10006dd0 f i in.obj
 0001:00005dd0       ??0?$_Tree_unchecked_const_iterator@V?$_Tree_val@U?$_Tree_simple_types@U?$pair@$$CBV?$basic_string@DU?$char_traits@D@std@@V?$allocator@D@2@@std@@D@std@@@std@@@std@@U_Iterator_base0@2@@std@@QAE@PAU?$_Tree_node@U?$pair@$$CBV?$basic_string@DU?$char_traits@D@std@@V?$allocator@D@2@@std@@D@std@@PAX@1@PBV?$_Tree_val@U?$_Tree_simple_types@U?$pair@$$CBV?$basic_string@DU?$char_traits@D@std@@V?$allocator@D@2@@std@@D@std@@@std@@@1@@Z 10006dd0 f i mfdpage.obj
 0001:00005dd0       ??0?$_Tree_unchecked_const_iterator@V?$_Tree_val@U?$_Tree_simple_types@U?$pair@$$CBV?$basic_string@DU?$char_traits@D@std@@V?$allocator@D@2@@std@@PAVfms_fp_item_t@@@std@@@std@@@std@@U_Iterator_base0@2@@std@@QAE@PAU?$_Tree_node@U?$pair@$$CBV?$basic_string@DU?$char_traits@D@std@@V?$allocator@D@2@@std@@PAVfms_fp_item_t@@@std@@PAX@1@PBV?$_Tree_val@U?$_Tree_simple_types@U?$pair@$$CBV?$basic_string@DU?$char_traits@D@std@@V?$allocator@D@2@@std@@PAVfms_fp_item_t@@@std@@@std@@@1@@Z 10006dd0 f i fms_fp.obj
 0001:00005dd0       ??0?$_Tree_unchecked_const_iterator@V?$_Tree_val@U?$_Tree_simple_types@U?$pair@$$CBV?$basic_string@DU?$char_traits@D@std@@V?$allocator@D@2@@std@@PAVfms_config_item_t@@@std@@@std@@@std@@U_Iterator_base0@2@@std@@QAE@PAU?$_Tree_node@U?$pair@$$CBV?$basic_string@DU?$char_traits@D@std@@V?$allocator@D@2@@std@@PAVfms_config_item_t@@@std@@PAX@1@PBV?$_Tree_val@U?$_Tree_simple_types@U?$pair@$$CBV?$basic_string@DU?$char_traits@D@std@@V?$allocator@D@2@@std@@PAVfms_config_item_t@@@std@@@std@@@1@@Z 10006dd0 f i fms_config.obj
 0001:00005dd0       ??0?$_Tree_unchecked_const_iterator@V?$_Tree_val@U?$_Tree_simple_types@U?$pair@$$CBHPAVobject_t@@@std@@@std@@@std@@U_Iterator_base0@2@@std@@QAE@PAU?$_Tree_node@U?$pair@$$CBHPAVobject_t@@@std@@PAX@1@PBV?$_Tree_val@U?$_Tree_simple_types@U?$pair@$$CBHPAVobject_t@@@std@@@std@@@1@@Z 10006dd0 f i mfdpage.obj
 0001:00005e00       ??0?$_Tree_val@U?$_Tree_simple_types@U?$pair@$$CBV?$basic_string@DU?$char_traits@D@std@@V?$allocator@D@2@@std@@H@std@@@std@@@std@@QAE@XZ 10006e00 f i mfdpage.obj
 0001:00005e00       ??0?$_Tree_val@U?$_Tree_simple_types@U?$pair@$$CBV?$basic_string@DU?$char_traits@D@std@@V?$allocator@D@2@@std@@PAVfms_config_item_t@@@std@@@std@@@std@@QAE@XZ 10006e00 f i fms_config.obj
 0001:00005e00       ??0?$_Tree_val@U?$_Tree_simple_types@U?$pair@$$CBV?$basic_string@DU?$char_traits@D@std@@V?$allocator@D@2@@std@@PAVfms_fp_item_t@@@std@@@std@@@std@@QAE@XZ 10006e00 f i fms_fp.obj
 0001:00005e00       ??0?$_Tree_val@U?$_Tree_simple_types@U?$pair@$$CBHPAVfms_fp_item_t@@@std@@@std@@@std@@QAE@XZ 10006e00 f i fms_fp.obj
 0001:00005e00       ??0?$_Tree_val@U?$_Tree_simple_types@U?$pair@$$CBHM@std@@@std@@@std@@QAE@XZ 10006e00 f i fms_config.obj
 0001:00005e00       ??0?$_Tree_val@U?$_Tree_simple_types@PAVobject_t@@@std@@@std@@QAE@XZ 10006e00 f i data.obj
 0001:00005e00       ??0?$_Tree_val@U?$_Tree_simple_types@PAVlistener_t@@@std@@@std@@QAE@XZ 10006e00 f i data.obj
 0001:00005e00       ??0?$_Tree_val@U?$_Tree_simple_types@U?$pair@$$CBHV?$basic_string@DU?$char_traits@D@std@@V?$allocator@D@2@@std@@@std@@@std@@@std@@QAE@XZ 10006e00 f i out_saitek.obj
 0001:00005e00       ??0?$_Tree_val@U?$_Tree_simple_types@PAVmfdpage_t@@@std@@@std@@QAE@XZ 10006e00 f i in.obj
 0001:00005e00       ??0?$_Tree_val@U?$_Tree_simple_types@U?$pair@$$CBV?$basic_string@DU?$char_traits@D@std@@V?$allocator@D@2@@std@@D@std@@@std@@@std@@QAE@XZ 10006e00 f i mfdpage_fms.obj
 0001:00005e00       ??0?$_Tree_val@U?$_Tree_simple_types@U?$pair@$$CBHPAVobject_t@@@std@@@std@@@std@@QAE@XZ 10006e00 f i mfdpage.obj
 0001:00005e00       ??0?$_Tree_val@U?$_Tree_simple_types@U?$pair@$$CBV?$basic_string@DU?$char_traits@D@std@@V?$allocator@D@2@@std@@V12@@std@@@std@@@std@@QAE@XZ 10006e00 f i mfdpage_led.obj
 0001:00005e00       ??0?$_Tree_val@U?$_Tree_simple_types@U?$pair@$$CBV?$basic_string@DU?$char_traits@D@std@@V?$allocator@D@2@@std@@M@std@@@std@@@std@@QAE@XZ 10006e00 f i fms_config.obj
 0001:00005e30       ??0?$basic_ostringstream@DU?$char_traits@D@std@@V?$allocator@D@2@@std@@QAE@H@Z 10006e30 f i data.obj
 0001:00005ec0       ??0?$basic_string@DU?$char_traits@D@std@@V?$allocator@D@2@@std@@QAE@PBDI@Z 10006ec0 f i data.obj
 0001:00005f00       ??0?$basic_stringbuf@DU?$char_traits@D@std@@V?$allocator@D@2@@std@@QAE@H@Z 10006f00 f i data.obj
 0001:00005f50       ??0?$fpos@H@std@@QAE@_J@Z  10006f50 f i data.obj
 0001:00005f90       ??0object_t@@QAE@XZ        10006f90 f i data.obj
 0001:00005fb0       ??0provider_t@@QAE@XZ      10006fb0 f i data.obj
 0001:00005fd0       ??1?$_Tree@V?$_Tset_traits@PAVlistener_t@@U?$less@PAVlistener_t@@@std@@V?$allocator@PAVlistener_t@@@3@$0A@@std@@@std@@QAE@XZ 10006fd0 f i data.obj
 0001:00005fd0       ??1?$_Tree@V?$_Tset_traits@PAVmfdpage_t@@U?$less@PAVmfdpage_t@@@std@@V?$allocator@PAVmfdpage_t@@@3@$0A@@std@@@std@@QAE@XZ 10006fd0 f i in.obj
 0001:00005fd0       ??1?$_Tree@V?$_Tset_traits@PAVobject_t@@U?$less@PAVobject_t@@@std@@V?$allocator@PAVobject_t@@@3@$0A@@std@@@std@@QAE@XZ 10006fd0 f i data.obj
 0001:00005ff0       ??1?$basic_ostringstream@DU?$char_traits@D@std@@V?$allocator@D@2@@std@@UAE@XZ 10006ff0 f i data.obj
 0001:00006050       ??1?$basic_stringbuf@DU?$char_traits@D@std@@V?$allocator@D@2@@std@@UAE@XZ 10007050 f i data.obj
 0001:00006080       ??1?$set@PAVlistener_t@@U?$less@PAVlistener_t@@@std@@V?$allocator@PAVlistener_t@@@3@@std@@QAE@XZ 10007080 f i data.obj
 0001:00006080       ??1?$set@PAVmfdpage_t@@U?$less@PAVmfdpage_t@@@std@@V?$allocator@PAVmfdpage_t@@@3@@std@@QAE@XZ 10007080 f i in.obj
 0001:00006080       ??1?$set@PAVobject_t@@U?$less@PAVobject_t@@@std@@V?$allocator@PAVobject_t@@@3@@std@@QAE@XZ 10007080 f i data.obj
 0001:000060a0       ??1object_t@@UAE@XZ        100070a0 f i data.obj
 0001:000060c0       ??1provider_t@@UAE@XZ      100070c0 f i data.obj
 0001:000060e0       ??4?$basic_string@DU?$char_traits@D@std@@V?$allocator@D@2@@std@@QAEAAV01@ABV01@@Z 100070e0 f i data.obj
 0001:00006160       ??B?$fpos@H@std@@QBE_JXZ   10007160 f i data.obj
 0001:00006190       ??R?$less@PAVobject_t@@@std@@QBE_NABQAVobject_t@@0@Z 10007190 f i data.obj
 0001:00006190       ??R?$less@PAVlistener_t@@@std@@QBE_NABQAVlistener_t@@0@Z 10007190 f i data.obj
 0001:00006190       ??R?$less@PAVmfdpage_t@@@std@@QBE_NABQAVmfdpage_t@@0@Z 10007190 f i in.obj
 0001:000061c0       ??_D?$basic_ostringstream@DU?$char_traits@D@std@@V?$allocator@D@2@@std@@QAEXXZ 100071c0 f i data.obj
 0001:000061e2       ??_E?$basic_ostringstream@DU?$char_traits@D@std@@V?$allocator@D@2@@std@@$4PPPPPPPM@A@AEPAXI@Z 100071e2 f i data.obj
 0001:000061f0       ??_G?$basic_ostringstream@DU?$char_traits@D@std@@V?$allocator@D@2@@std@@UAEPAXI@Z 100071f0 f i data.obj
 0001:000061f0       ??_E?$basic_ostringstream@DU?$char_traits@D@std@@V?$allocator@D@2@@std@@UAEPAXI@Z 100071f0 f i data.obj
 0001:00006230       ??_E?$basic_stringbuf@DU?$char_traits@D@std@@V?$allocator@D@2@@std@@UAEPAXI@Z 10007230 f i data.obj
 0001:00006230       ??_G?$basic_stringbuf@DU?$char_traits@D@std@@V?$allocator@D@2@@std@@UAEPAXI@Z 10007230 f i data.obj
 0001:00006260       ??_Edata_t@@UAEPAXI@Z      10007260 f i data.obj
 0001:00006260       ??_Gdata_t@@UAEPAXI@Z      10007260 f i data.obj
 0001:00006290       ??_Edatasource_t@@UAEPAXI@Z 10007290 f i data.obj
 0001:00006290       ??_Gdatasource_t@@UAEPAXI@Z 10007290 f i data.obj
 0001:000062c0       ??_Eobject_t@@UAEPAXI@Z    100072c0 f i data.obj
 0001:000062c0       ??_Gobject_t@@UAEPAXI@Z    100072c0 f i data.obj
 0001:000062f0       ??_Eprovider_t@@UAEPAXI@Z  100072f0 f i data.obj
 0001:000062f0       ??_Gprovider_t@@UAEPAXI@Z  100072f0 f i data.obj
 0001:00006320       ?_Buyheadnode@?$_Tree_alloc@$0A@U?$_Tree_base_types@PAVlistener_t@@V?$allocator@PAVlistener_t@@@std@@@std@@@std@@QAEPAU?$_Tree_node@PAVlistener_t@@PAX@2@XZ 10007320 f i data.obj
 0001:00006320       ?_Buyheadnode@?$_Tree_alloc@$0A@U?$_Tree_base_types@PAVmfdpage_t@@V?$allocator@PAVmfdpage_t@@@std@@@std@@@std@@QAEPAU?$_Tree_node@PAVmfdpage_t@@PAX@2@XZ 10007320 f i in.obj
 0001:00006320       ?_Buyheadnode@?$_Tree_alloc@$0A@U?$_Tree_base_types@PAVobject_t@@V?$allocator@PAVobject_t@@@std@@@std@@@std@@QAEPAU?$_Tree_node@PAVobject_t@@PAX@2@XZ 10007320 f i data.obj
 0001:00006470       ?_Eqrange@?$_Tree@V?$_Tset_traits@PAVobject_t@@U?$less@PAVobject_t@@@std@@V?$allocator@PAVobject_t@@@3@$0A@@std@@@std@@IAE?AU?$pair@V?$_Tree_const_iterator@V?$_Tree_val@U?$_Tree_simple_types@PAVobject_t@@@std@@@std@@@std@@V12@@2@ABQAVobject_t@@@Z 10007470 f i data.obj
 0001:00006470       ?_Eqrange@?$_Tree@V?$_Tset_traits@PAVlistener_t@@U?$less@PAVlistener_t@@@std@@V?$allocator@PAVlistener_t@@@3@$0A@@std@@@std@@IAE?AU?$pair@V?$_Tree_const_iterator@V?$_Tree_val@U?$_Tree_simple_types@PAVlistener_t@@@std@@@std@@@std@@V12@@2@ABQAVlistener_t@@@Z 10007470 f i data.obj
 0001:00006630       ?_Erase@?$_Tree@V?$_Tmap_traits@HPAVfms_fp_item_t@@U?$less@H@std@@V?$allocator@U?$pair@$$CBHPAVfms_fp_item_t@@@std@@@3@$0A@@std@@@std@@IAEXPAU?$_Tree_node@U?$pair@$$CBHPAVfms_fp_item_t@@@std@@PAX@2@@Z 10007630 f i fms_fp.obj
 0001:00006630       ?_Erase@?$_Tree@V?$_Tmap_traits@HPAVobject_t@@U?$less@H@std@@V?$allocator@U?$pair@$$CBHPAVobject_t@@@std@@@3@$0A@@std@@@std@@IAEXPAU?$_Tree_node@U?$pair@$$CBHPAVobject_t@@@std@@PAX@2@@Z 10007630 f i mfdpage.obj
 0001:00006630       ?_Erase@?$_Tree@V?$_Tset_traits@PAVobject_t@@U?$less@PAVobject_t@@@std@@V?$allocator@PAVobject_t@@@3@$0A@@std@@@std@@IAEXPAU?$_Tree_node@PAVobject_t@@PAX@2@@Z 10007630 f i data.obj
 0001:00006630       ?_Erase@?$_Tree@V?$_Tset_traits@PAVlistener_t@@U?$less@PAVlistener_t@@@std@@V?$allocator@PAVlistener_t@@@3@$0A@@std@@@std@@IAEXPAU?$_Tree_node@PAVlistener_t@@PAX@2@@Z 10007630 f i data.obj
 0001:00006630       ?_Erase@?$_Tree@V?$_Tset_traits@PAVmfdpage_t@@U?$less@PAVmfdpage_t@@@std@@V?$allocator@PAVmfdpage_t@@@3@$0A@@std@@@std@@IAEXPAU?$_Tree_node@PAVmfdpage_t@@PAX@2@@Z 10007630 f i in.obj
 0001:000066d0       ?_Getstate@?$basic_stringbuf@DU?$char_traits@D@std@@V?$allocator@D@2@@std@@AAEHH@Z 100076d0 f i data.obj
 0001:00006730       ?_Init@?$basic_stringbuf@DU?$char_traits@D@std@@V?$allocator@D@2@@std@@IAEXPBDIH@Z 10007730 f i data.obj
 0001:00006840       ?_Kfn@?$_Tree@V?$_Tmap_traits@V?$basic_string@DU?$char_traits@D@std@@V?$allocator@D@2@@std@@V12@U?$less@V?$basic_string@DU?$char_traits@D@std@@V?$allocator@D@2@@std@@@2@V?$allocator@U?$pair@$$CBV?$basic_string@DU?$char_traits@D@std@@V?$allocator@D@2@@std@@V12@@std@@@2@$0A@@std@@@std@@IBEABV?$basic_string@DU?$char_traits@D@std@@V?$allocator@D@2@@2@ABU?$pair@$$CBV?$basic_string@DU?$char_traits@D@std@@V?$allocator@D@2@@std@@V12@@2@@Z 10007840 f i tools.obj
 0001:00006840       ?_Kfn@?$_Tree@V?$_Tset_traits@PAVmfdpage_t@@U?$less@PAVmfdpage_t@@@std@@V?$allocator@PAVmfdpage_t@@@3@$0A@@std@@@std@@IBEABQAVmfdpage_t@@ABQAV3@@Z 10007840 f i in.obj
 0001:00006840       ?_Kfn@?$_Tree@V?$_Tset_traits@PAVlistener_t@@U?$less@PAVlistener_t@@@std@@V?$allocator@PAVlistener_t@@@3@$0A@@std@@@std@@IBEABQAVlistener_t@@ABQAV3@@Z 10007840 f i data.obj
 0001:00006840       ?_Kfn@?$_Tree@V?$_Tmap_traits@V?$basic_string@DU?$char_traits@D@std@@V?$allocator@D@2@@std@@MU?$less@V?$basic_string@DU?$char_traits@D@std@@V?$allocator@D@2@@std@@@2@V?$allocator@U?$pair@$$CBV?$basic_string@DU?$char_traits@D@std@@V?$allocator@D@2@@std@@M@std@@@2@$0A@@std@@@std@@IBEABV?$basic_string@DU?$char_traits@D@std@@V?$allocator@D@2@@2@ABU?$pair@$$CBV?$basic_string@DU?$char_traits@D@std@@V?$allocator@D@2@@std@@M@2@@Z 10007840 f i mfdpage_fms.obj
 0001:00006840       ?_Kfn@?$_Tree@V?$_Tset_traits@PAVobject_t@@U?$less@PAVobject_t@@@std@@V?$allocator@PAVobject_t@@@3@$0A@@std@@@std@@IBEABQAVobject_t@@ABQAV3@@Z 10007840 f i data.obj
 0001:00006840       ?_Kfn@?$_Tree@V?$_Tmap_traits@V?$basic_string@DU?$char_traits@D@std@@V?$allocator@D@2@@std@@HU?$less@V?$basic_string@DU?$char_traits@D@std@@V?$allocator@D@2@@std@@@2@V?$allocator@U?$pair@$$CBV?$basic_string@DU?$char_traits@D@std@@V?$allocator@D@2@@std@@H@std@@@2@$0A@@std@@@std@@IBEABV?$basic_string@DU?$char_traits@D@std@@V?$allocator@D@2@@2@ABU?$pair@$$CBV?$basic_string@DU?$char_traits@D@std@@V?$allocator@D@2@@std@@H@2@@Z 10007840 f i mfdpage.obj
 0001:00006840       ?_Kfn@?$_Tree@V?$_Tmap_traits@HMU?$less@H@std@@V?$allocator@U?$pair@$$CBHM@std@@@2@$0A@@std@@@std@@IBEABHABU?$pair@$$CBHM@2@@Z 10007840 f i fms_config.obj
 0001:00006840       ?_Kfn@?$_Tree@V?$_Tmap_traits@HPAVfms_fp_item_t@@U?$less@H@std@@V?$allocator@U?$pair@$$CBHPAVfms_fp_item_t@@@std@@@3@$0A@@std@@@std@@IBEABHABU?$pair@$$CBHPAVfms_fp_item_t@@@2@@Z 10007840 f i mfdpage_fms.obj
 0001:00006840       ?_Kfn@?$_Tree@V?$_Tmap_traits@V?$basic_string@DU?$char_traits@D@std@@V?$allocator@D@2@@std@@DU?$less@V?$basic_string@DU?$char_traits@D@std@@V?$allocator@D@2@@std@@@2@V?$allocator@U?$pair@$$CBV?$basic_string@DU?$char_traits@D@std@@V?$allocator@D@2@@std@@D@std@@@2@$0A@@std@@@std@@IBEABV?$basic_string@DU?$char_traits@D@std@@V?$allocator@D@2@@2@ABU?$pair@$$CBV?$basic_string@DU?$char_traits@D@std@@V?$allocator@D@2@@std@@D@2@@Z 10007840 f i mfdpage.obj
 0001:00006840       ?_Kfn@?$_Tree@V?$_Tmap_traits@HV?$basic_string@DU?$char_traits@D@std@@V?$allocator@D@2@@std@@U?$less@H@2@V?$allocator@U?$pair@$$CBHV?$basic_string@DU?$char_traits@D@std@@V?$allocator@D@2@@std@@@std@@@2@$0A@@std@@@std@@IBEABHABU?$pair@$$CBHV?$basic_string@DU?$char_traits@D@std@@V?$allocator@D@2@@std@@@2@@Z 10007840 f i out_saitek.obj
 0001:00006840       ?_Kfn@?$_Tree@V?$_Tmap_traits@V?$basic_string@DU?$char_traits@D@std@@V?$allocator@D@2@@std@@PAVfms_fp_item_t@@U?$less@V?$basic_string@DU?$char_traits@D@std@@V?$allocator@D@2@@std@@@2@V?$allocator@U?$pair@$$CBV?$basic_string@DU?$char_traits@D@std@@V?$allocator@D@2@@std@@PAVfms_fp_item_t@@@std@@@2@$0A@@std@@@std@@IBEABV?$basic_string@DU?$char_traits@D@std@@V?$allocator@D@2@@2@ABU?$pair@$$CBV?$basic_string@DU?$char_traits@D@std@@V?$allocator@D@2@@std@@PAVfms_fp_item_t@@@2@@Z 10007840 f i fms_fp.obj
 0001:00006840       ?_Kfn@?$_Tree@V?$_Tmap_traits@HPAVobject_t@@U?$less@H@std@@V?$allocator@U?$pair@$$CBHPAVobject_t@@@std@@@3@$0A@@std@@@std@@IBEABHABU?$pair@$$CBHPAVobject_t@@@2@@Z 10007840 f i mfdpage.obj
 0001:00006840       ?_Kfn@?$_Tree@V?$_Tmap_traits@V?$basic_string@DU?$char_traits@D@std@@V?$allocator@D@2@@std@@PAVfms_config_item_t@@U?$less@V?$basic_string@DU?$char_traits@D@std@@V?$allocator@D@2@@std@@@2@V?$allocator@U?$pair@$$CBV?$basic_string@DU?$char_traits@D@std@@V?$allocator@D@2@@std@@PAVfms_config_item_t@@@std@@@2@$0A@@std@@@std@@IBEABV?$basic_string@DU?$char_traits@D@std@@V?$allocator@D@2@@2@ABU?$pair@$$CBV?$basic_string@DU?$char_traits@D@std@@V?$allocator@D@2@@std@@PAVfms_config_item_t@@@2@@Z 10007840 f i fms_config.obj
 0001:00006860       ?_Rmost@?$_Tree@V?$_Tmap_traits@V?$basic_string@DU?$char_traits@D@std@@V?$allocator@D@2@@std@@V12@U?$less@V?$basic_string@DU?$char_traits@D@std@@V?$allocator@D@2@@std@@@2@V?$allocator@U?$pair@$$CBV?$basic_string@DU?$char_traits@D@std@@V?$allocator@D@2@@std@@V12@@std@@@2@$0A@@std@@@std@@IBEAAPAU?$_Tree_node@U?$pair@$$CBV?$basic_string@DU?$char_traits@D@std@@V?$allocator@D@2@@std@@V12@@std@@PAX@2@XZ 10007860 f i tools.obj
 0001:00006860       ?_Rmost@?$_Tree@V?$_Tmap_traits@HPAVfms_fp_item_t@@U?$less@H@std@@V?$allocator@U?$pair@$$CBHPAVfms_fp_item_t@@@std@@@3@$0A@@std@@@std@@IBEAAPAU?$_Tree_node@U?$pair@$$CBHPAVfms_fp_item_t@@@std@@PAX@2@XZ 10007860 f i mfdpage_fms.obj
 0001:00006860       ?_Rmost@?$_Tree@V?$_Tmap_traits@HV?$basic_string@DU?$char_traits@D@std@@V?$allocator@D@2@@std@@U?$less@H@2@V?$allocator@U?$pair@$$CBHV?$basic_string@DU?$char_traits@D@std@@V?$allocator@D@2@@std@@@std@@@2@$0A@@std@@@std@@IBEAAPAU?$_Tree_node@U?$pair@$$CBHV?$basic_string@DU?$char_traits@D@std@@V?$allocator@D@2@@std@@@std@@PAX@2@XZ 10007860 f i out_saitek.obj
 0001:00006860       ?_Rmost@?$_Tree@V?$_Tmap_traits@HPAVobject_t@@U?$less@H@std@@V?$allocator@U?$pair@$$CBHPAVobject_t@@@std@@@3@$0A@@std@@@std@@IBEAAPAU?$_Tree_node@U?$pair@$$CBHPAVobject_t@@@std@@PAX@2@XZ 10007860 f i mfdpage.obj
 0001:00006860       ?_Rmost@?$_Tree@V?$_Tmap_traits@V?$basic_string@DU?$char_traits@D@std@@V?$allocator@D@2@@std@@PAVfms_config_item_t@@U?$less@V?$basic_string@DU?$char_traits@D@std@@V?$allocator@D@2@@std@@@2@V?$allocator@U?$pair@$$CBV?$basic_string@DU?$char_traits@D@std@@V?$allocator@D@2@@std@@PAVfms_config_item_t@@@std@@@2@$0A@@std@@@std@@IBEAAPAU?$_Tree_node@U?$pair@$$CBV?$basic_string@DU?$char_traits@D@std@@V?$allocator@D@2@@std@@PAVfms_config_item_t@@@std@@PAX@2@XZ 10007860 f i fms_config.obj
 0001:00006860       ?_Rmost@?$_Tree@V?$_Tmap_traits@V?$basic_string@DU?$char_traits@D@std@@V?$allocator@D@2@@std@@DU?$less@V?$basic_string@DU?$char_traits@D@std@@V?$allocator@D@2@@std@@@2@V?$allocator@U?$pair@$$CBV?$basic_string@DU?$char_traits@D@std@@V?$allocator@D@2@@std@@D@std@@@2@$0A@@std@@@std@@IBEAAPAU?$_Tree_node@U?$pair@$$CBV?$basic_string@DU?$char_traits@D@std@@V?$allocator@D@2@@std@@D@std@@PAX@2@XZ 10007860 f i mfdpage.obj
 0001:00006860       ?_Rmost@?$_Tree@V?$_Tmap_traits@V?$basic_string@DU?$char_traits@D@std@@V?$allocator@D@2@@std@@MU?$less@V?$basic_string@DU?$char_traits@D@std@@V?$allocator@D@2@@std@@@2@V?$allocator@U?$pair@$$CBV?$basic_string@DU?$char_traits@D@std@@V?$allocator@D@2@@std@@M@std@@@2@$0A@@std@@@std@@IBEAAPAU?$_Tree_node@U?$pair@$$CBV?$basic_string@DU?$char_traits@D@std@@V?$allocator@D@2@@std@@M@std@@PAX@2@XZ 10007860 f i mfdpage_fms.obj
 0001:00006860       ?_Rmost@?$_Tree@V?$_Tset_traits@PAVmfdpage_t@@U?$less@PAVmfdpage_t@@@std@@V?$allocator@PAVmfdpage_t@@@3@$0A@@std@@@std@@IBEAAPAU?$_Tree_node@PAVmfdpage_t@@PAX@2@XZ 10007860 f i in.obj
 0001:00006860       ?_Rmost@?$_Tree@V?$_Tmap_traits@HMU?$less@H@std@@V?$allocator@U?$pair@$$CBHM@std@@@2@$0A@@std@@@std@@IBEAAPAU?$_Tree_node@U?$pair@$$CBHM@std@@PAX@2@XZ 10007860 f i fms_config.obj
 0001:00006860       ?_Rmost@?$_Tree@V?$_Tset_traits@PAVobject_t@@U?$less@PAVobject_t@@@std@@V?$allocator@PAVobject_t@@@3@$0A@@std@@@std@@IBEAAPAU?$_Tree_node@PAVobject_t@@PAX@2@XZ 10007860 f i data.obj
 0001:00006860       ?_Rmost@?$_Tree@V?$_Tset_traits@PAVlistener_t@@U?$less@PAVlistener_t@@@std@@V?$allocator@PAVlistener_t@@@3@$0A@@std@@@std@@IBEAAPAU?$_Tree_node@PAVlistener_t@@PAX@2@XZ 10007860 f i data.obj
 0001:00006860       ?_Rmost@?$_Tree@V?$_Tmap_traits@V?$basic_string@DU?$char_traits@D@std@@V?$allocator@D@2@@std@@HU?$less@V?$basic_string@DU?$char_traits@D@std@@V?$allocator@D@2@@std@@@2@V?$allocator@U?$pair@$$CBV?$basic_string@DU?$char_traits@D@std@@V?$allocator@D@2@@std@@H@std@@@2@$0A@@std@@@std@@IBEAAPAU?$_Tree_node@U?$pair@$$CBV?$basic_string@DU?$char_traits@D@std@@V?$allocator@D@2@@std@@H@std@@PAX@2@XZ 10007860 f i mfdpage.obj
 0001:00006860       ?_Rmost@?$_Tree@V?$_Tmap_traits@V?$basic_string@DU?$char_traits@D@std@@V?$allocator@D@2@@std@@PAVfms_fp_item_t@@U?$less@V?$basic_string@DU?$char_traits@D@std@@V?$allocator@D@2@@std@@@2@V?$allocator@U?$pair@$$CBV?$basic_string@DU?$char_traits@D@std@@V?$allocator@D@2@@std@@PAVfms_fp_item_t@@@std@@@2@$0A@@std@@@std@@IBEAAPAU?$_Tree_node@U?$pair@$$CBV?$basic_string@DU?$char_traits@D@std@@V?$allocator@D@2@@std@@PAVfms_fp_item_t@@@std@@PAX@2@XZ 10007860 f i fms_fp.obj
 0001:00006880       ?_Root@?$_Tree@V?$_Tmap_traits@HMU?$less@H@std@@V?$allocator@U?$pair@$$CBHM@std@@@2@$0A@@std@@@std@@IBEAAPAU?$_Tree_node@U?$pair@$$CBHM@std@@PAX@2@XZ 10007880 f i fms_config.obj
 0001:00006880       ?_Root@?$_Tree@V?$_Tmap_traits@V?$basic_string@DU?$char_traits@D@std@@V?$allocator@D@2@@std@@PAVfms_config_item_t@@U?$less@V?$basic_string@DU?$char_traits@D@std@@V?$allocator@D@2@@std@@@2@V?$allocator@U?$pair@$$CBV?$basic_string@DU?$char_traits@D@std@@V?$allocator@D@2@@std@@PAVfms_config_item_t@@@std@@@2@$0A@@std@@@std@@IBEAAPAU?$_Tree_node@U?$pair@$$CBV?$basic_string@DU?$char_traits@D@std@@V?$allocator@D@2@@std@@PAVfms_config_item_t@@@std@@PAX@2@XZ 10007880 f i fms_config.obj
 0001:00006880       ?_Root@?$_Tree@V?$_Tmap_traits@V?$basic_string@DU?$char_traits@D@std@@V?$allocator@D@2@@std@@PAVfms_fp_item_t@@U?$less@V?$basic_string@DU?$char_traits@D@std@@V?$allocator@D@2@@std@@@2@V?$allocator@U?$pair@$$CBV?$basic_string@DU?$char_traits@D@std@@V?$allocator@D@2@@std@@PAVfms_fp_item_t@@@std@@@2@$0A@@std@@@std@@IBEAAPAU?$_Tree_node@U?$pair@$$CBV?$basic_string@DU?$char_traits@D@std@@V?$allocator@D@2@@std@@PAVfms_fp_item_t@@@std@@PAX@2@XZ 10007880 f i fms_fp.obj
 0001:00006880       ?_Root@?$_Tree@V?$_Tmap_traits@HV?$basic_string@DU?$char_traits@D@std@@V?$allocator@D@2@@std@@U?$less@H@2@V?$allocator@U?$pair@$$CBHV?$basic_string@DU?$char_traits@D@std@@V?$allocator@D@2@@std@@@std@@@2@$0A@@std@@@std@@IBEAAPAU?$_Tree_node@U?$pair@$$CBHV?$basic_string@DU?$char_traits@D@std@@V?$allocator@D@2@@std@@@std@@PAX@2@XZ 10007880 f i out_saitek.obj
 0001:00006880       ?_Root@?$_Tree@V?$_Tset_traits@PAVmfdpage_t@@U?$less@PAVmfdpage_t@@@std@@V?$allocator@PAVmfdpage_t@@@3@$0A@@std@@@std@@IBEAAPAU?$_Tree_node@PAVmfdpage_t@@PAX@2@XZ 10007880 f i in.obj
 0001:00006880       ?_Root@?$_Tree@V?$_Tmap_traits@V?$basic_string@DU?$char_traits@D@std@@V?$allocator@D@2@@std@@V12@U?$less@V?$basic_string@DU?$char_traits@D@std@@V?$allocator@D@2@@std@@@2@V?$allocator@U?$pair@$$CBV?$basic_string@DU?$char_traits@D@std@@V?$allocator@D@2@@std@@V12@@std@@@2@$0A@@std@@@std@@IBEAAPAU?$_Tree_node@U?$pair@$$CBV?$basic_string@DU?$char_traits@D@std@@V?$allocator@D@2@@std@@V12@@std@@PAX@2@XZ 10007880 f i tools.obj
 0001:00006880       ?_Root@?$_Tree@V?$_Tmap_traits@V?$basic_string@DU?$char_traits@D@std@@V?$allocator@D@2@@std@@MU?$less@V?$basic_string@DU?$char_traits@D@std@@V?$allocator@D@2@@std@@@2@V?$allocator@U?$pair@$$CBV?$basic_string@DU?$char_traits@D@std@@V?$allocator@D@2@@std@@M@std@@@2@$0A@@std@@@std@@IBEAAPAU?$_Tree_node@U?$pair@$$CBV?$basic_string@DU?$char_traits@D@std@@V?$allocator@D@2@@std@@M@std@@PAX@2@XZ 10007880 f i mfdpage_fms.obj
 0001:00006880       ?_Root@?$_Tree@V?$_Tset_traits@PAVobject_t@@U?$less@PAVobject_t@@@std@@V?$allocator@PAVobject_t@@@3@$0A@@std@@@std@@IBEAAPAU?$_Tree_node@PAVobject_t@@PAX@2@XZ 10007880 f i data.obj
 0001:00006880       ?_Root@?$_Tree@V?$_Tset_traits@PAVlistener_t@@U?$less@PAVlistener_t@@@std@@V?$allocator@PAVlistener_t@@@3@$0A@@std@@@std@@IBEAAPAU?$_Tree_node@PAVlistener_t@@PAX@2@XZ 10007880 f i data.obj
 0001:00006880       ?_Root@?$_Tree@V?$_Tmap_traits@V?$basic_string@DU?$char_traits@D@std@@V?$allocator@D@2@@std@@DU?$less@V?$basic_string@DU?$char_traits@D@std@@V?$allocator@D@2@@std@@@2@V?$allocator@U?$pair@$$CBV?$basic_string@DU?$char_traits@D@std@@V?$allocator@D@2@@std@@D@std@@@2@$0A@@std@@@std@@IBEAAPAU?$_Tree_node@U?$pair@$$CBV?$basic_string@DU?$char_traits@D@std@@V?$allocator@D@2@@std@@D@std@@PAX@2@XZ 10007880 f i mfdpage.obj
 0001:00006880       ?_Root@?$_Tree@V?$_Tmap_traits@HPAVfms_fp_item_t@@U?$less@H@std@@V?$allocator@U?$pair@$$CBHPAVfms_fp_item_t@@@std@@@3@$0A@@std@@@std@@IBEAAPAU?$_Tree_node@U?$pair@$$CBHPAVfms_fp_item_t@@@std@@PAX@2@XZ 10007880 f i mfdpage_fms.obj
 0001:00006880       ?_Root@?$_Tree@V?$_Tmap_traits@HPAVobject_t@@U?$less@H@std@@V?$allocator@U?$pair@$$CBHPAVobject_t@@@std@@@3@$0A@@std@@@std@@IBEAAPAU?$_Tree_node@U?$pair@$$CBHPAVobject_t@@@std@@PAX@2@XZ 10007880 f i mfdpage.obj
 0001:00006880       ?_Root@?$_Tree@V?$_Tmap_traits@V?$basic_string@DU?$char_traits@D@std@@V?$allocator@D@2@@std@@HU?$less@V?$basic_string@DU?$char_traits@D@std@@V?$allocator@D@2@@std@@@2@V?$allocator@U?$pair@$$CBV?$basic_string@DU?$char_traits@D@std@@V?$allocator@D@2@@std@@H@std@@@2@$0A@@std@@@std@@IBEAAPAU?$_Tree_node@U?$pair@$$CBV?$basic_string@DU?$char_traits@D@std@@V?$allocator@D@2@@std@@H@std@@PAX@2@XZ 10007880 f i mfdpage.obj
 0001:000068a0       ?_Tidy@?$_Tree@V?$_Tset_traits@PAVlistener_t@@U?$less@PAVlistener_t@@@std@@V?$allocator@PAVlistener_t@@@3@$0A@@std@@@std@@IAEXXZ 100078a0 f i data.obj
 0001:000068a0       ?_Tidy@?$_Tree@V?$_Tset_traits@PAVmfdpage_t@@U?$less@PAVmfdpage_t@@@std@@V?$allocator@PAVmfdpage_t@@@3@$0A@@std@@@std@@IAEXXZ 100078a0 f i in.obj
 0001:000068a0       ?_Tidy@?$_Tree@V?$_Tset_traits@PAVobject_t@@U?$less@PAVobject_t@@@std@@V?$allocator@PAVobject_t@@@3@$0A@@std@@@std@@IAEXXZ 100078a0 f i data.obj
 0001:000068e0       ?_Tidy@?$basic_stringbuf@DU?$char_traits@D@std@@V?$allocator@D@2@@std@@IAEXXZ 100078e0 f i data.obj
 0001:00006980       ?allocate@?$_Wrap_alloc@V?$allocator@U?$_Tree_node@PAVmfdpage_t@@PAX@std@@@std@@@std@@QAEPAU?$_Tree_node@PAVmfdpage_t@@PAX@2@I@Z 10007980 f i in.obj
 0001:00006980       ?allocate@?$_Wrap_alloc@V?$allocator@U?$_Tree_node@PAVlistener_t@@PAX@std@@@std@@@std@@QAEPAU?$_Tree_node@PAVlistener_t@@PAX@2@I@Z 10007980 f i data.obj
 0001:00006980       ?allocate@?$_Wrap_alloc@V?$allocator@U?$_Tree_node@PAVobject_t@@PAX@std@@@std@@@std@@QAEPAU?$_Tree_node@PAVobject_t@@PAX@2@I@Z 10007980 f i data.obj
 0001:000069a0       ?allocate@?$allocator@U?$_Tree_node@PAVmfdpage_t@@PAX@std@@@std@@QAEPAU?$_Tree_node@PAVmfdpage_t@@PAX@2@I@Z 100079a0 f i in.obj
 0001:000069a0       ?allocate@?$allocator@U?$_Tree_node@PAVlistener_t@@PAX@std@@@std@@QAEPAU?$_Tree_node@PAVlistener_t@@PAX@2@I@Z 100079a0 f i data.obj
 0001:000069a0       ?allocate@?$allocator@U?$_Tree_node@PAVobject_t@@PAX@std@@@std@@QAEPAU?$_Tree_node@PAVobject_t@@PAX@2@I@Z 100079a0 f i data.obj
 0001:000069c0       ?assign@?$basic_string@DU?$char_traits@D@std@@V?$allocator@D@2@@std@@QAEAAV12@$$QAV12@@Z 100079c0 f i data.obj
 0001:00006a40       ?assign@?$basic_string@DU?$char_traits@D@std@@V?$allocator@D@2@@std@@QAEAAV12@ABV12@@Z 10007a40 f i data.obj
 0001:00006a70       ?begin@?$_Tree@V?$_Tset_traits@PAVmfdpage_t@@U?$less@PAVmfdpage_t@@@std@@V?$allocator@PAVmfdpage_t@@@3@$0A@@std@@@std@@QAE?AV?$_Tree_const_iterator@V?$_Tree_val@U?$_Tree_simple_types@PAVmfdpage_t@@@std@@@std@@@2@XZ 10007a70 f i in.obj
 0001:00006a70       ?begin@?$_Tree@V?$_Tset_traits@PAVlistener_t@@U?$less@PAVlistener_t@@@std@@V?$allocator@PAVlistener_t@@@3@$0A@@std@@@std@@QAE?AV?$_Tree_const_iterator@V?$_Tree_val@U?$_Tree_simple_types@PAVlistener_t@@@std@@@std@@@2@XZ 10007a70 f i data.obj
 0001:00006a70       ?begin@?$_Tree@V?$_Tset_traits@PAVobject_t@@U?$less@PAVobject_t@@@std@@V?$allocator@PAVobject_t@@@3@$0A@@std@@@std@@QAE?AV?$_Tree_const_iterator@V?$_Tree_val@U?$_Tree_simple_types@PAVobject_t@@@std@@@std@@@2@XZ 10007a70 f i data.obj
 0001:00006aa0       ?clear@?$_Tree@V?$_Tmap_traits@HPAVfms_fp_item_t@@U?$less@H@std@@V?$allocator@U?$pair@$$CBHPAVfms_fp_item_t@@@std@@@3@$0A@@std@@@std@@QAEXXZ 10007aa0 f i fms_fp.obj
 0001:00006aa0       ?clear@?$_Tree@V?$_Tset_traits@PAVlistener_t@@U?$less@PAVlistener_t@@@std@@V?$allocator@PAVlistener_t@@@3@$0A@@std@@@std@@QAEXXZ 10007aa0 f i data.obj
 0001:00006aa0       ?clear@?$_Tree@V?$_Tset_traits@PAVmfdpage_t@@U?$less@PAVmfdpage_t@@@std@@V?$allocator@PAVmfdpage_t@@@3@$0A@@std@@@std@@QAEXXZ 10007aa0 f i in.obj
 0001:00006aa0       ?clear@?$_Tree@V?$_Tset_traits@PAVobject_t@@U?$less@PAVobject_t@@@std@@V?$allocator@PAVobject_t@@@3@$0A@@std@@@std@@QAEXXZ 10007aa0 f i data.obj
 0001:00006aa0       ?clear@?$_Tree@V?$_Tmap_traits@HPAVobject_t@@U?$less@H@std@@V?$allocator@U?$pair@$$CBHPAVobject_t@@@std@@@3@$0A@@std@@@std@@QAEXXZ 10007aa0 f i mfdpage.obj
 0001:00006b00       ?clear@?$basic_string@DU?$char_traits@D@std@@V?$allocator@D@2@@std@@QAEXXZ 10007b00 f i data.obj
 0001:00006b20       ?compare@?$basic_string@DU?$char_traits@D@std@@V?$allocator@D@2@@std@@QBEHPBD@Z 10007b20 f i data.obj
 0001:00006b50       ?end@?$_Tree@V?$_Tset_traits@PAVmfdpage_t@@U?$less@PAVmfdpage_t@@@std@@V?$allocator@PAVmfdpage_t@@@3@$0A@@std@@@std@@QAE?AV?$_Tree_const_iterator@V?$_Tree_val@U?$_Tree_simple_types@PAVmfdpage_t@@@std@@@std@@@2@XZ 10007b50 f i in.obj
 0001:00006b50       ?end@?$_Tree@V?$_Tset_traits@PAVlistener_t@@U?$less@PAVlistener_t@@@std@@V?$allocator@PAVlistener_t@@@3@$0A@@std@@@std@@QAE?AV?$_Tree_const_iterator@V?$_Tree_val@U?$_Tree_simple_types@PAVlistener_t@@@std@@@std@@@2@XZ 10007b50 f i data.obj
 0001:00006b50       ?end@?$_Tree@V?$_Tset_traits@PAVobject_t@@U?$less@PAVobject_t@@@std@@V?$allocator@PAVobject_t@@@3@$0A@@std@@@std@@QAE?AV?$_Tree_const_iterator@V?$_Tree_val@U?$_Tree_simple_types@PAVobject_t@@@std@@@std@@@2@XZ 10007b50 f i data.obj
 0001:00006b80       ?eof@?$char_traits@D@std@@SAHXZ 10007b80 f i data.obj
 0001:00006b90       ?eq@?$char_traits@D@std@@SA_NABD0@Z 10007b90 f i data.obj
 0001:00006bc0       ?eq_int_type@?$char_traits@D@std@@SA_NABH0@Z 10007bc0 f i data.obj
 0001:00006bf0       ?equal_range@?$_Tree@V?$_Tset_traits@PAVobject_t@@U?$less@PAVobject_t@@@std@@V?$allocator@PAVobject_t@@@3@$0A@@std@@@std@@QAE?AU?$pair@V?$_Tree_const_iterator@V?$_Tree_val@U?$_Tree_simple_types@PAVobject_t@@@std@@@std@@@std@@V12@@2@ABQAVobject_t@@@Z 10007bf0 f i data.obj
 0001:00006bf0       ?equal_range@?$_Tree@V?$_Tset_traits@PAVlistener_t@@U?$less@PAVlistener_t@@@std@@V?$allocator@PAVlistener_t@@@3@$0A@@std@@@std@@QAE?AU?$pair@V?$_Tree_const_iterator@V?$_Tree_val@U?$_Tree_simple_types@PAVlistener_t@@@std@@@std@@@std@@V12@@2@ABQAVlistener_t@@@Z 10007bf0 f i data.obj
 0001:00006c10       ?erase@?$_Tree@V?$_Tset_traits@PAVlistener_t@@U?$less@PAVlistener_t@@@std@@V?$allocator@PAVlistener_t@@@3@$0A@@std@@@std@@QAE?AV?$_Tree_const_iterator@V?$_Tree_val@U?$_Tree_simple_types@PAVlistener_t@@@std@@@std@@@2@V32@0@Z 10007c10 f i data.obj
 0001:00006c10       ?erase@?$_Tree@V?$_Tset_traits@PAVobject_t@@U?$less@PAVobject_t@@@std@@V?$allocator@PAVobject_t@@@3@$0A@@std@@@std@@QAE?AV?$_Tree_const_iterator@V?$_Tree_val@U?$_Tree_simple_types@PAVobject_t@@@std@@@std@@@2@V32@0@Z 10007c10 f i data.obj
 0001:00006c10       ?erase@?$_Tree@V?$_Tset_traits@PAVmfdpage_t@@U?$less@PAVmfdpage_t@@@std@@V?$allocator@PAVmfdpage_t@@@3@$0A@@std@@@std@@QAE?AV?$_Tree_const_iterator@V?$_Tree_val@U?$_Tree_simple_types@PAVmfdpage_t@@@std@@@std@@@2@V32@0@Z 10007c10 f i in.obj
 0001:00006cc0       ?erase@?$_Tree@V?$_Tset_traits@PAVmfdpage_t@@U?$less@PAVmfdpage_t@@@std@@V?$allocator@PAVmfdpage_t@@@3@$0A@@std@@@std@@QAE?AV?$_Tree_const_iterator@V?$_Tree_val@U?$_Tree_simple_types@PAVmfdpage_t@@@std@@@std@@@2@V32@@Z 10007cc0 f i in.obj
 0001:00006cc0       ?erase@?$_Tree@V?$_Tset_traits@PAVobject_t@@U?$less@PAVobject_t@@@std@@V?$allocator@PAVobject_t@@@3@$0A@@std@@@std@@QAE?AV?$_Tree_const_iterator@V?$_Tree_val@U?$_Tree_simple_types@PAVobject_t@@@std@@@std@@@2@V32@@Z 10007cc0 f i data.obj
 0001:00006cc0       ?erase@?$_Tree@V?$_Tset_traits@PAVlistener_t@@U?$less@PAVlistener_t@@@std@@V?$allocator@PAVlistener_t@@@3@$0A@@std@@@std@@QAE?AV?$_Tree_const_iterator@V?$_Tree_val@U?$_Tree_simple_types@PAVlistener_t@@@std@@@std@@@2@V32@@Z 10007cc0 f i data.obj
 0001:00007440       ?erase@?$_Tree@V?$_Tset_traits@PAVlistener_t@@U?$less@PAVlistener_t@@@std@@V?$allocator@PAVlistener_t@@@3@$0A@@std@@@std@@QAEIABQAVlistener_t@@@Z 10008440 f i data.obj
 0001:00007440       ?erase@?$_Tree@V?$_Tset_traits@PAVobject_t@@U?$less@PAVobject_t@@@std@@V?$allocator@PAVobject_t@@@3@$0A@@std@@@std@@QAEIABQAVobject_t@@@Z 10008440 f i data.obj
 0001:000074a0       ?get_allocator@?$_Tree@V?$_Tmap_traits@V?$basic_string@DU?$char_traits@D@std@@V?$allocator@D@2@@std@@V12@U?$less@V?$basic_string@DU?$char_traits@D@std@@V?$allocator@D@2@@std@@@2@V?$allocator@U?$pair@$$CBV?$basic_string@DU?$char_traits@D@std@@V?$allocator@D@2@@std@@V12@@std@@@2@$0A@@std@@@std@@QBE?AV?$allocator@U?$pair@$$CBV?$basic_string@DU?$char_traits@D@std@@V?$allocator@D@2@@std@@V12@@std@@@2@XZ 100084a0 f i mfdpage_led.obj
 0001:000074a0       ?get_allocator@?$basic_string@DU?$char_traits@D@std@@V?$allocator@D@2@@std@@QBE?AV?$allocator@D@2@XZ 100084a0 f i data.obj
 0001:000074d0       ?insert@?$_Tree@V?$_Tset_traits@PAVlistener_t@@U?$less@PAVlistener_t@@@std@@V?$allocator@PAVlistener_t@@@3@$0A@@std@@@std@@QAE?AU?$pair@V?$_Tree_const_iterator@V?$_Tree_val@U?$_Tree_simple_types@PAVlistener_t@@@std@@@std@@@std@@_N@2@ABQAVlistener_t@@@Z 100084d0 f i data.obj
 0001:000074d0       ?insert@?$_Tree@V?$_Tset_traits@PAVobject_t@@U?$less@PAVobject_t@@@std@@V?$allocator@PAVobject_t@@@3@$0A@@std@@@std@@QAE?AU?$pair@V?$_Tree_const_iterator@V?$_Tree_val@U?$_Tree_simple_types@PAVobject_t@@@std@@@std@@@std@@_N@2@ABQAVobject_t@@@Z 100084d0 f i data.obj
 0001:00007500       ?insert@?$set@PAVlistener_t@@U?$less@PAVlistener_t@@@std@@V?$allocator@PAVlistener_t@@@3@@std@@QAE?AU?$pair@V?$_Tree_const_iterator@V?$_Tree_val@U?$_Tree_simple_types@PAVlistener_t@@@std@@@std@@@std@@_N@2@ABQAVlistener_t@@@Z 10008500 f i data.obj
 0001:00007500       ?insert@?$set@PAVobject_t@@U?$less@PAVobject_t@@@std@@V?$allocator@PAVobject_t@@@3@@std@@QAE?AU?$pair@V?$_Tree_const_iterator@V?$_Tree_val@U?$_Tree_simple_types@PAVobject_t@@@std@@@std@@@std@@_N@2@ABQAVobject_t@@@Z 10008500 f i data.obj
 0001:00007520       ?max_size@?$allocator@U?$_Tree_node@PAVlistener_t@@PAX@std@@@std@@QBEIXZ 10008520 f i data.obj
 0001:00007520       ?max_size@?$allocator@U?$_Tree_node@PAVobject_t@@PAX@std@@@std@@QBEIXZ 10008520 f i data.obj
 0001:00007520       ?max_size@?$allocator@U?$_Tree_node@PAVmfdpage_t@@PAX@std@@@std@@QBEIXZ 10008520 f i in.obj
 0001:00007530       ?max_size@?$allocator_traits@V?$allocator@U?$_Tree_node@PAVmfdpage_t@@PAX@std@@@std@@@std@@SAIABV?$allocator@U?$_Tree_node@PAVmfdpage_t@@PAX@std@@@2@@Z 10008530 f i in.obj
 0001:00007530       ?max_size@?$allocator_traits@V?$allocator@U?$_Tree_node@PAVlistener_t@@PAX@std@@@std@@@std@@SAIABV?$allocator@U?$_Tree_node@PAVlistener_t@@PAX@std@@@2@@Z 10008530 f i data.obj
 0001:00007530       ?max_size@?$allocator_traits@V?$allocator@U?$_Tree_node@PAVobject_t@@PAX@std@@@std@@@std@@SAIABV?$allocator@U?$_Tree_node@PAVobject_t@@PAX@std@@@2@@Z 10008530 f i data.obj
 0001:00007540       ?not_eof@?$char_traits@D@std@@SAHABH@Z 10008540 f i data.obj
 0001:00007590       ?overflow@?$basic_stringbuf@DU?$char_traits@D@std@@V?$allocator@D@2@@std@@MAEHH@Z 10008590 f i data.obj
 0001:00007890       ?pbackfail@?$basic_stringbuf@DU?$char_traits@D@std@@V?$allocator@D@2@@std@@MAEHH@Z 10008890 f i data.obj
 0001:00007980       ?seekoff@?$basic_stringbuf@DU?$char_traits@D@std@@V?$allocator@D@2@@std@@MAE?AV?$fpos@H@2@_JHH@Z 10008980 f i data.obj
 0001:00007c40       ?seekpos@?$basic_stringbuf@DU?$char_traits@D@std@@V?$allocator@D@2@@std@@MAE?AV?$fpos@H@2@V32@H@Z 10008c40 f i data.obj
 0001:00007e40       ?str@?$basic_ostringstream@DU?$char_traits@D@std@@V?$allocator@D@2@@std@@QBE?AV?$basic_string@DU?$char_traits@D@std@@V?$allocator@D@2@@2@XZ 10008e40 f i data.obj
 0001:00007e60       ?str@?$basic_stringbuf@DU?$char_traits@D@std@@V?$allocator@D@2@@std@@QBE?AV?$basic_string@DU?$char_traits@D@std@@V?$allocator@D@2@@2@XZ 10008e60 f i data.obj
 0001:00007f80       ?to_char_type@?$char_traits@D@std@@SADABH@Z 10008f80 f i data.obj
 0001:00007f90       ?to_int_type@?$char_traits@D@std@@SAHABD@Z 10008f90 f i data.obj
 0001:00007fa0       ?underflow@?$basic_stringbuf@DU?$char_traits@D@std@@V?$allocator@D@2@@std@@MAEHXZ 10008fa0 f i data.obj
 0001:000080a0       ??0out_t@@QAE@XZ           100090a0 f   out.obj
 0001:00008100       ??1out_t@@QAE@XZ           10009100 f   out.obj
 0001:00008120       ??0out_saitek_t@@QAE@XZ    10009120 f   out_saitek.obj
 0001:00008180       ?init@out_saitek_t@@UAEXXZ 10009180 f   out_saitek.obj
 0001:00008220       ?deinit@out_saitek_t@@UAEXXZ 10009220 f   out_saitek.obj
 0001:00008250       ?set_display_brightness@out_saitek_t@@UAEXD@Z 10009250 f   out_saitek.obj
 0001:000082e0       ?set_led_brightness@out_saitek_t@@UAEXD@Z 100092e0 f   out_saitek.obj
 0001:00008370       ?set_textdata@out_saitek_t@@UAEXPBD@Z 10009370 f   out_saitek.obj
 0001:00008390       ?get_text@out_saitek_t@@UAE?AV?$basic_string@DU?$char_traits@D@std@@V?$allocator@D@2@@std@@H@Z 10009390 f   out_saitek.obj
 0001:000083c0       ?set_led@out_saitek_t@@UAEXHH@Z 100093c0 f   out_saitek.obj
 0001:00008430       ?set_time@out_saitek_t@@UAEX_NHH@Z 10009430 f   out_saitek.obj
 0001:000084c0       ?set_date@out_saitek_t@@UAEXHHH@Z 100094c0 f   out_saitek.obj
 0001:00008590       ?print@out_saitek_t@@UAEXXZ 10009590 f   out_saitek.obj
 0001:000085c0       ?search@out_saitek_t@@AAE_NXZ 100095c0 f   out_saitek.obj
 0001:000087a0       ?attach@out_saitek_t@@AAE_NXZ 100097a0 f   out_saitek.obj
 0001:000087f0       ?detach@out_saitek_t@@AAE_NXZ 100097f0 f   out_saitek.obj
 0001:000088d0       ?print@out_saitek_t@@AAAXPBDZZ 100098d0 f   out_saitek.obj
 0001:00008a40       ?print_line@out_saitek_t@@AAEXHPBDH@Z 10009a40 f   out_saitek.obj
 0001:00008b20       ?clear_line@out_saitek_t@@AAEXH@Z 10009b20 f   out_saitek.obj
 0001:00008b80       ?send_usb@out_saitek_t@@AAEHHH@Z 10009b80 f   out_saitek.obj
 0001:00008c00       ?usb_error@out_saitek_t@@AAEPADH@Z 10009c00 f   out_saitek.obj
 0001:00008c20       ??$_Buynode@ABUpiecewise_construct_t@std@@V?$tuple@ABH@2@V?$tuple@$$$V@2@@?$_Tree_buy@U?$pair@$$CBHV?$basic_string@DU?$char_traits@D@std@@V?$allocator@D@2@@std@@@std@@V?$allocator@U?$pair@$$CBHV?$basic_string@DU?$char_traits@D@std@@V?$allocator@D@2@@std@@@std@@@2@@std@@QAEPAU?$_Tree_node@U?$pair@$$CBHV?$basic_string@DU?$char_traits@D@std@@V?$allocator@D@2@@std@@@std@@PAX@1@ABUpiecewise_construct_t@1@$$QAV?$tuple@ABH@1@$$QAV?$tuple@$$$V@1@@Z 10009c20 f i out_saitek.obj
 0001:00008c20       ??$_Buynode@ABUpiecewise_construct_t@std@@V?$tuple@$$QAH@2@V?$tuple@$$$V@2@@?$_Tree_buy@U?$pair@$$CBHV?$basic_string@DU?$char_traits@D@std@@V?$allocator@D@2@@std@@@std@@V?$allocator@U?$pair@$$CBHV?$basic_string@DU?$char_traits@D@std@@V?$allocator@D@2@@std@@@std@@@2@@std@@QAEPAU?$_Tree_node@U?$pair@$$CBHV?$basic_string@DU?$char_traits@D@std@@V?$allocator@D@2@@std@@@std@@PAX@1@ABUpiecewise_construct_t@1@$$QAV?$tuple@$$QAH@1@$$QAV?$tuple@$$$V@1@@Z 10009c20 f i mfdpage_fms.obj
 0001:00008d20       ??$_Insert_at@AAU?$pair@$$CBHV?$basic_string@DU?$char_traits@D@std@@V?$allocator@D@2@@std@@@std@@PAU?$_Tree_node@U?$pair@$$CBHV?$basic_string@DU?$char_traits@D@std@@V?$allocator@D@2@@std@@@std@@PAX@2@@?$_Tree@V?$_Tmap_traits@HV?$basic_string@DU?$char_traits@D@std@@V?$allocator@D@2@@std@@U?$less@H@2@V?$allocator@U?$pair@$$CBHV?$basic_string@DU?$char_traits@D@std@@V?$allocator@D@2@@std@@@std@@@2@$0A@@std@@@std@@IAE?AV?$_Tree_iterator@V?$_Tree_val@U?$_Tree_simple_types@U?$pair@$$CBHV?$basic_string@DU?$char_traits@D@std@@V?$allocator@D@2@@std@@@std@@@std@@@std@@@1@_NPAU?$_Tree_node@U?$pair@$$CBHV?$basic_string@DU?$char_traits@D@std@@V?$allocator@D@2@@std@@@std@@PAX@1@AAU?$pair@$$CBHV?$basic_string@DU?$char_traits@D@std@@V?$allocator@D@2@@std@@@1@1@Z 10009d20 f i out_saitek.obj
 0001:00009150       ??$_Insert_hint@AAU?$pair@$$CBHV?$basic_string@DU?$char_traits@D@std@@V?$allocator@D@2@@std@@@std@@PAU?$_Tree_node@U?$pair@$$CBHV?$basic_string@DU?$char_traits@D@std@@V?$allocator@D@2@@std@@@std@@PAX@2@@?$_Tree@V?$_Tmap_traits@HV?$basic_string@DU?$char_traits@D@std@@V?$allocator@D@2@@std@@U?$less@H@2@V?$allocator@U?$pair@$$CBHV?$basic_string@DU?$char_traits@D@std@@V?$allocator@D@2@@std@@@std@@@2@$0A@@std@@@std@@IAE?AV?$_Tree_iterator@V?$_Tree_val@U?$_Tree_simple_types@U?$pair@$$CBHV?$basic_string@DU?$char_traits@D@std@@V?$allocator@D@2@@std@@@std@@@std@@@std@@@1@V?$_Tree_const_iterator@V?$_Tree_val@U?$_Tree_simple_types@U?$pair@$$CBHV?$basic_string@DU?$char_traits@D@std@@V?$allocator@D@2@@std@@@std@@@std@@@std@@@1@AAU?$pair@$$CBHV?$basic_string@DU?$char_traits@D@std@@V?$allocator@D@2@@std@@@1@PAU?$_Tree_node@U?$pair@$$CBHV?$basic_string@DU?$char_traits@D@std@@V?$allocator@D@2@@std@@@std@@PAX@1@@Z 1000a150 f i out_saitek.obj
 0001:00009900       ??$_Insert_nohint@AAU?$pair@$$CBHV?$basic_string@DU?$char_traits@D@std@@V?$allocator@D@2@@std@@@std@@PAU?$_Tree_node@U?$pair@$$CBHV?$basic_string@DU?$char_traits@D@std@@V?$allocator@D@2@@std@@@std@@PAX@2@@?$_Tree@V?$_Tmap_traits@HV?$basic_string@DU?$char_traits@D@std@@V?$allocator@D@2@@std@@U?$less@H@2@V?$allocator@U?$pair@$$CBHV?$basic_string@DU?$char_traits@D@std@@V?$allocator@D@2@@std@@@std@@@2@$0A@@std@@@std@@IAE?AU?$pair@V?$_Tree_iterator@V?$_Tree_val@U?$_Tree_simple_types@U?$pair@$$CBHV?$basic_string@DU?$char_traits@D@std@@V?$allocator@D@2@@std@@@std@@@std@@@std@@@std@@_N@1@_NAAU?$pair@$$CBHV?$basic_string@DU?$char_traits@D@std@@V?$allocator@D@2@@std@@@1@PAU?$_Tree_node@U?$pair@$$CBHV?$basic_string@DU?$char_traits@D@std@@V?$allocator@D@2@@std@@@std@@PAX@1@@Z 1000a900 f i out_saitek.obj
 0001:00009bd0       ??$construct@PAU?$_Tree_node@U?$pair@$$CBHPAVfms_fp_item_t@@@std@@PAX@std@@AAPAU12@@?$_Wrap_alloc@V?$allocator@U?$_Tree_node@U?$pair@$$CBHPAVfms_fp_item_t@@@std@@PAX@std@@@std@@@std@@QAEXPAPAU?$_Tree_node@U?$pair@$$CBHPAVfms_fp_item_t@@@std@@PAX@1@AAPAU21@@Z 1000abd0 f i mfdpage_fms.obj
 0001:00009bd0       ??$construct@PAU?$_Tree_node@U?$pair@$$CBV?$basic_string@DU?$char_traits@D@std@@V?$allocator@D@2@@std@@PAVfms_fp_item_t@@@std@@PAX@std@@AAPAU12@@?$_Wrap_alloc@V?$allocator@U?$_Tree_node@U?$pair@$$CBV?$basic_string@DU?$char_traits@D@std@@V?$allocator@D@2@@std@@PAVfms_fp_item_t@@@std@@PAX@std@@@std@@@std@@QAEXPAPAU?$_Tree_node@U?$pair@$$CBV?$basic_string@DU?$char_traits@D@std@@V?$allocator@D@2@@std@@PAVfms_fp_item_t@@@std@@PAX@1@AAPAU21@@Z 1000abd0 f i fms_fp.obj
 0001:00009bd0       ??$construct@PAU?$_Tree_node@U?$pair@$$CBHV?$basic_string@DU?$char_traits@D@std@@V?$allocator@D@2@@std@@@std@@PAX@std@@AAPAU12@@?$_Wrap_alloc@V?$allocator@U?$_Tree_node@U?$pair@$$CBHV?$basic_string@DU?$char_traits@D@std@@V?$allocator@D@2@@std@@@std@@PAX@std@@@std@@@std@@QAEXPAPAU?$_Tree_node@U?$pair@$$CBHV?$basic_string@DU?$char_traits@D@std@@V?$allocator@D@2@@std@@@std@@PAX@1@AAPAU21@@Z 1000abd0 f i out_saitek.obj
 0001:00009bd0       ??$construct@PAU?$_Tree_node@PAVobject_t@@PAX@std@@AAPAU12@@?$_Wrap_alloc@V?$allocator@U?$_Tree_node@PAVobject_t@@PAX@std@@@std@@@std@@QAEXPAPAU?$_Tree_node@PAVobject_t@@PAX@1@AAPAU21@@Z 1000abd0 f i data.obj
 0001:00009bd0       ??$construct@PAU?$_Tree_node@PAVlistener_t@@PAX@std@@AAPAU12@@?$_Wrap_alloc@V?$allocator@U?$_Tree_node@PAVlistener_t@@PAX@std@@@std@@@std@@QAEXPAPAU?$_Tree_node@PAVlistener_t@@PAX@1@AAPAU21@@Z 1000abd0 f i data.obj
 0001:00009bd0       ??$construct@PAVlistener_t@@ABQAV1@@?$_Wrap_alloc@V?$allocator@U?$_Tree_node@PAVlistener_t@@PAX@std@@@std@@@std@@QAEXPAPAVlistener_t@@ABQAV2@@Z 1000abd0 f i data.obj
 0001:00009bd0       ??$construct@PAVobject_t@@ABQAV1@@?$_Wrap_alloc@V?$allocator@U?$_Tree_node@PAVobject_t@@PAX@std@@@std@@@std@@QAEXPAPAVobject_t@@ABQAV2@@Z 1000abd0 f i data.obj
 0001:00009bd0       ??$construct@PAU?$_Tree_node@U?$pair@$$CBV?$basic_string@DU?$char_traits@D@std@@V?$allocator@D@2@@std@@H@std@@PAX@std@@AAPAU12@@?$_Wrap_alloc@V?$allocator@U?$_Tree_node@U?$pair@$$CBV?$basic_string@DU?$char_traits@D@std@@V?$allocator@D@2@@std@@H@std@@PAX@std@@@std@@@std@@QAEXPAPAU?$_Tree_node@U?$pair@$$CBV?$basic_string@DU?$char_traits@D@std@@V?$allocator@D@2@@std@@H@std@@PAX@1@AAPAU21@@Z 1000abd0 f i mfdpage.obj
 0001:00009bd0       ??$construct@PAU?$_Tree_node@PAVmfdpage_t@@PAX@std@@AAPAU12@@?$_Wrap_alloc@V?$allocator@U?$_Tree_node@PAVmfdpage_t@@PAX@std@@@std@@@std@@QAEXPAPAU?$_Tree_node@PAVmfdpage_t@@PAX@1@AAPAU21@@Z 1000abd0 f i in.obj
 0001:00009bd0       ??$construct@PAU?$_Tree_node@U?$pair@$$CBHM@std@@PAX@std@@AAPAU12@@?$_Wrap_alloc@V?$allocator@U?$_Tree_node@U?$pair@$$CBHM@std@@PAX@std@@@std@@@std@@QAEXPAPAU?$_Tree_node@U?$pair@$$CBHM@std@@PAX@1@AAPAU21@@Z 1000abd0 f i fms_config.obj
 0001:00009bd0       ??$construct@PAU?$_Tree_node@U?$pair@$$CBV?$basic_string@DU?$char_traits@D@std@@V?$allocator@D@2@@std@@M@std@@PAX@std@@AAPAU12@@?$_Wrap_alloc@V?$allocator@U?$_Tree_node@U?$pair@$$CBV?$basic_string@DU?$char_traits@D@std@@V?$allocator@D@2@@std@@M@std@@PAX@std@@@std@@@std@@QAEXPAPAU?$_Tree_node@U?$pair@$$CBV?$basic_string@DU?$char_traits@D@std@@V?$allocator@D@2@@std@@M@std@@PAX@1@AAPAU21@@Z 1000abd0 f i mfdpage_fms.obj
 0001:00009bd0       ??$construct@PAU?$_Tree_node@U?$pair@$$CBV?$basic_string@DU?$char_traits@D@std@@V?$allocator@D@2@@std@@D@std@@PAX@std@@AAPAU12@@?$_Wrap_alloc@V?$allocator@U?$_Tree_node@U?$pair@$$CBV?$basic_string@DU?$char_traits@D@std@@V?$allocator@D@2@@std@@D@std@@PAX@std@@@std@@@std@@QAEXPAPAU?$_Tree_node@U?$pair@$$CBV?$basic_string@DU?$char_traits@D@std@@V?$allocator@D@2@@std@@D@std@@PAX@1@AAPAU21@@Z 1000abd0 f i mfdpage.obj
 0001:00009bd0       ??$construct@PAU?$_Tree_node@U?$pair@$$CBV?$basic_string@DU?$char_traits@D@std@@V?$allocator@D@2@@std@@V12@@std@@PAX@std@@AAPAU12@@?$_Wrap_alloc@V?$allocator@U?$_Tree_node@U?$pair@$$CBV?$basic_string@DU?$char_traits@D@std@@V?$allocator@D@2@@std@@V12@@std@@PAX@std@@@std@@@std@@QAEXPAPAU?$_Tree_node@U?$pair@$$CBV?$basic_string@DU?$char_traits@D@std@@V?$allocator@D@2@@std@@V12@@std@@PAX@1@AAPAU21@@Z 1000abd0 f i tools.obj
 0001:00009bd0       ??$construct@PAU?$_Tree_node@U?$pair@$$CBV?$basic_string@DU?$char_traits@D@std@@V?$allocator@D@2@@std@@PAVfms_config_item_t@@@std@@PAX@std@@AAPAU12@@?$_Wrap_alloc@V?$allocator@U?$_Tree_node@U?$pair@$$CBV?$basic_string@DU?$char_traits@D@std@@V?$allocator@D@2@@std@@PAVfms_config_item_t@@@std@@PAX@std@@@std@@@std@@QAEXPAPAU?$_Tree_node@U?$pair@$$CBV?$basic_string@DU?$char_traits@D@std@@V?$allocator@D@2@@std@@PAVfms_config_item_t@@@std@@PAX@1@AAPAU21@@Z 1000abd0 f i fms_config.obj
 0001:00009bd0       ??$construct@PAVmfdpage_t@@ABQAV1@@?$_Wrap_alloc@V?$allocator@U?$_Tree_node@PAVmfdpage_t@@PAX@std@@@std@@@std@@QAEXPAPAVmfdpage_t@@ABQAV2@@Z 1000abd0 f i in.obj
 0001:00009bd0       ??$construct@PAU?$_Tree_node@U?$pair@$$CBHPAVobject_t@@@std@@PAX@std@@AAPAU12@@?$_Wrap_alloc@V?$allocator@U?$_Tree_node@U?$pair@$$CBHPAVobject_t@@@std@@PAX@std@@@std@@@std@@QAEXPAPAU?$_Tree_node@U?$pair@$$CBHPAVobject_t@@@std@@PAX@1@AAPAU21@@Z 1000abd0 f i mfdpage.obj
 0001:00009bd0       ??$construct@PADAAPAD@?$_Wrap_alloc@V?$allocator@D@std@@@std@@QAEXPAPADAAPAD@Z 1000abd0 f i main.obj
 0001:00009c00       ??$construct@PAU?$_Tree_node@U?$pair@$$CBHV?$basic_string@DU?$char_traits@D@std@@V?$allocator@D@2@@std@@@std@@PAX@std@@AAPAU12@@?$allocator@U?$_Tree_node@U?$pair@$$CBHV?$basic_string@DU?$char_traits@D@std@@V?$allocator@D@2@@std@@@std@@PAX@std@@@std@@QAEXPAPAU?$_Tree_node@U?$pair@$$CBHV?$basic_string@DU?$char_traits@D@std@@V?$allocator@D@2@@std@@@std@@PAX@1@AAPAU21@@Z 1000ac00 f i out_saitek.obj
 0001:00009c00       ??$construct@PAVmfdpage_t@@ABQAV1@@?$allocator@U?$_Tree_node@PAVmfdpage_t@@PAX@std@@@std@@QAEXPAPAVmfdpage_t@@ABQAV2@@Z 1000ac00 f i in.obj
 0001:00009c00       ??$construct@PAU?$_Tree_node@U?$pair@$$CBV?$basic_string@DU?$char_traits@D@std@@V?$allocator@D@2@@std@@V12@@std@@PAX@std@@AAPAU12@@?$allocator@U?$_Tree_node@U?$pair@$$CBV?$basic_string@DU?$char_traits@D@std@@V?$allocator@D@2@@std@@V12@@std@@PAX@std@@@std@@QAEXPAPAU?$_Tree_node@U?$pair@$$CBV?$basic_string@DU?$char_traits@D@std@@V?$allocator@D@2@@std@@V12@@std@@PAX@1@AAPAU21@@Z 1000ac00 f i tools.obj
 0001:00009c00       ??$construct@PAU?$_Tree_node@PAVmfdpage_t@@PAX@std@@AAPAU12@@?$allocator@U?$_Tree_node@PAVmfdpage_t@@PAX@std@@@std@@QAEXPAPAU?$_Tree_node@PAVmfdpage_t@@PAX@1@AAPAU21@@Z 1000ac00 f i in.obj
 0001:00009c00       ??$construct@PAU?$_Tree_node@U?$pair@$$CBV?$basic_string@DU?$char_traits@D@std@@V?$allocator@D@2@@std@@H@std@@PAX@std@@AAPAU12@@?$allocator@U?$_Tree_node@U?$pair@$$CBV?$basic_string@DU?$char_traits@D@std@@V?$allocator@D@2@@std@@H@std@@PAX@std@@@std@@QAEXPAPAU?$_Tree_node@U?$pair@$$CBV?$basic_string@DU?$char_traits@D@std@@V?$allocator@D@2@@std@@H@std@@PAX@1@AAPAU21@@Z 1000ac00 f i mfdpage.obj
 0001:00009c00       ??$construct@PAU?$_Tree_node@U?$pair@$$CBHPAVobject_t@@@std@@PAX@std@@AAPAU12@@?$allocator@U?$_Tree_node@U?$pair@$$CBHPAVobject_t@@@std@@PAX@std@@@std@@QAEXPAPAU?$_Tree_node@U?$pair@$$CBHPAVobject_t@@@std@@PAX@1@AAPAU21@@Z 1000ac00 f i mfdpage.obj
 0001:00009c00       ??$construct@PAU?$_Tree_node@U?$pair@$$CBV?$basic_string@DU?$char_traits@D@std@@V?$allocator@D@2@@std@@PAVfms_config_item_t@@@std@@PAX@std@@AAPAU12@@?$allocator@U?$_Tree_node@U?$pair@$$CBV?$basic_string@DU?$char_traits@D@std@@V?$allocator@D@2@@std@@PAVfms_config_item_t@@@std@@PAX@std@@@std@@QAEXPAPAU?$_Tree_node@U?$pair@$$CBV?$basic_string@DU?$char_traits@D@std@@V?$allocator@D@2@@std@@PAVfms_config_item_t@@@std@@PAX@1@AAPAU21@@Z 1000ac00 f i fms_config.obj
 0001:00009c00       ??$construct@PAU?$_Tree_node@PAVlistener_t@@PAX@std@@AAPAU12@@?$allocator@U?$_Tree_node@PAVlistener_t@@PAX@std@@@std@@QAEXPAPAU?$_Tree_node@PAVlistener_t@@PAX@1@AAPAU21@@Z 1000ac00 f i data.obj
 0001:00009c00       ??$construct@PAU?$_Tree_node@U?$pair@$$CBV?$basic_string@DU?$char_traits@D@std@@V?$allocator@D@2@@std@@M@std@@PAX@std@@AAPAU12@@?$allocator@U?$_Tree_node@U?$pair@$$CBV?$basic_string@DU?$char_traits@D@std@@V?$allocator@D@2@@std@@M@std@@PAX@std@@@std@@QAEXPAPAU?$_Tree_node@U?$pair@$$CBV?$basic_string@DU?$char_traits@D@std@@V?$allocator@D@2@@std@@M@std@@PAX@1@AAPAU21@@Z 1000ac00 f i mfdpage_fms.obj
 0001:00009c00       ??$construct@PAU?$_Tree_node@U?$pair@$$CBV?$basic_string@DU?$char_traits@D@std@@V?$allocator@D@2@@std@@D@std@@PAX@std@@AAPAU12@@?$allocator@U?$_Tree_node@U?$pair@$$CBV?$basic_string@DU?$char_traits@D@std@@V?$allocator@D@2@@std@@D@std@@PAX@std@@@std@@QAEXPAPAU?$_Tree_node@U?$pair@$$CBV?$basic_string@DU?$char_traits@D@std@@V?$allocator@D@2@@std@@D@std@@PAX@1@AAPAU21@@Z 1000ac00 f i mfdpage.obj
 0001:00009c00       ??$construct@PAVlistener_t@@ABQAV1@@?$allocator@U?$_Tree_node@PAVlistener_t@@PAX@std@@@std@@QAEXPAPAVlistener_t@@ABQAV2@@Z 1000ac00 f i data.obj
 0001:00009c00       ??$construct@PAU?$_Tree_node@PAVobject_t@@PAX@std@@AAPAU12@@?$allocator@U?$_Tree_node@PAVobject_t@@PAX@std@@@std@@QAEXPAPAU?$_Tree_node@PAVobject_t@@PAX@1@AAPAU21@@Z 1000ac00 f i data.obj
 0001:00009c00       ??$construct@PAU?$_Tree_node@U?$pair@$$CBHPAVfms_fp_item_t@@@std@@PAX@std@@AAPAU12@@?$allocator@U?$_Tree_node@U?$pair@$$CBHPAVfms_fp_item_t@@@std@@PAX@std@@@std@@QAEXPAPAU?$_Tree_node@U?$pair@$$CBHPAVfms_fp_item_t@@@std@@PAX@1@AAPAU21@@Z 1000ac00 f i mfdpage_fms.obj
 0001:00009c00       ??$construct@PADAAPAD@?$allocator@D@std@@QAEXPAPADAAPAD@Z 1000ac00 f i main.obj
 0001:00009c00       ??$construct@PAVobject_t@@ABQAV1@@?$allocator@U?$_Tree_node@PAVobject_t@@PAX@std@@@std@@QAEXPAPAVobject_t@@ABQAV2@@Z 1000ac00 f i data.obj
 0001:00009c00       ??$construct@PAU?$_Tree_node@U?$pair@$$CBHM@std@@PAX@std@@AAPAU12@@?$allocator@U?$_Tree_node@U?$pair@$$CBHM@std@@PAX@std@@@std@@QAEXPAPAU?$_Tree_node@U?$pair@$$CBHM@std@@PAX@1@AAPAU21@@Z 1000ac00 f i fms_config.obj
 0001:00009c00       ??$construct@PAU?$_Tree_node@U?$pair@$$CBV?$basic_string@DU?$char_traits@D@std@@V?$allocator@D@2@@std@@PAVfms_fp_item_t@@@std@@PAX@std@@AAPAU12@@?$allocator@U?$_Tree_node@U?$pair@$$CBV?$basic_string@DU?$char_traits@D@std@@V?$allocator@D@2@@std@@PAVfms_fp_item_t@@@std@@PAX@std@@@std@@QAEXPAPAU?$_Tree_node@U?$pair@$$CBV?$basic_string@DU?$char_traits@D@std@@V?$allocator@D@2@@std@@PAVfms_fp_item_t@@@std@@PAX@1@AAPAU21@@Z 1000ac00 f i fms_fp.obj
 0001:00009c50       ??$construct@PAU?$_Tree_node@U?$pair@$$CBHPAVobject_t@@@std@@PAX@std@@AAPAU12@@?$allocator_traits@V?$allocator@U?$_Tree_node@U?$pair@$$CBHPAVobject_t@@@std@@PAX@std@@@std@@@std@@SAXAAV?$allocator@U?$_Tree_node@U?$pair@$$CBHPAVobject_t@@@std@@PAX@std@@@1@PAPAU?$_Tree_node@U?$pair@$$CBHPAVobject_t@@@std@@PAX@1@AAPAU31@@Z 1000ac50 f i mfdpage.obj
 0001:00009c50       ??$construct@PAU?$_Tree_node@U?$pair@$$CBV?$basic_string@DU?$char_traits@D@std@@V?$allocator@D@2@@std@@PAVfms_config_item_t@@@std@@PAX@std@@AAPAU12@@?$allocator_traits@V?$allocator@U?$_Tree_node@U?$pair@$$CBV?$basic_string@DU?$char_traits@D@std@@V?$allocator@D@2@@std@@PAVfms_config_item_t@@@std@@PAX@std@@@std@@@std@@SAXAAV?$allocator@U?$_Tree_node@U?$pair@$$CBV?$basic_string@DU?$char_traits@D@std@@V?$allocator@D@2@@std@@PAVfms_config_item_t@@@std@@PAX@std@@@1@PAPAU?$_Tree_node@U?$pair@$$CBV?$basic_string@DU?$char_traits@D@std@@V?$allocator@D@2@@std@@PAVfms_config_item_t@@@std@@PAX@1@AAPAU31@@Z 1000ac50 f i fms_config.obj
 0001:00009c50       ??$construct@PAVlistener_t@@ABQAV1@@?$allocator_traits@V?$allocator@U?$_Tree_node@PAVlistener_t@@PAX@std@@@std@@@std@@SAXAAV?$allocator@U?$_Tree_node@PAVlistener_t@@PAX@std@@@1@PAPAVlistener_t@@ABQAV3@@Z 1000ac50 f i data.obj
 0001:00009c50       ??$construct@PAVobject_t@@ABQAV1@@?$allocator_traits@V?$allocator@U?$_Tree_node@PAVobject_t@@PAX@std@@@std@@@std@@SAXAAV?$allocator@U?$_Tree_node@PAVobject_t@@PAX@std@@@1@PAPAVobject_t@@ABQAV3@@Z 1000ac50 f i data.obj
 0001:00009c50       ??$construct@PAU?$_Tree_node@PAVlistener_t@@PAX@std@@AAPAU12@@?$allocator_traits@V?$allocator@U?$_Tree_node@PAVlistener_t@@PAX@std@@@std@@@std@@SAXAAV?$allocator@U?$_Tree_node@PAVlistener_t@@PAX@std@@@1@PAPAU?$_Tree_node@PAVlistener_t@@PAX@1@AAPAU31@@Z 1000ac50 f i data.obj
 0001:00009c50       ??$construct@PAU?$_Tree_node@U?$pair@$$CBHM@std@@PAX@std@@AAPAU12@@?$allocator_traits@V?$allocator@U?$_Tree_node@U?$pair@$$CBHM@std@@PAX@std@@@std@@@std@@SAXAAV?$allocator@U?$_Tree_node@U?$pair@$$CBHM@std@@PAX@std@@@1@PAPAU?$_Tree_node@U?$pair@$$CBHM@std@@PAX@1@AAPAU31@@Z 1000ac50 f i fms_config.obj
 0001:00009c50       ??$construct@PAU?$_Tree_node@U?$pair@$$CBV?$basic_string@DU?$char_traits@D@std@@V?$allocator@D@2@@std@@V12@@std@@PAX@std@@AAPAU12@@?$allocator_traits@V?$allocator@U?$_Tree_node@U?$pair@$$CBV?$basic_string@DU?$char_traits@D@std@@V?$allocator@D@2@@std@@V12@@std@@PAX@std@@@std@@@std@@SAXAAV?$allocator@U?$_Tree_node@U?$pair@$$CBV?$basic_string@DU?$char_traits@D@std@@V?$allocator@D@2@@std@@V12@@std@@PAX@std@@@1@PAPAU?$_Tree_node@U?$pair@$$CBV?$basic_string@DU?$char_traits@D@std@@V?$allocator@D@2@@std@@V12@@std@@PAX@1@AAPAU31@@Z 1000ac50 f i tools.obj
 0001:00009c50       ??$construct@PAU?$_Tree_node@U?$pair@$$CBV?$basic_string@DU?$char_traits@D@std@@V?$allocator@D@2@@std@@M@std@@PAX@std@@AAPAU12@@?$allocator_traits@V?$allocator@U?$_Tree_node@U?$pair@$$CBV?$basic_string@DU?$char_traits@D@std@@V?$allocator@D@2@@std@@M@std@@PAX@std@@@std@@@std@@SAXAAV?$allocator@U?$_Tree_node@U?$pair@$$CBV?$basic_string@DU?$char_traits@D@std@@V?$allocator@D@2@@std@@M@std@@PAX@std@@@1@PAPAU?$_Tree_node@U?$pair@$$CBV?$basic_string@DU?$char_traits@D@std@@V?$allocator@D@2@@std@@M@std@@PAX@1@AAPAU31@@Z 1000ac50 f i mfdpage_fms.obj
 0001:00009c50       ??$construct@PAU?$_Tree_node@PAVmfdpage_t@@PAX@std@@AAPAU12@@?$allocator_traits@V?$allocator@U?$_Tree_node@PAVmfdpage_t@@PAX@std@@@std@@@std@@SAXAAV?$allocator@U?$_Tree_node@PAVmfdpage_t@@PAX@std@@@1@PAPAU?$_Tree_node@PAVmfdpage_t@@PAX@1@AAPAU31@@Z 1000ac50 f i in.obj
 0001:00009c50       ??$construct@PAU?$_Tree_node@U?$pair@$$CBHPAVfms_fp_item_t@@@std@@PAX@std@@AAPAU12@@?$allocator_traits@V?$allocator@U?$_Tree_node@U?$pair@$$CBHPAVfms_fp_item_t@@@std@@PAX@std@@@std@@@std@@SAXAAV?$allocator@U?$_Tree_node@U?$pair@$$CBHPAVfms_fp_item_t@@@std@@PAX@std@@@1@PAPAU?$_Tree_node@U?$pair@$$CBHPAVfms_fp_item_t@@@std@@PAX@1@AAPAU31@@Z 1000ac50 f i mfdpage_fms.obj
 0001:00009c50       ??$construct@PADAAPAD@?$allocator_traits@V?$allocator@D@std@@@std@@SAXAAV?$allocator@D@1@PAPADAAPAD@Z 1000ac50 f i main.obj
 0001:00009c50       ??$construct@PAU?$_Tree_node@U?$pair@$$CBV?$basic_string@DU?$char_traits@D@std@@V?$allocator@D@2@@std@@D@std@@PAX@std@@AAPAU12@@?$allocator_traits@V?$allocator@U?$_Tree_node@U?$pair@$$CBV?$basic_string@DU?$char_traits@D@std@@V?$allocator@D@2@@std@@D@std@@PAX@std@@@std@@@std@@SAXAAV?$allocator@U?$_Tree_node@U?$pair@$$CBV?$basic_string@DU?$char_traits@D@std@@V?$allocator@D@2@@std@@D@std@@PAX@std@@@1@PAPAU?$_Tree_node@U?$pair@$$CBV?$basic_string@DU?$char_traits@D@std@@V?$allocator@D@2@@std@@D@std@@PAX@1@AAPAU31@@Z 1000ac50 f i mfdpage.obj
 0001:00009c50       ??$construct@PAU?$_Tree_node@PAVobject_t@@PAX@std@@AAPAU12@@?$allocator_traits@V?$allocator@U?$_Tree_node@PAVobject_t@@PAX@std@@@std@@@std@@SAXAAV?$allocator@U?$_Tree_node@PAVobject_t@@PAX@std@@@1@PAPAU?$_Tree_node@PAVobject_t@@PAX@1@AAPAU31@@Z 1000ac50 f i data.obj
 0001:00009c50       ??$construct@PAVmfdpage_t@@ABQAV1@@?$allocator_traits@V?$allocator@U?$_Tree_node@PAVmfdpage_t@@PAX@std@@@std@@@std@@SAXAAV?$allocator@U?$_Tree_node@PAVmfdpage_t@@PAX@std@@@1@PAPAVmfdpage_t@@ABQAV3@@Z 1000ac50 f i in.obj
 0001:00009c50       ??$construct@PAU?$_Tree_node@U?$pair@$$CBV?$basic_string@DU?$char_traits@D@std@@V?$allocator@D@2@@std@@PAVfms_fp_item_t@@@std@@PAX@std@@AAPAU12@@?$allocator_traits@V?$allocator@U?$_Tree_node@U?$pair@$$CBV?$basic_string@DU?$char_traits@D@std@@V?$allocator@D@2@@std@@PAVfms_fp_item_t@@@std@@PAX@std@@@std@@@std@@SAXAAV?$allocator@U?$_Tree_node@U?$pair@$$CBV?$basic_string@DU?$char_traits@D@std@@V?$allocator@D@2@@std@@PAVfms_fp_item_t@@@std@@PAX@std@@@1@PAPAU?$_Tree_node@U?$pair@$$CBV?$basic_string@DU?$char_traits@D@std@@V?$allocator@D@2@@std@@PAVfms_fp_item_t@@@std@@PAX@1@AAPAU31@@Z 1000ac50 f i fms_fp.obj
 0001:00009c50       ??$construct@PAU?$_Tree_node@U?$pair@$$CBV?$basic_string@DU?$char_traits@D@std@@V?$allocator@D@2@@std@@H@std@@PAX@std@@AAPAU12@@?$allocator_traits@V?$allocator@U?$_Tree_node@U?$pair@$$CBV?$basic_string@DU?$char_traits@D@std@@V?$allocator@D@2@@std@@H@std@@PAX@std@@@std@@@std@@SAXAAV?$allocator@U?$_Tree_node@U?$pair@$$CBV?$basic_string@DU?$char_traits@D@std@@V?$allocator@D@2@@std@@H@std@@PAX@std@@@1@PAPAU?$_Tree_node@U?$pair@$$CBV?$basic_string@DU?$char_traits@D@std@@V?$allocator@D@2@@std@@H@std@@PAX@1@AAPAU31@@Z 1000ac50 f i mfdpage.obj
 0001:00009c50       ??$construct@PAU?$_Tree_node@U?$pair@$$CBHV?$basic_string@DU?$char_traits@D@std@@V?$allocator@D@2@@std@@@std@@PAX@std@@AAPAU12@@?$allocator_traits@V?$allocator@U?$_Tree_node@U?$pair@$$CBHV?$basic_string@DU?$char_traits@D@std@@V?$allocator@D@2@@std@@@std@@PAX@std@@@std@@@std@@SAXAAV?$allocator@U?$_Tree_node@U?$pair@$$CBHV?$basic_string@DU?$char_traits@D@std@@V?$allocator@D@2@@std@@@std@@PAX@std@@@1@PAPAU?$_Tree_node@U?$pair@$$CBHV?$basic_string@DU?$char_traits@D@std@@V?$allocator@D@2@@std@@@std@@PAX@1@AAPAU31@@Z 1000ac50 f i out_saitek.obj
 0001:00009c70       ??$construct@U?$pair@$$CBHV?$basic_string@DU?$char_traits@D@std@@V?$allocator@D@2@@std@@@std@@ABUpiecewise_construct_t@2@V?$tuple@$$QAH@2@V?$tuple@$$$V@2@@?$_Wrap_alloc@V?$allocator@U?$_Tree_node@U?$pair@$$CBHV?$basic_string@DU?$char_traits@D@std@@V?$allocator@D@2@@std@@@std@@PAX@std@@@std@@@std@@QAEXPAU?$pair@$$CBHV?$basic_string@DU?$char_traits@D@std@@V?$allocator@D@2@@std@@@1@ABUpiecewise_construct_t@1@$$QAV?$tuple@$$QAH@1@$$QAV?$tuple@$$$V@1@@Z 1000ac70 f i mfdpage_fms.obj
 0001:00009c70       ??$construct@U?$pair@$$CBHV?$basic_string@DU?$char_traits@D@std@@V?$allocator@D@2@@std@@@std@@ABUpiecewise_construct_t@2@V?$tuple@ABH@2@V?$tuple@$$$V@2@@?$_Wrap_alloc@V?$allocator@U?$_Tree_node@U?$pair@$$CBHV?$basic_string@DU?$char_traits@D@std@@V?$allocator@D@2@@std@@@std@@PAX@std@@@std@@@std@@QAEXPAU?$pair@$$CBHV?$basic_string@DU?$char_traits@D@std@@V?$allocator@D@2@@std@@@1@ABUpiecewise_construct_t@1@$$QAV?$tuple@ABH@1@$$QAV?$tuple@$$$V@1@@Z 1000ac70 f i out_saitek.obj
 0001:00009cc0       ??$construct@U?$pair@$$CBHV?$basic_string@DU?$char_traits@D@std@@V?$allocator@D@2@@std@@@std@@ABUpiecewise_construct_t@2@V?$tuple@$$QAH@2@V?$tuple@$$$V@2@@?$allocator@U?$_Tree_node@U?$pair@$$CBHV?$basic_string@DU?$char_traits@D@std@@V?$allocator@D@2@@std@@@std@@PAX@std@@@std@@QAEXPAU?$pair@$$CBHV?$basic_string@DU?$char_traits@D@std@@V?$allocator@D@2@@std@@@1@ABUpiecewise_construct_t@1@$$QAV?$tuple@$$QAH@1@$$QAV?$tuple@$$$V@1@@Z 1000acc0 f i mfdpage_fms.obj
 0001:00009cc0       ??$construct@U?$pair@$$CBHV?$basic_string@DU?$char_traits@D@std@@V?$allocator@D@2@@std@@@std@@ABUpiecewise_construct_t@2@V?$tuple@ABH@2@V?$tuple@$$$V@2@@?$allocator@U?$_Tree_node@U?$pair@$$CBHV?$basic_string@DU?$char_traits@D@std@@V?$allocator@D@2@@std@@@std@@PAX@std@@@std@@QAEXPAU?$pair@$$CBHV?$basic_string@DU?$char_traits@D@std@@V?$allocator@D@2@@std@@@1@ABUpiecewise_construct_t@1@$$QAV?$tuple@ABH@1@$$QAV?$tuple@$$$V@1@@Z 1000acc0 f i out_saitek.obj
 0001:00009d30       ??$construct@U?$pair@$$CBHV?$basic_string@DU?$char_traits@D@std@@V?$allocator@D@2@@std@@@std@@ABUpiecewise_construct_t@2@V?$tuple@$$QAH@2@V?$tuple@$$$V@2@@?$allocator_traits@V?$allocator@U?$_Tree_node@U?$pair@$$CBHV?$basic_string@DU?$char_traits@D@std@@V?$allocator@D@2@@std@@@std@@PAX@std@@@std@@@std@@SAXAAV?$allocator@U?$_Tree_node@U?$pair@$$CBHV?$basic_string@DU?$char_traits@D@std@@V?$allocator@D@2@@std@@@std@@PAX@std@@@1@PAU?$pair@$$CBHV?$basic_string@DU?$char_traits@D@std@@V?$allocator@D@2@@std@@@1@ABUpiecewise_construct_t@1@$$QAV?$tuple@$$QAH@1@$$QAV?$tuple@$$$V@1@@Z 1000ad30 f i mfdpage_fms.obj
 0001:00009d30       ??$construct@U?$pair@$$CBHV?$basic_string@DU?$char_traits@D@std@@V?$allocator@D@2@@std@@@std@@ABUpiecewise_construct_t@2@V?$tuple@ABH@2@V?$tuple@$$$V@2@@?$allocator_traits@V?$allocator@U?$_Tree_node@U?$pair@$$CBHV?$basic_string@DU?$char_traits@D@std@@V?$allocator@D@2@@std@@@std@@PAX@std@@@std@@@std@@SAXAAV?$allocator@U?$_Tree_node@U?$pair@$$CBHV?$basic_string@DU?$char_traits@D@std@@V?$allocator@D@2@@std@@@std@@PAX@std@@@1@PAU?$pair@$$CBHV?$basic_string@DU?$char_traits@D@std@@V?$allocator@D@2@@std@@@1@ABUpiecewise_construct_t@1@$$QAV?$tuple@ABH@1@$$QAV?$tuple@$$$V@1@@Z 1000ad30 f i out_saitek.obj
 0001:00009d70       ??$destroy@U?$pair@$$CBHV?$basic_string@DU?$char_traits@D@std@@V?$allocator@D@2@@std@@@std@@@?$_Wrap_alloc@V?$allocator@U?$_Tree_node@U?$pair@$$CBHV?$basic_string@DU?$char_traits@D@std@@V?$allocator@D@2@@std@@@std@@PAX@std@@@std@@@std@@QAEXPAU?$pair@$$CBHV?$basic_string@DU?$char_traits@D@std@@V?$allocator@D@2@@std@@@1@@Z 1000ad70 f i out_saitek.obj
 0001:00009d90       ??$destroy@U?$pair@$$CBHV?$basic_string@DU?$char_traits@D@std@@V?$allocator@D@2@@std@@@std@@@?$allocator@U?$_Tree_node@U?$pair@$$CBHV?$basic_string@DU?$char_traits@D@std@@V?$allocator@D@2@@std@@@std@@PAX@std@@@std@@QAEXPAU?$pair@$$CBHV?$basic_string@DU?$char_traits@D@std@@V?$allocator@D@2@@std@@@1@@Z 1000ad90 f i out_saitek.obj
 0001:00009db0       ??$destroy@U?$pair@$$CBHV?$basic_string@DU?$char_traits@D@std@@V?$allocator@D@2@@std@@@std@@@?$allocator_traits@V?$allocator@U?$_Tree_node@U?$pair@$$CBHV?$basic_string@DU?$char_traits@D@std@@V?$allocator@D@2@@std@@@std@@PAX@std@@@std@@@std@@SAXAAV?$allocator@U?$_Tree_node@U?$pair@$$CBHV?$basic_string@DU?$char_traits@D@std@@V?$allocator@D@2@@std@@@std@@PAX@std@@@1@PAU?$pair@$$CBHV?$basic_string@DU?$char_traits@D@std@@V?$allocator@D@2@@std@@@1@@Z 1000adb0 f i out_saitek.obj
 0001:00009dd0       ??0?$_Tree_alloc@$0A@U?$_Tree_base_types@U?$pair@$$CBV?$basic_string@DU?$char_traits@D@std@@V?$allocator@D@2@@std@@M@std@@V?$allocator@U?$pair@$$CBV?$basic_string@DU?$char_traits@D@std@@V?$allocator@D@2@@std@@M@std@@@2@@std@@@std@@QAE@ABV?$allocator@U?$pair@$$CBV?$basic_string@DU?$char_traits@D@std@@V?$allocator@D@2@@std@@M@std@@@1@@Z 1000add0 f i fms_config.obj
 0001:00009dd0       ??0?$_Tree_alloc@$0A@U?$_Tree_base_types@U?$pair@$$CBV?$basic_string@DU?$char_traits@D@std@@V?$allocator@D@2@@std@@H@std@@V?$allocator@U?$pair@$$CBV?$basic_string@DU?$char_traits@D@std@@V?$allocator@D@2@@std@@H@std@@@2@@std@@@std@@QAE@ABV?$allocator@U?$pair@$$CBV?$basic_string@DU?$char_traits@D@std@@V?$allocator@D@2@@std@@H@std@@@1@@Z 1000add0 f i mfdpage.obj
 0001:00009dd0       ??0?$_Tree_alloc@$0A@U?$_Tree_base_types@U?$pair@$$CBHV?$basic_string@DU?$char_traits@D@std@@V?$allocator@D@2@@std@@@std@@V?$allocator@U?$pair@$$CBHV?$basic_string@DU?$char_traits@D@std@@V?$allocator@D@2@@std@@@std@@@2@@std@@@std@@QAE@ABV?$allocator@U?$pair@$$CBHV?$basic_string@DU?$char_traits@D@std@@V?$allocator@D@2@@std@@@std@@@1@@Z 1000add0 f i out_saitek.obj
 0001:00009dd0       ??0?$_Tree_alloc@$0A@U?$_Tree_base_types@U?$pair@$$CBV?$basic_string@DU?$char_traits@D@std@@V?$allocator@D@2@@std@@PAVfms_config_item_t@@@std@@V?$allocator@U?$pair@$$CBV?$basic_string@DU?$char_traits@D@std@@V?$allocator@D@2@@std@@PAVfms_config_item_t@@@std@@@2@@std@@@std@@QAE@ABV?$allocator@U?$pair@$$CBV?$basic_string@DU?$char_traits@D@std@@V?$allocator@D@2@@std@@PAVfms_config_item_t@@@std@@@1@@Z 1000add0 f i fms_config.obj
 0001:00009dd0       ??0?$_Tree_alloc@$0A@U?$_Tree_base_types@U?$pair@$$CBV?$basic_string@DU?$char_traits@D@std@@V?$allocator@D@2@@std@@D@std@@V?$allocator@U?$pair@$$CBV?$basic_string@DU?$char_traits@D@std@@V?$allocator@D@2@@std@@D@std@@@2@@std@@@std@@QAE@ABV?$allocator@U?$pair@$$CBV?$basic_string@DU?$char_traits@D@std@@V?$allocator@D@2@@std@@D@std@@@1@@Z 1000add0 f i mfdpage_fms.obj
 0001:00009dd0       ??0?$_Tree_alloc@$0A@U?$_Tree_base_types@U?$pair@$$CBV?$basic_string@DU?$char_traits@D@std@@V?$allocator@D@2@@std@@PAVfms_fp_item_t@@@std@@V?$allocator@U?$pair@$$CBV?$basic_string@DU?$char_traits@D@std@@V?$allocator@D@2@@std@@PAVfms_fp_item_t@@@std@@@2@@std@@@std@@QAE@ABV?$allocator@U?$pair@$$CBV?$basic_string@DU?$char_traits@D@std@@V?$allocator@D@2@@std@@PAVfms_fp_item_t@@@std@@@1@@Z 1000add0 f i fms_fp.obj
 0001:00009e00       ??0?$_Tree_buy@U?$pair@$$CBV?$basic_string@DU?$char_traits@D@std@@V?$allocator@D@2@@std@@PAVfms_fp_item_t@@@std@@V?$allocator@U?$pair@$$CBV?$basic_string@DU?$char_traits@D@std@@V?$allocator@D@2@@std@@PAVfms_fp_item_t@@@std@@@2@@std@@QAE@ABV?$allocator@U?$pair@$$CBV?$basic_string@DU?$char_traits@D@std@@V?$allocator@D@2@@std@@PAVfms_fp_item_t@@@std@@@1@@Z 1000ae00 f i fms_fp.obj
 0001:00009e00       ??0?$_Tree_buy@U?$pair@$$CBV?$basic_string@DU?$char_traits@D@std@@V?$allocator@D@2@@std@@M@std@@V?$allocator@U?$pair@$$CBV?$basic_string@DU?$char_traits@D@std@@V?$allocator@D@2@@std@@M@std@@@2@@std@@QAE@ABV?$allocator@U?$pair@$$CBV?$basic_string@DU?$char_traits@D@std@@V?$allocator@D@2@@std@@M@std@@@1@@Z 1000ae00 f i fms_config.obj
 0001:00009e00       ??0?$_Tree_buy@U?$pair@$$CBHV?$basic_string@DU?$char_traits@D@std@@V?$allocator@D@2@@std@@@std@@V?$allocator@U?$pair@$$CBHV?$basic_string@DU?$char_traits@D@std@@V?$allocator@D@2@@std@@@std@@@2@@std@@QAE@ABV?$allocator@U?$pair@$$CBHV?$basic_string@DU?$char_traits@D@std@@V?$allocator@D@2@@std@@@std@@@1@@Z 1000ae00 f i out_saitek.obj
 0001:00009e00       ??0?$_Tree_buy@U?$pair@$$CBV?$basic_string@DU?$char_traits@D@std@@V?$allocator@D@2@@std@@PAVfms_config_item_t@@@std@@V?$allocator@U?$pair@$$CBV?$basic_string@DU?$char_traits@D@std@@V?$allocator@D@2@@std@@PAVfms_config_item_t@@@std@@@2@@std@@QAE@ABV?$allocator@U?$pair@$$CBV?$basic_string@DU?$char_traits@D@std@@V?$allocator@D@2@@std@@PAVfms_config_item_t@@@std@@@1@@Z 1000ae00 f i fms_config.obj
 0001:00009e00       ??0?$_Tree_buy@U?$pair@$$CBV?$basic_string@DU?$char_traits@D@std@@V?$allocator@D@2@@std@@D@std@@V?$allocator@U?$pair@$$CBV?$basic_string@DU?$char_traits@D@std@@V?$allocator@D@2@@std@@D@std@@@2@@std@@QAE@ABV?$allocator@U?$pair@$$CBV?$basic_string@DU?$char_traits@D@std@@V?$allocator@D@2@@std@@D@std@@@1@@Z 1000ae00 f i mfdpage_fms.obj
 0001:00009e00       ??0?$_Tree_buy@U?$pair@$$CBV?$basic_string@DU?$char_traits@D@std@@V?$allocator@D@2@@std@@H@std@@V?$allocator@U?$pair@$$CBV?$basic_string@DU?$char_traits@D@std@@V?$allocator@D@2@@std@@H@std@@@2@@std@@QAE@ABV?$allocator@U?$pair@$$CBV?$basic_string@DU?$char_traits@D@std@@V?$allocator@D@2@@std@@H@std@@@1@@Z 1000ae00 f i mfdpage.obj
 0001:00009e20       ??0?$_Wrap_alloc@V?$allocator@D@std@@@std@@QAE@ABV?$allocator@D@1@@Z 1000ae20 f i out_saitek.obj
 0001:00009e20       ??0?$_Wrap_alloc@V?$allocator@U?$_Tree_node@U?$pair@$$CBV?$basic_string@DU?$char_traits@D@std@@V?$allocator@D@2@@std@@V12@@std@@PAX@std@@@std@@@std@@QAE@ABV?$allocator@U?$_Tree_node@U?$pair@$$CBV?$basic_string@DU?$char_traits@D@std@@V?$allocator@D@2@@std@@V12@@std@@PAX@std@@@1@@Z 1000ae20 f i config.obj
 0001:00009e20       ??0?$_Wrap_alloc@V?$allocator@U?$_Tree_node@U?$pair@$$CBHPAVobject_t@@@std@@PAX@std@@@std@@@std@@QAE@ABV?$allocator@U?$_Tree_node@U?$pair@$$CBHPAVobject_t@@@std@@PAX@std@@@1@@Z 1000ae20 f i mfdpage.obj
 0001:00009e40       ??0?$basic_string@DU?$char_traits@D@std@@V?$allocator@D@2@@std@@QAE@ABV01@@Z 1000ae40 f i out_saitek.obj
 0001:00009ea0       ??0out_joystick_t@@QAE@XZ  1000aea0 f i out_saitek.obj
 0001:00009ec0       ??1?$pair@$$CBHV?$basic_string@DU?$char_traits@D@std@@V?$allocator@D@2@@std@@@std@@QAE@XZ 1000aec0 f i out_saitek.obj
 0001:00009ee0       ??A?$map@HV?$basic_string@DU?$char_traits@D@std@@V?$allocator@D@2@@std@@U?$less@H@2@V?$allocator@U?$pair@$$CBHV?$basic_string@DU?$char_traits@D@std@@V?$allocator@D@2@@std@@@std@@@2@@std@@QAEAAV?$basic_string@DU?$char_traits@D@std@@V?$allocator@D@2@@1@ABH@Z 1000aee0 f i out_saitek.obj
 0001:00009f90       ??F?$_Tree_const_iterator@V?$_Tree_val@U?$_Tree_simple_types@U?$pair@$$CBHPAVobject_t@@@std@@@std@@@std@@@std@@QAEAAV01@XZ 1000af90 f i mfdpage.obj
 0001:00009f90       ??F?$_Tree_const_iterator@V?$_Tree_val@U?$_Tree_simple_types@U?$pair@$$CBHPAVfms_fp_item_t@@@std@@@std@@@std@@@std@@QAEAAV01@XZ 1000af90 f i mfdpage_fms.obj
 0001:00009f90       ??F?$_Tree_const_iterator@V?$_Tree_val@U?$_Tree_simple_types@PAVmfdpage_t@@@std@@@std@@@std@@QAEAAV01@XZ 1000af90 f i in.obj
 0001:00009f90       ??F?$_Tree_const_iterator@V?$_Tree_val@U?$_Tree_simple_types@U?$pair@$$CBV?$basic_string@DU?$char_traits@D@std@@V?$allocator@D@2@@std@@M@std@@@std@@@std@@@std@@QAEAAV01@XZ 1000af90 f i mfdpage_fms.obj
 0001:00009f90       ??F?$_Tree_const_iterator@V?$_Tree_val@U?$_Tree_simple_types@U?$pair@$$CBV?$basic_string@DU?$char_traits@D@std@@V?$allocator@D@2@@std@@H@std@@@std@@@std@@@std@@QAEAAV01@XZ 1000af90 f i mfdpage.obj
 0001:00009f90       ??F?$_Tree_const_iterator@V?$_Tree_val@U?$_Tree_simple_types@U?$pair@$$CBHV?$basic_string@DU?$char_traits@D@std@@V?$allocator@D@2@@std@@@std@@@std@@@std@@@std@@QAEAAV01@XZ 1000af90 f i out_saitek.obj
 0001:00009f90       ??F?$_Tree_const_iterator@V?$_Tree_val@U?$_Tree_simple_types@U?$pair@$$CBV?$basic_string@DU?$char_traits@D@std@@V?$allocator@D@2@@std@@V12@@std@@@std@@@std@@@std@@QAEAAV01@XZ 1000af90 f i tools.obj
 0001:00009f90       ??F?$_Tree_const_iterator@V?$_Tree_val@U?$_Tree_simple_types@PAVlistener_t@@@std@@@std@@@std@@QAEAAV01@XZ 1000af90 f i data.obj
 0001:00009f90       ??F?$_Tree_const_iterator@V?$_Tree_val@U?$_Tree_simple_types@U?$pair@$$CBV?$basic_string@DU?$char_traits@D@std@@V?$allocator@D@2@@std@@D@std@@@std@@@std@@@std@@QAEAAV01@XZ 1000af90 f i mfdpage.obj
 0001:00009f90       ??F?$_Tree_const_iterator@V?$_Tree_val@U?$_Tree_simple_types@U?$pair@$$CBHM@std@@@std@@@std@@@std@@QAEAAV01@XZ 1000af90 f i fms_config.obj
 0001:00009f90       ??F?$_Tree_const_iterator@V?$_Tree_val@U?$_Tree_simple_types@PAVobject_t@@@std@@@std@@@std@@QAEAAV01@XZ 1000af90 f i data.obj
 0001:00009f90       ??F?$_Tree_const_iterator@V?$_Tree_val@U?$_Tree_simple_types@U?$pair@$$CBV?$basic_string@DU?$char_traits@D@std@@V?$allocator@D@2@@std@@PAVfms_config_item_t@@@std@@@std@@@std@@@std@@QAEAAV01@XZ 1000af90 f i fms_config.obj
 0001:00009f90       ??F?$_Tree_const_iterator@V?$_Tree_val@U?$_Tree_simple_types@U?$pair@$$CBV?$basic_string@DU?$char_traits@D@std@@V?$allocator@D@2@@std@@PAVfms_fp_item_t@@@std@@@std@@@std@@@std@@QAEAAV01@XZ 1000af90 f i fms_fp.obj
 0001:00009fb0       ??F?$_Tree_iterator@V?$_Tree_val@U?$_Tree_simple_types@U?$pair@$$CBV?$basic_string@DU?$char_traits@D@std@@V?$allocator@D@2@@std@@PAVfms_config_item_t@@@std@@@std@@@std@@@std@@QAEAAV01@XZ 1000afb0 f i fms_config.obj
 0001:00009fb0       ??F?$_Tree_iterator@V?$_Tree_val@U?$_Tree_simple_types@U?$pair@$$CBV?$basic_string@DU?$char_traits@D@std@@V?$allocator@D@2@@std@@V12@@std@@@std@@@std@@@std@@QAEAAV01@XZ 1000afb0 f i tools.obj
 0001:00009fb0       ??F?$_Tree_iterator@V?$_Tree_val@U?$_Tree_simple_types@U?$pair@$$CBHM@std@@@std@@@std@@@std@@QAEAAV01@XZ 1000afb0 f i fms_config.obj
 0001:00009fb0       ??F?$_Tree_iterator@V?$_Tree_val@U?$_Tree_simple_types@U?$pair@$$CBV?$basic_string@DU?$char_traits@D@std@@V?$allocator@D@2@@std@@H@std@@@std@@@std@@@std@@QAEAAV01@XZ 1000afb0 f i mfdpage.obj
 0001:00009fb0       ??F?$_Tree_iterator@V?$_Tree_val@U?$_Tree_simple_types@U?$pair@$$CBHV?$basic_string@DU?$char_traits@D@std@@V?$allocator@D@2@@std@@@std@@@std@@@std@@@std@@QAEAAV01@XZ 1000afb0 f i out_saitek.obj
 0001:00009fb0       ??F?$_Tree_iterator@V?$_Tree_val@U?$_Tree_simple_types@U?$pair@$$CBV?$basic_string@DU?$char_traits@D@std@@V?$allocator@D@2@@std@@M@std@@@std@@@std@@@std@@QAEAAV01@XZ 1000afb0 f i mfdpage_fms.obj
 0001:00009fb0       ??F?$_Tree_iterator@V?$_Tree_val@U?$_Tree_simple_types@U?$pair@$$CBV?$basic_string@DU?$char_traits@D@std@@V?$allocator@D@2@@std@@D@std@@@std@@@std@@@std@@QAEAAV01@XZ 1000afb0 f i mfdpage.obj
 0001:00009fb0       ??F?$_Tree_iterator@V?$_Tree_val@U?$_Tree_simple_types@U?$pair@$$CBHPAVfms_fp_item_t@@@std@@@std@@@std@@@std@@QAEAAV01@XZ 1000afb0 f i mfdpage_fms.obj
 0001:00009fb0       ??F?$_Tree_iterator@V?$_Tree_val@U?$_Tree_simple_types@U?$pair@$$CBHPAVobject_t@@@std@@@std@@@std@@@std@@QAEAAV01@XZ 1000afb0 f i mfdpage.obj
 0001:00009fb0       ??F?$_Tree_iterator@V?$_Tree_val@U?$_Tree_simple_types@U?$pair@$$CBV?$basic_string@DU?$char_traits@D@std@@V?$allocator@D@2@@std@@PAVfms_fp_item_t@@@std@@@std@@@std@@@std@@QAEAAV01@XZ 1000afb0 f i fms_fp.obj
 0001:00009fd0       ??F?$_Tree_unchecked_const_iterator@V?$_Tree_val@U?$_Tree_simple_types@U?$pair@$$CBHV?$basic_string@DU?$char_traits@D@std@@V?$allocator@D@2@@std@@@std@@@std@@@std@@U_Iterator_base0@2@@std@@QAEAAV01@XZ 1000afd0 f i out_saitek.obj
 0001:00009fd0       ??F?$_Tree_unchecked_const_iterator@V?$_Tree_val@U?$_Tree_simple_types@U?$pair@$$CBV?$basic_string@DU?$char_traits@D@std@@V?$allocator@D@2@@std@@PAVfms_config_item_t@@@std@@@std@@@std@@U_Iterator_base0@2@@std@@QAEAAV01@XZ 1000afd0 f i fms_config.obj
 0001:00009fd0       ??F?$_Tree_unchecked_const_iterator@V?$_Tree_val@U?$_Tree_simple_types@U?$pair@$$CBHPAVfms_fp_item_t@@@std@@@std@@@std@@U_Iterator_base0@2@@std@@QAEAAV01@XZ 1000afd0 f i mfdpage_fms.obj
 0001:00009fd0       ??F?$_Tree_unchecked_const_iterator@V?$_Tree_val@U?$_Tree_simple_types@PAVobject_t@@@std@@@std@@U_Iterator_base0@2@@std@@QAEAAV01@XZ 1000afd0 f i data.obj
 0001:00009fd0       ??F?$_Tree_unchecked_const_iterator@V?$_Tree_val@U?$_Tree_simple_types@U?$pair@$$CBV?$basic_string@DU?$char_traits@D@std@@V?$allocator@D@2@@std@@PAVfms_fp_item_t@@@std@@@std@@@std@@U_Iterator_base0@2@@std@@QAEAAV01@XZ 1000afd0 f i fms_fp.obj
 0001:00009fd0       ??F?$_Tree_unchecked_const_iterator@V?$_Tree_val@U?$_Tree_simple_types@U?$pair@$$CBHM@std@@@std@@@std@@U_Iterator_base0@2@@std@@QAEAAV01@XZ 1000afd0 f i fms_config.obj
 0001:00009fd0       ??F?$_Tree_unchecked_const_iterator@V?$_Tree_val@U?$_Tree_simple_types@PAVmfdpage_t@@@std@@@std@@U_Iterator_base0@2@@std@@QAEAAV01@XZ 1000afd0 f i in.obj
 0001:00009fd0       ??F?$_Tree_unchecked_const_iterator@V?$_Tree_val@U?$_Tree_simple_types@U?$pair@$$CBV?$basic_string@DU?$char_traits@D@std@@V?$allocator@D@2@@std@@M@std@@@std@@@std@@U_Iterator_base0@2@@std@@QAEAAV01@XZ 1000afd0 f i mfdpage_fms.obj
 0001:00009fd0       ??F?$_Tree_unchecked_const_iterator@V?$_Tree_val@U?$_Tree_simple_types@U?$pair@$$CBV?$basic_string@DU?$char_traits@D@std@@V?$allocator@D@2@@std@@D@std@@@std@@@std@@U_Iterator_base0@2@@std@@QAEAAV01@XZ 1000afd0 f i mfdpage.obj
 0001:00009fd0       ??F?$_Tree_unchecked_const_iterator@V?$_Tree_val@U?$_Tree_simple_types@PAVlistener_t@@@std@@@std@@U_Iterator_base0@2@@std@@QAEAAV01@XZ 1000afd0 f i data.obj
 0001:00009fd0       ??F?$_Tree_unchecked_const_iterator@V?$_Tree_val@U?$_Tree_simple_types@U?$pair@$$CBV?$basic_string@DU?$char_traits@D@std@@V?$allocator@D@2@@std@@H@std@@@std@@@std@@U_Iterator_base0@2@@std@@QAEAAV01@XZ 1000afd0 f i mfdpage.obj
 0001:00009fd0       ??F?$_Tree_unchecked_const_iterator@V?$_Tree_val@U?$_Tree_simple_types@U?$pair@$$CBHPAVobject_t@@@std@@@std@@@std@@U_Iterator_base0@2@@std@@QAEAAV01@XZ 1000afd0 f i mfdpage.obj
 0001:00009fd0       ??F?$_Tree_unchecked_const_iterator@V?$_Tree_val@U?$_Tree_simple_types@U?$pair@$$CBV?$basic_string@DU?$char_traits@D@std@@V?$allocator@D@2@@std@@V12@@std@@@std@@@std@@U_Iterator_base0@2@@std@@QAEAAV01@XZ 1000afd0 f i tools.obj
 0001:0000a0c0       ??R?$less@H@std@@QBE_NABH0@Z 1000b0c0 f i out_saitek.obj
 0001:0000a0f0       ??_G?$pair@$$CBHV?$basic_string@DU?$char_traits@D@std@@V?$allocator@D@2@@std@@@std@@QAEPAXI@Z 1000b0f0 f i out_saitek.obj
 0001:0000a120       ?_Buynode0@?$_Tree_buy@U?$pair@$$CBV?$basic_string@DU?$char_traits@D@std@@V?$allocator@D@2@@std@@M@std@@V?$allocator@U?$pair@$$CBV?$basic_string@DU?$char_traits@D@std@@V?$allocator@D@2@@std@@M@std@@@2@@std@@QAEPAU?$_Tree_node@U?$pair@$$CBV?$basic_string@DU?$char_traits@D@std@@V?$allocator@D@2@@std@@M@std@@PAX@2@XZ 1000b120 f i mfdpage_fms.obj
 0001:0000a120       ?_Buynode0@?$_Tree_buy@U?$pair@$$CBHV?$basic_string@DU?$char_traits@D@std@@V?$allocator@D@2@@std@@@std@@V?$allocator@U?$pair@$$CBHV?$basic_string@DU?$char_traits@D@std@@V?$allocator@D@2@@std@@@std@@@2@@std@@QAEPAU?$_Tree_node@U?$pair@$$CBHV?$basic_string@DU?$char_traits@D@std@@V?$allocator@D@2@@std@@@std@@PAX@2@XZ 1000b120 f i out_saitek.obj
 0001:0000a120       ?_Buynode0@?$_Tree_buy@U?$pair@$$CBV?$basic_string@DU?$char_traits@D@std@@V?$allocator@D@2@@std@@H@std@@V?$allocator@U?$pair@$$CBV?$basic_string@DU?$char_traits@D@std@@V?$allocator@D@2@@std@@H@std@@@2@@std@@QAEPAU?$_Tree_node@U?$pair@$$CBV?$basic_string@DU?$char_traits@D@std@@V?$allocator@D@2@@std@@H@std@@PAX@2@XZ 1000b120 f i mfdpage.obj
 0001:0000a120       ?_Buynode0@?$_Tree_buy@U?$pair@$$CBV?$basic_string@DU?$char_traits@D@std@@V?$allocator@D@2@@std@@PAVfms_fp_item_t@@@std@@V?$allocator@U?$pair@$$CBV?$basic_string@DU?$char_traits@D@std@@V?$allocator@D@2@@std@@PAVfms_fp_item_t@@@std@@@2@@std@@QAEPAU?$_Tree_node@U?$pair@$$CBV?$basic_string@DU?$char_traits@D@std@@V?$allocator@D@2@@std@@PAVfms_fp_item_t@@@std@@PAX@2@XZ 1000b120 f i fms_fp.obj
 0001:0000a120       ?_Buynode0@?$_Tree_buy@U?$pair@$$CBV?$basic_string@DU?$char_traits@D@std@@V?$allocator@D@2@@std@@D@std@@V?$allocator@U?$pair@$$CBV?$basic_string@DU?$char_traits@D@std@@V?$allocator@D@2@@std@@D@std@@@2@@std@@QAEPAU?$_Tree_node@U?$pair@$$CBV?$basic_string@DU?$char_traits@D@std@@V?$allocator@D@2@@std@@D@std@@PAX@2@XZ 1000b120 f i mfdpage.obj
 0001:0000a120       ?_Buynode0@?$_Tree_buy@U?$pair@$$CBV?$basic_string@DU?$char_traits@D@std@@V?$allocator@D@2@@std@@PAVfms_config_item_t@@@std@@V?$allocator@U?$pair@$$CBV?$basic_string@DU?$char_traits@D@std@@V?$allocator@D@2@@std@@PAVfms_config_item_t@@@std@@@2@@std@@QAEPAU?$_Tree_node@U?$pair@$$CBV?$basic_string@DU?$char_traits@D@std@@V?$allocator@D@2@@std@@PAVfms_config_item_t@@@std@@PAX@2@XZ 1000b120 f i fms_config.obj
 0001:0000a250       ?_Destroy_if_not_nil@?$_Tree@V?$_Tmap_traits@HV?$basic_string@DU?$char_traits@D@std@@V?$allocator@D@2@@std@@U?$less@H@2@V?$allocator@U?$pair@$$CBHV?$basic_string@DU?$char_traits@D@std@@V?$allocator@D@2@@std@@@std@@@2@$0A@@std@@@std@@IAEXPAU?$_Tree_node@U?$pair@$$CBHV?$basic_string@DU?$char_traits@D@std@@V?$allocator@D@2@@std@@@std@@PAX@2@@Z 1000b250 f i out_saitek.obj
 0001:0000a2b0       ?_Lmost@?$_Tree@V?$_Tmap_traits@V?$basic_string@DU?$char_traits@D@std@@V?$allocator@D@2@@std@@PAVfms_fp_item_t@@U?$less@V?$basic_string@DU?$char_traits@D@std@@V?$allocator@D@2@@std@@@2@V?$allocator@U?$pair@$$CBV?$basic_string@DU?$char_traits@D@std@@V?$allocator@D@2@@std@@PAVfms_fp_item_t@@@std@@@2@$0A@@std@@@std@@IBEAAPAU?$_Tree_node@U?$pair@$$CBV?$basic_string@DU?$char_traits@D@std@@V?$allocator@D@2@@std@@PAVfms_fp_item_t@@@std@@PAX@2@XZ 1000b2b0 f i fms_fp.obj
 0001:0000a2b0       ?_Lmost@?$_Tree@V?$_Tmap_traits@HV?$basic_string@DU?$char_traits@D@std@@V?$allocator@D@2@@std@@U?$less@H@2@V?$allocator@U?$pair@$$CBHV?$basic_string@DU?$char_traits@D@std@@V?$allocator@D@2@@std@@@std@@@2@$0A@@std@@@std@@IBEAAPAU?$_Tree_node@U?$pair@$$CBHV?$basic_string@DU?$char_traits@D@std@@V?$allocator@D@2@@std@@@std@@PAX@2@XZ 1000b2b0 f i out_saitek.obj
 0001:0000a2b0       ?_Lmost@?$_Tree@V?$_Tmap_traits@HMU?$less@H@std@@V?$allocator@U?$pair@$$CBHM@std@@@2@$0A@@std@@@std@@IBEAAPAU?$_Tree_node@U?$pair@$$CBHM@std@@PAX@2@XZ 1000b2b0 f i fms_config.obj
 0001:0000a2b0       ?_Lmost@?$_Tree@V?$_Tmap_traits@V?$basic_string@DU?$char_traits@D@std@@V?$allocator@D@2@@std@@PAVfms_config_item_t@@U?$less@V?$basic_string@DU?$char_traits@D@std@@V?$allocator@D@2@@std@@@2@V?$allocator@U?$pair@$$CBV?$basic_string@DU?$char_traits@D@std@@V?$allocator@D@2@@std@@PAVfms_config_item_t@@@std@@@2@$0A@@std@@@std@@IBEAAPAU?$_Tree_node@U?$pair@$$CBV?$basic_string@DU?$char_traits@D@std@@V?$allocator@D@2@@std@@PAVfms_config_item_t@@@std@@PAX@2@XZ 1000b2b0 f i fms_config.obj
 0001:0000a2b0       ?_Lmost@?$_Tree@V?$_Tmap_traits@HPAVfms_fp_item_t@@U?$less@H@std@@V?$allocator@U?$pair@$$CBHPAVfms_fp_item_t@@@std@@@3@$0A@@std@@@std@@IBEAAPAU?$_Tree_node@U?$pair@$$CBHPAVfms_fp_item_t@@@std@@PAX@2@XZ 1000b2b0 f i mfdpage_fms.obj
 0001:0000a2b0       ?_Lmost@?$_Tree@V?$_Tmap_traits@HPAVobject_t@@U?$less@H@std@@V?$allocator@U?$pair@$$CBHPAVobject_t@@@std@@@3@$0A@@std@@@std@@IBEAAPAU?$_Tree_node@U?$pair@$$CBHPAVobject_t@@@std@@PAX@2@XZ 1000b2b0 f i mfdpage.obj
 0001:0000a2b0       ?_Lmost@?$_Tree@V?$_Tset_traits@PAVobject_t@@U?$less@PAVobject_t@@@std@@V?$allocator@PAVobject_t@@@3@$0A@@std@@@std@@IBEAAPAU?$_Tree_node@PAVobject_t@@PAX@2@XZ 1000b2b0 f i data.obj
 0001:0000a2b0       ?_Lmost@?$_Tree@V?$_Tmap_traits@V?$basic_string@DU?$char_traits@D@std@@V?$allocator@D@2@@std@@DU?$less@V?$basic_string@DU?$char_traits@D@std@@V?$allocator@D@2@@std@@@2@V?$allocator@U?$pair@$$CBV?$basic_string@DU?$char_traits@D@std@@V?$allocator@D@2@@std@@D@std@@@2@$0A@@std@@@std@@IBEAAPAU?$_Tree_node@U?$pair@$$CBV?$basic_string@DU?$char_traits@D@std@@V?$allocator@D@2@@std@@D@std@@PAX@2@XZ 1000b2b0 f i mfdpage.obj
 0001:0000a2b0       ?_Lmost@?$_Tree@V?$_Tmap_traits@V?$basic_string@DU?$char_traits@D@std@@V?$allocator@D@2@@std@@V12@U?$less@V?$basic_string@DU?$char_traits@D@std@@V?$allocator@D@2@@std@@@2@V?$allocator@U?$pair@$$CBV?$basic_string@DU?$char_traits@D@std@@V?$allocator@D@2@@std@@V12@@std@@@2@$0A@@std@@@std@@IBEAAPAU?$_Tree_node@U?$pair@$$CBV?$basic_string@DU?$char_traits@D@std@@V?$allocator@D@2@@std@@V12@@std@@PAX@2@XZ 1000b2b0 f i tools.obj
 0001:0000a2b0       ?_Lmost@?$_Tree@V?$_Tmap_traits@V?$basic_string@DU?$char_traits@D@std@@V?$allocator@D@2@@std@@MU?$less@V?$basic_string@DU?$char_traits@D@std@@V?$allocator@D@2@@std@@@2@V?$allocator@U?$pair@$$CBV?$basic_string@DU?$char_traits@D@std@@V?$allocator@D@2@@std@@M@std@@@2@$0A@@std@@@std@@IBEAAPAU?$_Tree_node@U?$pair@$$CBV?$basic_string@DU?$char_traits@D@std@@V?$allocator@D@2@@std@@M@std@@PAX@2@XZ 1000b2b0 f i mfdpage_fms.obj
 0001:0000a2b0       ?_Lmost@?$_Tree@V?$_Tset_traits@PAVmfdpage_t@@U?$less@PAVmfdpage_t@@@std@@V?$allocator@PAVmfdpage_t@@@3@$0A@@std@@@std@@IBEAAPAU?$_Tree_node@PAVmfdpage_t@@PAX@2@XZ 1000b2b0 f i in.obj
 0001:0000a2b0       ?_Lmost@?$_Tree@V?$_Tmap_traits@V?$basic_string@DU?$char_traits@D@std@@V?$allocator@D@2@@std@@HU?$less@V?$basic_string@DU?$char_traits@D@std@@V?$allocator@D@2@@std@@@2@V?$allocator@U?$pair@$$CBV?$basic_string@DU?$char_traits@D@std@@V?$allocator@D@2@@std@@H@std@@@2@$0A@@std@@@std@@IBEAAPAU?$_Tree_node@U?$pair@$$CBV?$basic_string@DU?$char_traits@D@std@@V?$allocator@D@2@@std@@H@std@@PAX@2@XZ 1000b2b0 f i mfdpage.obj
 0001:0000a2b0       ?_Lmost@?$_Tree@V?$_Tset_traits@PAVlistener_t@@U?$less@PAVlistener_t@@@std@@V?$allocator@PAVlistener_t@@@3@$0A@@std@@@std@@IBEAAPAU?$_Tree_node@PAVlistener_t@@PAX@2@XZ 1000b2b0 f i data.obj
 0001:0000a2d0       ?_Lrotate@?$_Tree@V?$_Tset_traits@PAVobject_t@@U?$less@PAVobject_t@@@std@@V?$allocator@PAVobject_t@@@3@$0A@@std@@@std@@IAEXPAU?$_Tree_node@PAVobject_t@@PAX@2@@Z 1000b2d0 f i data.obj
 0001:0000a2d0       ?_Lrotate@?$_Tree@V?$_Tmap_traits@HMU?$less@H@std@@V?$allocator@U?$pair@$$CBHM@std@@@2@$0A@@std@@@std@@IAEXPAU?$_Tree_node@U?$pair@$$CBHM@std@@PAX@2@@Z 1000b2d0 f i fms_config.obj
 0001:0000a2d0       ?_Lrotate@?$_Tree@V?$_Tmap_traits@V?$basic_string@DU?$char_traits@D@std@@V?$allocator@D@2@@std@@PAVfms_config_item_t@@U?$less@V?$basic_string@DU?$char_traits@D@std@@V?$allocator@D@2@@std@@@2@V?$allocator@U?$pair@$$CBV?$basic_string@DU?$char_traits@D@std@@V?$allocator@D@2@@std@@PAVfms_config_item_t@@@std@@@2@$0A@@std@@@std@@IAEXPAU?$_Tree_node@U?$pair@$$CBV?$basic_string@DU?$char_traits@D@std@@V?$allocator@D@2@@std@@PAVfms_config_item_t@@@std@@PAX@2@@Z 1000b2d0 f i fms_config.obj
 0001:0000a2d0       ?_Lrotate@?$_Tree@V?$_Tmap_traits@V?$basic_string@DU?$char_traits@D@std@@V?$allocator@D@2@@std@@PAVfms_fp_item_t@@U?$less@V?$basic_string@DU?$char_traits@D@std@@V?$allocator@D@2@@std@@@2@V?$allocator@U?$pair@$$CBV?$basic_string@DU?$char_traits@D@std@@V?$allocator@D@2@@std@@PAVfms_fp_item_t@@@std@@@2@$0A@@std@@@std@@IAEXPAU?$_Tree_node@U?$pair@$$CBV?$basic_string@DU?$char_traits@D@std@@V?$allocator@D@2@@std@@PAVfms_fp_item_t@@@std@@PAX@2@@Z 1000b2d0 f i fms_fp.obj
 0001:0000a2d0       ?_Lrotate@?$_Tree@V?$_Tmap_traits@HV?$basic_string@DU?$char_traits@D@std@@V?$allocator@D@2@@std@@U?$less@H@2@V?$allocator@U?$pair@$$CBHV?$basic_string@DU?$char_traits@D@std@@V?$allocator@D@2@@std@@@std@@@2@$0A@@std@@@std@@IAEXPAU?$_Tree_node@U?$pair@$$CBHV?$basic_string@DU?$char_traits@D@std@@V?$allocator@D@2@@std@@@std@@PAX@2@@Z 1000b2d0 f i out_saitek.obj
 0001:0000a2d0       ?_Lrotate@?$_Tree@V?$_Tmap_traits@V?$basic_string@DU?$char_traits@D@std@@V?$allocator@D@2@@std@@V12@U?$less@V?$basic_string@DU?$char_traits@D@std@@V?$allocator@D@2@@std@@@2@V?$allocator@U?$pair@$$CBV?$basic_string@DU?$char_traits@D@std@@V?$allocator@D@2@@std@@V12@@std@@@2@$0A@@std@@@std@@IAEXPAU?$_Tree_node@U?$pair@$$CBV?$basic_string@DU?$char_traits@D@std@@V?$allocator@D@2@@std@@V12@@std@@PAX@2@@Z 1000b2d0 f i tools.obj
 0001:0000a2d0       ?_Lrotate@?$_Tree@V?$_Tmap_traits@V?$basic_string@DU?$char_traits@D@std@@V?$allocator@D@2@@std@@MU?$less@V?$basic_string@DU?$char_traits@D@std@@V?$allocator@D@2@@std@@@2@V?$allocator@U?$pair@$$CBV?$basic_string@DU?$char_traits@D@std@@V?$allocator@D@2@@std@@M@std@@@2@$0A@@std@@@std@@IAEXPAU?$_Tree_node@U?$pair@$$CBV?$basic_string@DU?$char_traits@D@std@@V?$allocator@D@2@@std@@M@std@@PAX@2@@Z 1000b2d0 f i mfdpage_fms.obj
 0001:0000a2d0       ?_Lrotate@?$_Tree@V?$_Tset_traits@PAVlistener_t@@U?$less@PAVlistener_t@@@std@@V?$allocator@PAVlistener_t@@@3@$0A@@std@@@std@@IAEXPAU?$_Tree_node@PAVlistener_t@@PAX@2@@Z 1000b2d0 f i data.obj
 0001:0000a2d0       ?_Lrotate@?$_Tree@V?$_Tmap_traits@HPAVfms_fp_item_t@@U?$less@H@std@@V?$allocator@U?$pair@$$CBHPAVfms_fp_item_t@@@std@@@3@$0A@@std@@@std@@IAEXPAU?$_Tree_node@U?$pair@$$CBHPAVfms_fp_item_t@@@std@@PAX@2@@Z 1000b2d0 f i mfdpage_fms.obj
 0001:0000a2d0       ?_Lrotate@?$_Tree@V?$_Tmap_traits@V?$basic_string@DU?$char_traits@D@std@@V?$allocator@D@2@@std@@DU?$less@V?$basic_string@DU?$char_traits@D@std@@V?$allocator@D@2@@std@@@2@V?$allocator@U?$pair@$$CBV?$basic_string@DU?$char_traits@D@std@@V?$allocator@D@2@@std@@D@std@@@2@$0A@@std@@@std@@IAEXPAU?$_Tree_node@U?$pair@$$CBV?$basic_string@DU?$char_traits@D@std@@V?$allocator@D@2@@std@@D@std@@PAX@2@@Z 1000b2d0 f i mfdpage.obj
 0001:0000a2d0       ?_Lrotate@?$_Tree@V?$_Tmap_traits@HPAVobject_t@@U?$less@H@std@@V?$allocator@U?$pair@$$CBHPAVobject_t@@@std@@@3@$0A@@std@@@std@@IAEXPAU?$_Tree_node@U?$pair@$$CBHPAVobject_t@@@std@@PAX@2@@Z 1000b2d0 f i mfdpage.obj
 0001:0000a2d0       ?_Lrotate@?$_Tree@V?$_Tset_traits@PAVmfdpage_t@@U?$less@PAVmfdpage_t@@@std@@V?$allocator@PAVmfdpage_t@@@3@$0A@@std@@@std@@IAEXPAU?$_Tree_node@PAVmfdpage_t@@PAX@2@@Z 1000b2d0 f i in.obj
 0001:0000a2d0       ?_Lrotate@?$_Tree@V?$_Tmap_traits@V?$basic_string@DU?$char_traits@D@std@@V?$allocator@D@2@@std@@HU?$less@V?$basic_string@DU?$char_traits@D@std@@V?$allocator@D@2@@std@@@2@V?$allocator@U?$pair@$$CBV?$basic_string@DU?$char_traits@D@std@@V?$allocator@D@2@@std@@H@std@@@2@$0A@@std@@@std@@IAEXPAU?$_Tree_node@U?$pair@$$CBV?$basic_string@DU?$char_traits@D@std@@V?$allocator@D@2@@std@@H@std@@PAX@2@@Z 1000b2d0 f i mfdpage.obj
 0001:0000a400       ?_Max@?$_Tree_val@U?$_Tree_simple_types@U?$pair@$$CBV?$basic_string@DU?$char_traits@D@std@@V?$allocator@D@2@@std@@PAVfms_fp_item_t@@@std@@@std@@@std@@SAPAU?$_Tree_node@U?$pair@$$CBV?$basic_string@DU?$char_traits@D@std@@V?$allocator@D@2@@std@@PAVfms_fp_item_t@@@std@@PAX@2@PAU32@@Z 1000b400 f i fms_fp.obj
 0001:0000a400       ?_Max@?$_Tree_val@U?$_Tree_simple_types@U?$pair@$$CBHV?$basic_string@DU?$char_traits@D@std@@V?$allocator@D@2@@std@@@std@@@std@@@std@@SAPAU?$_Tree_node@U?$pair@$$CBHV?$basic_string@DU?$char_traits@D@std@@V?$allocator@D@2@@std@@@std@@PAX@2@PAU32@@Z 1000b400 f i out_saitek.obj
 0001:0000a400       ?_Max@?$_Tree_val@U?$_Tree_simple_types@U?$pair@$$CBV?$basic_string@DU?$char_traits@D@std@@V?$allocator@D@2@@std@@PAVfms_config_item_t@@@std@@@std@@@std@@SAPAU?$_Tree_node@U?$pair@$$CBV?$basic_string@DU?$char_traits@D@std@@V?$allocator@D@2@@std@@PAVfms_config_item_t@@@std@@PAX@2@PAU32@@Z 1000b400 f i fms_config.obj
 0001:0000a400       ?_Max@?$_Tree_val@U?$_Tree_simple_types@U?$pair@$$CBV?$basic_string@DU?$char_traits@D@std@@V?$allocator@D@2@@std@@M@std@@@std@@@std@@SAPAU?$_Tree_node@U?$pair@$$CBV?$basic_string@DU?$char_traits@D@std@@V?$allocator@D@2@@std@@M@std@@PAX@2@PAU32@@Z 1000b400 f i mfdpage_fms.obj
 0001:0000a400       ?_Max@?$_Tree_val@U?$_Tree_simple_types@PAVlistener_t@@@std@@@std@@SAPAU?$_Tree_node@PAVlistener_t@@PAX@2@PAU32@@Z 1000b400 f i data.obj
 0001:0000a400       ?_Max@?$_Tree_val@U?$_Tree_simple_types@U?$pair@$$CBHPAVfms_fp_item_t@@@std@@@std@@@std@@SAPAU?$_Tree_node@U?$pair@$$CBHPAVfms_fp_item_t@@@std@@PAX@2@PAU32@@Z 1000b400 f i mfdpage_fms.obj
 0001:0000a400       ?_Max@?$_Tree_val@U?$_Tree_simple_types@PAVmfdpage_t@@@std@@@std@@SAPAU?$_Tree_node@PAVmfdpage_t@@PAX@2@PAU32@@Z 1000b400 f i in.obj
 0001:0000a400       ?_Max@?$_Tree_val@U?$_Tree_simple_types@U?$pair@$$CBV?$basic_string@DU?$char_traits@D@std@@V?$allocator@D@2@@std@@D@std@@@std@@@std@@SAPAU?$_Tree_node@U?$pair@$$CBV?$basic_string@DU?$char_traits@D@std@@V?$allocator@D@2@@std@@D@std@@PAX@2@PAU32@@Z 1000b400 f i mfdpage.obj
 0001:0000a400       ?_Max@?$_Tree_val@U?$_Tree_simple_types@U?$pair@$$CBHPAVobject_t@@@std@@@std@@@std@@SAPAU?$_Tree_node@U?$pair@$$CBHPAVobject_t@@@std@@PAX@2@PAU32@@Z 1000b400 f i mfdpage.obj
 0001:0000a400       ?_Max@?$_Tree_val@U?$_Tree_simple_types@U?$pair@$$CBHM@std@@@std@@@std@@SAPAU?$_Tree_node@U?$pair@$$CBHM@std@@PAX@2@PAU32@@Z 1000b400 f i fms_config.obj
 0001:0000a400       ?_Max@?$_Tree_val@U?$_Tree_simple_types@PAVobject_t@@@std@@@std@@SAPAU?$_Tree_node@PAVobject_t@@PAX@2@PAU32@@Z 1000b400 f i data.obj
 0001:0000a400       ?_Max@?$_Tree_val@U?$_Tree_simple_types@U?$pair@$$CBV?$basic_string@DU?$char_traits@D@std@@V?$allocator@D@2@@std@@H@std@@@std@@@std@@SAPAU?$_Tree_node@U?$pair@$$CBV?$basic_string@DU?$char_traits@D@std@@V?$allocator@D@2@@std@@H@std@@PAX@2@PAU32@@Z 1000b400 f i mfdpage.obj
 0001:0000a400       ?_Max@?$_Tree_val@U?$_Tree_simple_types@U?$pair@$$CBV?$basic_string@DU?$char_traits@D@std@@V?$allocator@D@2@@std@@V12@@std@@@std@@@std@@SAPAU?$_Tree_node@U?$pair@$$CBV?$basic_string@DU?$char_traits@D@std@@V?$allocator@D@2@@std@@V12@@std@@PAX@2@PAU32@@Z 1000b400 f i tools.obj
 0001:0000a440       ?_Rrotate@?$_Tree@V?$_Tmap_traits@V?$basic_string@DU?$char_traits@D@std@@V?$allocator@D@2@@std@@PAVfms_config_item_t@@U?$less@V?$basic_string@DU?$char_traits@D@std@@V?$allocator@D@2@@std@@@2@V?$allocator@U?$pair@$$CBV?$basic_string@DU?$char_traits@D@std@@V?$allocator@D@2@@std@@PAVfms_config_item_t@@@std@@@2@$0A@@std@@@std@@IAEXPAU?$_Tree_node@U?$pair@$$CBV?$basic_string@DU?$char_traits@D@std@@V?$allocator@D@2@@std@@PAVfms_config_item_t@@@std@@PAX@2@@Z 1000b440 f i fms_config.obj
 0001:0000a440       ?_Rrotate@?$_Tree@V?$_Tmap_traits@V?$basic_string@DU?$char_traits@D@std@@V?$allocator@D@2@@std@@MU?$less@V?$basic_string@DU?$char_traits@D@std@@V?$allocator@D@2@@std@@@2@V?$allocator@U?$pair@$$CBV?$basic_string@DU?$char_traits@D@std@@V?$allocator@D@2@@std@@M@std@@@2@$0A@@std@@@std@@IAEXPAU?$_Tree_node@U?$pair@$$CBV?$basic_string@DU?$char_traits@D@std@@V?$allocator@D@2@@std@@M@std@@PAX@2@@Z 1000b440 f i mfdpage_fms.obj
 0001:0000a440       ?_Rrotate@?$_Tree@V?$_Tmap_traits@HPAVobject_t@@U?$less@H@std@@V?$allocator@U?$pair@$$CBHPAVobject_t@@@std@@@3@$0A@@std@@@std@@IAEXPAU?$_Tree_node@U?$pair@$$CBHPAVobject_t@@@std@@PAX@2@@Z 1000b440 f i mfdpage.obj
 0001:0000a440       ?_Rrotate@?$_Tree@V?$_Tset_traits@PAVmfdpage_t@@U?$less@PAVmfdpage_t@@@std@@V?$allocator@PAVmfdpage_t@@@3@$0A@@std@@@std@@IAEXPAU?$_Tree_node@PAVmfdpage_t@@PAX@2@@Z 1000b440 f i in.obj
 0001:0000a440       ?_Rrotate@?$_Tree@V?$_Tmap_traits@V?$basic_string@DU?$char_traits@D@std@@V?$allocator@D@2@@std@@DU?$less@V?$basic_string@DU?$char_traits@D@std@@V?$allocator@D@2@@std@@@2@V?$allocator@U?$pair@$$CBV?$basic_string@DU?$char_traits@D@std@@V?$allocator@D@2@@std@@D@std@@@2@$0A@@std@@@std@@IAEXPAU?$_Tree_node@U?$pair@$$CBV?$basic_string@DU?$char_traits@D@std@@V?$allocator@D@2@@std@@D@std@@PAX@2@@Z 1000b440 f i mfdpage.obj
 0001:0000a440       ?_Rrotate@?$_Tree@V?$_Tset_traits@PAVlistener_t@@U?$less@PAVlistener_t@@@std@@V?$allocator@PAVlistener_t@@@3@$0A@@std@@@std@@IAEXPAU?$_Tree_node@PAVlistener_t@@PAX@2@@Z 1000b440 f i data.obj
 0001:0000a440       ?_Rrotate@?$_Tree@V?$_Tset_traits@PAVobject_t@@U?$less@PAVobject_t@@@std@@V?$allocator@PAVobject_t@@@3@$0A@@std@@@std@@IAEXPAU?$_Tree_node@PAVobject_t@@PAX@2@@Z 1000b440 f i data.obj
 0001:0000a440       ?_Rrotate@?$_Tree@V?$_Tmap_traits@HMU?$less@H@std@@V?$allocator@U?$pair@$$CBHM@std@@@2@$0A@@std@@@std@@IAEXPAU?$_Tree_node@U?$pair@$$CBHM@std@@PAX@2@@Z 1000b440 f i fms_config.obj
 0001:0000a440       ?_Rrotate@?$_Tree@V?$_Tmap_traits@HPAVfms_fp_item_t@@U?$less@H@std@@V?$allocator@U?$pair@$$CBHPAVfms_fp_item_t@@@std@@@3@$0A@@std@@@std@@IAEXPAU?$_Tree_node@U?$pair@$$CBHPAVfms_fp_item_t@@@std@@PAX@2@@Z 1000b440 f i mfdpage_fms.obj
 0001:0000a440       ?_Rrotate@?$_Tree@V?$_Tmap_traits@V?$basic_string@DU?$char_traits@D@std@@V?$allocator@D@2@@std@@V12@U?$less@V?$basic_string@DU?$char_traits@D@std@@V?$allocator@D@2@@std@@@2@V?$allocator@U?$pair@$$CBV?$basic_string@DU?$char_traits@D@std@@V?$allocator@D@2@@std@@V12@@std@@@2@$0A@@std@@@std@@IAEXPAU?$_Tree_node@U?$pair@$$CBV?$basic_string@DU?$char_traits@D@std@@V?$allocator@D@2@@std@@V12@@std@@PAX@2@@Z 1000b440 f i tools.obj
 0001:0000a440       ?_Rrotate@?$_Tree@V?$_Tmap_traits@V?$basic_string@DU?$char_traits@D@std@@V?$allocator@D@2@@std@@PAVfms_fp_item_t@@U?$less@V?$basic_string@DU?$char_traits@D@std@@V?$allocator@D@2@@std@@@2@V?$allocator@U?$pair@$$CBV?$basic_string@DU?$char_traits@D@std@@V?$allocator@D@2@@std@@PAVfms_fp_item_t@@@std@@@2@$0A@@std@@@std@@IAEXPAU?$_Tree_node@U?$pair@$$CBV?$basic_string@DU?$char_traits@D@std@@V?$allocator@D@2@@std@@PAVfms_fp_item_t@@@std@@PAX@2@@Z 1000b440 f i fms_fp.obj
 0001:0000a440       ?_Rrotate@?$_Tree@V?$_Tmap_traits@HV?$basic_string@DU?$char_traits@D@std@@V?$allocator@D@2@@std@@U?$less@H@2@V?$allocator@U?$pair@$$CBHV?$basic_string@DU?$char_traits@D@std@@V?$allocator@D@2@@std@@@std@@@2@$0A@@std@@@std@@IAEXPAU?$_Tree_node@U?$pair@$$CBHV?$basic_string@DU?$char_traits@D@std@@V?$allocator@D@2@@std@@@std@@PAX@2@@Z 1000b440 f i out_saitek.obj
 0001:0000a440       ?_Rrotate@?$_Tree@V?$_Tmap_traits@V?$basic_string@DU?$char_traits@D@std@@V?$allocator@D@2@@std@@HU?$less@V?$basic_string@DU?$char_traits@D@std@@V?$allocator@D@2@@std@@@2@V?$allocator@U?$pair@$$CBV?$basic_string@DU?$char_traits@D@std@@V?$allocator@D@2@@std@@H@std@@@2@$0A@@std@@@std@@IAEXPAU?$_Tree_node@U?$pair@$$CBV?$basic_string@DU?$char_traits@D@std@@V?$allocator@D@2@@std@@H@std@@PAX@2@@Z 1000b440 f i mfdpage.obj
 0001:0000a570       ??0in_t@@QAE@XZ            1000b570 f   in.obj
 0001:0000a6e0       ??1in_t@@QAE@XZ            1000b6e0 f   in.obj
 0001:0000a700       ?handle_pagecycle@in_t@@QAEXH@Z 1000b700 f   in.obj
 0001:0000a910       ?add_page@in_t@@QAEXPAVmfdpage_t@@@Z 1000b910 f   in.obj
 0001:0000a9e0       ?delete_all_pages@in_t@@QAEXXZ 1000b9e0 f   in.obj
 0001:0000aaa0       ?dispatch_command@in_t@@SAHPAXH0@Z 1000baa0 f   in.obj
 0001:0000ab20       ??$?0V?$_Tree_const_iterator@V?$_Tree_val@U?$_Tree_simple_types@PAVlistener_t@@@std@@@std@@@std@@_NX@?$pair@V?$_Tree_const_iterator@V?$_Tree_val@U?$_Tree_simple_types@PAVlistener_t@@@std@@@std@@@std@@_N@std@@QAE@$$QAV?$_Tree_const_iterator@V?$_Tree_val@U?$_Tree_simple_types@PAVlistener_t@@@std@@@std@@@1@$$QA_N@Z 1000bb20 f i data.obj
 0001:0000ab20       ??$?0AAV?$_Tree_const_iterator@V?$_Tree_val@U?$_Tree_simple_types@PAVobject_t@@@std@@@std@@@std@@_NX@?$pair@V?$_Tree_const_iterator@V?$_Tree_val@U?$_Tree_simple_types@PAVobject_t@@@std@@@std@@@std@@_N@std@@QAE@AAV?$_Tree_const_iterator@V?$_Tree_val@U?$_Tree_simple_types@PAVobject_t@@@std@@@std@@@1@$$QA_N@Z 1000bb20 f i data.obj
 0001:0000ab20       ??$?0V?$_Tree_iterator@V?$_Tree_val@U?$_Tree_simple_types@U?$pair@$$CBV?$basic_string@DU?$char_traits@D@std@@V?$allocator@D@2@@std@@PAVfms_config_item_t@@@std@@@std@@@std@@@std@@_NX@?$pair@V?$_Tree_iterator@V?$_Tree_val@U?$_Tree_simple_types@U?$pair@$$CBV?$basic_string@DU?$char_traits@D@std@@V?$allocator@D@2@@std@@PAVfms_config_item_t@@@std@@@std@@@std@@@std@@_N@std@@QAE@$$QAV?$_Tree_iterator@V?$_Tree_val@U?$_Tree_simple_types@U?$pair@$$CBV?$basic_string@DU?$char_traits@D@std@@V?$allocator@D@2@@std@@PAVfms_config_item_t@@@std@@@std@@@std@@@1@$$QA_N@Z 1000bb20 f i fms_config.obj
 0001:0000ab20       ??$?0V?$_Tree_iterator@V?$_Tree_val@U?$_Tree_simple_types@U?$pair@$$CBHPAVfms_fp_item_t@@@std@@@std@@@std@@@std@@_NX@?$pair@V?$_Tree_iterator@V?$_Tree_val@U?$_Tree_simple_types@U?$pair@$$CBHPAVfms_fp_item_t@@@std@@@std@@@std@@@std@@_N@std@@QAE@$$QAV?$_Tree_iterator@V?$_Tree_val@U?$_Tree_simple_types@U?$pair@$$CBHPAVfms_fp_item_t@@@std@@@std@@@std@@@1@$$QA_N@Z 1000bb20 f i mfdpage_fms.obj
 0001:0000ab20       ??$?0AAV?$_Tree_iterator@V?$_Tree_val@U?$_Tree_simple_types@U?$pair@$$CBV?$basic_string@DU?$char_traits@D@std@@V?$allocator@D@2@@std@@PAVfms_fp_item_t@@@std@@@std@@@std@@@std@@_NX@?$pair@V?$_Tree_iterator@V?$_Tree_val@U?$_Tree_simple_types@U?$pair@$$CBV?$basic_string@DU?$char_traits@D@std@@V?$allocator@D@2@@std@@PAVfms_fp_item_t@@@std@@@std@@@std@@@std@@_N@std@@QAE@AAV?$_Tree_iterator@V?$_Tree_val@U?$_Tree_simple_types@U?$pair@$$CBV?$basic_string@DU?$char_traits@D@std@@V?$allocator@D@2@@std@@PAVfms_fp_item_t@@@std@@@std@@@std@@@1@$$QA_N@Z 1000bb20 f i fms_fp.obj
 0001:0000ab20       ??$?0AAV?$_Tree_const_iterator@V?$_Tree_val@U?$_Tree_simple_types@PAVlistener_t@@@std@@@std@@@std@@_NX@?$pair@V?$_Tree_const_iterator@V?$_Tree_val@U?$_Tree_simple_types@PAVlistener_t@@@std@@@std@@@std@@_N@std@@QAE@AAV?$_Tree_const_iterator@V?$_Tree_val@U?$_Tree_simple_types@PAVlistener_t@@@std@@@std@@@1@$$QA_N@Z 1000bb20 f i data.obj
 0001:0000ab20       ??$?0V?$_Tree_iterator@V?$_Tree_val@U?$_Tree_simple_types@U?$pair@$$CBV?$basic_string@DU?$char_traits@D@std@@V?$allocator@D@2@@std@@D@std@@@std@@@std@@@std@@_NX@?$pair@V?$_Tree_iterator@V?$_Tree_val@U?$_Tree_simple_types@U?$pair@$$CBV?$basic_string@DU?$char_traits@D@std@@V?$allocator@D@2@@std@@D@std@@@std@@@std@@@std@@_N@std@@QAE@$$QAV?$_Tree_iterator@V?$_Tree_val@U?$_Tree_simple_types@U?$pair@$$CBV?$basic_string@DU?$char_traits@D@std@@V?$allocator@D@2@@std@@D@std@@@std@@@std@@@1@$$QA_N@Z 1000bb20 f i mfdpage.obj
 0001:0000ab20       ??$?0AAV?$_Tree_iterator@V?$_Tree_val@U?$_Tree_simple_types@U?$pair@$$CBHPAVfms_fp_item_t@@@std@@@std@@@std@@@std@@_NX@?$pair@V?$_Tree_iterator@V?$_Tree_val@U?$_Tree_simple_types@U?$pair@$$CBHPAVfms_fp_item_t@@@std@@@std@@@std@@@std@@_N@std@@QAE@AAV?$_Tree_iterator@V?$_Tree_val@U?$_Tree_simple_types@U?$pair@$$CBHPAVfms_fp_item_t@@@std@@@std@@@std@@@1@$$QA_N@Z 1000bb20 f i mfdpage_fms.obj
 0001:0000ab20       ??$?0V?$_Tree_iterator@V?$_Tree_val@U?$_Tree_simple_types@U?$pair@$$CBV?$basic_string@DU?$char_traits@D@std@@V?$allocator@D@2@@std@@PAVfms_fp_item_t@@@std@@@std@@@std@@@std@@_NX@?$pair@V?$_Tree_iterator@V?$_Tree_val@U?$_Tree_simple_types@U?$pair@$$CBV?$basic_string@DU?$char_traits@D@std@@V?$allocator@D@2@@std@@PAVfms_fp_item_t@@@std@@@std@@@std@@@std@@_N@std@@QAE@$$QAV?$_Tree_iterator@V?$_Tree_val@U?$_Tree_simple_types@U?$pair@$$CBV?$basic_string@DU?$char_traits@D@std@@V?$allocator@D@2@@std@@PAVfms_fp_item_t@@@std@@@std@@@std@@@1@$$QA_N@Z 1000bb20 f i fms_fp.obj
 0001:0000ab20       ??$?0AAV?$_Tree_const_iterator@V?$_Tree_val@U?$_Tree_simple_types@PAVmfdpage_t@@@std@@@std@@@std@@_NX@?$pair@V?$_Tree_const_iterator@V?$_Tree_val@U?$_Tree_simple_types@PAVmfdpage_t@@@std@@@std@@@std@@_N@std@@QAE@AAV?$_Tree_const_iterator@V?$_Tree_val@U?$_Tree_simple_types@PAVmfdpage_t@@@std@@@std@@@1@$$QA_N@Z 1000bb20 f i in.obj
 0001:0000ab20       ??$?0V?$_Tree_iterator@V?$_Tree_val@U?$_Tree_simple_types@U?$pair@$$CBHPAVobject_t@@@std@@@std@@@std@@@std@@_NX@?$pair@V?$_Tree_iterator@V?$_Tree_val@U?$_Tree_simple_types@U?$pair@$$CBHPAVobject_t@@@std@@@std@@@std@@@std@@_N@std@@QAE@$$QAV?$_Tree_iterator@V?$_Tree_val@U?$_Tree_simple_types@U?$pair@$$CBHPAVobject_t@@@std@@@std@@@std@@@1@$$QA_N@Z 1000bb20 f i mfdpage.obj
 0001:0000ab20       ??$?0AAV?$_Tree_iterator@V?$_Tree_val@U?$_Tree_simple_types@U?$pair@$$CBHV?$basic_string@DU?$char_traits@D@std@@V?$allocator@D@2@@std@@@std@@@std@@@std@@@std@@_NX@?$pair@V?$_Tree_iterator@V?$_Tree_val@U?$_Tree_simple_types@U?$pair@$$CBHV?$basic_string@DU?$char_traits@D@std@@V?$allocator@D@2@@std@@@std@@@std@@@std@@@std@@_N@std@@QAE@AAV?$_Tree_iterator@V?$_Tree_val@U?$_Tree_simple_types@U?$pair@$$CBHV?$basic_string@DU?$char_traits@D@std@@V?$allocator@D@2@@std@@@std@@@std@@@std@@@1@$$QA_N@Z 1000bb20 f i out_saitek.obj
 0001:0000ab20       ??$?0V?$_Tree_iterator@V?$_Tree_val@U?$_Tree_simple_types@U?$pair@$$CBV?$basic_string@DU?$char_traits@D@std@@V?$allocator@D@2@@std@@V12@@std@@@std@@@std@@@std@@_NX@?$pair@V?$_Tree_iterator@V?$_Tree_val@U?$_Tree_simple_types@U?$pair@$$CBV?$basic_string@DU?$char_traits@D@std@@V?$allocator@D@2@@std@@V12@@std@@@std@@@std@@@std@@_N@std@@QAE@$$QAV?$_Tree_iterator@V?$_Tree_val@U?$_Tree_simple_types@U?$pair@$$CBV?$basic_string@DU?$char_traits@D@std@@V?$allocator@D@2@@std@@V12@@std@@@std@@@std@@@1@$$QA_N@Z 1000bb20 f i tools.obj
 0001:0000ab20       ??$?0AAV?$_Tree_iterator@V?$_Tree_val@U?$_Tree_simple_types@U?$pair@$$CBV?$basic_string@DU?$char_traits@D@std@@V?$allocator@D@2@@std@@M@std@@@std@@@std@@@std@@_NX@?$pair@V?$_Tree_iterator@V?$_Tree_val@U?$_Tree_simple_types@U?$pair@$$CBV?$basic_string@DU?$char_traits@D@std@@V?$allocator@D@2@@std@@M@std@@@std@@@std@@@std@@_N@std@@QAE@AAV?$_Tree_iterator@V?$_Tree_val@U?$_Tree_simple_types@U?$pair@$$CBV?$basic_string@DU?$char_traits@D@std@@V?$allocator@D@2@@std@@M@std@@@std@@@std@@@1@$$QA_N@Z 1000bb20 f i mfdpage_fms.obj
 0001:0000ab20       ??$?0AAV?$_Tree_iterator@V?$_Tree_val@U?$_Tree_simple_types@U?$pair@$$CBV?$basic_string@DU?$char_traits@D@std@@V?$allocator@D@2@@std@@PAVfms_config_item_t@@@std@@@std@@@std@@@std@@_NX@?$pair@V?$_Tree_iterator@V?$_Tree_val@U?$_Tree_simple_types@U?$pair@$$CBV?$basic_string@DU?$char_traits@D@std@@V?$allocator@D@2@@std@@PAVfms_config_item_t@@@std@@@std@@@std@@@std@@_N@std@@QAE@AAV?$_Tree_iterator@V?$_Tree_val@U?$_Tree_simple_types@U?$pair@$$CBV?$basic_string@DU?$char_traits@D@std@@V?$allocator@D@2@@std@@PAVfms_config_item_t@@@std@@@std@@@std@@@1@$$QA_N@Z 1000bb20 f i fms_config.obj
 0001:0000ab20       ??$?0AAV?$_Tree_iterator@V?$_Tree_val@U?$_Tree_simple_types@U?$pair@$$CBV?$basic_string@DU?$char_traits@D@std@@V?$allocator@D@2@@std@@V12@@std@@@std@@@std@@@std@@_NX@?$pair@V?$_Tree_iterator@V?$_Tree_val@U?$_Tree_simple_types@U?$pair@$$CBV?$basic_string@DU?$char_traits@D@std@@V?$allocator@D@2@@std@@V12@@std@@@std@@@std@@@std@@_N@std@@QAE@AAV?$_Tree_iterator@V?$_Tree_val@U?$_Tree_simple_types@U?$pair@$$CBV?$basic_string@DU?$char_traits@D@std@@V?$allocator@D@2@@std@@V12@@std@@@std@@@std@@@1@$$QA_N@Z 1000bb20 f i tools.obj
 0001:0000ab20       ??$?0V?$_Tree_iterator@V?$_Tree_val@U?$_Tree_simple_types@U?$pair@$$CBV?$basic_string@DU?$char_traits@D@std@@V?$allocator@D@2@@std@@H@std@@@std@@@std@@@std@@_NX@?$pair@V?$_Tree_iterator@V?$_Tree_val@U?$_Tree_simple_types@U?$pair@$$CBV?$basic_string@DU?$char_traits@D@std@@V?$allocator@D@2@@std@@H@std@@@std@@@std@@@std@@_N@std@@QAE@$$QAV?$_Tree_iterator@V?$_Tree_val@U?$_Tree_simple_types@U?$pair@$$CBV?$basic_string@DU?$char_traits@D@std@@V?$allocator@D@2@@std@@H@std@@@std@@@std@@@1@$$QA_N@Z 1000bb20 f i mfdpage.obj
 0001:0000ab20       ??$?0V?$_Tree_const_iterator@V?$_Tree_val@U?$_Tree_simple_types@PAVobject_t@@@std@@@std@@@std@@_NX@?$pair@V?$_Tree_const_iterator@V?$_Tree_val@U?$_Tree_simple_types@PAVobject_t@@@std@@@std@@@std@@_N@std@@QAE@$$QAV?$_Tree_const_iterator@V?$_Tree_val@U?$_Tree_simple_types@PAVobject_t@@@std@@@std@@@1@$$QA_N@Z 1000bb20 f i data.obj
 0001:0000ab20       ??$?0AAV?$_Tree_iterator@V?$_Tree_val@U?$_Tree_simple_types@U?$pair@$$CBV?$basic_string@DU?$char_traits@D@std@@V?$allocator@D@2@@std@@D@std@@@std@@@std@@@std@@_NX@?$pair@V?$_Tree_iterator@V?$_Tree_val@U?$_Tree_simple_types@U?$pair@$$CBV?$basic_string@DU?$char_traits@D@std@@V?$allocator@D@2@@std@@D@std@@@std@@@std@@@std@@_N@std@@QAE@AAV?$_Tree_iterator@V?$_Tree_val@U?$_Tree_simple_types@U?$pair@$$CBV?$basic_string@DU?$char_traits@D@std@@V?$allocator@D@2@@std@@D@std@@@std@@@std@@@1@$$QA_N@Z 1000bb20 f i mfdpage.obj
 0001:0000ab20       ??$?0V?$_Tree_const_iterator@V?$_Tree_val@U?$_Tree_simple_types@PAVmfdpage_t@@@std@@@std@@@std@@_NX@?$pair@V?$_Tree_const_iterator@V?$_Tree_val@U?$_Tree_simple_types@PAVmfdpage_t@@@std@@@std@@@std@@_N@std@@QAE@$$QAV?$_Tree_const_iterator@V?$_Tree_val@U?$_Tree_simple_types@PAVmfdpage_t@@@std@@@std@@@1@$$QA_N@Z 1000bb20 f i in.obj
 0001:0000ab20       ??$?0AAV?$_Tree_iterator@V?$_Tree_val@U?$_Tree_simple_types@U?$pair@$$CBV?$basic_string@DU?$char_traits@D@std@@V?$allocator@D@2@@std@@H@std@@@std@@@std@@@std@@_NX@?$pair@V?$_Tree_iterator@V?$_Tree_val@U?$_Tree_simple_types@U?$pair@$$CBV?$basic_string@DU?$char_traits@D@std@@V?$allocator@D@2@@std@@H@std@@@std@@@std@@@std@@_N@std@@QAE@AAV?$_Tree_iterator@V?$_Tree_val@U?$_Tree_simple_types@U?$pair@$$CBV?$basic_string@DU?$char_traits@D@std@@V?$allocator@D@2@@std@@H@std@@@std@@@std@@@1@$$QA_N@Z 1000bb20 f i mfdpage.obj
 0001:0000ab20       ??$?0V?$_Tree_iterator@V?$_Tree_val@U?$_Tree_simple_types@U?$pair@$$CBHM@std@@@std@@@std@@@std@@_NX@?$pair@V?$_Tree_iterator@V?$_Tree_val@U?$_Tree_simple_types@U?$pair@$$CBHM@std@@@std@@@std@@@std@@_N@std@@QAE@$$QAV?$_Tree_iterator@V?$_Tree_val@U?$_Tree_simple_types@U?$pair@$$CBHM@std@@@std@@@std@@@1@$$QA_N@Z 1000bb20 f i fms_config.obj
 0001:0000ab20       ??$?0AAV?$_Tree_iterator@V?$_Tree_val@U?$_Tree_simple_types@U?$pair@$$CBHPAVobject_t@@@std@@@std@@@std@@@std@@_NX@?$pair@V?$_Tree_iterator@V?$_Tree_val@U?$_Tree_simple_types@U?$pair@$$CBHPAVobject_t@@@std@@@std@@@std@@@std@@_N@std@@QAE@AAV?$_Tree_iterator@V?$_Tree_val@U?$_Tree_simple_types@U?$pair@$$CBHPAVobject_t@@@std@@@std@@@std@@@1@$$QA_N@Z 1000bb20 f i mfdpage.obj
 0001:0000ab20       ??$?0V?$_Tree_iterator@V?$_Tree_val@U?$_Tree_simple_types@U?$pair@$$CBV?$basic_string@DU?$char_traits@D@std@@V?$allocator@D@2@@std@@M@std@@@std@@@std@@@std@@_NX@?$pair@V?$_Tree_iterator@V?$_Tree_val@U?$_Tree_simple_types@U?$pair@$$CBV?$basic_string@DU?$char_traits@D@std@@V?$allocator@D@2@@std@@M@std@@@std@@@std@@@std@@_N@std@@QAE@$$QAV?$_Tree_iterator@V?$_Tree_val@U?$_Tree_simple_types@U?$pair@$$CBV?$basic_string@DU?$char_traits@D@std@@V?$allocator@D@2@@std@@M@std@@@std@@@std@@@1@$$QA_N@Z 1000bb20 f i mfdpage_fms.obj
 0001:0000ab20       ??$?0AAV?$_Tree_iterator@V?$_Tree_val@U?$_Tree_simple_types@U?$pair@$$CBHM@std@@@std@@@std@@@std@@_NX@?$pair@V?$_Tree_iterator@V?$_Tree_val@U?$_Tree_simple_types@U?$pair@$$CBHM@std@@@std@@@std@@@std@@_N@std@@QAE@AAV?$_Tree_iterator@V?$_Tree_val@U?$_Tree_simple_types@U?$pair@$$CBHM@std@@@std@@@std@@@1@$$QA_N@Z 1000bb20 f i fms_config.obj
 0001:0000ab20       ??$?0V?$_Tree_iterator@V?$_Tree_val@U?$_Tree_simple_types@U?$pair@$$CBHV?$basic_string@DU?$char_traits@D@std@@V?$allocator@D@2@@std@@@std@@@std@@@std@@@std@@_NX@?$pair@V?$_Tree_iterator@V?$_Tree_val@U?$_Tree_simple_types@U?$pair@$$CBHV?$basic_string@DU?$char_traits@D@std@@V?$allocator@D@2@@std@@@std@@@std@@@std@@@std@@_N@std@@QAE@$$QAV?$_Tree_iterator@V?$_Tree_val@U?$_Tree_simple_types@U?$pair@$$CBHV?$basic_string@DU?$char_traits@D@std@@V?$allocator@D@2@@std@@@std@@@std@@@std@@@1@$$QA_N@Z 1000bb20 f i out_saitek.obj
 0001:0000ab60       ??$forward@ABQAVobject_t@@@std@@YAABQAVobject_t@@ABQAV1@@Z 1000bb60 f i data.obj
 0001:0000ab60       ??$forward@AAU?$pair@$$CBHV?$basic_string@DU?$char_traits@D@std@@V?$allocator@D@2@@std@@@std@@@std@@YAAAU?$pair@$$CBHV?$basic_string@DU?$char_traits@D@std@@V?$allocator@D@2@@std@@@0@AAU10@@Z 1000bb60 f i out_saitek.obj
 0001:0000ab60       ??$forward@AAV?$_Tree_iterator@V?$_Tree_val@U?$_Tree_simple_types@U?$pair@$$CBHPAVfms_fp_item_t@@@std@@@std@@@std@@@std@@@std@@YAAAV?$_Tree_iterator@V?$_Tree_val@U?$_Tree_simple_types@U?$pair@$$CBHPAVfms_fp_item_t@@@std@@@std@@@std@@@0@AAV10@@Z 1000bb60 f i mfdpage_fms.obj
 0001:0000ab60       ??$addressof@PAU?$_Tree_node@U?$pair@$$CBV?$basic_string@DU?$char_traits@D@std@@V?$allocator@D@2@@std@@D@std@@PAX@std@@@std@@YAPAPAU?$_Tree_node@U?$pair@$$CBV?$basic_string@DU?$char_traits@D@std@@V?$allocator@D@2@@std@@D@std@@PAX@0@AAPAU10@@Z 1000bb60 f i mfdpage.obj
 0001:0000ab60       ??$_Kfn@$$CBV?$basic_string@DU?$char_traits@D@std@@V?$allocator@D@2@@std@@V12@@?$_Tmap_traits@V?$basic_string@DU?$char_traits@D@std@@V?$allocator@D@2@@std@@V12@U?$less@V?$basic_string@DU?$char_traits@D@std@@V?$allocator@D@2@@std@@@2@V?$allocator@U?$pair@$$CBV?$basic_string@DU?$char_traits@D@std@@V?$allocator@D@2@@std@@V12@@std@@@2@$0A@@std@@SAABV?$basic_string@DU?$char_traits@D@std@@V?$allocator@D@2@@1@ABU?$pair@$$CBV?$basic_string@DU?$char_traits@D@std@@V?$allocator@D@2@@std@@V12@@1@@Z 1000bb60 f i tools.obj
 0001:0000ab60       ??$forward@ABUpiecewise_construct_t@std@@@std@@YAABUpiecewise_construct_t@0@ABU10@@Z 1000bb60 f i tools.obj
 0001:0000ab60       ??$forward@V?$_Tree_iterator@V?$_Tree_val@U?$_Tree_simple_types@U?$pair@$$CBHM@std@@@std@@@std@@@std@@@std@@YA$$QAV?$_Tree_iterator@V?$_Tree_val@U?$_Tree_simple_types@U?$pair@$$CBHM@std@@@std@@@std@@@0@AAV10@@Z 1000bb60 f i fms_config.obj
 0001:0000ab60       ?_Left@?$_Tree_val@U?$_Tree_simple_types@PAVmfdpage_t@@@std@@@std@@SAAAPAU?$_Tree_node@PAVmfdpage_t@@PAX@2@PAU32@@Z 1000bb60 f i in.obj
 0001:0000ab60       ??$move@AAV?$basic_istream@DU?$char_traits@D@std@@@std@@@std@@YA$$QAV?$basic_istream@DU?$char_traits@D@std@@@0@AAV10@@Z 1000bb60 f i mfdpage.obj
 0001:0000ab60       ??$move@AAH@std@@YA$$QAHAAH@Z 1000bb60 f i mfdpage_fms.obj
 0001:0000ab60       ??$forward@ABV?$basic_string@DU?$char_traits@D@std@@V?$allocator@D@2@@std@@@std@@YAABV?$basic_string@DU?$char_traits@D@std@@V?$allocator@D@2@@0@ABV10@@Z 1000bb60 f i mfdpage.obj
 0001:0000ab60       ??$move@AAV?$map@V?$basic_string@DU?$char_traits@D@std@@V?$allocator@D@2@@std@@V12@U?$less@V?$basic_string@DU?$char_traits@D@std@@V?$allocator@D@2@@std@@@2@V?$allocator@U?$pair@$$CBV?$basic_string@DU?$char_traits@D@std@@V?$allocator@D@2@@std@@V12@@std@@@2@@std@@@std@@YA$$QAV?$map@V?$basic_string@DU?$char_traits@D@std@@V?$allocator@D@2@@std@@V12@U?$less@V?$basic_string@DU?$char_traits@D@std@@V?$allocator@D@2@@std@@@2@V?$allocator@U?$pair@$$CBV?$basic_string@DU?$char_traits@D@std@@V?$allocator@D@2@@std@@V12@@std@@@2@@0@AAV10@@Z 1000bb60 f i mfdpage_led.obj
 0001:0000ab60       ??$addressof@U?$pair@$$CBHPAVobject_t@@@std@@@std@@YAPAU?$pair@$$CBHPAVobject_t@@@0@AAU10@@Z 1000bb60 f i mfdpage.obj
 0001:0000ab60       ??$addressof@U?$pair@$$CBV?$basic_string@DU?$char_traits@D@std@@V?$allocator@D@2@@std@@H@std@@@std@@YAPAU?$pair@$$CBV?$basic_string@DU?$char_traits@D@std@@V?$allocator@D@2@@std@@H@0@AAU10@@Z 1000bb60 f i mfdpage.obj
 0001:0000ab60       ??$move@AAV?$tuple@ABH@std@@@std@@YA$$QAV?$tuple@ABH@0@AAV10@@Z 1000bb60 f i out_saitek.obj
 0001:0000ab60       ??$addressof@U?$pair@$$CBV?$basic_string@DU?$char_traits@D@std@@V?$allocator@D@2@@std@@M@std@@@std@@YAPAU?$pair@$$CBV?$basic_string@DU?$char_traits@D@std@@V?$allocator@D@2@@std@@M@0@AAU10@@Z 1000bb60 f i mfdpage_fms.obj
 0001:0000ab60       ??$forward@AAV?$_Tree_iterator@V?$_Tree_val@U?$_Tree_simple_types@U?$pair@$$CBHM@std@@@std@@@std@@@std@@@std@@YAAAV?$_Tree_iterator@V?$_Tree_val@U?$_Tree_simple_types@U?$pair@$$CBHM@std@@@std@@@std@@@0@AAV10@@Z 1000bb60 f i fms_config.obj
 0001:0000ab60       ??$forward@AAV?$_Tree_iterator@V?$_Tree_val@U?$_Tree_simple_types@U?$pair@$$CBV?$basic_string@DU?$char_traits@D@std@@V?$allocator@D@2@@std@@V12@@std@@@std@@@std@@@std@@@std@@YAAAV?$_Tree_iterator@V?$_Tree_val@U?$_Tree_simple_types@U?$pair@$$CBV?$basic_string@DU?$char_traits@D@std@@V?$allocator@D@2@@std@@V12@@std@@@std@@@std@@@0@AAV10@@Z 1000bb60 f i tools.obj
 0001:0000ab60       ??$forward@V?$_Tree_const_iterator@V?$_Tree_val@U?$_Tree_simple_types@PAVlistener_t@@@std@@@std@@@std@@@std@@YA$$QAV?$_Tree_const_iterator@V?$_Tree_val@U?$_Tree_simple_types@PAVlistener_t@@@std@@@std@@@0@AAV10@@Z 1000bb60 f i data.obj
 0001:0000ab60       ??$forward@AAV?$_Tree_iterator@V?$_Tree_val@U?$_Tree_simple_types@U?$pair@$$CBV?$basic_string@DU?$char_traits@D@std@@V?$allocator@D@2@@std@@PAVfms_fp_item_t@@@std@@@std@@@std@@@std@@@std@@YAAAV?$_Tree_iterator@V?$_Tree_val@U?$_Tree_simple_types@U?$pair@$$CBV?$basic_string@DU?$char_traits@D@std@@V?$allocator@D@2@@std@@PAVfms_fp_item_t@@@std@@@std@@@std@@@0@AAV10@@Z 1000bb60 f i fms_fp.obj
 0001:0000ab60       ??$forward@H@std@@YA$$QAHAAH@Z 1000bb60 f i mfdpage_fms.obj
 0001:0000ab60       ??$addressof@PAU?$_Tree_node@U?$pair@$$CBHPAVfms_fp_item_t@@@std@@PAX@std@@@std@@YAPAPAU?$_Tree_node@U?$pair@$$CBHPAVfms_fp_item_t@@@std@@PAX@0@AAPAU10@@Z 1000bb60 f i mfdpage_fms.obj
 0001:0000ab60       ??$_Kfn@$$CBHPAVfms_fp_item_t@@@?$_Tmap_traits@HPAVfms_fp_item_t@@U?$less@H@std@@V?$allocator@U?$pair@$$CBHPAVfms_fp_item_t@@@std@@@3@$0A@@std@@SAABHABU?$pair@$$CBHPAVfms_fp_item_t@@@1@@Z 1000bb60 f i mfdpage_fms.obj
 0001:0000ab60       ?_Kfn@?$_Tset_traits@PAVmfdpage_t@@U?$less@PAVmfdpage_t@@@std@@V?$allocator@PAVmfdpage_t@@@3@$0A@@std@@SAABQAVmfdpage_t@@ABQAV3@@Z 1000bb60 f i in.obj
 0001:0000ab60       ??$forward@V?$tuple@$$$V@std@@@std@@YA$$QAV?$tuple@$$$V@0@AAV10@@Z 1000bb60 f i tools.obj
 0001:0000ab60       ??$forward@AAU?$pair@$$CBV?$basic_string@DU?$char_traits@D@std@@V?$allocator@D@2@@std@@H@std@@@std@@YAAAU?$pair@$$CBV?$basic_string@DU?$char_traits@D@std@@V?$allocator@D@2@@std@@H@0@AAU10@@Z 1000bb60 f i mfdpage.obj
 0001:0000ab60       ??$forward@V?$basic_string@DU?$char_traits@D@std@@V?$allocator@D@2@@std@@@std@@YA$$QAV?$basic_string@DU?$char_traits@D@std@@V?$allocator@D@2@@0@AAV10@@Z 1000bb60 f i tools.obj
 0001:0000ab60       ??$forward@AAU?$pair@$$CBV?$basic_string@DU?$char_traits@D@std@@V?$allocator@D@2@@std@@V12@@std@@@std@@YAAAU?$pair@$$CBV?$basic_string@DU?$char_traits@D@std@@V?$allocator@D@2@@std@@V12@@0@AAU10@@Z 1000bb60 f i tools.obj
 0001:0000ab60       ??$forward@AAPAU?$_Tree_node@U?$pair@$$CBHPAVfms_fp_item_t@@@std@@PAX@std@@@std@@YAAAPAU?$_Tree_node@U?$pair@$$CBHPAVfms_fp_item_t@@@std@@PAX@0@AAPAU10@@Z 1000bb60 f i mfdpage_fms.obj
 0001:0000ab60       ??$forward@AAV?$_Tree_iterator@V?$_Tree_val@U?$_Tree_simple_types@U?$pair@$$CBHPAVobject_t@@@std@@@std@@@std@@@std@@@std@@YAAAV?$_Tree_iterator@V?$_Tree_val@U?$_Tree_simple_types@U?$pair@$$CBHPAVobject_t@@@std@@@std@@@std@@@0@AAV10@@Z 1000bb60 f i mfdpage.obj
 0001:0000ab60       ??$forward@$$QAV?$basic_string@DU?$char_traits@D@std@@V?$allocator@D@2@@std@@@std@@YA$$QAV?$basic_string@DU?$char_traits@D@std@@V?$allocator@D@2@@0@AAV10@@Z 1000bb60 f i tools.obj
 0001:0000ab60       ?_Left@?$_Tree_val@U?$_Tree_simple_types@U?$pair@$$CBV?$basic_string@DU?$char_traits@D@std@@V?$allocator@D@2@@std@@PAVfms_config_item_t@@@std@@@std@@@std@@SAAAPAU?$_Tree_node@U?$pair@$$CBV?$basic_string@DU?$char_traits@D@std@@V?$allocator@D@2@@std@@PAVfms_config_item_t@@@std@@PAX@2@PAU32@@Z 1000bb60 f i fms_config.obj
 0001:0000ab60       ?_Left@?$_Tree_val@U?$_Tree_simple_types@U?$pair@$$CBV?$basic_string@DU?$char_traits@D@std@@V?$allocator@D@2@@std@@D@std@@@std@@@std@@SAAAPAU?$_Tree_node@U?$pair@$$CBV?$basic_string@DU?$char_traits@D@std@@V?$allocator@D@2@@std@@D@std@@PAX@2@PAU32@@Z 1000bb60 f i mfdpage.obj
 0001:0000ab60       ??$_Move@AAD@std@@YA$$QADAAD@Z 1000bb60 f i tools.obj
 0001:0000ab60       ??$addressof@PAU?$_Tree_node@U?$pair@$$CBV?$basic_string@DU?$char_traits@D@std@@V?$allocator@D@2@@std@@M@std@@PAX@std@@@std@@YAPAPAU?$_Tree_node@U?$pair@$$CBV?$basic_string@DU?$char_traits@D@std@@V?$allocator@D@2@@std@@M@std@@PAX@0@AAPAU10@@Z 1000bb60 f i mfdpage_fms.obj
 0001:0000ab60       ??$_Kfn@$$CBV?$basic_string@DU?$char_traits@D@std@@V?$allocator@D@2@@std@@PAVfms_fp_item_t@@@?$_Tmap_traits@V?$basic_string@DU?$char_traits@D@std@@V?$allocator@D@2@@std@@PAVfms_fp_item_t@@U?$less@V?$basic_string@DU?$char_traits@D@std@@V?$allocator@D@2@@std@@@2@V?$allocator@U?$pair@$$CBV?$basic_string@DU?$char_traits@D@std@@V?$allocator@D@2@@std@@PAVfms_fp_item_t@@@std@@@2@$0A@@std@@SAABV?$basic_string@DU?$char_traits@D@std@@V?$allocator@D@2@@1@ABU?$pair@$$CBV?$basic_string@DU?$char_traits@D@std@@V?$allocator@D@2@@std@@PAVfms_fp_item_t@@@1@@Z 1000bb60 f i fms_fp.obj
 0001:0000ab60       ??$forward@AAPAU?$_Tree_node@U?$pair@$$CBV?$basic_string@DU?$char_traits@D@std@@V?$allocator@D@2@@std@@PAVfms_fp_item_t@@@std@@PAX@std@@@std@@YAAAPAU?$_Tree_node@U?$pair@$$CBV?$basic_string@DU?$char_traits@D@std@@V?$allocator@D@2@@std@@PAVfms_fp_item_t@@@std@@PAX@0@AAPAU10@@Z 1000bb60 f i fms_fp.obj
 0001:0000ab60       ??$forward@AAPAU?$_Tree_node@U?$pair@$$CBHV?$basic_string@DU?$char_traits@D@std@@V?$allocator@D@2@@std@@@std@@PAX@std@@@std@@YAAAPAU?$_Tree_node@U?$pair@$$CBHV?$basic_string@DU?$char_traits@D@std@@V?$allocator@D@2@@std@@@std@@PAX@0@AAPAU10@@Z 1000bb60 f i out_saitek.obj
 0001:0000ab60       ??$forward@V?$_Tree_const_iterator@V?$_Tree_val@U?$_Tree_simple_types@PAVmfdpage_t@@@std@@@std@@@std@@@std@@YA$$QAV?$_Tree_const_iterator@V?$_Tree_val@U?$_Tree_simple_types@PAVmfdpage_t@@@std@@@std@@@0@AAV10@@Z 1000bb60 f i in.obj
 0001:0000ab60       ??$addressof@PAU?$_Tree_node@U?$pair@$$CBV?$basic_string@DU?$char_traits@D@std@@V?$allocator@D@2@@std@@PAVfms_fp_item_t@@@std@@PAX@std@@@std@@YAPAPAU?$_Tree_node@U?$pair@$$CBV?$basic_string@DU?$char_traits@D@std@@V?$allocator@D@2@@std@@PAVfms_fp_item_t@@@std@@PAX@0@AAPAU10@@Z 1000bb60 f i fms_fp.obj
 0001:0000ab60       ??$forward@$$QAH@std@@YA$$QAHAAH@Z 1000bb60 f i mfdpage_fms.obj
 0001:0000ab60       ??$forward@AAPAU?$_Tree_node@U?$pair@$$CBHM@std@@PAX@std@@@std@@YAAAPAU?$_Tree_node@U?$pair@$$CBHM@std@@PAX@0@AAPAU10@@Z 1000bb60 f i fms_config.obj
 0001:0000ab60       ??$forward@V?$tuple@ABH@std@@@std@@YA$$QAV?$tuple@ABH@0@AAV10@@Z 1000bb60 f i out_saitek.obj
 0001:0000ab60       ??$forward@AAV?$_Tree_iterator@V?$_Tree_val@U?$_Tree_simple_types@U?$pair@$$CBV?$basic_string@DU?$char_traits@D@std@@V?$allocator@D@2@@std@@H@std@@@std@@@std@@@std@@@std@@YAAAV?$_Tree_iterator@V?$_Tree_val@U?$_Tree_simple_types@U?$pair@$$CBV?$basic_string@DU?$char_traits@D@std@@V?$allocator@D@2@@std@@H@std@@@std@@@std@@@0@AAV10@@Z 1000bb60 f i mfdpage.obj
 0001:0000ab60       ?_Left@?$_Tree_val@U?$_Tree_simple_types@PAVlistener_t@@@std@@@std@@SAAAPAU?$_Tree_node@PAVlistener_t@@PAX@2@PAU32@@Z 1000bb60 f i data.obj
 0001:0000ab60       ??$addressof@U?$pair@$$CBV?$basic_string@DU?$char_traits@D@std@@V?$allocator@D@2@@std@@V12@@std@@@std@@YAPAU?$pair@$$CBV?$basic_string@DU?$char_traits@D@std@@V?$allocator@D@2@@std@@V12@@0@AAU10@@Z 1000bb60 f i tools.obj
 0001:0000ab60       ??$forward@V?$_Tree_iterator@V?$_Tree_val@U?$_Tree_simple_types@U?$pair@$$CBV?$basic_string@DU?$char_traits@D@std@@V?$allocator@D@2@@std@@H@std@@@std@@@std@@@std@@@std@@YA$$QAV?$_Tree_iterator@V?$_Tree_val@U?$_Tree_simple_types@U?$pair@$$CBV?$basic_string@DU?$char_traits@D@std@@V?$allocator@D@2@@std@@H@std@@@std@@@std@@@0@AAV10@@Z 1000bb60 f i mfdpage.obj
 0001:0000ab60       ??$addressof@PAU?$_Tree_node@PAVmfdpage_t@@PAX@std@@@std@@YAPAPAU?$_Tree_node@PAVmfdpage_t@@PAX@0@AAPAU10@@Z 1000bb60 f i in.obj
 0001:0000ab60       ??$forward@AAU?$pair@$$CBHPAVfms_fp_item_t@@@std@@@std@@YAAAU?$pair@$$CBHPAVfms_fp_item_t@@@0@AAU10@@Z 1000bb60 f i mfdpage_fms.obj
 0001:0000ab60       ??$forward@AAPAU?$_Tree_node@U?$pair@$$CBV?$basic_string@DU?$char_traits@D@std@@V?$allocator@D@2@@std@@M@std@@PAX@std@@@std@@YAAAPAU?$_Tree_node@U?$pair@$$CBV?$basic_string@DU?$char_traits@D@std@@V?$allocator@D@2@@std@@M@std@@PAX@0@AAPAU10@@Z 1000bb60 f i mfdpage_fms.obj
 0001:0000ab60       ??$forward@AAPAU?$_Tree_node@PAVlistener_t@@PAX@std@@@std@@YAAAPAU?$_Tree_node@PAVlistener_t@@PAX@0@AAPAU10@@Z 1000bb60 f i data.obj
 0001:0000ab60       ??$addressof@U?$pair@$$CBV?$basic_string@DU?$char_traits@D@std@@V?$allocator@D@2@@std@@PAVfms_config_item_t@@@std@@@std@@YAPAU?$pair@$$CBV?$basic_string@DU?$char_traits@D@std@@V?$allocator@D@2@@std@@PAVfms_config_item_t@@@0@AAU10@@Z 1000bb60 f i fms_config.obj
 0001:0000ab60       ??$addressof@PAU?$_Tree_node@U?$pair@$$CBHV?$basic_string@DU?$char_traits@D@std@@V?$allocator@D@2@@std@@@std@@PAX@std@@@std@@YAPAPAU?$_Tree_node@U?$pair@$$CBHV?$basic_string@DU?$char_traits@D@std@@V?$allocator@D@2@@std@@@std@@PAX@0@AAPAU10@@Z 1000bb60 f i out_saitek.obj
 0001:0000ab60       ?_Left@?$_Tree_val@U?$_Tree_simple_types@U?$pair@$$CBV?$basic_string@DU?$char_traits@D@std@@V?$allocator@D@2@@std@@H@std@@@std@@@std@@SAAAPAU?$_Tree_node@U?$pair@$$CBV?$basic_string@DU?$char_traits@D@std@@V?$allocator@D@2@@std@@H@std@@PAX@2@PAU32@@Z 1000bb60 f i mfdpage.obj
 0001:0000ab60       ??$move@AAV?$tuple@ABV?$basic_string@DU?$char_traits@D@std@@V?$allocator@D@2@@std@@@std@@@std@@YA$$QAV?$tuple@ABV?$basic_string@DU?$char_traits@D@std@@V?$allocator@D@2@@std@@@0@AAV10@@Z 1000bb60 f i mfdpage.obj
 0001:0000ab60       ??$_Kfn@$$CBV?$basic_string@DU?$char_traits@D@std@@V?$allocator@D@2@@std@@H@?$_Tmap_traits@V?$basic_string@DU?$char_traits@D@std@@V?$allocator@D@2@@std@@HU?$less@V?$basic_string@DU?$char_traits@D@std@@V?$allocator@D@2@@std@@@2@V?$allocator@U?$pair@$$CBV?$basic_string@DU?$char_traits@D@std@@V?$allocator@D@2@@std@@H@std@@@2@$0A@@std@@SAABV?$basic_string@DU?$char_traits@D@std@@V?$allocator@D@2@@1@ABU?$pair@$$CBV?$basic_string@DU?$char_traits@D@std@@V?$allocator@D@2@@std@@H@1@@Z 1000bb60 f i mfdpage.obj
 0001:0000ab60       ??$forward@V?$_Tree_iterator@V?$_Tree_val@U?$_Tree_simple_types@U?$pair@$$CBHV?$basic_string@DU?$char_traits@D@std@@V?$allocator@D@2@@std@@@std@@@std@@@std@@@std@@@std@@YA$$QAV?$_Tree_iterator@V?$_Tree_val@U?$_Tree_simple_types@U?$pair@$$CBHV?$basic_string@DU?$char_traits@D@std@@V?$allocator@D@2@@std@@@std@@@std@@@std@@@0@AAV10@@Z 1000bb60 f i out_saitek.obj
 0001:0000ab60       ??$move@AAV?$tuple@$$QAH@std@@@std@@YA$$QAV?$tuple@$$QAH@0@AAV10@@Z 1000bb60 f i mfdpage_fms.obj
 0001:0000ab60       ??$addressof@U?$pair@$$CBV?$basic_string@DU?$char_traits@D@std@@V?$allocator@D@2@@std@@D@std@@@std@@YAPAU?$pair@$$CBV?$basic_string@DU?$char_traits@D@std@@V?$allocator@D@2@@std@@D@0@AAU10@@Z 1000bb60 f i mfdpage.obj
 0001:0000ab60       ??$_Move@AAPAU?$_Tree_node@U?$pair@$$CBV?$basic_string@DU?$char_traits@D@std@@V?$allocator@D@2@@std@@V12@@std@@PAX@std@@@std@@YA$$QAPAU?$_Tree_node@U?$pair@$$CBV?$basic_string@DU?$char_traits@D@std@@V?$allocator@D@2@@std@@V12@@std@@PAX@0@AAPAU10@@Z 1000bb60 f i mfdpage_led.obj
 0001:0000ab60       ??$addressof@PAU?$_Tree_node@PAVobject_t@@PAX@std@@@std@@YAPAPAU?$_Tree_node@PAVobject_t@@PAX@0@AAPAU10@@Z 1000bb60 f i data.obj
 0001:0000ab60       ??$addressof@PAU?$_Tree_node@U?$pair@$$CBHPAVobject_t@@@std@@PAX@std@@@std@@YAPAPAU?$_Tree_node@U?$pair@$$CBHPAVobject_t@@@std@@PAX@0@AAPAU10@@Z 1000bb60 f i mfdpage.obj
 0001:0000ab60       ??$forward@AAV?$_Tree_iterator@V?$_Tree_val@U?$_Tree_simple_types@U?$pair@$$CBV?$basic_string@DU?$char_traits@D@std@@V?$allocator@D@2@@std@@PAVfms_config_item_t@@@std@@@std@@@std@@@std@@@std@@YAAAV?$_Tree_iterator@V?$_Tree_val@U?$_Tree_simple_types@U?$pair@$$CBV?$basic_string@DU?$char_traits@D@std@@V?$allocator@D@2@@std@@PAVfms_config_item_t@@@std@@@std@@@std@@@0@AAV10@@Z 1000bb60 f i fms_config.obj
 0001:0000ab60       ??$addressof@U?$pair@$$CBV?$basic_string@DU?$char_traits@D@std@@V?$allocator@D@2@@std@@PAVfms_fp_item_t@@@std@@@std@@YAPAU?$pair@$$CBV?$basic_string@DU?$char_traits@D@std@@V?$allocator@D@2@@std@@PAVfms_fp_item_t@@@0@AAU10@@Z 1000bb60 f i fms_fp.obj
 0001:0000ab60       ??$forward@AAU?$pair@$$CBV?$basic_string@DU?$char_traits@D@std@@V?$allocator@D@2@@std@@PAVfms_fp_item_t@@@std@@@std@@YAAAU?$pair@$$CBV?$basic_string@DU?$char_traits@D@std@@V?$allocator@D@2@@std@@PAVfms_fp_item_t@@@0@AAU10@@Z 1000bb60 f i fms_fp.obj
 0001:0000ab60       ??$_Kfn@$$CBV?$basic_string@DU?$char_traits@D@std@@V?$allocator@D@2@@std@@D@?$_Tmap_traits@V?$basic_string@DU?$char_traits@D@std@@V?$allocator@D@2@@std@@DU?$less@V?$basic_string@DU?$char_traits@D@std@@V?$allocator@D@2@@std@@@2@V?$allocator@U?$pair@$$CBV?$basic_string@DU?$char_traits@D@std@@V?$allocator@D@2@@std@@D@std@@@2@$0A@@std@@SAABV?$basic_string@DU?$char_traits@D@std@@V?$allocator@D@2@@1@ABU?$pair@$$CBV?$basic_string@DU?$char_traits@D@std@@V?$allocator@D@2@@std@@D@1@@Z 1000bb60 f i mfdpage.obj
 0001:0000ab60       ?_Left@?$_Tree_val@U?$_Tree_simple_types@U?$pair@$$CBHPAVobject_t@@@std@@@std@@@std@@SAAAPAU?$_Tree_node@U?$pair@$$CBHPAVobject_t@@@std@@PAX@2@PAU32@@Z 1000bb60 f i mfdpage.obj
 0001:0000ab60       ??$forward@AAPAU?$_Tree_node@U?$pair@$$CBV?$basic_string@DU?$char_traits@D@std@@V?$allocator@D@2@@std@@PAVfms_config_item_t@@@std@@PAX@std@@@std@@YAAAPAU?$_Tree_node@U?$pair@$$CBV?$basic_string@DU?$char_traits@D@std@@V?$allocator@D@2@@std@@PAVfms_config_item_t@@@std@@PAX@0@AAPAU10@@Z 1000bb60 f i fms_config.obj
 0001:0000ab60       ?_Left@?$_Tree_val@U?$_Tree_simple_types@PAVobject_t@@@std@@@std@@SAAAPAU?$_Tree_node@PAVobject_t@@PAX@2@PAU32@@Z 1000bb60 f i data.obj
 0001:0000ab60       ??$forward@AAU?$pair@$$CBHPAVobject_t@@@std@@@std@@YAAAU?$pair@$$CBHPAVobject_t@@@0@AAU10@@Z 1000bb60 f i mfdpage.obj
 0001:0000ab60       ??$forward@AAPAU?$_Tree_node@U?$pair@$$CBHPAVobject_t@@@std@@PAX@std@@@std@@YAAAPAU?$_Tree_node@U?$pair@$$CBHPAVobject_t@@@std@@PAX@0@AAPAU10@@Z 1000bb60 f i mfdpage.obj
 0001:0000ab60       ??$_Kfn@$$CBV?$basic_string@DU?$char_traits@D@std@@V?$allocator@D@2@@std@@M@?$_Tmap_traits@V?$basic_string@DU?$char_traits@D@std@@V?$allocator@D@2@@std@@MU?$less@V?$basic_string@DU?$char_traits@D@std@@V?$allocator@D@2@@std@@@2@V?$allocator@U?$pair@$$CBV?$basic_string@DU?$char_traits@D@std@@V?$allocator@D@2@@std@@M@std@@@2@$0A@@std@@SAABV?$basic_string@DU?$char_traits@D@std@@V?$allocator@D@2@@1@ABU?$pair@$$CBV?$basic_string@DU?$char_traits@D@std@@V?$allocator@D@2@@std@@M@1@@Z 1000bb60 f i mfdpage_fms.obj
 0001:0000ab60       ??$move@AAV?$basic_string@DU?$char_traits@D@std@@V?$allocator@D@2@@std@@@std@@YA$$QAV?$basic_string@DU?$char_traits@D@std@@V?$allocator@D@2@@0@AAV10@@Z 1000bb60 f i tools.obj
 0001:0000ab60       ??$forward@V?$_Tree@V?$_Tmap_traits@V?$basic_string@DU?$char_traits@D@std@@V?$allocator@D@2@@std@@V12@U?$less@V?$basic_string@DU?$char_traits@D@std@@V?$allocator@D@2@@std@@@2@V?$allocator@U?$pair@$$CBV?$basic_string@DU?$char_traits@D@std@@V?$allocator@D@2@@std@@V12@@std@@@2@$0A@@std@@@std@@@std@@YA$$QAV?$_Tree@V?$_Tmap_traits@V?$basic_string@DU?$char_traits@D@std@@V?$allocator@D@2@@std@@V12@U?$less@V?$basic_string@DU?$char_traits@D@std@@V?$allocator@D@2@@std@@@2@V?$allocator@U?$pair@$$CBV?$basic_string@DU?$char_traits@D@std@@V?$allocator@D@2@@std@@V12@@std@@@2@$0A@@std@@@0@AAV10@@Z 1000bb60 f i mfdpage_led.obj
 0001:0000ab60       ??$forward@V?$tuple@ABV?$basic_string@DU?$char_traits@D@std@@V?$allocator@D@2@@std@@@std@@@std@@YA$$QAV?$tuple@ABV?$basic_string@DU?$char_traits@D@std@@V?$allocator@D@2@@std@@@0@AAV10@@Z 1000bb60 f i mfdpage.obj
 0001:0000ab60       ??$forward@AAU?$pair@$$CBV?$basic_string@DU?$char_traits@D@std@@V?$allocator@D@2@@std@@PAVfms_config_item_t@@@std@@@std@@YAAAU?$pair@$$CBV?$basic_string@DU?$char_traits@D@std@@V?$allocator@D@2@@std@@PAVfms_config_item_t@@@0@AAU10@@Z 1000bb60 f i fms_config.obj
 0001:0000ab60       ??$forward@V?$_Tree_iterator@V?$_Tree_val@U?$_Tree_simple_types@U?$pair@$$CBHPAVobject_t@@@std@@@std@@@std@@@std@@@std@@YA$$QAV?$_Tree_iterator@V?$_Tree_val@U?$_Tree_simple_types@U?$pair@$$CBHPAVobject_t@@@std@@@std@@@std@@@0@AAV10@@Z 1000bb60 f i mfdpage.obj
 0001:0000ab60       ??$forward@V?$tuple@$$QAH@std@@@std@@YA$$QAV?$tuple@$$QAH@0@AAV10@@Z 1000bb60 f i mfdpage_fms.obj
 0001:0000ab60       ??$forward@ABH@std@@YAABHABH@Z 1000bb60 f i out_saitek.obj
 0001:0000ab60       ?_Left@?$_Tree_val@U?$_Tree_simple_types@U?$pair@$$CBHM@std@@@std@@@std@@SAAAPAU?$_Tree_node@U?$pair@$$CBHM@std@@PAX@2@PAU32@@Z 1000bb60 f i fms_config.obj
 0001:0000ab60       ??$forward@AAPAU?$_Tree_node@U?$pair@$$CBV?$basic_string@DU?$char_traits@D@std@@V?$allocator@D@2@@std@@V12@@std@@PAX@std@@@std@@YAAAPAU?$_Tree_node@U?$pair@$$CBV?$basic_string@DU?$char_traits@D@std@@V?$allocator@D@2@@std@@V12@@std@@PAX@0@AAPAU10@@Z 1000bb60 f i tools.obj
 0001:0000ab60       ?_Left@?$_Tree_val@U?$_Tree_simple_types@U?$pair@$$CBV?$basic_string@DU?$char_traits@D@std@@V?$allocator@D@2@@std@@V12@@std@@@std@@@std@@SAAAPAU?$_Tree_node@U?$pair@$$CBV?$basic_string@DU?$char_traits@D@std@@V?$allocator@D@2@@std@@V12@@std@@PAX@2@PAU32@@Z 1000bb60 f i tools.obj
 0001:0000ab60       ??$forward@AAV?$_Tree_const_iterator@V?$_Tree_val@U?$_Tree_simple_types@PAVmfdpage_t@@@std@@@std@@@std@@@std@@YAAAV?$_Tree_const_iterator@V?$_Tree_val@U?$_Tree_simple_types@PAVmfdpage_t@@@std@@@std@@@0@AAV10@@Z 1000bb60 f i in.obj
 0001:0000ab60       ?_Kfn@?$_Tset_traits@PAVobject_t@@U?$less@PAVobject_t@@@std@@V?$allocator@PAVobject_t@@@3@$0A@@std@@SAABQAVobject_t@@ABQAV3@@Z 1000bb60 f i data.obj
 0001:0000ab60       ??$move@AAV?$tuple@$$QAV?$basic_string@DU?$char_traits@D@std@@V?$allocator@D@2@@std@@@std@@@std@@YA$$QAV?$tuple@$$QAV?$basic_string@DU?$char_traits@D@std@@V?$allocator@D@2@@std@@@0@AAV10@@Z 1000bb60 f i tools.obj
 0001:0000ab60       ??$forward@V?$_Tree_iterator@V?$_Tree_val@U?$_Tree_simple_types@U?$pair@$$CBHPAVfms_fp_item_t@@@std@@@std@@@std@@@std@@@std@@YA$$QAV?$_Tree_iterator@V?$_Tree_val@U?$_Tree_simple_types@U?$pair@$$CBHPAVfms_fp_item_t@@@std@@@std@@@std@@@0@AAV10@@Z 1000bb60 f i mfdpage_fms.obj
 0001:0000ab60       ?_Left@?$_Tree_val@U?$_Tree_simple_types@U?$pair@$$CBV?$basic_string@DU?$char_traits@D@std@@V?$allocator@D@2@@std@@PAVfms_fp_item_t@@@std@@@std@@@std@@SAAAPAU?$_Tree_node@U?$pair@$$CBV?$basic_string@DU?$char_traits@D@std@@V?$allocator@D@2@@std@@PAVfms_fp_item_t@@@std@@PAX@2@PAU32@@Z 1000bb60 f i fms_fp.obj
 0001:0000ab60       ??$forward@AAPAU?$_Tree_node@U?$pair@$$CBV?$basic_string@DU?$char_traits@D@std@@V?$allocator@D@2@@std@@D@std@@PAX@std@@@std@@YAAAPAU?$_Tree_node@U?$pair@$$CBV?$basic_string@DU?$char_traits@D@std@@V?$allocator@D@2@@std@@D@std@@PAX@0@AAPAU10@@Z 1000bb60 f i mfdpage.obj
 0001:0000ab60       ??$forward@_N@std@@YA$$QA_NAA_N@Z 1000bb60 f i tools.obj
 0001:0000ab60       ??$_Kfn@$$CBHM@?$_Tmap_traits@HMU?$less@H@std@@V?$allocator@U?$pair@$$CBHM@std@@@2@$0A@@std@@SAABHABU?$pair@$$CBHM@1@@Z 1000bb60 f i fms_config.obj
 0001:0000ab60       ??$addressof@PAU?$_Tree_node@U?$pair@$$CBV?$basic_string@DU?$char_traits@D@std@@V?$allocator@D@2@@std@@H@std@@PAX@std@@@std@@YAPAPAU?$_Tree_node@U?$pair@$$CBV?$basic_string@DU?$char_traits@D@std@@V?$allocator@D@2@@std@@H@std@@PAX@0@AAPAU10@@Z 1000bb60 f i mfdpage.obj
 0001:0000ab60       ??$forward@V?$_Tree_iterator@V?$_Tree_val@U?$_Tree_simple_types@U?$pair@$$CBV?$basic_string@DU?$char_traits@D@std@@V?$allocator@D@2@@std@@PAVfms_fp_item_t@@@std@@@std@@@std@@@std@@@std@@YA$$QAV?$_Tree_iterator@V?$_Tree_val@U?$_Tree_simple_types@U?$pair@$$CBV?$basic_string@DU?$char_traits@D@std@@V?$allocator@D@2@@std@@PAVfms_fp_item_t@@@std@@@std@@@std@@@0@AAV10@@Z 1000bb60 f i fms_fp.obj
 0001:0000ab60       ??$forward@V?$_Tree_iterator@V?$_Tree_val@U?$_Tree_simple_types@U?$pair@$$CBV?$basic_string@DU?$char_traits@D@std@@V?$allocator@D@2@@std@@M@std@@@std@@@std@@@std@@@std@@YA$$QAV?$_Tree_iterator@V?$_Tree_val@U?$_Tree_simple_types@U?$pair@$$CBV?$basic_string@DU?$char_traits@D@std@@V?$allocator@D@2@@std@@M@std@@@std@@@std@@@0@AAV10@@Z 1000bb60 f i mfdpage_fms.obj
 0001:0000ab60       ??$forward@AAPAD@std@@YAAAPADAAPAD@Z 1000bb60 f i main.obj
 0001:0000ab60       ??$forward@V?$_Tree_iterator@V?$_Tree_val@U?$_Tree_simple_types@U?$pair@$$CBV?$basic_string@DU?$char_traits@D@std@@V?$allocator@D@2@@std@@D@std@@@std@@@std@@@std@@@std@@YA$$QAV?$_Tree_iterator@V?$_Tree_val@U?$_Tree_simple_types@U?$pair@$$CBV?$basic_string@DU?$char_traits@D@std@@V?$allocator@D@2@@std@@D@std@@@std@@@std@@@0@AAV10@@Z 1000bb60 f i mfdpage.obj
 0001:0000ab60       ??$addressof@U?$pair@$$CBHPAVfms_fp_item_t@@@std@@@std@@YAPAU?$pair@$$CBHPAVfms_fp_item_t@@@0@AAU10@@Z 1000bb60 f i mfdpage_fms.obj
 0001:0000ab60       ??$forward@AAV?$_Tree_iterator@V?$_Tree_val@U?$_Tree_simple_types@U?$pair@$$CBHV?$basic_string@DU?$char_traits@D@std@@V?$allocator@D@2@@std@@@std@@@std@@@std@@@std@@@std@@YAAAV?$_Tree_iterator@V?$_Tree_val@U?$_Tree_simple_types@U?$pair@$$CBHV?$basic_string@DU?$char_traits@D@std@@V?$allocator@D@2@@std@@@std@@@std@@@std@@@0@AAV10@@Z 1000bb60 f i out_saitek.obj
 0001:0000ab60       ??$forward@V?$_Tree_const_iterator@V?$_Tree_val@U?$_Tree_simple_types@PAVobject_t@@@std@@@std@@@std@@@std@@YA$$QAV?$_Tree_const_iterator@V?$_Tree_val@U?$_Tree_simple_types@PAVobject_t@@@std@@@std@@@0@AAV10@@Z 1000bb60 f i data.obj
 0001:0000ab60       ??$forward@AAV?$_Tree_const_iterator@V?$_Tree_val@U?$_Tree_simple_types@PAVobject_t@@@std@@@std@@@std@@@std@@YAAAV?$_Tree_const_iterator@V?$_Tree_val@U?$_Tree_simple_types@PAVobject_t@@@std@@@std@@@0@AAV10@@Z 1000bb60 f i data.obj
 0001:0000ab60       ??$forward@AAPAU?$_Tree_node@PAVobject_t@@PAX@std@@@std@@YAAAPAU?$_Tree_node@PAVobject_t@@PAX@0@AAPAU10@@Z 1000bb60 f i data.obj
 0001:0000ab60       ??$forward@ABQAVlistener_t@@@std@@YAABQAVlistener_t@@ABQAV1@@Z 1000bb60 f i data.obj
 0001:0000ab60       ??$addressof@PAVmfdpage_t@@@std@@YAPAPAVmfdpage_t@@AAPAV1@@Z 1000bb60 f i in.obj
 0001:0000ab60       ??$addressof@PAU?$_Tree_node@U?$pair@$$CBV?$basic_string@DU?$char_traits@D@std@@V?$allocator@D@2@@std@@PAVfms_config_item_t@@@std@@PAX@std@@@std@@YAPAPAU?$_Tree_node@U?$pair@$$CBV?$basic_string@DU?$char_traits@D@std@@V?$allocator@D@2@@std@@PAVfms_config_item_t@@@std@@PAX@0@AAPAU10@@Z 1000bb60 f i fms_config.obj
 0001:0000ab60       ??$addressof@PAU?$_Tree_node@U?$pair@$$CBHM@std@@PAX@std@@@std@@YAPAPAU?$_Tree_node@U?$pair@$$CBHM@std@@PAX@0@AAPAU10@@Z 1000bb60 f i fms_config.obj
 0001:0000ab60       ?_Left@?$_Tree_val@U?$_Tree_simple_types@U?$pair@$$CBHPAVfms_fp_item_t@@@std@@@std@@@std@@SAAAPAU?$_Tree_node@U?$pair@$$CBHPAVfms_fp_item_t@@@std@@PAX@2@PAU32@@Z 1000bb60 f i mfdpage_fms.obj
 0001:0000ab60       ??$forward@V?$_Tree_iterator@V?$_Tree_val@U?$_Tree_simple_types@U?$pair@$$CBV?$basic_string@DU?$char_traits@D@std@@V?$allocator@D@2@@std@@V12@@std@@@std@@@std@@@std@@@std@@YA$$QAV?$_Tree_iterator@V?$_Tree_val@U?$_Tree_simple_types@U?$pair@$$CBV?$basic_string@DU?$char_traits@D@std@@V?$allocator@D@2@@std@@V12@@std@@@std@@@std@@@0@AAV10@@Z 1000bb60 f i tools.obj
 0001:0000ab60       ??$addressof@PAU?$_Tree_node@U?$pair@$$CBV?$basic_string@DU?$char_traits@D@std@@V?$allocator@D@2@@std@@V12@@std@@PAX@std@@@std@@YAPAPAU?$_Tree_node@U?$pair@$$CBV?$basic_string@DU?$char_traits@D@std@@V?$allocator@D@2@@std@@V12@@std@@PAX@0@AAPAU10@@Z 1000bb60 f i tools.obj
 0001:0000ab60       ??$_Kfn@$$CBHV?$basic_string@DU?$char_traits@D@std@@V?$allocator@D@2@@std@@@?$_Tmap_traits@HV?$basic_string@DU?$char_traits@D@std@@V?$allocator@D@2@@std@@U?$less@H@2@V?$allocator@U?$pair@$$CBHV?$basic_string@DU?$char_traits@D@std@@V?$allocator@D@2@@std@@@std@@@2@$0A@@std@@SAABHABU?$pair@$$CBHV?$basic_string@DU?$char_traits@D@std@@V?$allocator@D@2@@std@@@1@@Z 1000bb60 f i out_saitek.obj
 0001:0000ab60       ??$_Move@AAI@std@@YA$$QAIAAI@Z 1000bb60 f i mfdpage_led.obj
 0001:0000ab60       ??$addressof@PAVlistener_t@@@std@@YAPAPAVlistener_t@@AAPAV1@@Z 1000bb60 f i data.obj
 0001:0000ab60       ?_Left@?$_Tree_val@U?$_Tree_simple_types@U?$pair@$$CBV?$basic_string@DU?$char_traits@D@std@@V?$allocator@D@2@@std@@M@std@@@std@@@std@@SAAAPAU?$_Tree_node@U?$pair@$$CBV?$basic_string@DU?$char_traits@D@std@@V?$allocator@D@2@@std@@M@std@@PAX@2@PAU32@@Z 1000bb60 f i mfdpage_fms.obj
 0001:0000ab60       ??$addressof@U?$pair@$$CBHM@std@@@std@@YAPAU?$pair@$$CBHM@0@AAU10@@Z 1000bb60 f i fms_config.obj
 0001:0000ab60       ??$_Kfn@$$CBV?$basic_string@DU?$char_traits@D@std@@V?$allocator@D@2@@std@@PAVfms_config_item_t@@@?$_Tmap_traits@V?$basic_string@DU?$char_traits@D@std@@V?$allocator@D@2@@std@@PAVfms_config_item_t@@U?$less@V?$basic_string@DU?$char_traits@D@std@@V?$allocator@D@2@@std@@@2@V?$allocator@U?$pair@$$CBV?$basic_string@DU?$char_traits@D@std@@V?$allocator@D@2@@std@@PAVfms_config_item_t@@@std@@@2@$0A@@std@@SAABV?$basic_string@DU?$char_traits@D@std@@V?$allocator@D@2@@1@ABU?$pair@$$CBV?$basic_string@DU?$char_traits@D@std@@V?$allocator@D@2@@std@@PAVfms_config_item_t@@@1@@Z 1000bb60 f i fms_config.obj
 0001:0000ab60       ??$forward@AAV?$_Tree_iterator@V?$_Tree_val@U?$_Tree_simple_types@U?$pair@$$CBV?$basic_string@DU?$char_traits@D@std@@V?$allocator@D@2@@std@@M@std@@@std@@@std@@@std@@@std@@YAAAV?$_Tree_iterator@V?$_Tree_val@U?$_Tree_simple_types@U?$pair@$$CBV?$basic_string@DU?$char_traits@D@std@@V?$allocator@D@2@@std@@M@std@@@std@@@std@@@0@AAV10@@Z 1000bb60 f i mfdpage_fms.obj
 0001:0000ab60       ??$addressof@PAU?$_Tree_node@PAVlistener_t@@PAX@std@@@std@@YAPAPAU?$_Tree_node@PAVlistener_t@@PAX@0@AAPAU10@@Z 1000bb60 f i data.obj
 0001:0000ab60       ??$forward@AAV?$_Tree_iterator@V?$_Tree_val@U?$_Tree_simple_types@U?$pair@$$CBV?$basic_string@DU?$char_traits@D@std@@V?$allocator@D@2@@std@@D@std@@@std@@@std@@@std@@@std@@YAAAV?$_Tree_iterator@V?$_Tree_val@U?$_Tree_simple_types@U?$pair@$$CBV?$basic_string@DU?$char_traits@D@std@@V?$allocator@D@2@@std@@D@std@@@std@@@std@@@0@AAV10@@Z 1000bb60 f i mfdpage.obj
 0001:0000ab60       ??$forward@AAU?$pair@$$CBHM@std@@@std@@YAAAU?$pair@$$CBHM@0@AAU10@@Z 1000bb60 f i fms_config.obj
 0001:0000ab60       ??$forward@AAPAU?$_Tree_node@PAVmfdpage_t@@PAX@std@@@std@@YAAAPAU?$_Tree_node@PAVmfdpage_t@@PAX@0@AAPAU10@@Z 1000bb60 f i in.obj
 0001:0000ab60       ??$forward@AAPAU?$_Tree_node@U?$pair@$$CBV?$basic_string@DU?$char_traits@D@std@@V?$allocator@D@2@@std@@H@std@@PAX@std@@@std@@YAAAPAU?$_Tree_node@U?$pair@$$CBV?$basic_string@DU?$char_traits@D@std@@V?$allocator@D@2@@std@@H@std@@PAX@0@AAPAU10@@Z 1000bb60 f i mfdpage.obj
 0001:0000ab60       ??$forward@AAU?$pair@$$CBV?$basic_string@DU?$char_traits@D@std@@V?$allocator@D@2@@std@@D@std@@@std@@YAAAU?$pair@$$CBV?$basic_string@DU?$char_traits@D@std@@V?$allocator@D@2@@std@@D@0@AAU10@@Z 1000bb60 f i mfdpage.obj
 0001:0000ab60       ??$forward@ABQAVmfdpage_t@@@std@@YAABQAVmfdpage_t@@ABQAV1@@Z 1000bb60 f i in.obj
 0001:0000ab60       ??$_Kfn@$$CBHPAVobject_t@@@?$_Tmap_traits@HPAVobject_t@@U?$less@H@std@@V?$allocator@U?$pair@$$CBHPAVobject_t@@@std@@@3@$0A@@std@@SAABHABU?$pair@$$CBHPAVobject_t@@@1@@Z 1000bb60 f i mfdpage.obj
 0001:0000ab60       ??$forward@V?$tuple@$$QAV?$basic_string@DU?$char_traits@D@std@@V?$allocator@D@2@@std@@@std@@@std@@YA$$QAV?$tuple@$$QAV?$basic_string@DU?$char_traits@D@std@@V?$allocator@D@2@@std@@@0@AAV10@@Z 1000bb60 f i tools.obj
 0001:0000ab60       ??$addressof@U?$pair@$$CBHV?$basic_string@DU?$char_traits@D@std@@V?$allocator@D@2@@std@@@std@@@std@@YAPAU?$pair@$$CBHV?$basic_string@DU?$char_traits@D@std@@V?$allocator@D@2@@std@@@0@AAU10@@Z 1000bb60 f i out_saitek.obj
 0001:0000ab60       ??$addressof@PAVobject_t@@@std@@YAPAPAVobject_t@@AAPAV1@@Z 1000bb60 f i data.obj
 0001:0000ab60       ??$forward@AAU?$pair@$$CBV?$basic_string@DU?$char_traits@D@std@@V?$allocator@D@2@@std@@M@std@@@std@@YAAAU?$pair@$$CBV?$basic_string@DU?$char_traits@D@std@@V?$allocator@D@2@@std@@M@0@AAU10@@Z 1000bb60 f i mfdpage_fms.obj
 0001:0000ab60       ??$forward@V?$_Tree_iterator@V?$_Tree_val@U?$_Tree_simple_types@U?$pair@$$CBV?$basic_string@DU?$char_traits@D@std@@V?$allocator@D@2@@std@@PAVfms_config_item_t@@@std@@@std@@@std@@@std@@@std@@YA$$QAV?$_Tree_iterator@V?$_Tree_val@U?$_Tree_simple_types@U?$pair@$$CBV?$basic_string@DU?$char_traits@D@std@@V?$allocator@D@2@@std@@PAVfms_config_item_t@@@std@@@std@@@std@@@0@AAV10@@Z 1000bb60 f i fms_config.obj
 0001:0000ab60       ?_Left@?$_Tree_val@U?$_Tree_simple_types@U?$pair@$$CBHV?$basic_string@DU?$char_traits@D@std@@V?$allocator@D@2@@std@@@std@@@std@@@std@@SAAAPAU?$_Tree_node@U?$pair@$$CBHV?$basic_string@DU?$char_traits@D@std@@V?$allocator@D@2@@std@@@std@@PAX@2@PAU32@@Z 1000bb60 f i out_saitek.obj
 0001:0000ab60       ?_Kfn@?$_Tset_traits@PAVlistener_t@@U?$less@PAVlistener_t@@@std@@V?$allocator@PAVlistener_t@@@3@$0A@@std@@SAABQAVlistener_t@@ABQAV3@@Z 1000bb60 f i data.obj
 0001:0000ab60       ??$forward@AAV?$_Tree_const_iterator@V?$_Tree_val@U?$_Tree_simple_types@PAVlistener_t@@@std@@@std@@@std@@@std@@YAAAV?$_Tree_const_iterator@V?$_Tree_val@U?$_Tree_simple_types@PAVlistener_t@@@std@@@std@@@0@AAV10@@Z 1000bb60 f i data.obj
 0001:0000ab60       ??$addressof@D@std@@YAPADAAD@Z 1000bb60 f i main.obj
 0001:0000ab70       ??0?$_Tree_comp@$0A@V?$_Tset_traits@PAVmfdpage_t@@U?$less@PAVmfdpage_t@@@std@@V?$allocator@PAVmfdpage_t@@@3@$0A@@std@@@std@@QAE@ABU?$less@PAVmfdpage_t@@@1@ABV?$allocator@PAVmfdpage_t@@@1@@Z 1000bb70 f i in.obj
 0001:0000ab70       ??0?$_Tree_comp@$0A@V?$_Tset_traits@PAVlistener_t@@U?$less@PAVlistener_t@@@std@@V?$allocator@PAVlistener_t@@@3@$0A@@std@@@std@@QAE@ABU?$less@PAVlistener_t@@@1@ABV?$allocator@PAVlistener_t@@@1@@Z 1000bb70 f i data.obj
 0001:0000ab70       ??0?$_Tree_comp@$0A@V?$_Tset_traits@PAVobject_t@@U?$less@PAVobject_t@@@std@@V?$allocator@PAVobject_t@@@3@$0A@@std@@@std@@QAE@ABU?$less@PAVobject_t@@@1@ABV?$allocator@PAVobject_t@@@1@@Z 1000bb70 f i data.obj
 0001:0000ab90       ??0?$allocator@U?$pair@$$CBV?$basic_string@DU?$char_traits@D@std@@V?$allocator@D@2@@std@@V12@@std@@@std@@QAE@XZ 1000bb90 f i mfdpage_led.obj
 0001:0000ab90       ??0?$allocator@U?$pair@$$CBV?$basic_string@DU?$char_traits@D@std@@V?$allocator@D@2@@std@@D@std@@@std@@QAE@XZ 1000bb90 f i mfdpage_fms.obj
 0001:0000ab90       ??0?$allocator@D@std@@QAE@XZ 1000bb90 f i main.obj
 0001:0000ab90       ??0?$allocator@U?$_Tree_node@U?$pair@$$CBV?$basic_string@DU?$char_traits@D@std@@V?$allocator@D@2@@std@@V12@@std@@PAX@std@@@std@@QAE@XZ 1000bb90 f i tools.obj
 0001:0000ab90       ??0?$allocator@U?$pair@$$CBHV?$basic_string@DU?$char_traits@D@std@@V?$allocator@D@2@@std@@@std@@@std@@QAE@XZ 1000bb90 f i out_saitek.obj
 0001:0000ab90       ??0?$allocator@U?$_Tree_node@PAVmfdpage_t@@PAX@std@@@std@@QAE@XZ 1000bb90 f i in.obj
 0001:0000ab90       ??0?$allocator@U?$_Tree_node@PAVlistener_t@@PAX@std@@@std@@QAE@XZ 1000bb90 f i data.obj
 0001:0000ab90       ??0?$allocator@U?$pair@$$CBV?$basic_string@DU?$char_traits@D@std@@V?$allocator@D@2@@std@@PAVfms_fp_item_t@@@std@@@std@@QAE@XZ 1000bb90 f i fms_fp.obj
 0001:0000ab90       ??0?$allocator@PAVmfdpage_t@@@std@@QAE@XZ 1000bb90 f i in.obj
 0001:0000ab90       ??0?$allocator@U?$pair@$$CBHPAVfms_fp_item_t@@@std@@@std@@QAE@XZ 1000bb90 f i fms_fp.obj
 0001:0000ab90       ?_Get_rest@?$tuple@$$QAV?$basic_string@DU?$char_traits@D@std@@V?$allocator@D@2@@std@@@std@@QAEAAV?$tuple@$$$V@2@XZ 1000bb90 f i tools.obj
 0001:0000ab90       ??0?$allocator@U?$_Tree_node@U?$pair@$$CBV?$basic_string@DU?$char_traits@D@std@@V?$allocator@D@2@@std@@D@std@@PAX@std@@@std@@QAE@XZ 1000bb90 f i mfdpage.obj
 0001:0000ab90       ??0?$allocator@U?$pair@$$CBHPAVobject_t@@@std@@@std@@QAE@XZ 1000bb90 f i mfdpage.obj
 0001:0000ab90       ??0?$allocator@U?$pair@$$CBV?$basic_string@DU?$char_traits@D@std@@V?$allocator@D@2@@std@@M@std@@@std@@QAE@XZ 1000bb90 f i fms_config.obj
 0001:0000ab90       ??0?$allocator@U?$pair@$$CBHM@std@@@std@@QAE@XZ 1000bb90 f i fms_config.obj
 0001:0000ab90       ??0?$allocator@U?$_Tree_node@U?$pair@$$CBV?$basic_string@DU?$char_traits@D@std@@V?$allocator@D@2@@std@@PAVfms_config_item_t@@@std@@PAX@std@@@std@@QAE@XZ 1000bb90 f i fms_config.obj
 0001:0000ab90       ?_Get_rest@?$tuple@ABH@std@@QAEAAV?$tuple@$$$V@2@XZ 1000bb90 f i out_saitek.obj
 0001:0000ab90       ??0?$allocator@U?$_Tree_node@U?$pair@$$CBHPAVfms_fp_item_t@@@std@@PAX@std@@@std@@QAE@XZ 1000bb90 f i mfdpage_fms.obj
 0001:0000ab90       ??0?$allocator@U?$_Tree_node@U?$pair@$$CBHM@std@@PAX@std@@@std@@QAE@XZ 1000bb90 f i fms_config.obj
 0001:0000ab90       ??0?$allocator@U?$_Tree_node@U?$pair@$$CBHV?$basic_string@DU?$char_traits@D@std@@V?$allocator@D@2@@std@@@std@@PAX@std@@@std@@QAE@XZ 1000bb90 f i out_saitek.obj
 0001:0000ab90       ??0?$allocator@U?$pair@$$CBV?$basic_string@DU?$char_traits@D@std@@V?$allocator@D@2@@std@@PAVfms_config_item_t@@@std@@@std@@QAE@XZ 1000bb90 f i fms_config.obj
 0001:0000ab90       ??0?$allocator@PAVlistener_t@@@std@@QAE@XZ 1000bb90 f i data.obj
 0001:0000ab90       ??0?$allocator@U?$_Tree_node@U?$pair@$$CBV?$basic_string@DU?$char_traits@D@std@@V?$allocator@D@2@@std@@H@std@@PAX@std@@@std@@QAE@XZ 1000bb90 f i mfdpage.obj
 0001:0000ab90       ??0?$allocator@U?$_Tree_node@U?$pair@$$CBV?$basic_string@DU?$char_traits@D@std@@V?$allocator@D@2@@std@@M@std@@PAX@std@@@std@@QAE@XZ 1000bb90 f i mfdpage_fms.obj
 0001:0000ab90       ??0?$allocator@U?$pair@$$CBV?$basic_string@DU?$char_traits@D@std@@V?$allocator@D@2@@std@@H@std@@@std@@QAE@XZ 1000bb90 f i mfdpage.obj
 0001:0000ab90       ??0?$allocator@U?$_Tree_node@U?$pair@$$CBHPAVobject_t@@@std@@PAX@std@@@std@@QAE@XZ 1000bb90 f i mfdpage.obj
 0001:0000ab90       ??0?$allocator@U?$_Tree_node@U?$pair@$$CBV?$basic_string@DU?$char_traits@D@std@@V?$allocator@D@2@@std@@PAVfms_fp_item_t@@@std@@PAX@std@@@std@@QAE@XZ 1000bb90 f i fms_fp.obj
 0001:0000ab90       ?_Get_rest@?$tuple@ABV?$basic_string@DU?$char_traits@D@std@@V?$allocator@D@2@@std@@@std@@QAEAAV?$tuple@$$$V@2@XZ 1000bb90 f i mfdpage.obj
 0001:0000ab90       ??0_Ignore@std@@QAE@XZ     1000bb90 f i main.obj
 0001:0000ab90       ??0?$allocator@U?$_Tree_node@PAVobject_t@@PAX@std@@@std@@QAE@XZ 1000bb90 f i data.obj
 0001:0000ab90       ??0?$tuple@$$$V@std@@QAE@XZ 1000bb90 f i tools.obj
 0001:0000ab90       ?_Get_rest@?$tuple@$$QAH@std@@QAEAAV?$tuple@$$$V@2@XZ 1000bb90 f i mfdpage_fms.obj
 0001:0000ab90       ??0?$allocator@PAVobject_t@@@std@@QAE@XZ 1000bb90 f i data.obj
 0001:0000aba0       ??0?$set@PAVmfdpage_t@@U?$less@PAVmfdpage_t@@@std@@V?$allocator@PAVmfdpage_t@@@3@@std@@QAE@XZ 1000bba0 f i in.obj
 0001:0000aba0       ??0?$set@PAVlistener_t@@U?$less@PAVlistener_t@@@std@@V?$allocator@PAVlistener_t@@@3@@std@@QAE@XZ 1000bba0 f i data.obj
 0001:0000aba0       ??0?$set@PAVobject_t@@U?$less@PAVobject_t@@@std@@V?$allocator@PAVobject_t@@@3@@std@@QAE@XZ 1000bba0 f i data.obj
 0001:0000abd0       ??D?$_Tree_const_iterator@V?$_Tree_val@U?$_Tree_simple_types@U?$pair@$$CBV?$basic_string@DU?$char_traits@D@std@@V?$allocator@D@2@@std@@PAVfms_fp_item_t@@@std@@@std@@@std@@@std@@QBEABU?$pair@$$CBV?$basic_string@DU?$char_traits@D@std@@V?$allocator@D@2@@std@@PAVfms_fp_item_t@@@1@XZ 1000bbd0 f i fms_fp.obj
 0001:0000abd0       ??D?$_Tree_const_iterator@V?$_Tree_val@U?$_Tree_simple_types@PAVlistener_t@@@std@@@std@@@std@@QBEABQAVlistener_t@@XZ 1000bbd0 f i data.obj
 0001:0000abd0       ??D?$_Tree_const_iterator@V?$_Tree_val@U?$_Tree_simple_types@PAVobject_t@@@std@@@std@@@std@@QBEABQAVobject_t@@XZ 1000bbd0 f i data.obj
 0001:0000abd0       ??D?$_Tree_const_iterator@V?$_Tree_val@U?$_Tree_simple_types@U?$pair@$$CBHM@std@@@std@@@std@@@std@@QBEABU?$pair@$$CBHM@1@XZ 1000bbd0 f i fms_config.obj
 0001:0000abd0       ??D?$_Tree_const_iterator@V?$_Tree_val@U?$_Tree_simple_types@U?$pair@$$CBV?$basic_string@DU?$char_traits@D@std@@V?$allocator@D@2@@std@@V12@@std@@@std@@@std@@@std@@QBEABU?$pair@$$CBV?$basic_string@DU?$char_traits@D@std@@V?$allocator@D@2@@std@@V12@@1@XZ 1000bbd0 f i tools.obj
 0001:0000abd0       ??D?$_Tree_const_iterator@V?$_Tree_val@U?$_Tree_simple_types@U?$pair@$$CBHPAVobject_t@@@std@@@std@@@std@@@std@@QBEABU?$pair@$$CBHPAVobject_t@@@1@XZ 1000bbd0 f i mfdpage.obj
 0001:0000abd0       ??D?$_Tree_const_iterator@V?$_Tree_val@U?$_Tree_simple_types@U?$pair@$$CBV?$basic_string@DU?$char_traits@D@std@@V?$allocator@D@2@@std@@D@std@@@std@@@std@@@std@@QBEABU?$pair@$$CBV?$basic_string@DU?$char_traits@D@std@@V?$allocator@D@2@@std@@D@1@XZ 1000bbd0 f i mfdpage.obj
 0001:0000abd0       ??D?$_Tree_const_iterator@V?$_Tree_val@U?$_Tree_simple_types@PAVmfdpage_t@@@std@@@std@@@std@@QBEABQAVmfdpage_t@@XZ 1000bbd0 f i in.obj
 0001:0000abd0       ??D?$_Tree_const_iterator@V?$_Tree_val@U?$_Tree_simple_types@U?$pair@$$CBV?$basic_string@DU?$char_traits@D@std@@V?$allocator@D@2@@std@@H@std@@@std@@@std@@@std@@QBEABU?$pair@$$CBV?$basic_string@DU?$char_traits@D@std@@V?$allocator@D@2@@std@@H@1@XZ 1000bbd0 f i mfdpage.obj
 0001:0000abd0       ??D?$_Tree_const_iterator@V?$_Tree_val@U?$_Tree_simple_types@U?$pair@$$CBHV?$basic_string@DU?$char_traits@D@std@@V?$allocator@D@2@@std@@@std@@@std@@@std@@@std@@QBEABU?$pair@$$CBHV?$basic_string@DU?$char_traits@D@std@@V?$allocator@D@2@@std@@@1@XZ 1000bbd0 f i out_saitek.obj
 0001:0000abd0       ??D?$_Tree_const_iterator@V?$_Tree_val@U?$_Tree_simple_types@U?$pair@$$CBV?$basic_string@DU?$char_traits@D@std@@V?$allocator@D@2@@std@@M@std@@@std@@@std@@@std@@QBEABU?$pair@$$CBV?$basic_string@DU?$char_traits@D@std@@V?$allocator@D@2@@std@@M@1@XZ 1000bbd0 f i mfdpage_fms.obj
 0001:0000abd0       ??D?$_Tree_const_iterator@V?$_Tree_val@U?$_Tree_simple_types@U?$pair@$$CBHPAVfms_fp_item_t@@@std@@@std@@@std@@@std@@QBEABU?$pair@$$CBHPAVfms_fp_item_t@@@1@XZ 1000bbd0 f i mfdpage_fms.obj
 0001:0000abd0       ??D?$_Tree_const_iterator@V?$_Tree_val@U?$_Tree_simple_types@U?$pair@$$CBV?$basic_string@DU?$char_traits@D@std@@V?$allocator@D@2@@std@@PAVfms_config_item_t@@@std@@@std@@@std@@@std@@QBEABU?$pair@$$CBV?$basic_string@DU?$char_traits@D@std@@V?$allocator@D@2@@std@@PAVfms_config_item_t@@@1@XZ 1000bbd0 f i fms_config.obj
 0001:0000abf0       ?_Buynode0@?$_Tree_buy@PAVmfdpage_t@@V?$allocator@PAVmfdpage_t@@@std@@@std@@QAEPAU?$_Tree_node@PAVmfdpage_t@@PAX@2@XZ 1000bbf0 f i in.obj
 0001:0000abf0       ?_Buynode0@?$_Tree_buy@PAVlistener_t@@V?$allocator@PAVlistener_t@@@std@@@std@@QAEPAU?$_Tree_node@PAVlistener_t@@PAX@2@XZ 1000bbf0 f i data.obj
 0001:0000abf0       ?_Buynode0@?$_Tree_buy@PAVobject_t@@V?$allocator@PAVobject_t@@@std@@@std@@QAEPAU?$_Tree_node@PAVobject_t@@PAX@2@XZ 1000bbf0 f i data.obj
 0001:0000ad20       ?_Isnil@?$_Tree_val@U?$_Tree_simple_types@U?$pair@$$CBHPAVfms_fp_item_t@@@std@@@std@@@std@@SAAADPAU?$_Tree_node@U?$pair@$$CBHPAVfms_fp_item_t@@@std@@PAX@2@@Z 1000bd20 f i mfdpage_fms.obj
 0001:0000ad20       ?_Isnil@?$_Tree_val@U?$_Tree_simple_types@U?$pair@$$CBHV?$basic_string@DU?$char_traits@D@std@@V?$allocator@D@2@@std@@@std@@@std@@@std@@SAAADPAU?$_Tree_node@U?$pair@$$CBHV?$basic_string@DU?$char_traits@D@std@@V?$allocator@D@2@@std@@@std@@PAX@2@@Z 1000bd20 f i out_saitek.obj
 0001:0000ad20       ?_Isnil@?$_Tree_val@U?$_Tree_simple_types@U?$pair@$$CBV?$basic_string@DU?$char_traits@D@std@@V?$allocator@D@2@@std@@H@std@@@std@@@std@@SAAADPAU?$_Tree_node@U?$pair@$$CBV?$basic_string@DU?$char_traits@D@std@@V?$allocator@D@2@@std@@H@std@@PAX@2@@Z 1000bd20 f i mfdpage.obj
 0001:0000ad20       ?_Isnil@?$_Tree_val@U?$_Tree_simple_types@U?$pair@$$CBHM@std@@@std@@@std@@SAAADPAU?$_Tree_node@U?$pair@$$CBHM@std@@PAX@2@@Z 1000bd20 f i fms_config.obj
 0001:0000ad20       ?_Isnil@?$_Tree_val@U?$_Tree_simple_types@U?$pair@$$CBV?$basic_string@DU?$char_traits@D@std@@V?$allocator@D@2@@std@@M@std@@@std@@@std@@SAAADPAU?$_Tree_node@U?$pair@$$CBV?$basic_string@DU?$char_traits@D@std@@V?$allocator@D@2@@std@@M@std@@PAX@2@@Z 1000bd20 f i mfdpage_fms.obj
 0001:0000ad20       ?_Isnil@?$_Tree_val@U?$_Tree_simple_types@PAVmfdpage_t@@@std@@@std@@SAAADPAU?$_Tree_node@PAVmfdpage_t@@PAX@2@@Z 1000bd20 f i in.obj
 0001:0000ad20       ?_Isnil@?$_Tree_val@U?$_Tree_simple_types@U?$pair@$$CBV?$basic_string@DU?$char_traits@D@std@@V?$allocator@D@2@@std@@PAVfms_fp_item_t@@@std@@@std@@@std@@SAAADPAU?$_Tree_node@U?$pair@$$CBV?$basic_string@DU?$char_traits@D@std@@V?$allocator@D@2@@std@@PAVfms_fp_item_t@@@std@@PAX@2@@Z 1000bd20 f i fms_fp.obj
 0001:0000ad20       ?_Isnil@?$_Tree_val@U?$_Tree_simple_types@PAVlistener_t@@@std@@@std@@SAAADPAU?$_Tree_node@PAVlistener_t@@PAX@2@@Z 1000bd20 f i data.obj
 0001:0000ad20       ?_Isnil@?$_Tree_val@U?$_Tree_simple_types@U?$pair@$$CBV?$basic_string@DU?$char_traits@D@std@@V?$allocator@D@2@@std@@PAVfms_config_item_t@@@std@@@std@@@std@@SAAADPAU?$_Tree_node@U?$pair@$$CBV?$basic_string@DU?$char_traits@D@std@@V?$allocator@D@2@@std@@PAVfms_config_item_t@@@std@@PAX@2@@Z 1000bd20 f i fms_config.obj
 0001:0000ad20       ?_Isnil@?$_Tree_val@U?$_Tree_simple_types@U?$pair@$$CBV?$basic_string@DU?$char_traits@D@std@@V?$allocator@D@2@@std@@V12@@std@@@std@@@std@@SAAADPAU?$_Tree_node@U?$pair@$$CBV?$basic_string@DU?$char_traits@D@std@@V?$allocator@D@2@@std@@V12@@std@@PAX@2@@Z 1000bd20 f i tools.obj
 0001:0000ad20       ?_Isnil@?$_Tree_val@U?$_Tree_simple_types@PAVobject_t@@@std@@@std@@SAAADPAU?$_Tree_node@PAVobject_t@@PAX@2@@Z 1000bd20 f i data.obj
 0001:0000ad20       ?_Isnil@?$_Tree_val@U?$_Tree_simple_types@U?$pair@$$CBV?$basic_string@DU?$char_traits@D@std@@V?$allocator@D@2@@std@@D@std@@@std@@@std@@SAAADPAU?$_Tree_node@U?$pair@$$CBV?$basic_string@DU?$char_traits@D@std@@V?$allocator@D@2@@std@@D@std@@PAX@2@@Z 1000bd20 f i mfdpage.obj
 0001:0000ad20       ?_Isnil@?$_Tree_val@U?$_Tree_simple_types@U?$pair@$$CBHPAVobject_t@@@std@@@std@@@std@@SAAADPAU?$_Tree_node@U?$pair@$$CBHPAVobject_t@@@std@@PAX@2@@Z 1000bd20 f i mfdpage.obj
 0001:0000ad30       ?_Key@?$_Tree@V?$_Tmap_traits@V?$basic_string@DU?$char_traits@D@std@@V?$allocator@D@2@@std@@PAVfms_config_item_t@@U?$less@V?$basic_string@DU?$char_traits@D@std@@V?$allocator@D@2@@std@@@2@V?$allocator@U?$pair@$$CBV?$basic_string@DU?$char_traits@D@std@@V?$allocator@D@2@@std@@PAVfms_config_item_t@@@std@@@2@$0A@@std@@@std@@IBEABV?$basic_string@DU?$char_traits@D@std@@V?$allocator@D@2@@2@PAU?$_Tree_node@U?$pair@$$CBV?$basic_string@DU?$char_traits@D@std@@V?$allocator@D@2@@std@@PAVfms_config_item_t@@@std@@PAX@2@@Z 1000bd30 f i fms_config.obj
 0001:0000ad30       ?_Key@?$_Tree@V?$_Tset_traits@PAVobject_t@@U?$less@PAVobject_t@@@std@@V?$allocator@PAVobject_t@@@3@$0A@@std@@@std@@IBEABQAVobject_t@@PAU?$_Tree_node@PAVobject_t@@PAX@2@@Z 1000bd30 f i data.obj
 0001:0000ad30       ?_Key@?$_Tree@V?$_Tset_traits@PAVlistener_t@@U?$less@PAVlistener_t@@@std@@V?$allocator@PAVlistener_t@@@3@$0A@@std@@@std@@IBEABQAVlistener_t@@PAU?$_Tree_node@PAVlistener_t@@PAX@2@@Z 1000bd30 f i data.obj
 0001:0000ad30       ?_Key@?$_Tree@V?$_Tset_traits@PAVmfdpage_t@@U?$less@PAVmfdpage_t@@@std@@V?$allocator@PAVmfdpage_t@@@3@$0A@@std@@@std@@IBEABQAVmfdpage_t@@PAU?$_Tree_node@PAVmfdpage_t@@PAX@2@@Z 1000bd30 f i in.obj
 0001:0000ad30       ?_Key@?$_Tree@V?$_Tmap_traits@V?$basic_string@DU?$char_traits@D@std@@V?$allocator@D@2@@std@@V12@U?$less@V?$basic_string@DU?$char_traits@D@std@@V?$allocator@D@2@@std@@@2@V?$allocator@U?$pair@$$CBV?$basic_string@DU?$char_traits@D@std@@V?$allocator@D@2@@std@@V12@@std@@@2@$0A@@std@@@std@@IBEABV?$basic_string@DU?$char_traits@D@std@@V?$allocator@D@2@@2@PAU?$_Tree_node@U?$pair@$$CBV?$basic_string@DU?$char_traits@D@std@@V?$allocator@D@2@@std@@V12@@std@@PAX@2@@Z 1000bd30 f i tools.obj
 0001:0000ad30       ?_Key@?$_Tree@V?$_Tmap_traits@V?$basic_string@DU?$char_traits@D@std@@V?$allocator@D@2@@std@@PAVfms_fp_item_t@@U?$less@V?$basic_string@DU?$char_traits@D@std@@V?$allocator@D@2@@std@@@2@V?$allocator@U?$pair@$$CBV?$basic_string@DU?$char_traits@D@std@@V?$allocator@D@2@@std@@PAVfms_fp_item_t@@@std@@@2@$0A@@std@@@std@@IBEABV?$basic_string@DU?$char_traits@D@std@@V?$allocator@D@2@@2@PAU?$_Tree_node@U?$pair@$$CBV?$basic_string@DU?$char_traits@D@std@@V?$allocator@D@2@@std@@PAVfms_fp_item_t@@@std@@PAX@2@@Z 1000bd30 f i fms_fp.obj
 0001:0000ad30       ?_Key@?$_Tree@V?$_Tmap_traits@HPAVobject_t@@U?$less@H@std@@V?$allocator@U?$pair@$$CBHPAVobject_t@@@std@@@3@$0A@@std@@@std@@IBEABHPAU?$_Tree_node@U?$pair@$$CBHPAVobject_t@@@std@@PAX@2@@Z 1000bd30 f i mfdpage.obj
 0001:0000ad30       ?_Key@?$_Tree@V?$_Tmap_traits@V?$basic_string@DU?$char_traits@D@std@@V?$allocator@D@2@@std@@HU?$less@V?$basic_string@DU?$char_traits@D@std@@V?$allocator@D@2@@std@@@2@V?$allocator@U?$pair@$$CBV?$basic_string@DU?$char_traits@D@std@@V?$allocator@D@2@@std@@H@std@@@2@$0A@@std@@@std@@IBEABV?$basic_string@DU?$char_traits@D@std@@V?$allocator@D@2@@2@PAU?$_Tree_node@U?$pair@$$CBV?$basic_string@DU?$char_traits@D@std@@V?$allocator@D@2@@std@@H@std@@PAX@2@@Z 1000bd30 f i mfdpage.obj
 0001:0000ad30       ?_Key@?$_Tree@V?$_Tmap_traits@HMU?$less@H@std@@V?$allocator@U?$pair@$$CBHM@std@@@2@$0A@@std@@@std@@IBEABHPAU?$_Tree_node@U?$pair@$$CBHM@std@@PAX@2@@Z 1000bd30 f i fms_config.obj
 0001:0000ad30       ?_Key@?$_Tree@V?$_Tmap_traits@V?$basic_string@DU?$char_traits@D@std@@V?$allocator@D@2@@std@@MU?$less@V?$basic_string@DU?$char_traits@D@std@@V?$allocator@D@2@@std@@@2@V?$allocator@U?$pair@$$CBV?$basic_string@DU?$char_traits@D@std@@V?$allocator@D@2@@std@@M@std@@@2@$0A@@std@@@std@@IBEABV?$basic_string@DU?$char_traits@D@std@@V?$allocator@D@2@@2@PAU?$_Tree_node@U?$pair@$$CBV?$basic_string@DU?$char_traits@D@std@@V?$allocator@D@2@@std@@M@std@@PAX@2@@Z 1000bd30 f i mfdpage_fms.obj
 0001:0000ad30       ?_Key@?$_Tree@V?$_Tmap_traits@HPAVfms_fp_item_t@@U?$less@H@std@@V?$allocator@U?$pair@$$CBHPAVfms_fp_item_t@@@std@@@3@$0A@@std@@@std@@IBEABHPAU?$_Tree_node@U?$pair@$$CBHPAVfms_fp_item_t@@@std@@PAX@2@@Z 1000bd30 f i mfdpage_fms.obj
 0001:0000ad30       ?_Key@?$_Tree@V?$_Tmap_traits@HV?$basic_string@DU?$char_traits@D@std@@V?$allocator@D@2@@std@@U?$less@H@2@V?$allocator@U?$pair@$$CBHV?$basic_string@DU?$char_traits@D@std@@V?$allocator@D@2@@std@@@std@@@2@$0A@@std@@@std@@IBEABHPAU?$_Tree_node@U?$pair@$$CBHV?$basic_string@DU?$char_traits@D@std@@V?$allocator@D@2@@std@@@std@@PAX@2@@Z 1000bd30 f i out_saitek.obj
 0001:0000ad30       ?_Key@?$_Tree@V?$_Tmap_traits@V?$basic_string@DU?$char_traits@D@std@@V?$allocator@D@2@@std@@DU?$less@V?$basic_string@DU?$char_traits@D@std@@V?$allocator@D@2@@std@@@2@V?$allocator@U?$pair@$$CBV?$basic_string@DU?$char_traits@D@std@@V?$allocator@D@2@@std@@D@std@@@2@$0A@@std@@@std@@IBEABV?$basic_string@DU?$char_traits@D@std@@V?$allocator@D@2@@2@PAU?$_Tree_node@U?$pair@$$CBV?$basic_string@DU?$char_traits@D@std@@V?$allocator@D@2@@std@@D@std@@PAX@2@@Z 1000bd30 f i mfdpage.obj
 0001:0000ad60       ?_Lbound@?$_Tree@V?$_Tset_traits@PAVmfdpage_t@@U?$less@PAVmfdpage_t@@@std@@V?$allocator@PAVmfdpage_t@@@3@$0A@@std@@@std@@IAEPAU?$_Tree_node@PAVmfdpage_t@@PAX@2@ABQAVmfdpage_t@@@Z 1000bd60 f i in.obj
 0001:0000ae00       ?empty@?$_Tree@V?$_Tset_traits@PAVmfdpage_t@@U?$less@PAVmfdpage_t@@@std@@V?$allocator@PAVmfdpage_t@@@3@$0A@@std@@@std@@QBE_NXZ 1000be00 f i in.obj
 0001:0000ae00       ?empty@?$_Tree@V?$_Tmap_traits@HPAVfms_fp_item_t@@U?$less@H@std@@V?$allocator@U?$pair@$$CBHPAVfms_fp_item_t@@@std@@@3@$0A@@std@@@std@@QBE_NXZ 1000be00 f i fms_fp.obj
 0001:0000ae00       ?empty@?$_Tree@V?$_Tmap_traits@V?$basic_string@DU?$char_traits@D@std@@V?$allocator@D@2@@std@@V12@U?$less@V?$basic_string@DU?$char_traits@D@std@@V?$allocator@D@2@@std@@@2@V?$allocator@U?$pair@$$CBV?$basic_string@DU?$char_traits@D@std@@V?$allocator@D@2@@std@@V12@@std@@@2@$0A@@std@@@std@@QBE_NXZ 1000be00 f i config.obj
 0001:0000ae30       ?find@?$_Tree@V?$_Tset_traits@PAVmfdpage_t@@U?$less@PAVmfdpage_t@@@std@@V?$allocator@PAVmfdpage_t@@@3@$0A@@std@@@std@@QAE?AV?$_Tree_const_iterator@V?$_Tree_val@U?$_Tree_simple_types@PAVmfdpage_t@@@std@@@std@@@2@ABQAVmfdpage_t@@@Z 1000be30 f i in.obj
 0001:0000aed0       ?insert@?$_Tree@V?$_Tset_traits@PAVmfdpage_t@@U?$less@PAVmfdpage_t@@@std@@V?$allocator@PAVmfdpage_t@@@3@$0A@@std@@@std@@QAE?AU?$pair@V?$_Tree_const_iterator@V?$_Tree_val@U?$_Tree_simple_types@PAVmfdpage_t@@@std@@@std@@@std@@_N@2@ABQAVmfdpage_t@@@Z 1000bed0 f i in.obj
 0001:0000af00       ?insert@?$set@PAVmfdpage_t@@U?$less@PAVmfdpage_t@@@std@@V?$allocator@PAVmfdpage_t@@@3@@std@@QAE?AU?$pair@V?$_Tree_const_iterator@V?$_Tree_val@U?$_Tree_simple_types@PAVmfdpage_t@@@std@@@std@@@std@@_N@2@ABQAVmfdpage_t@@@Z 1000bf00 f i in.obj
 0001:0000af20       ?lower_bound@?$_Tree@V?$_Tset_traits@PAVmfdpage_t@@U?$less@PAVmfdpage_t@@@std@@V?$allocator@PAVmfdpage_t@@@3@$0A@@std@@@std@@QAE?AV?$_Tree_const_iterator@V?$_Tree_val@U?$_Tree_simple_types@PAVmfdpage_t@@@std@@@std@@@2@ABQAVmfdpage_t@@@Z 1000bf20 f i in.obj
 0001:0000af50       ?max_size@?$_Tree@V?$_Tset_traits@PAVmfdpage_t@@U?$less@PAVmfdpage_t@@@std@@V?$allocator@PAVmfdpage_t@@@3@$0A@@std@@@std@@QBEIXZ 1000bf50 f i in.obj
 0001:0000af50       ?max_size@?$_Tree@V?$_Tset_traits@PAVlistener_t@@U?$less@PAVlistener_t@@@std@@V?$allocator@PAVlistener_t@@@3@$0A@@std@@@std@@QBEIXZ 1000bf50 f i data.obj
 0001:0000af50       ?max_size@?$_Tree@V?$_Tset_traits@PAVobject_t@@U?$less@PAVobject_t@@@std@@V?$allocator@PAVobject_t@@@3@$0A@@std@@@std@@QBEIXZ 1000bf50 f i data.obj
 0001:0000af70       ?max_size@?$_Wrap_alloc@V?$allocator@U?$_Tree_node@PAVlistener_t@@PAX@std@@@std@@@std@@QBEIXZ 1000bf70 f i data.obj
 0001:0000af70       ?max_size@?$_Wrap_alloc@V?$allocator@U?$_Tree_node@PAVmfdpage_t@@PAX@std@@@std@@@std@@QBEIXZ 1000bf70 f i in.obj
 0001:0000af70       ?max_size@?$_Wrap_alloc@V?$allocator@U?$_Tree_node@PAVobject_t@@PAX@std@@@std@@@std@@QBEIXZ 1000bf70 f i data.obj
 0001:0000afb0       ??0mfdpages_t@@QAE@PAVout_t@@PAVin_t@@PAVdata_t@@PAVfms_t@@@Z 1000bfb0 f   mfdpage.obj
 0001:0000aff0       ??1mfdpages_t@@QAE@XZ      1000bff0 f   mfdpage.obj
 0001:0000b020       ?load@mfdpages_t@@QAEXXZ   1000c020 f   mfdpage.obj
 0001:0000b760       ??0mfdpage_t@@QAE@PBDPAVout_t@@PAVdata_t@@HV?$basic_string@DU?$char_traits@D@std@@V?$allocator@D@2@@std@@PAVfms_t@@@Z 1000c760 f   mfdpage.obj
 0001:0000bb70       ??1mfdpage_t@@UAE@XZ       1000cb70 f   mfdpage.obj
 0001:0000bc10       ?name@mfdpage_t@@UAEABV?$basic_string@DU?$char_traits@D@std@@V?$allocator@D@2@@std@@XZ 1000cc10 f   mfdpage.obj
 0001:0000bc30       ?set_datasources@mfdpage_t@@QAEXPAV?$map@HV?$basic_string@DU?$char_traits@D@std@@V?$allocator@D@2@@std@@U?$less@H@2@V?$allocator@U?$pair@$$CBHV?$basic_string@DU?$char_traits@D@std@@V?$allocator@D@2@@std@@@std@@@2@@std@@@Z 1000cc30 f   mfdpage.obj
 0001:0000bcd0       ?remove_datasources@mfdpage_t@@QAEXXZ 1000ccd0 f   mfdpage.obj
 0001:0000bd50       ?set_active@mfdpage_t@@QAEX_N@Z 1000cd50 f   mfdpage.obj
 0001:0000bde0       ?has_object@mfdpage_t@@UAE_NPAVobject_t@@@Z 1000cde0 f   mfdpage.obj
 0001:0000be80       ?refresh@mfdpage_t@@UAE_NPAVobject_t@@@Z 1000ce80 f   mfdpage.obj
 0001:0000bf50       ?final_refresh@mfdpage_t@@UAEXXZ 1000cf50 f   mfdpage.obj
 0001:0000c3d0       ??$?0$$QAV?$basic_string@DU?$char_traits@D@std@@V?$allocator@D@2@@std@@$$$V@?$pair@$$CBV?$basic_string@DU?$char_traits@D@std@@V?$allocator@D@2@@std@@D@std@@QAE@Upiecewise_construct_t@1@V?$tuple@$$QAV?$basic_string@DU?$char_traits@D@std@@V?$allocator@D@2@@std@@@1@V?$tuple@$$$V@1@@Z 1000d3d0 f i mfdpage.obj
 0001:0000c410       ??$?0$$QAV?$basic_string@DU?$char_traits@D@std@@V?$allocator@D@2@@std@@$$$V@?$pair@$$CBV?$basic_string@DU?$char_traits@D@std@@V?$allocator@D@2@@std@@H@std@@QAE@Upiecewise_construct_t@1@V?$tuple@$$QAV?$basic_string@DU?$char_traits@D@std@@V?$allocator@D@2@@std@@@1@V?$tuple@$$$V@1@@Z 1000d410 f i mfdpage.obj
 0001:0000c450       ??$?0$$QAH$$$V@?$pair@$$CBHPAVobject_t@@@std@@QAE@Upiecewise_construct_t@1@V?$tuple@$$QAH@1@V?$tuple@$$$V@1@@Z 1000d450 f i mfdpage_fms.obj
 0001:0000c450       ??$?0ABH$$$V@?$pair@$$CBHPAVfms_fp_item_t@@@std@@QAE@Upiecewise_construct_t@1@V?$tuple@ABH@1@V?$tuple@$$$V@1@@Z 1000d450 f i mfdpage_fms.obj
 0001:0000c450       ??$?0$$QAH$$$V@?$pair@$$CBHPAVfms_fp_item_t@@@std@@QAE@Upiecewise_construct_t@1@V?$tuple@$$QAH@1@V?$tuple@$$$V@1@@Z 1000d450 f i mfdpage_fms.obj
 0001:0000c450       ??$?0ABH$$$V@?$pair@$$CBHPAVobject_t@@@std@@QAE@Upiecewise_construct_t@1@V?$tuple@ABH@1@V?$tuple@$$$V@1@@Z 1000d450 f i mfdpage.obj
 0001:0000c490       ??$?0ABV?$basic_string@DU?$char_traits@D@std@@V?$allocator@D@2@@std@@$$$V@?$pair@$$CBV?$basic_string@DU?$char_traits@D@std@@V?$allocator@D@2@@std@@V12@@std@@QAE@Upiecewise_construct_t@1@V?$tuple@ABV?$basic_string@DU?$char_traits@D@std@@V?$allocator@D@2@@std@@@1@V?$tuple@$$$V@1@@Z 1000d490 f i mfdpage.obj
 0001:0000c4d0       ??$?0V?$tuple@$$QAV?$basic_string@DU?$char_traits@D@std@@V?$allocator@D@2@@std@@@std@@V?$tuple@$$$V@1@$0A@$S@?$pair@$$CBV?$basic_string@DU?$char_traits@D@std@@V?$allocator@D@2@@std@@D@std@@QAE@AAV?$tuple@$$QAV?$basic_string@DU?$char_traits@D@std@@V?$allocator@D@2@@std@@@1@AAV?$tuple@$$$V@1@U?$_Arg_idx@$0A@@1@U?$_Arg_idx@$S@1@@Z 1000d4d0 f i mfdpage.obj
 0001:0000c510       ??$?0V?$tuple@$$QAV?$basic_string@DU?$char_traits@D@std@@V?$allocator@D@2@@std@@@std@@V?$tuple@$$$V@1@$0A@$S@?$pair@$$CBV?$basic_string@DU?$char_traits@D@std@@V?$allocator@D@2@@std@@H@std@@QAE@AAV?$tuple@$$QAV?$basic_string@DU?$char_traits@D@std@@V?$allocator@D@2@@std@@@1@AAV?$tuple@$$$V@1@U?$_Arg_idx@$0A@@1@U?$_Arg_idx@$S@1@@Z 1000d510 f i mfdpage.obj
 0001:0000c550       ??$?0V?$tuple@$$QAH@std@@V?$tuple@$$$V@1@$0A@$S@?$pair@$$CBHPAVfms_fp_item_t@@@std@@QAE@AAV?$tuple@$$QAH@1@AAV?$tuple@$$$V@1@U?$_Arg_idx@$0A@@1@U?$_Arg_idx@$S@1@@Z 1000d550 f i mfdpage_fms.obj
 0001:0000c550       ??$?0V?$tuple@ABH@std@@V?$tuple@$$$V@1@$0A@$S@?$pair@$$CBHPAVfms_fp_item_t@@@std@@QAE@AAV?$tuple@ABH@1@AAV?$tuple@$$$V@1@U?$_Arg_idx@$0A@@1@U?$_Arg_idx@$S@1@@Z 1000d550 f i mfdpage_fms.obj
 0001:0000c550       ??$?0V?$tuple@$$QAH@std@@V?$tuple@$$$V@1@$0A@$S@?$pair@$$CBHPAVobject_t@@@std@@QAE@AAV?$tuple@$$QAH@1@AAV?$tuple@$$$V@1@U?$_Arg_idx@$0A@@1@U?$_Arg_idx@$S@1@@Z 1000d550 f i mfdpage_fms.obj
 0001:0000c550       ??$?0V?$tuple@ABH@std@@V?$tuple@$$$V@1@$0A@$S@?$pair@$$CBHPAVobject_t@@@std@@QAE@AAV?$tuple@ABH@1@AAV?$tuple@$$$V@1@U?$_Arg_idx@$0A@@1@U?$_Arg_idx@$S@1@@Z 1000d550 f i mfdpage.obj
 0001:0000c590       ??$?0V?$tuple@ABV?$basic_string@DU?$char_traits@D@std@@V?$allocator@D@2@@std@@@std@@V?$tuple@$$$V@1@$0A@$S@?$pair@$$CBV?$basic_string@DU?$char_traits@D@std@@V?$allocator@D@2@@std@@V12@@std@@QAE@AAV?$tuple@ABV?$basic_string@DU?$char_traits@D@std@@V?$allocator@D@2@@std@@@1@AAV?$tuple@$$$V@1@U?$_Arg_idx@$0A@@1@U?$_Arg_idx@$S@1@@Z 1000d590 f i mfdpage.obj
 0001:0000c5d0       ??$_Buynode@AAU?$pair@$$CBHPAVobject_t@@@std@@@?$_Tree_buy@U?$pair@$$CBHPAVobject_t@@@std@@V?$allocator@U?$pair@$$CBHPAVobject_t@@@std@@@2@@std@@QAEPAU?$_Tree_node@U?$pair@$$CBHPAVobject_t@@@std@@PAX@1@AAU?$pair@$$CBHPAVobject_t@@@1@@Z 1000d5d0 f i mfdpage.obj
 0001:0000c6b0       ??$_Buynode@ABUpiecewise_construct_t@std@@V?$tuple@$$QAV?$basic_string@DU?$char_traits@D@std@@V?$allocator@D@2@@std@@@2@V?$tuple@$$$V@2@@?$_Tree_buy@U?$pair@$$CBV?$basic_string@DU?$char_traits@D@std@@V?$allocator@D@2@@std@@D@std@@V?$allocator@U?$pair@$$CBV?$basic_string@DU?$char_traits@D@std@@V?$allocator@D@2@@std@@D@std@@@2@@std@@QAEPAU?$_Tree_node@U?$pair@$$CBV?$basic_string@DU?$char_traits@D@std@@V?$allocator@D@2@@std@@D@std@@PAX@1@ABUpiecewise_construct_t@1@$$QAV?$tuple@$$QAV?$basic_string@DU?$char_traits@D@std@@V?$allocator@D@2@@std@@@1@$$QAV?$tuple@$$$V@1@@Z 1000d6b0 f i mfdpage.obj
 0001:0000c7b0       ??$_Buynode@ABUpiecewise_construct_t@std@@V?$tuple@$$QAV?$basic_string@DU?$char_traits@D@std@@V?$allocator@D@2@@std@@@2@V?$tuple@$$$V@2@@?$_Tree_buy@U?$pair@$$CBV?$basic_string@DU?$char_traits@D@std@@V?$allocator@D@2@@std@@H@std@@V?$allocator@U?$pair@$$CBV?$basic_string@DU?$char_traits@D@std@@V?$allocator@D@2@@std@@H@std@@@2@@std@@QAEPAU?$_Tree_node@U?$pair@$$CBV?$basic_string@DU?$char_traits@D@std@@V?$allocator@D@2@@std@@H@std@@PAX@1@ABUpiecewise_construct_t@1@$$QAV?$tuple@$$QAV?$basic_string@DU?$char_traits@D@std@@V?$allocator@D@2@@std@@@1@$$QAV?$tuple@$$$V@1@@Z 1000d7b0 f i mfdpage.obj
 0001:0000c8b0       ??$_Buynode@ABUpiecewise_construct_t@std@@V?$tuple@ABV?$basic_string@DU?$char_traits@D@std@@V?$allocator@D@2@@std@@@2@V?$tuple@$$$V@2@@?$_Tree_buy@U?$pair@$$CBV?$basic_string@DU?$char_traits@D@std@@V?$allocator@D@2@@std@@V12@@std@@V?$allocator@U?$pair@$$CBV?$basic_string@DU?$char_traits@D@std@@V?$allocator@D@2@@std@@V12@@std@@@2@@std@@QAEPAU?$_Tree_node@U?$pair@$$CBV?$basic_string@DU?$char_traits@D@std@@V?$allocator@D@2@@std@@V12@@std@@PAX@1@ABUpiecewise_construct_t@1@$$QAV?$tuple@ABV?$basic_string@DU?$char_traits@D@std@@V?$allocator@D@2@@std@@@1@$$QAV?$tuple@$$$V@1@@Z 1000d8b0 f i mfdpage.obj
 0001:0000c9b0       ??$_Buynode_if_nil@AAU?$pair@$$CBV?$basic_string@DU?$char_traits@D@std@@V?$allocator@D@2@@std@@M@std@@@?$_Tree@V?$_Tmap_traits@V?$basic_string@DU?$char_traits@D@std@@V?$allocator@D@2@@std@@MU?$less@V?$basic_string@DU?$char_traits@D@std@@V?$allocator@D@2@@std@@@2@V?$allocator@U?$pair@$$CBV?$basic_string@DU?$char_traits@D@std@@V?$allocator@D@2@@std@@M@std@@@2@$0A@@std@@@std@@IAEPAU?$_Tree_node@U?$pair@$$CBV?$basic_string@DU?$char_traits@D@std@@V?$allocator@D@2@@std@@M@std@@PAX@1@PAU21@AAU?$pair@$$CBV?$basic_string@DU?$char_traits@D@std@@V?$allocator@D@2@@std@@M@1@@Z 1000d9b0 f i mfdpage_fms.obj
 0001:0000c9b0       ??$_Buynode_if_nil@AAU?$pair@$$CBHM@std@@@?$_Tree@V?$_Tmap_traits@HMU?$less@H@std@@V?$allocator@U?$pair@$$CBHM@std@@@2@$0A@@std@@@std@@IAEPAU?$_Tree_node@U?$pair@$$CBHM@std@@PAX@1@PAU21@AAU?$pair@$$CBHM@1@@Z 1000d9b0 f i fms_config.obj
 0001:0000c9b0       ??$_Buynode_if_nil@AAU?$pair@$$CBV?$basic_string@DU?$char_traits@D@std@@V?$allocator@D@2@@std@@PAVfms_config_item_t@@@std@@@?$_Tree@V?$_Tmap_traits@V?$basic_string@DU?$char_traits@D@std@@V?$allocator@D@2@@std@@PAVfms_config_item_t@@U?$less@V?$basic_string@DU?$char_traits@D@std@@V?$allocator@D@2@@std@@@2@V?$allocator@U?$pair@$$CBV?$basic_string@DU?$char_traits@D@std@@V?$allocator@D@2@@std@@PAVfms_config_item_t@@@std@@@2@$0A@@std@@@std@@IAEPAU?$_Tree_node@U?$pair@$$CBV?$basic_string@DU?$char_traits@D@std@@V?$allocator@D@2@@std@@PAVfms_config_item_t@@@std@@PAX@1@PAU21@AAU?$pair@$$CBV?$basic_string@DU?$char_traits@D@std@@V?$allocator@D@2@@std@@PAVfms_config_item_t@@@1@@Z 1000d9b0 f i fms_config.obj
 0001:0000c9b0       ??$_Buynode_if_nil@AAU?$pair@$$CBV?$basic_string@DU?$char_traits@D@std@@V?$allocator@D@2@@std@@H@std@@@?$_Tree@V?$_Tmap_traits@V?$basic_string@DU?$char_traits@D@std@@V?$allocator@D@2@@std@@HU?$less@V?$basic_string@DU?$char_traits@D@std@@V?$allocator@D@2@@std@@@2@V?$allocator@U?$pair@$$CBV?$basic_string@DU?$char_traits@D@std@@V?$allocator@D@2@@std@@H@std@@@2@$0A@@std@@@std@@IAEPAU?$_Tree_node@U?$pair@$$CBV?$basic_string@DU?$char_traits@D@std@@V?$allocator@D@2@@std@@H@std@@PAX@1@PAU21@AAU?$pair@$$CBV?$basic_string@DU?$char_traits@D@std@@V?$allocator@D@2@@std@@H@1@@Z 1000d9b0 f i mfdpage.obj
 0001:0000c9b0       ??$_Buynode_if_nil@AAU?$pair@$$CBHV?$basic_string@DU?$char_traits@D@std@@V?$allocator@D@2@@std@@@std@@@?$_Tree@V?$_Tmap_traits@HV?$basic_string@DU?$char_traits@D@std@@V?$allocator@D@2@@std@@U?$less@H@2@V?$allocator@U?$pair@$$CBHV?$basic_string@DU?$char_traits@D@std@@V?$allocator@D@2@@std@@@std@@@2@$0A@@std@@@std@@IAEPAU?$_Tree_node@U?$pair@$$CBHV?$basic_string@DU?$char_traits@D@std@@V?$allocator@D@2@@std@@@std@@PAX@1@PAU21@AAU?$pair@$$CBHV?$basic_string@DU?$char_traits@D@std@@V?$allocator@D@2@@std@@@1@@Z 1000d9b0 f i out_saitek.obj
 0001:0000c9b0       ??$_Buynode_if_nil@AAU?$pair@$$CBV?$basic_string@DU?$char_traits@D@std@@V?$allocator@D@2@@std@@PAVfms_fp_item_t@@@std@@@?$_Tree@V?$_Tmap_traits@V?$basic_string@DU?$char_traits@D@std@@V?$allocator@D@2@@std@@PAVfms_fp_item_t@@U?$less@V?$basic_string@DU?$char_traits@D@std@@V?$allocator@D@2@@std@@@2@V?$allocator@U?$pair@$$CBV?$basic_string@DU?$char_traits@D@std@@V?$allocator@D@2@@std@@PAVfms_fp_item_t@@@std@@@2@$0A@@std@@@std@@IAEPAU?$_Tree_node@U?$pair@$$CBV?$basic_string@DU?$char_traits@D@std@@V?$allocator@D@2@@std@@PAVfms_fp_item_t@@@std@@PAX@1@PAU21@AAU?$pair@$$CBV?$basic_string@DU?$char_traits@D@std@@V?$allocator@D@2@@std@@PAVfms_fp_item_t@@@1@@Z 1000d9b0 f i fms_fp.obj
 0001:0000c9b0       ??$_Buynode_if_nil@AAU?$pair@$$CBV?$basic_string@DU?$char_traits@D@std@@V?$allocator@D@2@@std@@D@std@@@?$_Tree@V?$_Tmap_traits@V?$basic_string@DU?$char_traits@D@std@@V?$allocator@D@2@@std@@DU?$less@V?$basic_string@DU?$char_traits@D@std@@V?$allocator@D@2@@std@@@2@V?$allocator@U?$pair@$$CBV?$basic_string@DU?$char_traits@D@std@@V?$allocator@D@2@@std@@D@std@@@2@$0A@@std@@@std@@IAEPAU?$_Tree_node@U?$pair@$$CBV?$basic_string@DU?$char_traits@D@std@@V?$allocator@D@2@@std@@D@std@@PAX@1@PAU21@AAU?$pair@$$CBV?$basic_string@DU?$char_traits@D@std@@V?$allocator@D@2@@std@@D@1@@Z 1000d9b0 f i mfdpage.obj
 0001:0000c9b0       ??$_Buynode_if_nil@AAU?$pair@$$CBV?$basic_string@DU?$char_traits@D@std@@V?$allocator@D@2@@std@@V12@@std@@@?$_Tree@V?$_Tmap_traits@V?$basic_string@DU?$char_traits@D@std@@V?$allocator@D@2@@std@@V12@U?$less@V?$basic_string@DU?$char_traits@D@std@@V?$allocator@D@2@@std@@@2@V?$allocator@U?$pair@$$CBV?$basic_string@DU?$char_traits@D@std@@V?$allocator@D@2@@std@@V12@@std@@@2@$0A@@std@@@std@@IAEPAU?$_Tree_node@U?$pair@$$CBV?$basic_string@DU?$char_traits@D@std@@V?$allocator@D@2@@std@@V12@@std@@PAX@1@PAU21@AAU?$pair@$$CBV?$basic_string@DU?$char_traits@D@std@@V?$allocator@D@2@@std@@V12@@1@@Z 1000d9b0 f i tools.obj
 0001:0000c9b0       ??$_Buynode_if_nil@AAU?$pair@$$CBHPAVobject_t@@@std@@@?$_Tree@V?$_Tmap_traits@HPAVobject_t@@U?$less@H@std@@V?$allocator@U?$pair@$$CBHPAVobject_t@@@std@@@3@$0A@@std@@@std@@IAEPAU?$_Tree_node@U?$pair@$$CBHPAVobject_t@@@std@@PAX@1@PAU21@AAU?$pair@$$CBHPAVobject_t@@@1@@Z 1000d9b0 f i mfdpage.obj
 0001:0000c9b0       ??$_Buynode_if_nil@AAU?$pair@$$CBHPAVfms_fp_item_t@@@std@@@?$_Tree@V?$_Tmap_traits@HPAVfms_fp_item_t@@U?$less@H@std@@V?$allocator@U?$pair@$$CBHPAVfms_fp_item_t@@@std@@@3@$0A@@std@@@std@@IAEPAU?$_Tree_node@U?$pair@$$CBHPAVfms_fp_item_t@@@std@@PAX@1@PAU21@AAU?$pair@$$CBHPAVfms_fp_item_t@@@1@@Z 1000d9b0 f i mfdpage_fms.obj
 0001:0000c9c0       ??$_Copy@U?$integral_constant@_N$0A@@std@@@?$_Tree@V?$_Tmap_traits@HPAVobject_t@@U?$less@H@std@@V?$allocator@U?$pair@$$CBHPAVobject_t@@@std@@@3@$0A@@std@@@std@@IAEXABV01@U?$integral_constant@_N$0A@@1@@Z 1000d9c0 f i mfdpage.obj
 0001:0000ca80       ??$_Copy_nodes@U?$integral_constant@_N$0A@@std@@@?$_Tree@V?$_Tmap_traits@HPAVobject_t@@U?$less@H@std@@V?$allocator@U?$pair@$$CBHPAVobject_t@@@std@@@3@$0A@@std@@@std@@IAEPAU?$_Tree_node@U?$pair@$$CBHPAVobject_t@@@std@@PAX@1@PAU21@0U?$integral_constant@_N$0A@@1@@Z 1000da80 f i mfdpage.obj
 0001:0000cbe0       ??$_Copy_or_move@U?$integral_constant@_N$0A@@std@@U?$integral_constant@_N$00@2@U12@H@?$_Tree@V?$_Tmap_traits@HPAVobject_t@@U?$less@H@std@@V?$allocator@U?$pair@$$CBHPAVobject_t@@@std@@@3@$0A@@std@@@std@@IAEPAU?$_Tree_node@U?$pair@$$CBHPAVobject_t@@@std@@PAX@1@PAU21@U?$integral_constant@_N$0A@@1@U?$integral_constant@_N$00@1@1H@Z 1000dbe0 f i mfdpage.obj
 0001:0000cc10       ??$assign@V?$_String_iterator@V?$_String_val@U?$_Simple_types@D@std@@@std@@@std@@@?$basic_string@DU?$char_traits@D@std@@V?$allocator@D@2@@std@@QAEAAV01@V?$_String_iterator@V?$_String_val@U?$_Simple_types@D@std@@@std@@@1@0@Z 1000dc10 f i mfdpage.obj
 0001:0000cc60       ??$construct@U?$pair@$$CBHPAVobject_t@@@std@@AAU12@@?$_Wrap_alloc@V?$allocator@U?$_Tree_node@U?$pair@$$CBHPAVobject_t@@@std@@PAX@std@@@std@@@std@@QAEXPAU?$pair@$$CBHPAVobject_t@@@1@AAU21@@Z 1000dc60 f i mfdpage.obj
 0001:0000cc90       ??$construct@U?$pair@$$CBHPAVobject_t@@@std@@AAU12@@?$allocator@U?$_Tree_node@U?$pair@$$CBHPAVobject_t@@@std@@PAX@std@@@std@@QAEXPAU?$pair@$$CBHPAVobject_t@@@1@AAU21@@Z 1000dc90 f i mfdpage.obj
 0001:0000cce0       ??$construct@U?$pair@$$CBHPAVobject_t@@@std@@AAU12@@?$allocator_traits@V?$allocator@U?$_Tree_node@U?$pair@$$CBHPAVobject_t@@@std@@PAX@std@@@std@@@std@@SAXAAV?$allocator@U?$_Tree_node@U?$pair@$$CBHPAVobject_t@@@std@@PAX@std@@@1@PAU?$pair@$$CBHPAVobject_t@@@1@AAU31@@Z 1000dce0 f i mfdpage.obj
 0001:0000cd00       ??$construct@U?$pair@$$CBV?$basic_string@DU?$char_traits@D@std@@V?$allocator@D@2@@std@@D@std@@ABUpiecewise_construct_t@2@V?$tuple@$$QAV?$basic_string@DU?$char_traits@D@std@@V?$allocator@D@2@@std@@@2@V?$tuple@$$$V@2@@?$_Wrap_alloc@V?$allocator@U?$_Tree_node@U?$pair@$$CBV?$basic_string@DU?$char_traits@D@std@@V?$allocator@D@2@@std@@D@std@@PAX@std@@@std@@@std@@QAEXPAU?$pair@$$CBV?$basic_string@DU?$char_traits@D@std@@V?$allocator@D@2@@std@@D@1@ABUpiecewise_construct_t@1@$$QAV?$tuple@$$QAV?$basic_string@DU?$char_traits@D@std@@V?$allocator@D@2@@std@@@1@$$QAV?$tuple@$$$V@1@@Z 1000dd00 f i mfdpage.obj
 0001:0000cd50       ??$construct@U?$pair@$$CBV?$basic_string@DU?$char_traits@D@std@@V?$allocator@D@2@@std@@D@std@@ABUpiecewise_construct_t@2@V?$tuple@$$QAV?$basic_string@DU?$char_traits@D@std@@V?$allocator@D@2@@std@@@2@V?$tuple@$$$V@2@@?$allocator@U?$_Tree_node@U?$pair@$$CBV?$basic_string@DU?$char_traits@D@std@@V?$allocator@D@2@@std@@D@std@@PAX@std@@@std@@QAEXPAU?$pair@$$CBV?$basic_string@DU?$char_traits@D@std@@V?$allocator@D@2@@std@@D@1@ABUpiecewise_construct_t@1@$$QAV?$tuple@$$QAV?$basic_string@DU?$char_traits@D@std@@V?$allocator@D@2@@std@@@1@$$QAV?$tuple@$$$V@1@@Z 1000dd50 f i mfdpage.obj
 0001:0000cdc0       ??$construct@U?$pair@$$CBV?$basic_string@DU?$char_traits@D@std@@V?$allocator@D@2@@std@@D@std@@ABUpiecewise_construct_t@2@V?$tuple@$$QAV?$basic_string@DU?$char_traits@D@std@@V?$allocator@D@2@@std@@@2@V?$tuple@$$$V@2@@?$allocator_traits@V?$allocator@U?$_Tree_node@U?$pair@$$CBV?$basic_string@DU?$char_traits@D@std@@V?$allocator@D@2@@std@@D@std@@PAX@std@@@std@@@std@@SAXAAV?$allocator@U?$_Tree_node@U?$pair@$$CBV?$basic_string@DU?$char_traits@D@std@@V?$allocator@D@2@@std@@D@std@@PAX@std@@@1@PAU?$pair@$$CBV?$basic_string@DU?$char_traits@D@std@@V?$allocator@D@2@@std@@D@1@ABUpiecewise_construct_t@1@$$QAV?$tuple@$$QAV?$basic_string@DU?$char_traits@D@std@@V?$allocator@D@2@@std@@@1@$$QAV?$tuple@$$$V@1@@Z 1000ddc0 f i mfdpage.obj
 0001:0000ce00       ??$construct@U?$pair@$$CBV?$basic_string@DU?$char_traits@D@std@@V?$allocator@D@2@@std@@H@std@@ABUpiecewise_construct_t@2@V?$tuple@$$QAV?$basic_string@DU?$char_traits@D@std@@V?$allocator@D@2@@std@@@2@V?$tuple@$$$V@2@@?$_Wrap_alloc@V?$allocator@U?$_Tree_node@U?$pair@$$CBV?$basic_string@DU?$char_traits@D@std@@V?$allocator@D@2@@std@@H@std@@PAX@std@@@std@@@std@@QAEXPAU?$pair@$$CBV?$basic_string@DU?$char_traits@D@std@@V?$allocator@D@2@@std@@H@1@ABUpiecewise_construct_t@1@$$QAV?$tuple@$$QAV?$basic_string@DU?$char_traits@D@std@@V?$allocator@D@2@@std@@@1@$$QAV?$tuple@$$$V@1@@Z 1000de00 f i mfdpage.obj
 0001:0000ce50       ??$construct@U?$pair@$$CBV?$basic_string@DU?$char_traits@D@std@@V?$allocator@D@2@@std@@H@std@@ABUpiecewise_construct_t@2@V?$tuple@$$QAV?$basic_string@DU?$char_traits@D@std@@V?$allocator@D@2@@std@@@2@V?$tuple@$$$V@2@@?$allocator@U?$_Tree_node@U?$pair@$$CBV?$basic_string@DU?$char_traits@D@std@@V?$allocator@D@2@@std@@H@std@@PAX@std@@@std@@QAEXPAU?$pair@$$CBV?$basic_string@DU?$char_traits@D@std@@V?$allocator@D@2@@std@@H@1@ABUpiecewise_construct_t@1@$$QAV?$tuple@$$QAV?$basic_string@DU?$char_traits@D@std@@V?$allocator@D@2@@std@@@1@$$QAV?$tuple@$$$V@1@@Z 1000de50 f i mfdpage.obj
 0001:0000cec0       ??$construct@U?$pair@$$CBV?$basic_string@DU?$char_traits@D@std@@V?$allocator@D@2@@std@@H@std@@ABUpiecewise_construct_t@2@V?$tuple@$$QAV?$basic_string@DU?$char_traits@D@std@@V?$allocator@D@2@@std@@@2@V?$tuple@$$$V@2@@?$allocator_traits@V?$allocator@U?$_Tree_node@U?$pair@$$CBV?$basic_string@DU?$char_traits@D@std@@V?$allocator@D@2@@std@@H@std@@PAX@std@@@std@@@std@@SAXAAV?$allocator@U?$_Tree_node@U?$pair@$$CBV?$basic_string@DU?$char_traits@D@std@@V?$allocator@D@2@@std@@H@std@@PAX@std@@@1@PAU?$pair@$$CBV?$basic_string@DU?$char_traits@D@std@@V?$allocator@D@2@@std@@H@1@ABUpiecewise_construct_t@1@$$QAV?$tuple@$$QAV?$basic_string@DU?$char_traits@D@std@@V?$allocator@D@2@@std@@@1@$$QAV?$tuple@$$$V@1@@Z 1000dec0 f i mfdpage.obj
 0001:0000cf00       ??$construct@U?$pair@$$CBV?$basic_string@DU?$char_traits@D@std@@V?$allocator@D@2@@std@@V12@@std@@ABUpiecewise_construct_t@2@V?$tuple@ABV?$basic_string@DU?$char_traits@D@std@@V?$allocator@D@2@@std@@@2@V?$tuple@$$$V@2@@?$_Wrap_alloc@V?$allocator@U?$_Tree_node@U?$pair@$$CBV?$basic_string@DU?$char_traits@D@std@@V?$allocator@D@2@@std@@V12@@std@@PAX@std@@@std@@@std@@QAEXPAU?$pair@$$CBV?$basic_string@DU?$char_traits@D@std@@V?$allocator@D@2@@std@@V12@@1@ABUpiecewise_construct_t@1@$$QAV?$tuple@ABV?$basic_string@DU?$char_traits@D@std@@V?$allocator@D@2@@std@@@1@$$QAV?$tuple@$$$V@1@@Z 1000df00 f i mfdpage.obj
 0001:0000cf50       ??$construct@U?$pair@$$CBV?$basic_string@DU?$char_traits@D@std@@V?$allocator@D@2@@std@@V12@@std@@ABUpiecewise_construct_t@2@V?$tuple@ABV?$basic_string@DU?$char_traits@D@std@@V?$allocator@D@2@@std@@@2@V?$tuple@$$$V@2@@?$allocator@U?$_Tree_node@U?$pair@$$CBV?$basic_string@DU?$char_traits@D@std@@V?$allocator@D@2@@std@@V12@@std@@PAX@std@@@std@@QAEXPAU?$pair@$$CBV?$basic_string@DU?$char_traits@D@std@@V?$allocator@D@2@@std@@V12@@1@ABUpiecewise_construct_t@1@$$QAV?$tuple@ABV?$basic_string@DU?$char_traits@D@std@@V?$allocator@D@2@@std@@@1@$$QAV?$tuple@$$$V@1@@Z 1000df50 f i mfdpage.obj
 0001:0000cfc0       ??$construct@U?$pair@$$CBV?$basic_string@DU?$char_traits@D@std@@V?$allocator@D@2@@std@@V12@@std@@ABUpiecewise_construct_t@2@V?$tuple@ABV?$basic_string@DU?$char_traits@D@std@@V?$allocator@D@2@@std@@@2@V?$tuple@$$$V@2@@?$allocator_traits@V?$allocator@U?$_Tree_node@U?$pair@$$CBV?$basic_string@DU?$char_traits@D@std@@V?$allocator@D@2@@std@@V12@@std@@PAX@std@@@std@@@std@@SAXAAV?$allocator@U?$_Tree_node@U?$pair@$$CBV?$basic_string@DU?$char_traits@D@std@@V?$allocator@D@2@@std@@V12@@std@@PAX@std@@@1@PAU?$pair@$$CBV?$basic_string@DU?$char_traits@D@std@@V?$allocator@D@2@@std@@V12@@1@ABUpiecewise_construct_t@1@$$QAV?$tuple@ABV?$basic_string@DU?$char_traits@D@std@@V?$allocator@D@2@@std@@@1@$$QAV?$tuple@$$$V@1@@Z 1000dfc0 f i mfdpage.obj
 0001:0000d000       ??$destroy@U?$pair@$$CBV?$basic_string@DU?$char_traits@D@std@@V?$allocator@D@2@@std@@H@std@@@?$allocator@U?$_Tree_node@U?$pair@$$CBV?$basic_string@DU?$char_traits@D@std@@V?$allocator@D@2@@std@@H@std@@PAX@std@@@std@@QAEXPAU?$pair@$$CBV?$basic_string@DU?$char_traits@D@std@@V?$allocator@D@2@@std@@H@1@@Z 1000e000 f i mfdpage.obj
 0001:0000d000       ??$destroy@U?$pair@$$CBV?$basic_string@DU?$char_traits@D@std@@V?$allocator@D@2@@std@@PAVfms_config_item_t@@@std@@@?$allocator@U?$_Tree_node@U?$pair@$$CBV?$basic_string@DU?$char_traits@D@std@@V?$allocator@D@2@@std@@PAVfms_config_item_t@@@std@@PAX@std@@@std@@QAEXPAU?$pair@$$CBV?$basic_string@DU?$char_traits@D@std@@V?$allocator@D@2@@std@@PAVfms_config_item_t@@@1@@Z 1000e000 f i fms_config.obj
 0001:0000d000       ??$destroy@U?$pair@$$CBV?$basic_string@DU?$char_traits@D@std@@V?$allocator@D@2@@std@@M@std@@@?$allocator@U?$_Tree_node@U?$pair@$$CBV?$basic_string@DU?$char_traits@D@std@@V?$allocator@D@2@@std@@M@std@@PAX@std@@@std@@QAEXPAU?$pair@$$CBV?$basic_string@DU?$char_traits@D@std@@V?$allocator@D@2@@std@@M@1@@Z 1000e000 f i mfdpage_fms.obj
 0001:0000d000       ??$destroy@U?$pair@$$CBV?$basic_string@DU?$char_traits@D@std@@V?$allocator@D@2@@std@@PAVfms_fp_item_t@@@std@@@?$allocator@U?$_Tree_node@U?$pair@$$CBV?$basic_string@DU?$char_traits@D@std@@V?$allocator@D@2@@std@@PAVfms_fp_item_t@@@std@@PAX@std@@@std@@QAEXPAU?$pair@$$CBV?$basic_string@DU?$char_traits@D@std@@V?$allocator@D@2@@std@@PAVfms_fp_item_t@@@1@@Z 1000e000 f i fms_fp.obj
 0001:0000d000       ??$destroy@U?$pair@$$CBV?$basic_string@DU?$char_traits@D@std@@V?$allocator@D@2@@std@@D@std@@@?$allocator@U?$_Tree_node@U?$pair@$$CBV?$basic_string@DU?$char_traits@D@std@@V?$allocator@D@2@@std@@D@std@@PAX@std@@@std@@QAEXPAU?$pair@$$CBV?$basic_string@DU?$char_traits@D@std@@V?$allocator@D@2@@std@@D@1@@Z 1000e000 f i mfdpage.obj
 0001:0000d020       ??$destroy@U?$pair@$$CBV?$basic_string@DU?$char_traits@D@std@@V?$allocator@D@2@@std@@PAVfms_fp_item_t@@@std@@@?$allocator_traits@V?$allocator@U?$_Tree_node@U?$pair@$$CBV?$basic_string@DU?$char_traits@D@std@@V?$allocator@D@2@@std@@PAVfms_fp_item_t@@@std@@PAX@std@@@std@@@std@@SAXAAV?$allocator@U?$_Tree_node@U?$pair@$$CBV?$basic_string@DU?$char_traits@D@std@@V?$allocator@D@2@@std@@PAVfms_fp_item_t@@@std@@PAX@std@@@1@PAU?$pair@$$CBV?$basic_string@DU?$char_traits@D@std@@V?$allocator@D@2@@std@@PAVfms_fp_item_t@@@1@@Z 1000e020 f i fms_fp.obj
 0001:0000d020       ??$destroy@U?$pair@$$CBV?$basic_string@DU?$char_traits@D@std@@V?$allocator@D@2@@std@@H@std@@@?$allocator_traits@V?$allocator@U?$_Tree_node@U?$pair@$$CBV?$basic_string@DU?$char_traits@D@std@@V?$allocator@D@2@@std@@H@std@@PAX@std@@@std@@@std@@SAXAAV?$allocator@U?$_Tree_node@U?$pair@$$CBV?$basic_string@DU?$char_traits@D@std@@V?$allocator@D@2@@std@@H@std@@PAX@std@@@1@PAU?$pair@$$CBV?$basic_string@DU?$char_traits@D@std@@V?$allocator@D@2@@std@@H@1@@Z 1000e020 f i mfdpage.obj
 0001:0000d020       ??$destroy@U?$pair@$$CBV?$basic_string@DU?$char_traits@D@std@@V?$allocator@D@2@@std@@M@std@@@?$allocator_traits@V?$allocator@U?$_Tree_node@U?$pair@$$CBV?$basic_string@DU?$char_traits@D@std@@V?$allocator@D@2@@std@@M@std@@PAX@std@@@std@@@std@@SAXAAV?$allocator@U?$_Tree_node@U?$pair@$$CBV?$basic_string@DU?$char_traits@D@std@@V?$allocator@D@2@@std@@M@std@@PAX@std@@@1@PAU?$pair@$$CBV?$basic_string@DU?$char_traits@D@std@@V?$allocator@D@2@@std@@M@1@@Z 1000e020 f i mfdpage_fms.obj
 0001:0000d020       ??$destroy@U?$pair@$$CBV?$basic_string@DU?$char_traits@D@std@@V?$allocator@D@2@@std@@D@std@@@?$allocator_traits@V?$allocator@U?$_Tree_node@U?$pair@$$CBV?$basic_string@DU?$char_traits@D@std@@V?$allocator@D@2@@std@@D@std@@PAX@std@@@std@@@std@@SAXAAV?$allocator@U?$_Tree_node@U?$pair@$$CBV?$basic_string@DU?$char_traits@D@std@@V?$allocator@D@2@@std@@D@std@@PAX@std@@@1@PAU?$pair@$$CBV?$basic_string@DU?$char_traits@D@std@@V?$allocator@D@2@@std@@D@1@@Z 1000e020 f i mfdpage.obj
 0001:0000d020       ??$destroy@U?$pair@$$CBV?$basic_string@DU?$char_traits@D@std@@V?$allocator@D@2@@std@@PAVfms_config_item_t@@@std@@@?$allocator_traits@V?$allocator@U?$_Tree_node@U?$pair@$$CBV?$basic_string@DU?$char_traits@D@std@@V?$allocator@D@2@@std@@PAVfms_config_item_t@@@std@@PAX@std@@@std@@@std@@SAXAAV?$allocator@U?$_Tree_node@U?$pair@$$CBV?$basic_string@DU?$char_traits@D@std@@V?$allocator@D@2@@std@@PAVfms_config_item_t@@@std@@PAX@std@@@1@PAU?$pair@$$CBV?$basic_string@DU?$char_traits@D@std@@V?$allocator@D@2@@std@@PAVfms_config_item_t@@@1@@Z 1000e020 f i fms_config.obj
 0001:0000d040       ??$destroy@U?$pair@$$CBV?$basic_string@DU?$char_traits@D@std@@V?$allocator@D@2@@std@@H@std@@@?$_Wrap_alloc@V?$allocator@U?$_Tree_node@U?$pair@$$CBV?$basic_string@DU?$char_traits@D@std@@V?$allocator@D@2@@std@@H@std@@PAX@std@@@std@@@std@@QAEXPAU?$pair@$$CBV?$basic_string@DU?$char_traits@D@std@@V?$allocator@D@2@@std@@H@1@@Z 1000e040 f i mfdpage.obj
 0001:0000d040       ??$destroy@U?$pair@$$CBV?$basic_string@DU?$char_traits@D@std@@V?$allocator@D@2@@std@@D@std@@@?$_Wrap_alloc@V?$allocator@U?$_Tree_node@U?$pair@$$CBV?$basic_string@DU?$char_traits@D@std@@V?$allocator@D@2@@std@@D@std@@PAX@std@@@std@@@std@@QAEXPAU?$pair@$$CBV?$basic_string@DU?$char_traits@D@std@@V?$allocator@D@2@@std@@D@1@@Z 1000e040 f i mfdpage.obj
 0001:0000d040       ??$destroy@U?$pair@$$CBV?$basic_string@DU?$char_traits@D@std@@V?$allocator@D@2@@std@@PAVfms_config_item_t@@@std@@@?$_Wrap_alloc@V?$allocator@U?$_Tree_node@U?$pair@$$CBV?$basic_string@DU?$char_traits@D@std@@V?$allocator@D@2@@std@@PAVfms_config_item_t@@@std@@PAX@std@@@std@@@std@@QAEXPAU?$pair@$$CBV?$basic_string@DU?$char_traits@D@std@@V?$allocator@D@2@@std@@PAVfms_config_item_t@@@1@@Z 1000e040 f i fms_config.obj
 0001:0000d040       ??$destroy@U?$pair@$$CBV?$basic_string@DU?$char_traits@D@std@@V?$allocator@D@2@@std@@PAVfms_fp_item_t@@@std@@@?$_Wrap_alloc@V?$allocator@U?$_Tree_node@U?$pair@$$CBV?$basic_string@DU?$char_traits@D@std@@V?$allocator@D@2@@std@@PAVfms_fp_item_t@@@std@@PAX@std@@@std@@@std@@QAEXPAU?$pair@$$CBV?$basic_string@DU?$char_traits@D@std@@V?$allocator@D@2@@std@@PAVfms_fp_item_t@@@1@@Z 1000e040 f i fms_fp.obj
 0001:0000d040       ??$destroy@U?$pair@$$CBV?$basic_string@DU?$char_traits@D@std@@V?$allocator@D@2@@std@@M@std@@@?$_Wrap_alloc@V?$allocator@U?$_Tree_node@U?$pair@$$CBV?$basic_string@DU?$char_traits@D@std@@V?$allocator@D@2@@std@@M@std@@PAX@std@@@std@@@std@@QAEXPAU?$pair@$$CBV?$basic_string@DU?$char_traits@D@std@@V?$allocator@D@2@@std@@M@1@@Z 1000e040 f i mfdpage_fms.obj
 0001:0000d060       ??$emplace_hint@ABUpiecewise_construct_t@std@@V?$tuple@$$QAV?$basic_string@DU?$char_traits@D@std@@V?$allocator@D@2@@std@@@2@V?$tuple@$$$V@2@@?$_Tree@V?$_Tmap_traits@V?$basic_string@DU?$char_traits@D@std@@V?$allocator@D@2@@std@@DU?$less@V?$basic_string@DU?$char_traits@D@std@@V?$allocator@D@2@@std@@@2@V?$allocator@U?$pair@$$CBV?$basic_string@DU?$char_traits@D@std@@V?$allocator@D@2@@std@@D@std@@@2@$0A@@std@@@std@@QAE?AV?$_Tree_iterator@V?$_Tree_val@U?$_Tree_simple_types@U?$pair@$$CBV?$basic_string@DU?$char_traits@D@std@@V?$allocator@D@2@@std@@D@std@@@std@@@std@@@1@V?$_Tree_const_iterator@V?$_Tree_val@U?$_Tree_simple_types@U?$pair@$$CBV?$basic_string@DU?$char_traits@D@std@@V?$allocator@D@2@@std@@D@std@@@std@@@std@@@1@ABUpiecewise_construct_t@1@$$QAV?$tuple@$$QAV?$basic_string@DU?$char_traits@D@std@@V?$allocator@D@2@@std@@@1@$$QAV?$tuple@$$$V@1@@Z 1000e060 f i mfdpage.obj
 0001:0000d0d0       ??$emplace_hint@ABUpiecewise_construct_t@std@@V?$tuple@$$QAV?$basic_string@DU?$char_traits@D@std@@V?$allocator@D@2@@std@@@2@V?$tuple@$$$V@2@@?$_Tree@V?$_Tmap_traits@V?$basic_string@DU?$char_traits@D@std@@V?$allocator@D@2@@std@@HU?$less@V?$basic_string@DU?$char_traits@D@std@@V?$allocator@D@2@@std@@@2@V?$allocator@U?$pair@$$CBV?$basic_string@DU?$char_traits@D@std@@V?$allocator@D@2@@std@@H@std@@@2@$0A@@std@@@std@@QAE?AV?$_Tree_iterator@V?$_Tree_val@U?$_Tree_simple_types@U?$pair@$$CBV?$basic_string@DU?$char_traits@D@std@@V?$allocator@D@2@@std@@H@std@@@std@@@std@@@1@V?$_Tree_const_iterator@V?$_Tree_val@U?$_Tree_simple_types@U?$pair@$$CBV?$basic_string@DU?$char_traits@D@std@@V?$allocator@D@2@@std@@H@std@@@std@@@std@@@1@ABUpiecewise_construct_t@1@$$QAV?$tuple@$$QAV?$basic_string@DU?$char_traits@D@std@@V?$allocator@D@2@@std@@@1@$$QAV?$tuple@$$$V@1@@Z 1000e0d0 f i mfdpage.obj
 0001:0000d140       ??$emplace_hint@ABUpiecewise_construct_t@std@@V?$tuple@ABV?$basic_string@DU?$char_traits@D@std@@V?$allocator@D@2@@std@@@2@V?$tuple@$$$V@2@@?$_Tree@V?$_Tmap_traits@V?$basic_string@DU?$char_traits@D@std@@V?$allocator@D@2@@std@@V12@U?$less@V?$basic_string@DU?$char_traits@D@std@@V?$allocator@D@2@@std@@@2@V?$allocator@U?$pair@$$CBV?$basic_string@DU?$char_traits@D@std@@V?$allocator@D@2@@std@@V12@@std@@@2@$0A@@std@@@std@@QAE?AV?$_Tree_iterator@V?$_Tree_val@U?$_Tree_simple_types@U?$pair@$$CBV?$basic_string@DU?$char_traits@D@std@@V?$allocator@D@2@@std@@V12@@std@@@std@@@std@@@1@V?$_Tree_const_iterator@V?$_Tree_val@U?$_Tree_simple_types@U?$pair@$$CBV?$basic_string@DU?$char_traits@D@std@@V?$allocator@D@2@@std@@V12@@std@@@std@@@std@@@1@ABUpiecewise_construct_t@1@$$QAV?$tuple@ABV?$basic_string@DU?$char_traits@D@std@@V?$allocator@D@2@@std@@@1@$$QAV?$tuple@$$$V@1@@Z 1000e140 f i mfdpage.obj
 0001:0000d1b0       ??$forward_as_tuple@ABV?$basic_string@DU?$char_traits@D@std@@V?$allocator@D@2@@std@@@std@@YA?AV?$tuple@ABV?$basic_string@DU?$char_traits@D@std@@V?$allocator@D@2@@std@@@0@ABV?$basic_string@DU?$char_traits@D@std@@V?$allocator@D@2@@0@@Z 1000e1b0 f i mfdpage.obj
 0001:0000d1b0       ??$forward_as_tuple@ABH@std@@YA?AV?$tuple@ABH@0@ABH@Z 1000e1b0 f i out_saitek.obj
 0001:0000d1d0       ??$get@$0A@$$QAV?$basic_string@DU?$char_traits@D@std@@V?$allocator@D@2@@std@@@std@@YA$$QAV?$basic_string@DU?$char_traits@D@std@@V?$allocator@D@2@@0@$$QAV?$tuple@$$QAV?$basic_string@DU?$char_traits@D@std@@V?$allocator@D@2@@std@@@0@@Z 1000e1d0 f i tools.obj
 0001:0000d1d0       ??$get@$0A@$$QAH@std@@YA$$QAH$$QAV?$tuple@$$QAH@0@@Z 1000e1d0 f i mfdpage_fms.obj
 0001:0000d1d0       ??$get@$0A@ABH@std@@YAABH$$QAV?$tuple@ABH@0@@Z 1000e1d0 f i out_saitek.obj
 0001:0000d1d0       ??$get@$0A@ABV?$basic_string@DU?$char_traits@D@std@@V?$allocator@D@2@@std@@@std@@YAABV?$basic_string@DU?$char_traits@D@std@@V?$allocator@D@2@@0@$$QAV?$tuple@ABV?$basic_string@DU?$char_traits@D@std@@V?$allocator@D@2@@std@@@0@@Z 1000e1d0 f i mfdpage.obj
 0001:0000d1f0       ??$getline@DU?$char_traits@D@std@@V?$allocator@D@2@@std@@YAAAV?$basic_istream@DU?$char_traits@D@std@@@0@$$QAV10@AAV?$basic_string@DU?$char_traits@D@std@@V?$allocator@D@2@@0@D@Z 1000e1f0 f i mfdpage.obj
 0001:0000d3d0       ??$getline@DU?$char_traits@D@std@@V?$allocator@D@2@@std@@YAAAV?$basic_istream@DU?$char_traits@D@std@@@0@AAV10@AAV?$basic_string@DU?$char_traits@D@std@@V?$allocator@D@2@@0@D@Z 1000e3d0 f i mfdpage.obj
 0001:0000d400       ??0?$_String_const_iterator@V?$_String_val@U?$_Simple_types@D@std@@@std@@@std@@QAE@PBDPBU_Container_base0@1@@Z 1000e400 f i mfdpage.obj
 0001:0000d430       ??0?$_String_iterator@V?$_String_val@U?$_Simple_types@D@std@@@std@@@std@@QAE@PADPBU_Container_base0@1@@Z 1000e430 f i mfdpage.obj
 0001:0000d450       ??0?$_Tree@V?$_Tmap_traits@HPAVobject_t@@U?$less@H@std@@V?$allocator@U?$pair@$$CBHPAVobject_t@@@std@@@3@$0A@@std@@@std@@QAE@ABV01@ABV?$allocator@U?$pair@$$CBHPAVobject_t@@@std@@@1@@Z 1000e450 f i mfdpage.obj
 0001:0000d500       ??0?$_Tree_iterator@V?$_Tree_val@U?$_Tree_simple_types@U?$pair@$$CBV?$basic_string@DU?$char_traits@D@std@@V?$allocator@D@2@@std@@PAVfms_fp_item_t@@@std@@@std@@@std@@@std@@QAE@PAU?$_Tree_node@U?$pair@$$CBV?$basic_string@DU?$char_traits@D@std@@V?$allocator@D@2@@std@@PAVfms_fp_item_t@@@std@@PAX@1@PBV?$_Tree_val@U?$_Tree_simple_types@U?$pair@$$CBV?$basic_string@DU?$char_traits@D@std@@V?$allocator@D@2@@std@@PAVfms_fp_item_t@@@std@@@std@@@1@@Z 1000e500 f i fms_fp.obj
 0001:0000d500       ??0?$_Tree_iterator@V?$_Tree_val@U?$_Tree_simple_types@U?$pair@$$CBHPAVobject_t@@@std@@@std@@@std@@@std@@QAE@PAU?$_Tree_node@U?$pair@$$CBHPAVobject_t@@@std@@PAX@1@PBV?$_Tree_val@U?$_Tree_simple_types@U?$pair@$$CBHPAVobject_t@@@std@@@std@@@1@@Z 1000e500 f i mfdpage.obj
 0001:0000d500       ??0?$_Tree_iterator@V?$_Tree_val@U?$_Tree_simple_types@U?$pair@$$CBV?$basic_string@DU?$char_traits@D@std@@V?$allocator@D@2@@std@@M@std@@@std@@@std@@@std@@QAE@PAU?$_Tree_node@U?$pair@$$CBV?$basic_string@DU?$char_traits@D@std@@V?$allocator@D@2@@std@@M@std@@PAX@1@PBV?$_Tree_val@U?$_Tree_simple_types@U?$pair@$$CBV?$basic_string@DU?$char_traits@D@std@@V?$allocator@D@2@@std@@M@std@@@std@@@1@@Z 1000e500 f i mfdpage_fms.obj
 0001:0000d500       ??0?$_Tree_iterator@V?$_Tree_val@U?$_Tree_simple_types@U?$pair@$$CBHPAVfms_fp_item_t@@@std@@@std@@@std@@@std@@QAE@PAU?$_Tree_node@U?$pair@$$CBHPAVfms_fp_item_t@@@std@@PAX@1@PBV?$_Tree_val@U?$_Tree_simple_types@U?$pair@$$CBHPAVfms_fp_item_t@@@std@@@std@@@1@@Z 1000e500 f i mfdpage_fms.obj
 0001:0000d500       ??0?$_Tree_iterator@V?$_Tree_val@U?$_Tree_simple_types@U?$pair@$$CBHM@std@@@std@@@std@@@std@@QAE@PAU?$_Tree_node@U?$pair@$$CBHM@std@@PAX@1@PBV?$_Tree_val@U?$_Tree_simple_types@U?$pair@$$CBHM@std@@@std@@@1@@Z 1000e500 f i fms_config.obj
 0001:0000d500       ??0?$_Tree_iterator@V?$_Tree_val@U?$_Tree_simple_types@U?$pair@$$CBHV?$basic_string@DU?$char_traits@D@std@@V?$allocator@D@2@@std@@@std@@@std@@@std@@@std@@QAE@PAU?$_Tree_node@U?$pair@$$CBHV?$basic_string@DU?$char_traits@D@std@@V?$allocator@D@2@@std@@@std@@PAX@1@PBV?$_Tree_val@U?$_Tree_simple_types@U?$pair@$$CBHV?$basic_string@DU?$char_traits@D@std@@V?$allocator@D@2@@std@@@std@@@std@@@1@@Z 1000e500 f i out_saitek.obj
 0001:0000d500       ??0?$_Tree_iterator@V?$_Tree_val@U?$_Tree_simple_types@U?$pair@$$CBV?$basic_string@DU?$char_traits@D@std@@V?$allocator@D@2@@std@@V12@@std@@@std@@@std@@@std@@QAE@PAU?$_Tree_node@U?$pair@$$CBV?$basic_string@DU?$char_traits@D@std@@V?$allocator@D@2@@std@@V12@@std@@PAX@1@PBV?$_Tree_val@U?$_Tree_simple_types@U?$pair@$$CBV?$basic_string@DU?$char_traits@D@std@@V?$allocator@D@2@@std@@V12@@std@@@std@@@1@@Z 1000e500 f i tools.obj
 0001:0000d500       ??0?$_Tree_iterator@V?$_Tree_val@U?$_Tree_simple_types@U?$pair@$$CBV?$basic_string@DU?$char_traits@D@std@@V?$allocator@D@2@@std@@D@std@@@std@@@std@@@std@@QAE@PAU?$_Tree_node@U?$pair@$$CBV?$basic_string@DU?$char_traits@D@std@@V?$allocator@D@2@@std@@D@std@@PAX@1@PBV?$_Tree_val@U?$_Tree_simple_types@U?$pair@$$CBV?$basic_string@DU?$char_traits@D@std@@V?$allocator@D@2@@std@@D@std@@@std@@@1@@Z 1000e500 f i mfdpage.obj
 0001:0000d500       ??0?$_Tree_iterator@V?$_Tree_val@U?$_Tree_simple_types@U?$pair@$$CBV?$basic_string@DU?$char_traits@D@std@@V?$allocator@D@2@@std@@PAVfms_config_item_t@@@std@@@std@@@std@@@std@@QAE@PAU?$_Tree_node@U?$pair@$$CBV?$basic_string@DU?$char_traits@D@std@@V?$allocator@D@2@@std@@PAVfms_config_item_t@@@std@@PAX@1@PBV?$_Tree_val@U?$_Tree_simple_types@U?$pair@$$CBV?$basic_string@DU?$char_traits@D@std@@V?$allocator@D@2@@std@@PAVfms_config_item_t@@@std@@@std@@@1@@Z 1000e500 f i fms_config.obj
 0001:0000d500       ??0?$_Tree_iterator@V?$_Tree_val@U?$_Tree_simple_types@U?$pair@$$CBV?$basic_string@DU?$char_traits@D@std@@V?$allocator@D@2@@std@@H@std@@@std@@@std@@@std@@QAE@PAU?$_Tree_node@U?$pair@$$CBV?$basic_string@DU?$char_traits@D@std@@V?$allocator@D@2@@std@@H@std@@PAX@1@PBV?$_Tree_val@U?$_Tree_simple_types@U?$pair@$$CBV?$basic_string@DU?$char_traits@D@std@@V?$allocator@D@2@@std@@H@std@@@std@@@1@@Z 1000e500 f i mfdpage.obj
 0001:0000d520       ??0?$_Tree_unchecked_const_iterator@V?$_Tree_val@U?$_Tree_simple_types@U?$pair@$$CBV?$basic_string@DU?$char_traits@D@std@@V?$allocator@D@2@@std@@V12@@std@@@std@@@std@@U_Iterator_base0@2@@std@@QAE@XZ 1000e520 f i tools.obj
 0001:0000d520       ??0?$_Tree_unchecked_const_iterator@V?$_Tree_val@U?$_Tree_simple_types@U?$pair@$$CBV?$basic_string@DU?$char_traits@D@std@@V?$allocator@D@2@@std@@D@std@@@std@@@std@@U_Iterator_base0@2@@std@@QAE@XZ 1000e520 f i mfdpage.obj
 0001:0000d520       ??0?$_Tree_unchecked_const_iterator@V?$_Tree_val@U?$_Tree_simple_types@U?$pair@$$CBHPAVobject_t@@@std@@@std@@@std@@U_Iterator_base0@2@@std@@QAE@XZ 1000e520 f i mfdpage.obj
 0001:0000d520       ??0?$_Tree_unchecked_const_iterator@V?$_Tree_val@U?$_Tree_simple_types@U?$pair@$$CBV?$basic_string@DU?$char_traits@D@std@@V?$allocator@D@2@@std@@M@std@@@std@@@std@@U_Iterator_base0@2@@std@@QAE@XZ 1000e520 f i mfdpage_fms.obj
 0001:0000d520       ??0?$_Tree_unchecked_const_iterator@V?$_Tree_val@U?$_Tree_simple_types@U?$pair@$$CBHV?$basic_string@DU?$char_traits@D@std@@V?$allocator@D@2@@std@@@std@@@std@@@std@@U_Iterator_base0@2@@std@@QAE@XZ 1000e520 f i out_saitek.obj
 0001:0000d520       ??0?$_Tree_unchecked_const_iterator@V?$_Tree_val@U?$_Tree_simple_types@U?$pair@$$CBV?$basic_string@DU?$char_traits@D@std@@V?$allocator@D@2@@std@@PAVfms_config_item_t@@@std@@@std@@@std@@U_Iterator_base0@2@@std@@QAE@XZ 1000e520 f i fms_config.obj
 0001:0000d520       ??0?$_Tree_unchecked_const_iterator@V?$_Tree_val@U?$_Tree_simple_types@U?$pair@$$CBV?$basic_string@DU?$char_traits@D@std@@V?$allocator@D@2@@std@@H@std@@@std@@@std@@U_Iterator_base0@2@@std@@QAE@XZ 1000e520 f i mfdpage.obj
 0001:0000d520       ??0?$_Tree_unchecked_const_iterator@V?$_Tree_val@U?$_Tree_simple_types@U?$pair@$$CBHM@std@@@std@@@std@@U_Iterator_base0@2@@std@@QAE@XZ 1000e520 f i fms_config.obj
 0001:0000d520       ??0?$_Tree_unchecked_const_iterator@V?$_Tree_val@U?$_Tree_simple_types@U?$pair@$$CBV?$basic_string@DU?$char_traits@D@std@@V?$allocator@D@2@@std@@PAVfms_fp_item_t@@@std@@@std@@@std@@U_Iterator_base0@2@@std@@QAE@XZ 1000e520 f i fms_fp.obj
 0001:0000d520       ??0?$_Tree_unchecked_const_iterator@V?$_Tree_val@U?$_Tree_simple_types@U?$pair@$$CBHPAVfms_fp_item_t@@@std@@@std@@@std@@U_Iterator_base0@2@@std@@QAE@XZ 1000e520 f i mfdpage_fms.obj
 0001:0000d540       ??0?$basic_stringbuf@DU?$char_traits@D@std@@V?$allocator@D@2@@std@@QAE@ABV?$basic_string@DU?$char_traits@D@std@@V?$allocator@D@2@@1@H@Z 1000e540 f i mfdpage.obj
 0001:0000d5a0       ??0?$basic_stringstream@DU?$char_traits@D@std@@V?$allocator@D@2@@std@@QAE@ABV?$basic_string@DU?$char_traits@D@std@@V?$allocator@D@2@@1@H@Z 1000e5a0 f i mfdpage.obj
 0001:0000d640       ??0?$map@HPAVobject_t@@U?$less@H@std@@V?$allocator@U?$pair@$$CBHPAVobject_t@@@std@@@3@@std@@QAE@ABV01@@Z 1000e640 f i mfdpage.obj
 0001:0000d690       ??0?$map@HMU?$less@H@std@@V?$allocator@U?$pair@$$CBHM@std@@@2@@std@@QAE@XZ 1000e690 f i fms_config.obj
 0001:0000d690       ??0?$map@HPAVfms_fp_item_t@@U?$less@H@std@@V?$allocator@U?$pair@$$CBHPAVfms_fp_item_t@@@std@@@3@@std@@QAE@XZ 1000e690 f i fms_fp.obj
 0001:0000d690       ??0?$map@HPAVobject_t@@U?$less@H@std@@V?$allocator@U?$pair@$$CBHPAVobject_t@@@std@@@3@@std@@QAE@XZ 1000e690 f i mfdpage.obj
 0001:0000d6c0       ??0?$tuple@ABV?$basic_string@DU?$char_traits@D@std@@V?$allocator@D@2@@std@@@std@@QAE@ABV?$basic_string@DU?$char_traits@D@std@@V?$allocator@D@2@@1@@Z 1000e6c0 f i mfdpage.obj
 0001:0000d6c0       ??0?$tuple@ABH@std@@QAE@ABH@Z 1000e6c0 f i out_saitek.obj
 0001:0000d6f0       ??0_Sentry_base@?$basic_istream@DU?$char_traits@D@std@@@std@@QAE@AAV12@@Z 1000e6f0 f i mfdpage.obj
 0001:0000d750       ??0listener_t@@QAE@XZ      1000e750 f i mfdpage.obj
 0001:0000d770       ??0sentry@?$basic_istream@DU?$char_traits@D@std@@@std@@QAE@AAV12@_N@Z 1000e770 f i mfdpage.obj
 0001:0000d7b0       ??1?$_Tree@V?$_Tmap_traits@HPAVobject_t@@U?$less@H@std@@V?$allocator@U?$pair@$$CBHPAVobject_t@@@std@@@3@$0A@@std@@@std@@QAE@XZ 1000e7b0 f i mfdpage.obj
 0001:0000d7b0       ??1?$_Tree@V?$_Tmap_traits@HPAVfms_fp_item_t@@U?$less@H@std@@V?$allocator@U?$pair@$$CBHPAVfms_fp_item_t@@@std@@@3@$0A@@std@@@std@@QAE@XZ 1000e7b0 f i fms_fp.obj
 0001:0000d7d0       ??1?$_Tree@V?$_Tmap_traits@HV?$basic_string@DU?$char_traits@D@std@@V?$allocator@D@2@@std@@U?$less@H@2@V?$allocator@U?$pair@$$CBHV?$basic_string@DU?$char_traits@D@std@@V?$allocator@D@2@@std@@@std@@@2@$0A@@std@@@std@@QAE@XZ 1000e7d0 f i mfdpage.obj
 0001:0000d7f0       ??1?$_Tree@V?$_Tmap_traits@V?$basic_string@DU?$char_traits@D@std@@V?$allocator@D@2@@std@@PAVfms_config_item_t@@U?$less@V?$basic_string@DU?$char_traits@D@std@@V?$allocator@D@2@@std@@@2@V?$allocator@U?$pair@$$CBV?$basic_string@DU?$char_traits@D@std@@V?$allocator@D@2@@std@@PAVfms_config_item_t@@@std@@@2@$0A@@std@@@std@@QAE@XZ 1000e7f0 f i fms_config.obj
 0001:0000d7f0       ??1?$_Tree@V?$_Tmap_traits@V?$basic_string@DU?$char_traits@D@std@@V?$allocator@D@2@@std@@HU?$less@V?$basic_string@DU?$char_traits@D@std@@V?$allocator@D@2@@std@@@2@V?$allocator@U?$pair@$$CBV?$basic_string@DU?$char_traits@D@std@@V?$allocator@D@2@@std@@H@std@@@2@$0A@@std@@@std@@QAE@XZ 1000e7f0 f i mfdpage.obj
 0001:0000d7f0       ??1?$_Tree@V?$_Tmap_traits@V?$basic_string@DU?$char_traits@D@std@@V?$allocator@D@2@@std@@PAVfms_fp_item_t@@U?$less@V?$basic_string@DU?$char_traits@D@std@@V?$allocator@D@2@@std@@@2@V?$allocator@U?$pair@$$CBV?$basic_string@DU?$char_traits@D@std@@V?$allocator@D@2@@std@@PAVfms_fp_item_t@@@std@@@2@$0A@@std@@@std@@QAE@XZ 1000e7f0 f i fms_fp.obj
 0001:0000d7f0       ??1?$_Tree@V?$_Tmap_traits@V?$basic_string@DU?$char_traits@D@std@@V?$allocator@D@2@@std@@MU?$less@V?$basic_string@DU?$char_traits@D@std@@V?$allocator@D@2@@std@@@2@V?$allocator@U?$pair@$$CBV?$basic_string@DU?$char_traits@D@std@@V?$allocator@D@2@@std@@M@std@@@2@$0A@@std@@@std@@QAE@XZ 1000e7f0 f i fms_config.obj
 0001:0000d810       ??1?$_Tree_alloc@$0A@U?$_Tree_base_types@PAVlistener_t@@V?$allocator@PAVlistener_t@@@std@@@std@@@std@@QAE@XZ 1000e810 f i data.obj
 0001:0000d810       ??1?$_Tree_alloc@$0A@U?$_Tree_base_types@U?$pair@$$CBV?$basic_string@DU?$char_traits@D@std@@V?$allocator@D@2@@std@@V12@@std@@V?$allocator@U?$pair@$$CBV?$basic_string@DU?$char_traits@D@std@@V?$allocator@D@2@@std@@V12@@std@@@2@@std@@@std@@QAE@XZ 1000e810 f i tools.obj
 0001:0000d810       ??1?$_Tree_alloc@$0A@U?$_Tree_base_types@PAVmfdpage_t@@V?$allocator@PAVmfdpage_t@@@std@@@std@@@std@@QAE@XZ 1000e810 f i in.obj
 0001:0000d810       ??1?$_Tree_alloc@$0A@U?$_Tree_base_types@U?$pair@$$CBV?$basic_string@DU?$char_traits@D@std@@V?$allocator@D@2@@std@@PAVfms_config_item_t@@@std@@V?$allocator@U?$pair@$$CBV?$basic_string@DU?$char_traits@D@std@@V?$allocator@D@2@@std@@PAVfms_config_item_t@@@std@@@2@@std@@@std@@QAE@XZ 1000e810 f i fms_config.obj
 0001:0000d810       ??1?$_Tree_alloc@$0A@U?$_Tree_base_types@PAVobject_t@@V?$allocator@PAVobject_t@@@std@@@std@@@std@@QAE@XZ 1000e810 f i data.obj
 0001:0000d810       ??1?$_Tree_alloc@$0A@U?$_Tree_base_types@U?$pair@$$CBHPAVfms_fp_item_t@@@std@@V?$allocator@U?$pair@$$CBHPAVfms_fp_item_t@@@std@@@2@@std@@@std@@QAE@XZ 1000e810 f i fms_fp.obj
 0001:0000d810       ??1?$_Tree_alloc@$0A@U?$_Tree_base_types@U?$pair@$$CBV?$basic_string@DU?$char_traits@D@std@@V?$allocator@D@2@@std@@M@std@@V?$allocator@U?$pair@$$CBV?$basic_string@DU?$char_traits@D@std@@V?$allocator@D@2@@std@@M@std@@@2@@std@@@std@@QAE@XZ 1000e810 f i fms_config.obj
 0001:0000d810       ??1?$_Tree_alloc@$0A@U?$_Tree_base_types@U?$pair@$$CBV?$basic_string@DU?$char_traits@D@std@@V?$allocator@D@2@@std@@H@std@@V?$allocator@U?$pair@$$CBV?$basic_string@DU?$char_traits@D@std@@V?$allocator@D@2@@std@@H@std@@@2@@std@@@std@@QAE@XZ 1000e810 f i mfdpage.obj
 0001:0000d810       ??1?$_Tree_alloc@$0A@U?$_Tree_base_types@U?$pair@$$CBV?$basic_string@DU?$char_traits@D@std@@V?$allocator@D@2@@std@@PAVfms_fp_item_t@@@std@@V?$allocator@U?$pair@$$CBV?$basic_string@DU?$char_traits@D@std@@V?$allocator@D@2@@std@@PAVfms_fp_item_t@@@std@@@2@@std@@@std@@QAE@XZ 1000e810 f i fms_fp.obj
 0001:0000d810       ??1?$_Tree_alloc@$0A@U?$_Tree_base_types@U?$pair@$$CBHV?$basic_string@DU?$char_traits@D@std@@V?$allocator@D@2@@std@@@std@@V?$allocator@U?$pair@$$CBHV?$basic_string@DU?$char_traits@D@std@@V?$allocator@D@2@@std@@@std@@@2@@std@@@std@@QAE@XZ 1000e810 f i mfdpage.obj
 0001:0000d810       ??1?$_Tree_alloc@$0A@U?$_Tree_base_types@U?$pair@$$CBHPAVobject_t@@@std@@V?$allocator@U?$pair@$$CBHPAVobject_t@@@std@@@2@@std@@@std@@QAE@XZ 1000e810 f i mfdpage.obj
 0001:0000d830       ??1?$_Tree_buy@PAVlistener_t@@V?$allocator@PAVlistener_t@@@std@@@std@@QAE@XZ 1000e830 f i data.obj
 0001:0000d830       ??1?$_Tree_buy@U?$pair@$$CBHV?$basic_string@DU?$char_traits@D@std@@V?$allocator@D@2@@std@@@std@@V?$allocator@U?$pair@$$CBHV?$basic_string@DU?$char_traits@D@std@@V?$allocator@D@2@@std@@@std@@@2@@std@@QAE@XZ 1000e830 f i mfdpage.obj
 0001:0000d830       ??1?$_Tree_buy@U?$pair@$$CBHPAVfms_fp_item_t@@@std@@V?$allocator@U?$pair@$$CBHPAVfms_fp_item_t@@@std@@@2@@std@@QAE@XZ 1000e830 f i fms_fp.obj
 0001:0000d830       ??1?$_Tree_buy@PAVobject_t@@V?$allocator@PAVobject_t@@@std@@@std@@QAE@XZ 1000e830 f i data.obj
 0001:0000d830       ??1?$_Tree_buy@U?$pair@$$CBV?$basic_string@DU?$char_traits@D@std@@V?$allocator@D@2@@std@@V12@@std@@V?$allocator@U?$pair@$$CBV?$basic_string@DU?$char_traits@D@std@@V?$allocator@D@2@@std@@V12@@std@@@2@@std@@QAE@XZ 1000e830 f i tools.obj
 0001:0000d830       ??1?$_Tree_buy@U?$pair@$$CBV?$basic_string@DU?$char_traits@D@std@@V?$allocator@D@2@@std@@H@std@@V?$allocator@U?$pair@$$CBV?$basic_string@DU?$char_traits@D@std@@V?$allocator@D@2@@std@@H@std@@@2@@std@@QAE@XZ 1000e830 f i mfdpage.obj
 0001:0000d830       ??1?$_Tree_buy@PAVmfdpage_t@@V?$allocator@PAVmfdpage_t@@@std@@@std@@QAE@XZ 1000e830 f i in.obj
 0001:0000d830       ??1?$_Tree_buy@U?$pair@$$CBV?$basic_string@DU?$char_traits@D@std@@V?$allocator@D@2@@std@@M@std@@V?$allocator@U?$pair@$$CBV?$basic_string@DU?$char_traits@D@std@@V?$allocator@D@2@@std@@M@std@@@2@@std@@QAE@XZ 1000e830 f i fms_config.obj
 0001:0000d830       ??1?$_Tree_buy@U?$pair@$$CBV?$basic_string@DU?$char_traits@D@std@@V?$allocator@D@2@@std@@PAVfms_config_item_t@@@std@@V?$allocator@U?$pair@$$CBV?$basic_string@DU?$char_traits@D@std@@V?$allocator@D@2@@std@@PAVfms_config_item_t@@@std@@@2@@std@@QAE@XZ 1000e830 f i fms_config.obj
 0001:0000d830       ??1?$_Tree_buy@U?$pair@$$CBV?$basic_string@DU?$char_traits@D@std@@V?$allocator@D@2@@std@@PAVfms_fp_item_t@@@std@@V?$allocator@U?$pair@$$CBV?$basic_string@DU?$char_traits@D@std@@V?$allocator@D@2@@std@@PAVfms_fp_item_t@@@std@@@2@@std@@QAE@XZ 1000e830 f i fms_fp.obj
 0001:0000d830       ??1?$_Tree_buy@U?$pair@$$CBHPAVobject_t@@@std@@V?$allocator@U?$pair@$$CBHPAVobject_t@@@std@@@2@@std@@QAE@XZ 1000e830 f i mfdpage.obj
 0001:0000d850       ??1?$basic_stringstream@DU?$char_traits@D@std@@V?$allocator@D@2@@std@@UAE@XZ 1000e850 f i mfdpage.obj
 0001:0000d8b0       ??1?$map@HPAVobject_t@@U?$less@H@std@@V?$allocator@U?$pair@$$CBHPAVobject_t@@@std@@@3@@std@@QAE@XZ 1000e8b0 f i mfdpage.obj
 0001:0000d8b0       ??1?$map@HPAVfms_fp_item_t@@U?$less@H@std@@V?$allocator@U?$pair@$$CBHPAVfms_fp_item_t@@@std@@@3@@std@@QAE@XZ 1000e8b0 f i fms_fp.obj
 0001:0000d8d0       ??1?$map@HV?$basic_string@DU?$char_traits@D@std@@V?$allocator@D@2@@std@@U?$less@H@2@V?$allocator@U?$pair@$$CBHV?$basic_string@DU?$char_traits@D@std@@V?$allocator@D@2@@std@@@std@@@2@@std@@QAE@XZ 1000e8d0 f i mfdpage.obj
 0001:0000d8f0       ??1?$map@V?$basic_string@DU?$char_traits@D@std@@V?$allocator@D@2@@std@@PAVfms_config_item_t@@U?$less@V?$basic_string@DU?$char_traits@D@std@@V?$allocator@D@2@@std@@@2@V?$allocator@U?$pair@$$CBV?$basic_string@DU?$char_traits@D@std@@V?$allocator@D@2@@std@@PAVfms_config_item_t@@@std@@@2@@std@@QAE@XZ 1000e8f0 f i fms_config.obj
 0001:0000d8f0       ??1?$map@V?$basic_string@DU?$char_traits@D@std@@V?$allocator@D@2@@std@@HU?$less@V?$basic_string@DU?$char_traits@D@std@@V?$allocator@D@2@@std@@@2@V?$allocator@U?$pair@$$CBV?$basic_string@DU?$char_traits@D@std@@V?$allocator@D@2@@std@@H@std@@@2@@std@@QAE@XZ 1000e8f0 f i mfdpage.obj
 0001:0000d8f0       ??1?$map@V?$basic_string@DU?$char_traits@D@std@@V?$allocator@D@2@@std@@PAVfms_fp_item_t@@U?$less@V?$basic_string@DU?$char_traits@D@std@@V?$allocator@D@2@@std@@@2@V?$allocator@U?$pair@$$CBV?$basic_string@DU?$char_traits@D@std@@V?$allocator@D@2@@std@@PAVfms_fp_item_t@@@std@@@2@@std@@QAE@XZ 1000e8f0 f i fms_fp.obj
 0001:0000d8f0       ??1?$map@V?$basic_string@DU?$char_traits@D@std@@V?$allocator@D@2@@std@@MU?$less@V?$basic_string@DU?$char_traits@D@std@@V?$allocator@D@2@@std@@@2@V?$allocator@U?$pair@$$CBV?$basic_string@DU?$char_traits@D@std@@V?$allocator@D@2@@std@@M@std@@@2@@std@@QAE@XZ 1000e8f0 f i fms_config.obj
 0001:0000d910       ??1?$pair@$$CBV?$basic_string@DU?$char_traits@D@std@@V?$allocator@D@2@@std@@H@std@@QAE@XZ 1000e910 f i mfdpage.obj
 0001:0000d910       ??1?$pair@$$CBV?$basic_string@DU?$char_traits@D@std@@V?$allocator@D@2@@std@@M@std@@QAE@XZ 1000e910 f i mfdpage_fms.obj
 0001:0000d910       ??1?$pair@$$CBV?$basic_string@DU?$char_traits@D@std@@V?$allocator@D@2@@std@@PAVfms_config_item_t@@@std@@QAE@XZ 1000e910 f i fms_config.obj
 0001:0000d910       ??1?$pair@$$CBV?$basic_string@DU?$char_traits@D@std@@V?$allocator@D@2@@std@@D@std@@QAE@XZ 1000e910 f i mfdpage.obj
 0001:0000d910       ??1?$pair@$$CBV?$basic_string@DU?$char_traits@D@std@@V?$allocator@D@2@@std@@PAVfms_fp_item_t@@@std@@QAE@XZ 1000e910 f i fms_fp.obj
 0001:0000d930       ??1_Sentry_base@?$basic_istream@DU?$char_traits@D@std@@@std@@QAE@XZ 1000e930 f i mfdpage.obj
 0001:0000d990       ??1listener_t@@UAE@XZ      1000e990 f i mfdpage.obj
 0001:0000d9b0       ??1sentry@?$basic_istream@DU?$char_traits@D@std@@@std@@QAE@XZ 1000e9b0 f i mfdpage.obj
 0001:0000d9d0       ??4?$basic_string@DU?$char_traits@D@std@@V?$allocator@D@2@@std@@QAEAAV01@$$QAV01@@Z 1000e9d0 f i mfdpage.obj
 0001:0000da80       ??8?$_String_const_iterator@V?$_String_val@U?$_Simple_types@D@std@@@std@@@std@@QBE_NABV01@@Z 1000ea80 f i mfdpage.obj
 0001:0000dac0       ??8?$_Tree_const_iterator@V?$_Tree_val@U?$_Tree_simple_types@U?$pair@$$CBHPAVfms_fp_item_t@@@std@@@std@@@std@@@std@@QBE_NABV01@@Z 1000eac0 f i mfdpage_fms.obj
 0001:0000dac0       ??8?$_Tree_const_iterator@V?$_Tree_val@U?$_Tree_simple_types@PAVmfdpage_t@@@std@@@std@@@std@@QBE_NABV01@@Z 1000eac0 f i in.obj
 0001:0000dac0       ??8?$_Tree_const_iterator@V?$_Tree_val@U?$_Tree_simple_types@U?$pair@$$CBHPAVobject_t@@@std@@@std@@@std@@@std@@QBE_NABV01@@Z 1000eac0 f i mfdpage.obj
 0001:0000dac0       ??8?$_Tree_const_iterator@V?$_Tree_val@U?$_Tree_simple_types@PAVobject_t@@@std@@@std@@@std@@QBE_NABV01@@Z 1000eac0 f i data.obj
 0001:0000dac0       ??8?$_Tree_const_iterator@V?$_Tree_val@U?$_Tree_simple_types@U?$pair@$$CBV?$basic_string@DU?$char_traits@D@std@@V?$allocator@D@2@@std@@D@std@@@std@@@std@@@std@@QBE_NABV01@@Z 1000eac0 f i mfdpage.obj
 0001:0000dac0       ??8?$_Tree_const_iterator@V?$_Tree_val@U?$_Tree_simple_types@U?$pair@$$CBV?$basic_string@DU?$char_traits@D@std@@V?$allocator@D@2@@std@@PAVfms_config_item_t@@@std@@@std@@@std@@@std@@QBE_NABV01@@Z 1000eac0 f i fms_config.obj
 0001:0000dac0       ??8?$_Tree_const_iterator@V?$_Tree_val@U?$_Tree_simple_types@U?$pair@$$CBHM@std@@@std@@@std@@@std@@QBE_NABV01@@Z 1000eac0 f i fms_config.obj
 0001:0000dac0       ??8?$_Tree_const_iterator@V?$_Tree_val@U?$_Tree_simple_types@PAVlistener_t@@@std@@@std@@@std@@QBE_NABV01@@Z 1000eac0 f i data.obj
 0001:0000dac0       ??8?$_Tree_const_iterator@V?$_Tree_val@U?$_Tree_simple_types@U?$pair@$$CBV?$basic_string@DU?$char_traits@D@std@@V?$allocator@D@2@@std@@PAVfms_fp_item_t@@@std@@@std@@@std@@@std@@QBE_NABV01@@Z 1000eac0 f i fms_fp.obj
 0001:0000dac0       ??8?$_Tree_const_iterator@V?$_Tree_val@U?$_Tree_simple_types@U?$pair@$$CBV?$basic_string@DU?$char_traits@D@std@@V?$allocator@D@2@@std@@V12@@std@@@std@@@std@@@std@@QBE_NABV01@@Z 1000eac0 f i tools.obj
 0001:0000dac0       ??8?$_Tree_const_iterator@V?$_Tree_val@U?$_Tree_simple_types@U?$pair@$$CBV?$basic_string@DU?$char_traits@D@std@@V?$allocator@D@2@@std@@H@std@@@std@@@std@@@std@@QBE_NABV01@@Z 1000eac0 f i mfdpage.obj
 0001:0000dac0       ??8?$_Tree_const_iterator@V?$_Tree_val@U?$_Tree_simple_types@U?$pair@$$CBV?$basic_string@DU?$char_traits@D@std@@V?$allocator@D@2@@std@@M@std@@@std@@@std@@@std@@QBE_NABV01@@Z 1000eac0 f i mfdpage_fms.obj
 0001:0000dac0       ??8?$_Tree_const_iterator@V?$_Tree_val@U?$_Tree_simple_types@U?$pair@$$CBHV?$basic_string@DU?$char_traits@D@std@@V?$allocator@D@2@@std@@@std@@@std@@@std@@@std@@QBE_NABV01@@Z 1000eac0 f i out_saitek.obj
 0001:0000daf0       ??A?$map@HPAVobject_t@@U?$less@H@std@@V?$allocator@U?$pair@$$CBHPAVobject_t@@@std@@@3@@std@@QAEAAPAVobject_t@@ABH@Z 1000eaf0 f i mfdpage.obj
 0001:0000dba0       ??A?$map@V?$basic_string@DU?$char_traits@D@std@@V?$allocator@D@2@@std@@DU?$less@V?$basic_string@DU?$char_traits@D@std@@V?$allocator@D@2@@std@@@2@V?$allocator@U?$pair@$$CBV?$basic_string@DU?$char_traits@D@std@@V?$allocator@D@2@@std@@D@std@@@2@@std@@QAEAAD$$QAV?$basic_string@DU?$char_traits@D@std@@V?$allocator@D@2@@1@@Z 1000eba0 f i mfdpage.obj
 0001:0000dc60       ??A?$map@V?$basic_string@DU?$char_traits@D@std@@V?$allocator@D@2@@std@@HU?$less@V?$basic_string@DU?$char_traits@D@std@@V?$allocator@D@2@@std@@@2@V?$allocator@U?$pair@$$CBV?$basic_string@DU?$char_traits@D@std@@V?$allocator@D@2@@std@@H@std@@@2@@std@@QAEAAH$$QAV?$basic_string@DU?$char_traits@D@std@@V?$allocator@D@2@@1@@Z 1000ec60 f i mfdpage.obj
 0001:0000dd20       ??A?$map@V?$basic_string@DU?$char_traits@D@std@@V?$allocator@D@2@@std@@V12@U?$less@V?$basic_string@DU?$char_traits@D@std@@V?$allocator@D@2@@std@@@2@V?$allocator@U?$pair@$$CBV?$basic_string@DU?$char_traits@D@std@@V?$allocator@D@2@@std@@V12@@std@@@2@@std@@QAEAAV?$basic_string@DU?$char_traits@D@std@@V?$allocator@D@2@@1@ABV21@@Z 1000ed20 f i mfdpage.obj
 0001:0000ddd0       ??Bsentry@?$basic_istream@DU?$char_traits@D@std@@@std@@QBE_NXZ 1000edd0 f i mfdpage.obj
 0001:0000ddf0       ??D?$_String_iterator@V?$_String_val@U?$_Simple_types@D@std@@@std@@@std@@QBEAADXZ 1000edf0 f i mfdpage.obj
 0001:0000de10       ??E?$_Tree_const_iterator@V?$_Tree_val@U?$_Tree_simple_types@U?$pair@$$CBV?$basic_string@DU?$char_traits@D@std@@V?$allocator@D@2@@std@@M@std@@@std@@@std@@@std@@QAEAAV01@XZ 1000ee10 f i mfdpage_fms.obj
 0001:0000de10       ??E?$_Tree_const_iterator@V?$_Tree_val@U?$_Tree_simple_types@U?$pair@$$CBHPAVobject_t@@@std@@@std@@@std@@@std@@QAEAAV01@XZ 1000ee10 f i mfdpage.obj
 0001:0000de10       ??E?$_Tree_const_iterator@V?$_Tree_val@U?$_Tree_simple_types@U?$pair@$$CBV?$basic_string@DU?$char_traits@D@std@@V?$allocator@D@2@@std@@V12@@std@@@std@@@std@@@std@@QAEAAV01@XZ 1000ee10 f i tools.obj
 0001:0000de10       ??E?$_Tree_const_iterator@V?$_Tree_val@U?$_Tree_simple_types@U?$pair@$$CBV?$basic_string@DU?$char_traits@D@std@@V?$allocator@D@2@@std@@PAVfms_fp_item_t@@@std@@@std@@@std@@@std@@QAEAAV01@XZ 1000ee10 f i fms_fp.obj
 0001:0000de10       ??E?$_Tree_const_iterator@V?$_Tree_val@U?$_Tree_simple_types@U?$pair@$$CBV?$basic_string@DU?$char_traits@D@std@@V?$allocator@D@2@@std@@D@std@@@std@@@std@@@std@@QAEAAV01@XZ 1000ee10 f i mfdpage.obj
 0001:0000de10       ??E?$_Tree_const_iterator@V?$_Tree_val@U?$_Tree_simple_types@U?$pair@$$CBV?$basic_string@DU?$char_traits@D@std@@V?$allocator@D@2@@std@@PAVfms_config_item_t@@@std@@@std@@@std@@@std@@QAEAAV01@XZ 1000ee10 f i fms_config.obj
 0001:0000de10       ??E?$_Tree_const_iterator@V?$_Tree_val@U?$_Tree_simple_types@PAVlistener_t@@@std@@@std@@@std@@QAEAAV01@XZ 1000ee10 f i data.obj
 0001:0000de10       ??E?$_Tree_const_iterator@V?$_Tree_val@U?$_Tree_simple_types@U?$pair@$$CBV?$basic_string@DU?$char_traits@D@std@@V?$allocator@D@2@@std@@H@std@@@std@@@std@@@std@@QAEAAV01@XZ 1000ee10 f i mfdpage.obj
 0001:0000de10       ??E?$_Tree_const_iterator@V?$_Tree_val@U?$_Tree_simple_types@PAVobject_t@@@std@@@std@@@std@@QAEAAV01@XZ 1000ee10 f i data.obj
 0001:0000de10       ??E?$_Tree_const_iterator@V?$_Tree_val@U?$_Tree_simple_types@U?$pair@$$CBHM@std@@@std@@@std@@@std@@QAEAAV01@XZ 1000ee10 f i fms_config.obj
 0001:0000de10       ??E?$_Tree_const_iterator@V?$_Tree_val@U?$_Tree_simple_types@U?$pair@$$CBHV?$basic_string@DU?$char_traits@D@std@@V?$allocator@D@2@@std@@@std@@@std@@@std@@@std@@QAEAAV01@XZ 1000ee10 f i out_saitek.obj
 0001:0000de10       ??E?$_Tree_const_iterator@V?$_Tree_val@U?$_Tree_simple_types@U?$pair@$$CBHPAVfms_fp_item_t@@@std@@@std@@@std@@@std@@QAEAAV01@XZ 1000ee10 f i mfdpage_fms.obj
 0001:0000de10       ??E?$_Tree_const_iterator@V?$_Tree_val@U?$_Tree_simple_types@PAVmfdpage_t@@@std@@@std@@@std@@QAEAAV01@XZ 1000ee10 f i in.obj
 0001:0000de30       ??E?$_Tree_unchecked_const_iterator@V?$_Tree_val@U?$_Tree_simple_types@U?$pair@$$CBV?$basic_string@DU?$char_traits@D@std@@V?$allocator@D@2@@std@@M@std@@@std@@@std@@U_Iterator_base0@2@@std@@QAEAAV01@XZ 1000ee30 f i mfdpage_fms.obj
 0001:0000de30       ??E?$_Tree_unchecked_const_iterator@V?$_Tree_val@U?$_Tree_simple_types@U?$pair@$$CBHPAVobject_t@@@std@@@std@@@std@@U_Iterator_base0@2@@std@@QAEAAV01@XZ 1000ee30 f i mfdpage.obj
 0001:0000de30       ??E?$_Tree_unchecked_const_iterator@V?$_Tree_val@U?$_Tree_simple_types@PAVlistener_t@@@std@@@std@@U_Iterator_base0@2@@std@@QAEAAV01@XZ 1000ee30 f i data.obj
 0001:0000de30       ??E?$_Tree_unchecked_const_iterator@V?$_Tree_val@U?$_Tree_simple_types@PAVmfdpage_t@@@std@@@std@@U_Iterator_base0@2@@std@@QAEAAV01@XZ 1000ee30 f i in.obj
 0001:0000de30       ??E?$_Tree_unchecked_const_iterator@V?$_Tree_val@U?$_Tree_simple_types@U?$pair@$$CBHM@std@@@std@@@std@@U_Iterator_base0@2@@std@@QAEAAV01@XZ 1000ee30 f i fms_config.obj
 0001:0000de30       ??E?$_Tree_unchecked_const_iterator@V?$_Tree_val@U?$_Tree_simple_types@U?$pair@$$CBV?$basic_string@DU?$char_traits@D@std@@V?$allocator@D@2@@std@@V12@@std@@@std@@@std@@U_Iterator_base0@2@@std@@QAEAAV01@XZ 1000ee30 f i tools.obj
 0001:0000de30       ??E?$_Tree_unchecked_const_iterator@V?$_Tree_val@U?$_Tree_simple_types@U?$pair@$$CBV?$basic_string@DU?$char_traits@D@std@@V?$allocator@D@2@@std@@D@std@@@std@@@std@@U_Iterator_base0@2@@std@@QAEAAV01@XZ 1000ee30 f i mfdpage.obj
 0001:0000de30       ??E?$_Tree_unchecked_const_iterator@V?$_Tree_val@U?$_Tree_simple_types@PAVobject_t@@@std@@@std@@U_Iterator_base0@2@@std@@QAEAAV01@XZ 1000ee30 f i data.obj
 0001:0000de30       ??E?$_Tree_unchecked_const_iterator@V?$_Tree_val@U?$_Tree_simple_types@U?$pair@$$CBHPAVfms_fp_item_t@@@std@@@std@@@std@@U_Iterator_base0@2@@std@@QAEAAV01@XZ 1000ee30 f i mfdpage_fms.obj
 0001:0000de30       ??E?$_Tree_unchecked_const_iterator@V?$_Tree_val@U?$_Tree_simple_types@U?$pair@$$CBV?$basic_string@DU?$char_traits@D@std@@V?$allocator@D@2@@std@@PAVfms_fp_item_t@@@std@@@std@@@std@@U_Iterator_base0@2@@std@@QAEAAV01@XZ 1000ee30 f i fms_fp.obj
 0001:0000de30       ??E?$_Tree_unchecked_const_iterator@V?$_Tree_val@U?$_Tree_simple_types@U?$pair@$$CBHV?$basic_string@DU?$char_traits@D@std@@V?$allocator@D@2@@std@@@std@@@std@@@std@@U_Iterator_base0@2@@std@@QAEAAV01@XZ 1000ee30 f i out_saitek.obj
 0001:0000de30       ??E?$_Tree_unchecked_const_iterator@V?$_Tree_val@U?$_Tree_simple_types@U?$pair@$$CBV?$basic_string@DU?$char_traits@D@std@@V?$allocator@D@2@@std@@PAVfms_config_item_t@@@std@@@std@@@std@@U_Iterator_base0@2@@std@@QAEAAV01@XZ 1000ee30 f i fms_config.obj
 0001:0000de30       ??E?$_Tree_unchecked_const_iterator@V?$_Tree_val@U?$_Tree_simple_types@U?$pair@$$CBV?$basic_string@DU?$char_traits@D@std@@V?$allocator@D@2@@std@@H@std@@@std@@@std@@U_Iterator_base0@2@@std@@QAEAAV01@XZ 1000ee30 f i mfdpage.obj
 0001:0000def0       ??G?$_String_const_iterator@V?$_String_val@U?$_Simple_types@D@std@@@std@@@std@@QBEHABV01@@Z 1000eef0 f i mfdpage.obj
 0001:0000df20       ??G?$_String_iterator@V?$_String_val@U?$_Simple_types@D@std@@@std@@@std@@QBEHABV?$_String_const_iterator@V?$_String_val@U?$_Simple_types@D@std@@@std@@@1@@Z 1000ef20 f i mfdpage.obj
 0001:0000df50       ??Y?$basic_string@DU?$char_traits@D@std@@V?$allocator@D@2@@std@@QAEAAV01@D@Z 1000ef50 f i mfdpage.obj
 0001:0000df70       ??_D?$basic_stringstream@DU?$char_traits@D@std@@V?$allocator@D@2@@std@@QAEXXZ 1000ef70 f i mfdpage.obj
 0001:0000df92       ??_E?$basic_stringstream@DU?$char_traits@D@std@@V?$allocator@D@2@@std@@$4PPPPPPPM@A@AEPAXI@Z 1000ef92 f i mfdpage.obj
 0001:0000dfa0       ??_G?$basic_stringstream@DU?$char_traits@D@std@@V?$allocator@D@2@@std@@UAEPAXI@Z 1000efa0 f i mfdpage.obj
 0001:0000dfa0       ??_E?$basic_stringstream@DU?$char_traits@D@std@@V?$allocator@D@2@@std@@UAEPAXI@Z 1000efa0 f i mfdpage.obj
 0001:0000dfe0       ??_G?$pair@$$CBV?$basic_string@DU?$char_traits@D@std@@V?$allocator@D@2@@std@@PAVfms_fp_item_t@@@std@@QAEPAXI@Z 1000efe0 f i fms_fp.obj
 0001:0000dfe0       ??_G?$pair@$$CBV?$basic_string@DU?$char_traits@D@std@@V?$allocator@D@2@@std@@D@std@@QAEPAXI@Z 1000efe0 f i mfdpage.obj
 0001:0000dfe0       ??_G?$pair@$$CBV?$basic_string@DU?$char_traits@D@std@@V?$allocator@D@2@@std@@M@std@@QAEPAXI@Z 1000efe0 f i mfdpage_fms.obj
 0001:0000dfe0       ??_G?$pair@$$CBV?$basic_string@DU?$char_traits@D@std@@V?$allocator@D@2@@std@@H@std@@QAEPAXI@Z 1000efe0 f i mfdpage.obj
 0001:0000dfe0       ??_G?$pair@$$CBV?$basic_string@DU?$char_traits@D@std@@V?$allocator@D@2@@std@@PAVfms_config_item_t@@@std@@QAEPAXI@Z 1000efe0 f i fms_config.obj
 0001:0000e010       ??_Elistener_t@@UAEPAXI@Z  1000f010 f i mfdpage.obj
 0001:0000e010       ??_Glistener_t@@UAEPAXI@Z  1000f010 f i mfdpage.obj
 0001:0000e040       ??_Gmfdpage_t@@UAEPAXI@Z   1000f040 f i mfdpage.obj
 0001:0000e040       ??_Emfdpage_t@@UAEPAXI@Z   1000f040 f i mfdpage.obj
 0001:0000e070       ?_Buyheadnode@?$_Tree_alloc@$0A@U?$_Tree_base_types@U?$pair@$$CBHPAVobject_t@@@std@@V?$allocator@U?$pair@$$CBHPAVobject_t@@@std@@@2@@std@@@std@@QAEPAU?$_Tree_node@U?$pair@$$CBHPAVobject_t@@@std@@PAX@2@XZ 1000f070 f i mfdpage.obj
 0001:0000e070       ?_Buyheadnode@?$_Tree_alloc@$0A@U?$_Tree_base_types@U?$pair@$$CBHM@std@@V?$allocator@U?$pair@$$CBHM@std@@@2@@std@@@std@@QAEPAU?$_Tree_node@U?$pair@$$CBHM@std@@PAX@2@XZ 1000f070 f i fms_config.obj
 0001:0000e070       ?_Buyheadnode@?$_Tree_alloc@$0A@U?$_Tree_base_types@U?$pair@$$CBHPAVfms_fp_item_t@@@std@@V?$allocator@U?$pair@$$CBHPAVfms_fp_item_t@@@std@@@2@@std@@@std@@QAEPAU?$_Tree_node@U?$pair@$$CBHPAVfms_fp_item_t@@@std@@PAX@2@XZ 1000f070 f i fms_fp.obj
 0001:0000e1c0       ?_Chassign@?$basic_string@DU?$char_traits@D@std@@V?$allocator@D@2@@std@@QAEXIID@Z 1000f1c0 f i mfdpage.obj
 0001:0000e210       ?_Color@?$_Tree_val@U?$_Tree_simple_types@U?$pair@$$CBHV?$basic_string@DU?$char_traits@D@std@@V?$allocator@D@2@@std@@@std@@@std@@@std@@SAAADPAU?$_Tree_node@U?$pair@$$CBHV?$basic_string@DU?$char_traits@D@std@@V?$allocator@D@2@@std@@@std@@PAX@2@@Z 1000f210 f i out_saitek.obj
 0001:0000e210       ?_Color@?$_Tree_val@U?$_Tree_simple_types@U?$pair@$$CBHPAVobject_t@@@std@@@std@@@std@@SAAADPAU?$_Tree_node@U?$pair@$$CBHPAVobject_t@@@std@@PAX@2@@Z 1000f210 f i mfdpage.obj
 0001:0000e210       ?_Color@?$_Tree_val@U?$_Tree_simple_types@U?$pair@$$CBV?$basic_string@DU?$char_traits@D@std@@V?$allocator@D@2@@std@@D@std@@@std@@@std@@SAAADPAU?$_Tree_node@U?$pair@$$CBV?$basic_string@DU?$char_traits@D@std@@V?$allocator@D@2@@std@@D@std@@PAX@2@@Z 1000f210 f i mfdpage.obj
 0001:0000e210       ?_Color@?$_Tree_val@U?$_Tree_simple_types@U?$pair@$$CBV?$basic_string@DU?$char_traits@D@std@@V?$allocator@D@2@@std@@H@std@@@std@@@std@@SAAADPAU?$_Tree_node@U?$pair@$$CBV?$basic_string@DU?$char_traits@D@std@@V?$allocator@D@2@@std@@H@std@@PAX@2@@Z 1000f210 f i mfdpage.obj
 0001:0000e210       ?_Color@?$_Tree_val@U?$_Tree_simple_types@PAVobject_t@@@std@@@std@@SAAADPAU?$_Tree_node@PAVobject_t@@PAX@2@@Z 1000f210 f i data.obj
 0001:0000e210       ?_Color@?$_Tree_val@U?$_Tree_simple_types@U?$pair@$$CBV?$basic_string@DU?$char_traits@D@std@@V?$allocator@D@2@@std@@PAVfms_config_item_t@@@std@@@std@@@std@@SAAADPAU?$_Tree_node@U?$pair@$$CBV?$basic_string@DU?$char_traits@D@std@@V?$allocator@D@2@@std@@PAVfms_config_item_t@@@std@@PAX@2@@Z 1000f210 f i fms_config.obj
 0001:0000e210       ?_Color@?$_Tree_val@U?$_Tree_simple_types@U?$pair@$$CBV?$basic_string@DU?$char_traits@D@std@@V?$allocator@D@2@@std@@PAVfms_fp_item_t@@@std@@@std@@@std@@SAAADPAU?$_Tree_node@U?$pair@$$CBV?$basic_string@DU?$char_traits@D@std@@V?$allocator@D@2@@std@@PAVfms_fp_item_t@@@std@@PAX@2@@Z 1000f210 f i fms_fp.obj
 0001:0000e210       ?_Color@?$_Tree_val@U?$_Tree_simple_types@U?$pair@$$CBHPAVfms_fp_item_t@@@std@@@std@@@std@@SAAADPAU?$_Tree_node@U?$pair@$$CBHPAVfms_fp_item_t@@@std@@PAX@2@@Z 1000f210 f i mfdpage_fms.obj
 0001:0000e210       ?_Color@?$_Tree_val@U?$_Tree_simple_types@PAVlistener_t@@@std@@@std@@SAAADPAU?$_Tree_node@PAVlistener_t@@PAX@2@@Z 1000f210 f i data.obj
 0001:0000e210       ?_Color@?$_Tree_val@U?$_Tree_simple_types@U?$pair@$$CBHM@std@@@std@@@std@@SAAADPAU?$_Tree_node@U?$pair@$$CBHM@std@@PAX@2@@Z 1000f210 f i fms_config.obj
 0001:0000e210       ?_Color@?$_Tree_val@U?$_Tree_simple_types@U?$pair@$$CBV?$basic_string@DU?$char_traits@D@std@@V?$allocator@D@2@@std@@M@std@@@std@@@std@@SAAADPAU?$_Tree_node@U?$pair@$$CBV?$basic_string@DU?$char_traits@D@std@@V?$allocator@D@2@@std@@M@std@@PAX@2@@Z 1000f210 f i mfdpage_fms.obj
 0001:0000e210       ?_Color@?$_Tree_val@U?$_Tree_simple_types@U?$pair@$$CBV?$basic_string@DU?$char_traits@D@std@@V?$allocator@D@2@@std@@V12@@std@@@std@@@std@@SAAADPAU?$_Tree_node@U?$pair@$$CBV?$basic_string@DU?$char_traits@D@std@@V?$allocator@D@2@@std@@V12@@std@@PAX@2@@Z 1000f210 f i tools.obj
 0001:0000e210       ?_Color@?$_Tree_val@U?$_Tree_simple_types@PAVmfdpage_t@@@std@@@std@@SAAADPAU?$_Tree_node@PAVmfdpage_t@@PAX@2@@Z 1000f210 f i in.obj
 0001:0000e220       ?_Erase@?$_Tree@V?$_Tmap_traits@HV?$basic_string@DU?$char_traits@D@std@@V?$allocator@D@2@@std@@U?$less@H@2@V?$allocator@U?$pair@$$CBHV?$basic_string@DU?$char_traits@D@std@@V?$allocator@D@2@@std@@@std@@@2@$0A@@std@@@std@@IAEXPAU?$_Tree_node@U?$pair@$$CBHV?$basic_string@DU?$char_traits@D@std@@V?$allocator@D@2@@std@@@std@@PAX@2@@Z 1000f220 f i mfdpage.obj
 0001:0000e2c0       ?_Erase@?$_Tree@V?$_Tmap_traits@V?$basic_string@DU?$char_traits@D@std@@V?$allocator@D@2@@std@@MU?$less@V?$basic_string@DU?$char_traits@D@std@@V?$allocator@D@2@@std@@@2@V?$allocator@U?$pair@$$CBV?$basic_string@DU?$char_traits@D@std@@V?$allocator@D@2@@std@@M@std@@@2@$0A@@std@@@std@@IAEXPAU?$_Tree_node@U?$pair@$$CBV?$basic_string@DU?$char_traits@D@std@@V?$allocator@D@2@@std@@M@std@@PAX@2@@Z 1000f2c0 f i fms_config.obj
 0001:0000e2c0       ?_Erase@?$_Tree@V?$_Tmap_traits@V?$basic_string@DU?$char_traits@D@std@@V?$allocator@D@2@@std@@HU?$less@V?$basic_string@DU?$char_traits@D@std@@V?$allocator@D@2@@std@@@2@V?$allocator@U?$pair@$$CBV?$basic_string@DU?$char_traits@D@std@@V?$allocator@D@2@@std@@H@std@@@2@$0A@@std@@@std@@IAEXPAU?$_Tree_node@U?$pair@$$CBV?$basic_string@DU?$char_traits@D@std@@V?$allocator@D@2@@std@@H@std@@PAX@2@@Z 1000f2c0 f i mfdpage.obj
 0001:0000e2c0       ?_Erase@?$_Tree@V?$_Tmap_traits@V?$basic_string@DU?$char_traits@D@std@@V?$allocator@D@2@@std@@PAVfms_config_item_t@@U?$less@V?$basic_string@DU?$char_traits@D@std@@V?$allocator@D@2@@std@@@2@V?$allocator@U?$pair@$$CBV?$basic_string@DU?$char_traits@D@std@@V?$allocator@D@2@@std@@PAVfms_config_item_t@@@std@@@2@$0A@@std@@@std@@IAEXPAU?$_Tree_node@U?$pair@$$CBV?$basic_string@DU?$char_traits@D@std@@V?$allocator@D@2@@std@@PAVfms_config_item_t@@@std@@PAX@2@@Z 1000f2c0 f i fms_config.obj
 0001:0000e2c0       ?_Erase@?$_Tree@V?$_Tmap_traits@V?$basic_string@DU?$char_traits@D@std@@V?$allocator@D@2@@std@@PAVfms_fp_item_t@@U?$less@V?$basic_string@DU?$char_traits@D@std@@V?$allocator@D@2@@std@@@2@V?$allocator@U?$pair@$$CBV?$basic_string@DU?$char_traits@D@std@@V?$allocator@D@2@@std@@PAVfms_fp_item_t@@@std@@@2@$0A@@std@@@std@@IAEXPAU?$_Tree_node@U?$pair@$$CBV?$basic_string@DU?$char_traits@D@std@@V?$allocator@D@2@@std@@PAVfms_fp_item_t@@@std@@PAX@2@@Z 1000f2c0 f i fms_fp.obj
 0001:0000e360       ?_Freeheadnode@?$_Tree_alloc@$0A@U?$_Tree_base_types@U?$pair@$$CBV?$basic_string@DU?$char_traits@D@std@@V?$allocator@D@2@@std@@H@std@@V?$allocator@U?$pair@$$CBV?$basic_string@DU?$char_traits@D@std@@V?$allocator@D@2@@std@@H@std@@@2@@std@@@std@@QAEXPAU?$_Tree_node@U?$pair@$$CBV?$basic_string@DU?$char_traits@D@std@@V?$allocator@D@2@@std@@H@std@@PAX@2@@Z 1000f360 f i mfdpage.obj
 0001:0000e360       ?_Freenode0@?$_Tree_buy@U?$pair@$$CBV?$basic_string@DU?$char_traits@D@std@@V?$allocator@D@2@@std@@M@std@@V?$allocator@U?$pair@$$CBV?$basic_string@DU?$char_traits@D@std@@V?$allocator@D@2@@std@@M@std@@@2@@std@@QAEXPAU?$_Tree_node@U?$pair@$$CBV?$basic_string@DU?$char_traits@D@std@@V?$allocator@D@2@@std@@M@std@@PAX@2@@Z 1000f360 f i mfdpage_fms.obj
 0001:0000e360       ?_Freeheadnode@?$_Tree_alloc@$0A@U?$_Tree_base_types@U?$pair@$$CBHV?$basic_string@DU?$char_traits@D@std@@V?$allocator@D@2@@std@@@std@@V?$allocator@U?$pair@$$CBHV?$basic_string@DU?$char_traits@D@std@@V?$allocator@D@2@@std@@@std@@@2@@std@@@std@@QAEXPAU?$_Tree_node@U?$pair@$$CBHV?$basic_string@DU?$char_traits@D@std@@V?$allocator@D@2@@std@@@std@@PAX@2@@Z 1000f360 f i mfdpage.obj
 0001:0000e360       ?_Freenode0@?$_Tree_buy@U?$pair@$$CBV?$basic_string@DU?$char_traits@D@std@@V?$allocator@D@2@@std@@H@std@@V?$allocator@U?$pair@$$CBV?$basic_string@DU?$char_traits@D@std@@V?$allocator@D@2@@std@@H@std@@@2@@std@@QAEXPAU?$_Tree_node@U?$pair@$$CBV?$basic_string@DU?$char_traits@D@std@@V?$allocator@D@2@@std@@H@std@@PAX@2@@Z 1000f360 f i mfdpage.obj
 0001:0000e360       ?_Freeheadnode@?$_Tree_alloc@$0A@U?$_Tree_base_types@PAVmfdpage_t@@V?$allocator@PAVmfdpage_t@@@std@@@std@@@std@@QAEXPAU?$_Tree_node@PAVmfdpage_t@@PAX@2@@Z 1000f360 f i in.obj
 0001:0000e360       ?_Freeheadnode@?$_Tree_alloc@$0A@U?$_Tree_base_types@U?$pair@$$CBV?$basic_string@DU?$char_traits@D@std@@V?$allocator@D@2@@std@@PAVfms_config_item_t@@@std@@V?$allocator@U?$pair@$$CBV?$basic_string@DU?$char_traits@D@std@@V?$allocator@D@2@@std@@PAVfms_config_item_t@@@std@@@2@@std@@@std@@QAEXPAU?$_Tree_node@U?$pair@$$CBV?$basic_string@DU?$char_traits@D@std@@V?$allocator@D@2@@std@@PAVfms_config_item_t@@@std@@PAX@2@@Z 1000f360 f i fms_config.obj
 0001:0000e360       ?_Freenode0@?$_Tree_buy@U?$pair@$$CBHPAVobject_t@@@std@@V?$allocator@U?$pair@$$CBHPAVobject_t@@@std@@@2@@std@@QAEXPAU?$_Tree_node@U?$pair@$$CBHPAVobject_t@@@std@@PAX@2@@Z 1000f360 f i mfdpage.obj
 0001:0000e360       ?_Freenode0@?$_Tree_buy@U?$pair@$$CBV?$basic_string@DU?$char_traits@D@std@@V?$allocator@D@2@@std@@V12@@std@@V?$allocator@U?$pair@$$CBV?$basic_string@DU?$char_traits@D@std@@V?$allocator@D@2@@std@@V12@@std@@@2@@std@@QAEXPAU?$_Tree_node@U?$pair@$$CBV?$basic_string@DU?$char_traits@D@std@@V?$allocator@D@2@@std@@V12@@std@@PAX@2@@Z 1000f360 f i tools.obj
 0001:0000e360       ?_Freenode0@?$_Tree_buy@U?$pair@$$CBHPAVfms_fp_item_t@@@std@@V?$allocator@U?$pair@$$CBHPAVfms_fp_item_t@@@std@@@2@@std@@QAEXPAU?$_Tree_node@U?$pair@$$CBHPAVfms_fp_item_t@@@std@@PAX@2@@Z 1000f360 f i mfdpage_fms.obj
 0001:0000e360       ?_Freeheadnode@?$_Tree_alloc@$0A@U?$_Tree_base_types@PAVobject_t@@V?$allocator@PAVobject_t@@@std@@@std@@@std@@QAEXPAU?$_Tree_node@PAVobject_t@@PAX@2@@Z 1000f360 f i data.obj
 0001:0000e360       ?_Freeheadnode@?$_Tree_alloc@$0A@U?$_Tree_base_types@U?$pair@$$CBV?$basic_string@DU?$char_traits@D@std@@V?$allocator@D@2@@std@@M@std@@V?$allocator@U?$pair@$$CBV?$basic_string@DU?$char_traits@D@std@@V?$allocator@D@2@@std@@M@std@@@2@@std@@@std@@QAEXPAU?$_Tree_node@U?$pair@$$CBV?$basic_string@DU?$char_traits@D@std@@V?$allocator@D@2@@std@@M@std@@PAX@2@@Z 1000f360 f i fms_config.obj
 0001:0000e360       ?_Freeheadnode@?$_Tree_alloc@$0A@U?$_Tree_base_types@U?$pair@$$CBHPAVfms_fp_item_t@@@std@@V?$allocator@U?$pair@$$CBHPAVfms_fp_item_t@@@std@@@2@@std@@@std@@QAEXPAU?$_Tree_node@U?$pair@$$CBHPAVfms_fp_item_t@@@std@@PAX@2@@Z 1000f360 f i fms_fp.obj
 0001:0000e360       ?_Freenode0@?$_Tree_buy@U?$pair@$$CBHM@std@@V?$allocator@U?$pair@$$CBHM@std@@@2@@std@@QAEXPAU?$_Tree_node@U?$pair@$$CBHM@std@@PAX@2@@Z 1000f360 f i fms_config.obj
 0001:0000e360       ?_Freenode0@?$_Tree_buy@U?$pair@$$CBV?$basic_string@DU?$char_traits@D@std@@V?$allocator@D@2@@std@@D@std@@V?$allocator@U?$pair@$$CBV?$basic_string@DU?$char_traits@D@std@@V?$allocator@D@2@@std@@D@std@@@2@@std@@QAEXPAU?$_Tree_node@U?$pair@$$CBV?$basic_string@DU?$char_traits@D@std@@V?$allocator@D@2@@std@@D@std@@PAX@2@@Z 1000f360 f i mfdpage.obj
 0001:0000e360       ?_Freenode0@?$_Tree_buy@U?$pair@$$CBV?$basic_string@DU?$char_traits@D@std@@V?$allocator@D@2@@std@@PAVfms_fp_item_t@@@std@@V?$allocator@U?$pair@$$CBV?$basic_string@DU?$char_traits@D@std@@V?$allocator@D@2@@std@@PAVfms_fp_item_t@@@std@@@2@@std@@QAEXPAU?$_Tree_node@U?$pair@$$CBV?$basic_string@DU?$char_traits@D@std@@V?$allocator@D@2@@std@@PAVfms_fp_item_t@@@std@@PAX@2@@Z 1000f360 f i fms_fp.obj
 0001:0000e360       ?_Freenode0@?$_Tree_buy@PAVobject_t@@V?$allocator@PAVobject_t@@@std@@@std@@QAEXPAU?$_Tree_node@PAVobject_t@@PAX@2@@Z 1000f360 f i data.obj
 0001:0000e360       ?_Freenode0@?$_Tree_buy@PAVlistener_t@@V?$allocator@PAVlistener_t@@@std@@@std@@QAEXPAU?$_Tree_node@PAVlistener_t@@PAX@2@@Z 1000f360 f i data.obj
 0001:0000e360       ?_Freeheadnode@?$_Tree_alloc@$0A@U?$_Tree_base_types@U?$pair@$$CBV?$basic_string@DU?$char_traits@D@std@@V?$allocator@D@2@@std@@V12@@std@@V?$allocator@U?$pair@$$CBV?$basic_string@DU?$char_traits@D@std@@V?$allocator@D@2@@std@@V12@@std@@@2@@std@@@std@@QAEXPAU?$_Tree_node@U?$pair@$$CBV?$basic_string@DU?$char_traits@D@std@@V?$allocator@D@2@@std@@V12@@std@@PAX@2@@Z 1000f360 f i tools.obj
 0001:0000e360       ?_Freeheadnode@?$_Tree_alloc@$0A@U?$_Tree_base_types@U?$pair@$$CBV?$basic_string@DU?$char_traits@D@std@@V?$allocator@D@2@@std@@PAVfms_fp_item_t@@@std@@V?$allocator@U?$pair@$$CBV?$basic_string@DU?$char_traits@D@std@@V?$allocator@D@2@@std@@PAVfms_fp_item_t@@@std@@@2@@std@@@std@@QAEXPAU?$_Tree_node@U?$pair@$$CBV?$basic_string@DU?$char_traits@D@std@@V?$allocator@D@2@@std@@PAVfms_fp_item_t@@@std@@PAX@2@@Z 1000f360 f i fms_fp.obj
 0001:0000e360       ?_Freeheadnode@?$_Tree_alloc@$0A@U?$_Tree_base_types@U?$pair@$$CBHPAVobject_t@@@std@@V?$allocator@U?$pair@$$CBHPAVobject_t@@@std@@@2@@std@@@std@@QAEXPAU?$_Tree_node@U?$pair@$$CBHPAVobject_t@@@std@@PAX@2@@Z 1000f360 f i mfdpage.obj
 0001:0000e360       ?_Freenode0@?$_Tree_buy@U?$pair@$$CBHV?$basic_string@DU?$char_traits@D@std@@V?$allocator@D@2@@std@@@std@@V?$allocator@U?$pair@$$CBHV?$basic_string@DU?$char_traits@D@std@@V?$allocator@D@2@@std@@@std@@@2@@std@@QAEXPAU?$_Tree_node@U?$pair@$$CBHV?$basic_string@DU?$char_traits@D@std@@V?$allocator@D@2@@std@@@std@@PAX@2@@Z 1000f360 f i out_saitek.obj
 0001:0000e360       ?_Freenode0@?$_Tree_buy@U?$pair@$$CBV?$basic_string@DU?$char_traits@D@std@@V?$allocator@D@2@@std@@PAVfms_config_item_t@@@std@@V?$allocator@U?$pair@$$CBV?$basic_string@DU?$char_traits@D@std@@V?$allocator@D@2@@std@@PAVfms_config_item_t@@@std@@@2@@std@@QAEXPAU?$_Tree_node@U?$pair@$$CBV?$basic_string@DU?$char_traits@D@std@@V?$allocator@D@2@@std@@PAVfms_config_item_t@@@std@@PAX@2@@Z 1000f360 f i fms_config.obj
 0001:0000e360       ?_Freenode0@?$_Tree_buy@PAVmfdpage_t@@V?$allocator@PAVmfdpage_t@@@std@@@std@@QAEXPAU?$_Tree_node@PAVmfdpage_t@@PAX@2@@Z 1000f360 f i in.obj
 0001:0000e360       ?_Freeheadnode@?$_Tree_alloc@$0A@U?$_Tree_base_types@PAVlistener_t@@V?$allocator@PAVlistener_t@@@std@@@std@@@std@@QAEXPAU?$_Tree_node@PAVlistener_t@@PAX@2@@Z 1000f360 f i data.obj
 0001:0000e410       ?_Lbound@?$_Tree@V?$_Tmap_traits@HV?$basic_string@DU?$char_traits@D@std@@V?$allocator@D@2@@std@@U?$less@H@2@V?$allocator@U?$pair@$$CBHV?$basic_string@DU?$char_traits@D@std@@V?$allocator@D@2@@std@@@std@@@2@$0A@@std@@@std@@IAEPAU?$_Tree_node@U?$pair@$$CBHV?$basic_string@DU?$char_traits@D@std@@V?$allocator@D@2@@std@@@std@@PAX@2@ABH@Z 1000f410 f i out_saitek.obj
 0001:0000e410       ?_Lbound@?$_Tree@V?$_Tmap_traits@HPAVobject_t@@U?$less@H@std@@V?$allocator@U?$pair@$$CBHPAVobject_t@@@std@@@3@$0A@@std@@@std@@IAEPAU?$_Tree_node@U?$pair@$$CBHPAVobject_t@@@std@@PAX@2@ABH@Z 1000f410 f i mfdpage.obj
 0001:0000e410       ?_Lbound@?$_Tree@V?$_Tmap_traits@HMU?$less@H@std@@V?$allocator@U?$pair@$$CBHM@std@@@2@$0A@@std@@@std@@IAEPAU?$_Tree_node@U?$pair@$$CBHM@std@@PAX@2@ABH@Z 1000f410 f i fms_config.obj
 0001:0000e410       ?_Lbound@?$_Tree@V?$_Tmap_traits@HPAVfms_fp_item_t@@U?$less@H@std@@V?$allocator@U?$pair@$$CBHPAVfms_fp_item_t@@@std@@@3@$0A@@std@@@std@@IAEPAU?$_Tree_node@U?$pair@$$CBHPAVfms_fp_item_t@@@std@@PAX@2@ABH@Z 1000f410 f i mfdpage_fms.obj
 0001:0000e4b0       ?_Min@?$_Tree_val@U?$_Tree_simple_types@U?$pair@$$CBV?$basic_string@DU?$char_traits@D@std@@V?$allocator@D@2@@std@@V12@@std@@@std@@@std@@SAPAU?$_Tree_node@U?$pair@$$CBV?$basic_string@DU?$char_traits@D@std@@V?$allocator@D@2@@std@@V12@@std@@PAX@2@PAU32@@Z 1000f4b0 f i tools.obj
 0001:0000e4b0       ?_Min@?$_Tree_val@U?$_Tree_simple_types@U?$pair@$$CBV?$basic_string@DU?$char_traits@D@std@@V?$allocator@D@2@@std@@PAVfms_fp_item_t@@@std@@@std@@@std@@SAPAU?$_Tree_node@U?$pair@$$CBV?$basic_string@DU?$char_traits@D@std@@V?$allocator@D@2@@std@@PAVfms_fp_item_t@@@std@@PAX@2@PAU32@@Z 1000f4b0 f i fms_fp.obj
 0001:0000e4b0       ?_Min@?$_Tree_val@U?$_Tree_simple_types@U?$pair@$$CBHM@std@@@std@@@std@@SAPAU?$_Tree_node@U?$pair@$$CBHM@std@@PAX@2@PAU32@@Z 1000f4b0 f i fms_config.obj
 0001:0000e4b0       ?_Min@?$_Tree_val@U?$_Tree_simple_types@U?$pair@$$CBHPAVfms_fp_item_t@@@std@@@std@@@std@@SAPAU?$_Tree_node@U?$pair@$$CBHPAVfms_fp_item_t@@@std@@PAX@2@PAU32@@Z 1000f4b0 f i mfdpage_fms.obj
 0001:0000e4b0       ?_Min@?$_Tree_val@U?$_Tree_simple_types@U?$pair@$$CBHPAVobject_t@@@std@@@std@@@std@@SAPAU?$_Tree_node@U?$pair@$$CBHPAVobject_t@@@std@@PAX@2@PAU32@@Z 1000f4b0 f i mfdpage.obj
 0001:0000e4b0       ?_Min@?$_Tree_val@U?$_Tree_simple_types@PAVlistener_t@@@std@@@std@@SAPAU?$_Tree_node@PAVlistener_t@@PAX@2@PAU32@@Z 1000f4b0 f i data.obj
 0001:0000e4b0       ?_Min@?$_Tree_val@U?$_Tree_simple_types@PAVmfdpage_t@@@std@@@std@@SAPAU?$_Tree_node@PAVmfdpage_t@@PAX@2@PAU32@@Z 1000f4b0 f i in.obj
 0001:0000e4b0       ?_Min@?$_Tree_val@U?$_Tree_simple_types@U?$pair@$$CBHV?$basic_string@DU?$char_traits@D@std@@V?$allocator@D@2@@std@@@std@@@std@@@std@@SAPAU?$_Tree_node@U?$pair@$$CBHV?$basic_string@DU?$char_traits@D@std@@V?$allocator@D@2@@std@@@std@@PAX@2@PAU32@@Z 1000f4b0 f i out_saitek.obj
 0001:0000e4b0       ?_Min@?$_Tree_val@U?$_Tree_simple_types@U?$pair@$$CBV?$basic_string@DU?$char_traits@D@std@@V?$allocator@D@2@@std@@D@std@@@std@@@std@@SAPAU?$_Tree_node@U?$pair@$$CBV?$basic_string@DU?$char_traits@D@std@@V?$allocator@D@2@@std@@D@std@@PAX@2@PAU32@@Z 1000f4b0 f i mfdpage.obj
 0001:0000e4b0       ?_Min@?$_Tree_val@U?$_Tree_simple_types@U?$pair@$$CBV?$basic_string@DU?$char_traits@D@std@@V?$allocator@D@2@@std@@M@std@@@std@@@std@@SAPAU?$_Tree_node@U?$pair@$$CBV?$basic_string@DU?$char_traits@D@std@@V?$allocator@D@2@@std@@M@std@@PAX@2@PAU32@@Z 1000f4b0 f i mfdpage_fms.obj
 0001:0000e4b0       ?_Min@?$_Tree_val@U?$_Tree_simple_types@U?$pair@$$CBV?$basic_string@DU?$char_traits@D@std@@V?$allocator@D@2@@std@@H@std@@@std@@@std@@SAPAU?$_Tree_node@U?$pair@$$CBV?$basic_string@DU?$char_traits@D@std@@V?$allocator@D@2@@std@@H@std@@PAX@2@PAU32@@Z 1000f4b0 f i mfdpage.obj
 0001:0000e4b0       ?_Min@?$_Tree_val@U?$_Tree_simple_types@U?$pair@$$CBV?$basic_string@DU?$char_traits@D@std@@V?$allocator@D@2@@std@@PAVfms_config_item_t@@@std@@@std@@@std@@SAPAU?$_Tree_node@U?$pair@$$CBV?$basic_string@DU?$char_traits@D@std@@V?$allocator@D@2@@std@@PAVfms_config_item_t@@@std@@PAX@2@PAU32@@Z 1000f4b0 f i fms_config.obj
 0001:0000e4b0       ?_Min@?$_Tree_val@U?$_Tree_simple_types@PAVobject_t@@@std@@@std@@SAPAU?$_Tree_node@PAVobject_t@@PAX@2@PAU32@@Z 1000f4b0 f i data.obj
 0001:0000e4f0       ?value@error_condition@std@@QBEHXZ 1000f4f0 f i main.obj
 0001:0000e4f0       ?_Mynode@?$_Tree_unchecked_const_iterator@V?$_Tree_val@U?$_Tree_simple_types@U?$pair@$$CBV?$basic_string@DU?$char_traits@D@std@@V?$allocator@D@2@@std@@PAVfms_fp_item_t@@@std@@@std@@@std@@U_Iterator_base0@2@@std@@QBEPAU?$_Tree_node@U?$pair@$$CBV?$basic_string@DU?$char_traits@D@std@@V?$allocator@D@2@@std@@PAVfms_fp_item_t@@@std@@PAX@2@XZ 1000f4f0 f i fms_fp.obj
 0001:0000e4f0       ?_Unchecked@?$_String_iterator@V?$_String_val@U?$_Simple_types@D@std@@@std@@@std@@QBEPADXZ 1000f4f0 f i mfdpage_led.obj
 0001:0000e4f0       ?_Mynode@?$_Tree_unchecked_const_iterator@V?$_Tree_val@U?$_Tree_simple_types@U?$pair@$$CBV?$basic_string@DU?$char_traits@D@std@@V?$allocator@D@2@@std@@V12@@std@@@std@@@std@@U_Iterator_base0@2@@std@@QBEPAU?$_Tree_node@U?$pair@$$CBV?$basic_string@DU?$char_traits@D@std@@V?$allocator@D@2@@std@@V12@@std@@PAX@2@XZ 1000f4f0 f i tools.obj
 0001:0000e4f0       ?_Mynode@?$_Tree_unchecked_const_iterator@V?$_Tree_val@U?$_Tree_simple_types@U?$pair@$$CBV?$basic_string@DU?$char_traits@D@std@@V?$allocator@D@2@@std@@H@std@@@std@@@std@@U_Iterator_base0@2@@std@@QBEPAU?$_Tree_node@U?$pair@$$CBV?$basic_string@DU?$char_traits@D@std@@V?$allocator@D@2@@std@@H@std@@PAX@2@XZ 1000f4f0 f i mfdpage.obj
 0001:0000e4f0       ?_Mynode@?$_Tree_unchecked_const_iterator@V?$_Tree_val@U?$_Tree_simple_types@U?$pair@$$CBV?$basic_string@DU?$char_traits@D@std@@V?$allocator@D@2@@std@@PAVfms_config_item_t@@@std@@@std@@@std@@U_Iterator_base0@2@@std@@QBEPAU?$_Tree_node@U?$pair@$$CBV?$basic_string@DU?$char_traits@D@std@@V?$allocator@D@2@@std@@PAVfms_config_item_t@@@std@@PAX@2@XZ 1000f4f0 f i fms_config.obj
 0001:0000e4f0       ?_Mynode@?$_Tree_unchecked_const_iterator@V?$_Tree_val@U?$_Tree_simple_types@U?$pair@$$CBV?$basic_string@DU?$char_traits@D@std@@V?$allocator@D@2@@std@@D@std@@@std@@@std@@U_Iterator_base0@2@@std@@QBEPAU?$_Tree_node@U?$pair@$$CBV?$basic_string@DU?$char_traits@D@std@@V?$allocator@D@2@@std@@D@std@@PAX@2@XZ 1000f4f0 f i mfdpage.obj
 0001:0000e4f0       ?_Mynode@?$_Tree_unchecked_const_iterator@V?$_Tree_val@U?$_Tree_simple_types@PAVlistener_t@@@std@@@std@@U_Iterator_base0@2@@std@@QBEPAU?$_Tree_node@PAVlistener_t@@PAX@2@XZ 1000f4f0 f i data.obj
 0001:0000e4f0       ??D?$_String_const_iterator@V?$_String_val@U?$_Simple_types@D@std@@@std@@@std@@QBEABDXZ 1000f4f0 f i mfdpage.obj
 0001:0000e4f0       ?_Mynode@?$_Tree_unchecked_const_iterator@V?$_Tree_val@U?$_Tree_simple_types@PAVmfdpage_t@@@std@@@std@@U_Iterator_base0@2@@std@@QBEPAU?$_Tree_node@PAVmfdpage_t@@PAX@2@XZ 1000f4f0 f i in.obj
 0001:0000e4f0       ?_Mynode@?$_Tree_unchecked_const_iterator@V?$_Tree_val@U?$_Tree_simple_types@U?$pair@$$CBHPAVfms_fp_item_t@@@std@@@std@@@std@@U_Iterator_base0@2@@std@@QBEPAU?$_Tree_node@U?$pair@$$CBHPAVfms_fp_item_t@@@std@@PAX@2@XZ 1000f4f0 f i mfdpage_fms.obj
 0001:0000e4f0       ?_Mynode@?$_Tree_unchecked_const_iterator@V?$_Tree_val@U?$_Tree_simple_types@U?$pair@$$CBHV?$basic_string@DU?$char_traits@D@std@@V?$allocator@D@2@@std@@@std@@@std@@@std@@U_Iterator_base0@2@@std@@QBEPAU?$_Tree_node@U?$pair@$$CBHV?$basic_string@DU?$char_traits@D@std@@V?$allocator@D@2@@std@@@std@@PAX@2@XZ 1000f4f0 f i out_saitek.obj
 0001:0000e4f0       ?value@error_code@std@@QBEHXZ 1000f4f0 f i main.obj
 0001:0000e4f0       ?_Mynode@?$_Tree_unchecked_const_iterator@V?$_Tree_val@U?$_Tree_simple_types@PAVobject_t@@@std@@@std@@U_Iterator_base0@2@@std@@QBEPAU?$_Tree_node@PAVobject_t@@PAX@2@XZ 1000f4f0 f i data.obj
 0001:0000e4f0       ?_Mynode@?$_Tree_unchecked_const_iterator@V?$_Tree_val@U?$_Tree_simple_types@U?$pair@$$CBV?$basic_string@DU?$char_traits@D@std@@V?$allocator@D@2@@std@@M@std@@@std@@@std@@U_Iterator_base0@2@@std@@QBEPAU?$_Tree_node@U?$pair@$$CBV?$basic_string@DU?$char_traits@D@std@@V?$allocator@D@2@@std@@M@std@@PAX@2@XZ 1000f4f0 f i mfdpage_fms.obj
 0001:0000e4f0       ?_Mynode@?$_Tree_unchecked_const_iterator@V?$_Tree_val@U?$_Tree_simple_types@U?$pair@$$CBHPAVobject_t@@@std@@@std@@@std@@U_Iterator_base0@2@@std@@QBEPAU?$_Tree_node@U?$pair@$$CBHPAVobject_t@@@std@@PAX@2@XZ 1000f4f0 f i mfdpage.obj
 0001:0000e4f0       ?_Mynode@?$_Tree_unchecked_const_iterator@V?$_Tree_val@U?$_Tree_simple_types@U?$pair@$$CBHM@std@@@std@@@std@@U_Iterator_base0@2@@std@@QBEPAU?$_Tree_node@U?$pair@$$CBHM@std@@PAX@2@XZ 1000f4f0 f i fms_config.obj
 0001:0000e500       ?_Parent@?$_Tree_val@U?$_Tree_simple_types@PAVobject_t@@@std@@@std@@SAAAPAU?$_Tree_node@PAVobject_t@@PAX@2@PAU32@@Z 1000f500 f i data.obj
 0001:0000e500       ?_Parent@?$_Tree_val@U?$_Tree_simple_types@U?$pair@$$CBV?$basic_string@DU?$char_traits@D@std@@V?$allocator@D@2@@std@@V12@@std@@@std@@@std@@SAAAPAU?$_Tree_node@U?$pair@$$CBV?$basic_string@DU?$char_traits@D@std@@V?$allocator@D@2@@std@@V12@@std@@PAX@2@PAU32@@Z 1000f500 f i tools.obj
 0001:0000e500       ?_Parent@?$_Tree_val@U?$_Tree_simple_types@U?$pair@$$CBV?$basic_string@DU?$char_traits@D@std@@V?$allocator@D@2@@std@@H@std@@@std@@@std@@SAAAPAU?$_Tree_node@U?$pair@$$CBV?$basic_string@DU?$char_traits@D@std@@V?$allocator@D@2@@std@@H@std@@PAX@2@PAU32@@Z 1000f500 f i mfdpage.obj
 0001:0000e500       ?_Parent@?$_Tree_val@U?$_Tree_simple_types@U?$pair@$$CBHPAVobject_t@@@std@@@std@@@std@@SAAAPAU?$_Tree_node@U?$pair@$$CBHPAVobject_t@@@std@@PAX@2@PAU32@@Z 1000f500 f i mfdpage.obj
 0001:0000e500       ?_Parent@?$_Tree_val@U?$_Tree_simple_types@U?$pair@$$CBV?$basic_string@DU?$char_traits@D@std@@V?$allocator@D@2@@std@@D@std@@@std@@@std@@SAAAPAU?$_Tree_node@U?$pair@$$CBV?$basic_string@DU?$char_traits@D@std@@V?$allocator@D@2@@std@@D@std@@PAX@2@PAU32@@Z 1000f500 f i mfdpage.obj
 0001:0000e500       ?_Parent@?$_Tree_val@U?$_Tree_simple_types@PAVmfdpage_t@@@std@@@std@@SAAAPAU?$_Tree_node@PAVmfdpage_t@@PAX@2@PAU32@@Z 1000f500 f i in.obj
 0001:0000e500       ?_Parent@?$_Tree_val@U?$_Tree_simple_types@PAVlistener_t@@@std@@@std@@SAAAPAU?$_Tree_node@PAVlistener_t@@PAX@2@PAU32@@Z 1000f500 f i data.obj
 0001:0000e500       ?_Parent@?$_Tree_val@U?$_Tree_simple_types@U?$pair@$$CBHM@std@@@std@@@std@@SAAAPAU?$_Tree_node@U?$pair@$$CBHM@std@@PAX@2@PAU32@@Z 1000f500 f i fms_config.obj
 0001:0000e500       ?_Parent@?$_Tree_val@U?$_Tree_simple_types@U?$pair@$$CBHPAVfms_fp_item_t@@@std@@@std@@@std@@SAAAPAU?$_Tree_node@U?$pair@$$CBHPAVfms_fp_item_t@@@std@@PAX@2@PAU32@@Z 1000f500 f i mfdpage_fms.obj
 0001:0000e500       ?_Parent@?$_Tree_val@U?$_Tree_simple_types@U?$pair@$$CBV?$basic_string@DU?$char_traits@D@std@@V?$allocator@D@2@@std@@PAVfms_fp_item_t@@@std@@@std@@@std@@SAAAPAU?$_Tree_node@U?$pair@$$CBV?$basic_string@DU?$char_traits@D@std@@V?$allocator@D@2@@std@@PAVfms_fp_item_t@@@std@@PAX@2@PAU32@@Z 1000f500 f i fms_fp.obj
 0001:0000e500       ?_Parent@?$_Tree_val@U?$_Tree_simple_types@U?$pair@$$CBV?$basic_string@DU?$char_traits@D@std@@V?$allocator@D@2@@std@@PAVfms_config_item_t@@@std@@@std@@@std@@SAAAPAU?$_Tree_node@U?$pair@$$CBV?$basic_string@DU?$char_traits@D@std@@V?$allocator@D@2@@std@@PAVfms_config_item_t@@@std@@PAX@2@PAU32@@Z 1000f500 f i fms_config.obj
 0001:0000e500       ?_Parent@?$_Tree_val@U?$_Tree_simple_types@U?$pair@$$CBHV?$basic_string@DU?$char_traits@D@std@@V?$allocator@D@2@@std@@@std@@@std@@@std@@SAAAPAU?$_Tree_node@U?$pair@$$CBHV?$basic_string@DU?$char_traits@D@std@@V?$allocator@D@2@@std@@@std@@PAX@2@PAU32@@Z 1000f500 f i out_saitek.obj
 0001:0000e500       ?_Parent@?$_Tree_val@U?$_Tree_simple_types@U?$pair@$$CBV?$basic_string@DU?$char_traits@D@std@@V?$allocator@D@2@@std@@M@std@@@std@@@std@@SAAAPAU?$_Tree_node@U?$pair@$$CBV?$basic_string@DU?$char_traits@D@std@@V?$allocator@D@2@@std@@M@std@@PAX@2@PAU32@@Z 1000f500 f i mfdpage_fms.obj
 0001:0000e510       ?_Pdif@?$basic_string@DU?$char_traits@D@std@@V?$allocator@D@2@@std@@SAIV?$_String_const_iterator@V?$_String_val@U?$_Simple_types@D@std@@@std@@@2@0@Z 1000f510 f i mfdpage.obj
 0001:0000e540       ?_Right@?$_Tree_val@U?$_Tree_simple_types@PAVmfdpage_t@@@std@@@std@@SAAAPAU?$_Tree_node@PAVmfdpage_t@@PAX@2@PAU32@@Z 1000f540 f i in.obj
 0001:0000e540       ?_Right@?$_Tree_val@U?$_Tree_simple_types@U?$pair@$$CBV?$basic_string@DU?$char_traits@D@std@@V?$allocator@D@2@@std@@H@std@@@std@@@std@@SAAAPAU?$_Tree_node@U?$pair@$$CBV?$basic_string@DU?$char_traits@D@std@@V?$allocator@D@2@@std@@H@std@@PAX@2@PAU32@@Z 1000f540 f i mfdpage.obj
 0001:0000e540       ?_Right@?$_Tree_val@U?$_Tree_simple_types@U?$pair@$$CBHV?$basic_string@DU?$char_traits@D@std@@V?$allocator@D@2@@std@@@std@@@std@@@std@@SAAAPAU?$_Tree_node@U?$pair@$$CBHV?$basic_string@DU?$char_traits@D@std@@V?$allocator@D@2@@std@@@std@@PAX@2@PAU32@@Z 1000f540 f i out_saitek.obj
 0001:0000e540       ?_Right@?$_Tree_val@U?$_Tree_simple_types@U?$pair@$$CBHM@std@@@std@@@std@@SAAAPAU?$_Tree_node@U?$pair@$$CBHM@std@@PAX@2@PAU32@@Z 1000f540 f i fms_config.obj
 0001:0000e540       ?_Right@?$_Tree_val@U?$_Tree_simple_types@PAVobject_t@@@std@@@std@@SAAAPAU?$_Tree_node@PAVobject_t@@PAX@2@PAU32@@Z 1000f540 f i data.obj
 0001:0000e540       ?_Right@?$_Tree_val@U?$_Tree_simple_types@U?$pair@$$CBHPAVobject_t@@@std@@@std@@@std@@SAAAPAU?$_Tree_node@U?$pair@$$CBHPAVobject_t@@@std@@PAX@2@PAU32@@Z 1000f540 f i mfdpage.obj
 0001:0000e540       ?_Right@?$_Tree_val@U?$_Tree_simple_types@U?$pair@$$CBV?$basic_string@DU?$char_traits@D@std@@V?$allocator@D@2@@std@@M@std@@@std@@@std@@SAAAPAU?$_Tree_node@U?$pair@$$CBV?$basic_string@DU?$char_traits@D@std@@V?$allocator@D@2@@std@@M@std@@PAX@2@PAU32@@Z 1000f540 f i mfdpage_fms.obj
 0001:0000e540       ?_Right@?$_Tree_val@U?$_Tree_simple_types@U?$pair@$$CBV?$basic_string@DU?$char_traits@D@std@@V?$allocator@D@2@@std@@D@std@@@std@@@std@@SAAAPAU?$_Tree_node@U?$pair@$$CBV?$basic_string@DU?$char_traits@D@std@@V?$allocator@D@2@@std@@D@std@@PAX@2@PAU32@@Z 1000f540 f i mfdpage.obj
 0001:0000e540       ?_Right@?$_Tree_val@U?$_Tree_simple_types@PAVlistener_t@@@std@@@std@@SAAAPAU?$_Tree_node@PAVlistener_t@@PAX@2@PAU32@@Z 1000f540 f i data.obj
 0001:0000e540       ?_Right@?$_Tree_val@U?$_Tree_simple_types@U?$pair@$$CBV?$basic_string@DU?$char_traits@D@std@@V?$allocator@D@2@@std@@V12@@std@@@std@@@std@@SAAAPAU?$_Tree_node@U?$pair@$$CBV?$basic_string@DU?$char_traits@D@std@@V?$allocator@D@2@@std@@V12@@std@@PAX@2@PAU32@@Z 1000f540 f i tools.obj
 0001:0000e540       ?_Right@?$_Tree_val@U?$_Tree_simple_types@U?$pair@$$CBHPAVfms_fp_item_t@@@std@@@std@@@std@@SAAAPAU?$_Tree_node@U?$pair@$$CBHPAVfms_fp_item_t@@@std@@PAX@2@PAU32@@Z 1000f540 f i mfdpage_fms.obj
 0001:0000e540       ?_Right@?$_Tree_val@U?$_Tree_simple_types@U?$pair@$$CBV?$basic_string@DU?$char_traits@D@std@@V?$allocator@D@2@@std@@PAVfms_fp_item_t@@@std@@@std@@@std@@SAAAPAU?$_Tree_node@U?$pair@$$CBV?$basic_string@DU?$char_traits@D@std@@V?$allocator@D@2@@std@@PAVfms_fp_item_t@@@std@@PAX@2@PAU32@@Z 1000f540 f i fms_fp.obj
 0001:0000e540       ?_Right@?$_Tree_val@U?$_Tree_simple_types@U?$pair@$$CBV?$basic_string@DU?$char_traits@D@std@@V?$allocator@D@2@@std@@PAVfms_config_item_t@@@std@@@std@@@std@@SAAAPAU?$_Tree_node@U?$pair@$$CBV?$basic_string@DU?$char_traits@D@std@@V?$allocator@D@2@@std@@PAVfms_config_item_t@@@std@@PAX@2@PAU32@@Z 1000f540 f i fms_config.obj
 0001:0000e550       ?_Tidy@?$_Tree@V?$_Tmap_traits@HPAVfms_fp_item_t@@U?$less@H@std@@V?$allocator@U?$pair@$$CBHPAVfms_fp_item_t@@@std@@@3@$0A@@std@@@std@@IAEXXZ 1000f550 f i fms_fp.obj
 0001:0000e550       ?_Tidy@?$_Tree@V?$_Tmap_traits@HPAVobject_t@@U?$less@H@std@@V?$allocator@U?$pair@$$CBHPAVobject_t@@@std@@@3@$0A@@std@@@std@@IAEXXZ 1000f550 f i mfdpage.obj
 0001:0000e5a0       ?_Tidy@?$_Tree@V?$_Tmap_traits@HV?$basic_string@DU?$char_traits@D@std@@V?$allocator@D@2@@std@@U?$less@H@2@V?$allocator@U?$pair@$$CBHV?$basic_string@DU?$char_traits@D@std@@V?$allocator@D@2@@std@@@std@@@2@$0A@@std@@@std@@IAEXXZ 1000f5a0 f i mfdpage.obj
 0001:0000e5f0       ?_Tidy@?$_Tree@V?$_Tmap_traits@V?$basic_string@DU?$char_traits@D@std@@V?$allocator@D@2@@std@@HU?$less@V?$basic_string@DU?$char_traits@D@std@@V?$allocator@D@2@@std@@@2@V?$allocator@U?$pair@$$CBV?$basic_string@DU?$char_traits@D@std@@V?$allocator@D@2@@std@@H@std@@@2@$0A@@std@@@std@@IAEXXZ 1000f5f0 f i mfdpage.obj
 0001:0000e5f0       ?_Tidy@?$_Tree@V?$_Tmap_traits@V?$basic_string@DU?$char_traits@D@std@@V?$allocator@D@2@@std@@MU?$less@V?$basic_string@DU?$char_traits@D@std@@V?$allocator@D@2@@std@@@2@V?$allocator@U?$pair@$$CBV?$basic_string@DU?$char_traits@D@std@@V?$allocator@D@2@@std@@M@std@@@2@$0A@@std@@@std@@IAEXXZ 1000f5f0 f i fms_config.obj
 0001:0000e5f0       ?_Tidy@?$_Tree@V?$_Tmap_traits@V?$basic_string@DU?$char_traits@D@std@@V?$allocator@D@2@@std@@PAVfms_fp_item_t@@U?$less@V?$basic_string@DU?$char_traits@D@std@@V?$allocator@D@2@@std@@@2@V?$allocator@U?$pair@$$CBV?$basic_string@DU?$char_traits@D@std@@V?$allocator@D@2@@std@@PAVfms_fp_item_t@@@std@@@2@$0A@@std@@@std@@IAEXXZ 1000f5f0 f i fms_fp.obj
 0001:0000e5f0       ?_Tidy@?$_Tree@V?$_Tmap_traits@V?$basic_string@DU?$char_traits@D@std@@V?$allocator@D@2@@std@@PAVfms_config_item_t@@U?$less@V?$basic_string@DU?$char_traits@D@std@@V?$allocator@D@2@@std@@@2@V?$allocator@U?$pair@$$CBV?$basic_string@DU?$char_traits@D@std@@V?$allocator@D@2@@std@@PAVfms_config_item_t@@@std@@@2@$0A@@std@@@std@@IAEXXZ 1000f5f0 f i fms_config.obj
 0001:0000e640       ?append@?$basic_string@DU?$char_traits@D@std@@V?$allocator@D@2@@std@@QAEAAV12@ID@Z 1000f640 f i mfdpage.obj
 0001:0000e6c0       ?assign@?$char_traits@D@std@@SAPADPADID@Z 1000f6c0 f i mfdpage.obj
 0001:0000e6e0       ?begin@?$basic_string@DU?$char_traits@D@std@@V?$allocator@D@2@@std@@QAE?AV?$_String_iterator@V?$_String_val@U?$_Simple_types@D@std@@@std@@@2@XZ 1000f6e0 f i mfdpage.obj
 0001:0000e710       ?clear@?$_Tree@V?$_Tmap_traits@HV?$basic_string@DU?$char_traits@D@std@@V?$allocator@D@2@@std@@U?$less@H@2@V?$allocator@U?$pair@$$CBHV?$basic_string@DU?$char_traits@D@std@@V?$allocator@D@2@@std@@@std@@@2@$0A@@std@@@std@@QAEXXZ 1000f710 f i mfdpage.obj
 0001:0000e770       ?clear@?$_Tree@V?$_Tmap_traits@V?$basic_string@DU?$char_traits@D@std@@V?$allocator@D@2@@std@@PAVfms_fp_item_t@@U?$less@V?$basic_string@DU?$char_traits@D@std@@V?$allocator@D@2@@std@@@2@V?$allocator@U?$pair@$$CBV?$basic_string@DU?$char_traits@D@std@@V?$allocator@D@2@@std@@PAVfms_fp_item_t@@@std@@@2@$0A@@std@@@std@@QAEXXZ 1000f770 f i fms_fp.obj
 0001:0000e770       ?clear@?$_Tree@V?$_Tmap_traits@V?$basic_string@DU?$char_traits@D@std@@V?$allocator@D@2@@std@@HU?$less@V?$basic_string@DU?$char_traits@D@std@@V?$allocator@D@2@@std@@@2@V?$allocator@U?$pair@$$CBV?$basic_string@DU?$char_traits@D@std@@V?$allocator@D@2@@std@@H@std@@@2@$0A@@std@@@std@@QAEXXZ 1000f770 f i mfdpage.obj
 0001:0000e770       ?clear@?$_Tree@V?$_Tmap_traits@V?$basic_string@DU?$char_traits@D@std@@V?$allocator@D@2@@std@@MU?$less@V?$basic_string@DU?$char_traits@D@std@@V?$allocator@D@2@@std@@@2@V?$allocator@U?$pair@$$CBV?$basic_string@DU?$char_traits@D@std@@V?$allocator@D@2@@std@@M@std@@@2@$0A@@std@@@std@@QAEXXZ 1000f770 f i fms_config.obj
 0001:0000e770       ?clear@?$_Tree@V?$_Tmap_traits@V?$basic_string@DU?$char_traits@D@std@@V?$allocator@D@2@@std@@PAVfms_config_item_t@@U?$less@V?$basic_string@DU?$char_traits@D@std@@V?$allocator@D@2@@std@@@2@V?$allocator@U?$pair@$$CBV?$basic_string@DU?$char_traits@D@std@@V?$allocator@D@2@@std@@PAVfms_config_item_t@@@std@@@2@$0A@@std@@@std@@QAEXXZ 1000f770 f i fms_config.obj
 0001:0000e7d0       ?end@?$basic_string@DU?$char_traits@D@std@@V?$allocator@D@2@@std@@QAE?AV?$_String_iterator@V?$_String_val@U?$_Simple_types@D@std@@@std@@@2@XZ 1000f7d0 f i mfdpage.obj
 0001:0000e800       ?erase@?$_Tree@V?$_Tmap_traits@HPAVobject_t@@U?$less@H@std@@V?$allocator@U?$pair@$$CBHPAVobject_t@@@std@@@3@$0A@@std@@@std@@QAE?AV?$_Tree_iterator@V?$_Tree_val@U?$_Tree_simple_types@U?$pair@$$CBHPAVobject_t@@@std@@@std@@@std@@@2@V?$_Tree_const_iterator@V?$_Tree_val@U?$_Tree_simple_types@U?$pair@$$CBHPAVobject_t@@@std@@@std@@@std@@@2@0@Z 1000f800 f i mfdpage.obj
 0001:0000e800       ?erase@?$_Tree@V?$_Tmap_traits@HPAVfms_fp_item_t@@U?$less@H@std@@V?$allocator@U?$pair@$$CBHPAVfms_fp_item_t@@@std@@@3@$0A@@std@@@std@@QAE?AV?$_Tree_iterator@V?$_Tree_val@U?$_Tree_simple_types@U?$pair@$$CBHPAVfms_fp_item_t@@@std@@@std@@@std@@@2@V?$_Tree_const_iterator@V?$_Tree_val@U?$_Tree_simple_types@U?$pair@$$CBHPAVfms_fp_item_t@@@std@@@std@@@std@@@2@0@Z 1000f800 f i fms_fp.obj
 0001:0000e8b0       ?erase@?$_Tree@V?$_Tmap_traits@HPAVobject_t@@U?$less@H@std@@V?$allocator@U?$pair@$$CBHPAVobject_t@@@std@@@3@$0A@@std@@@std@@QAE?AV?$_Tree_iterator@V?$_Tree_val@U?$_Tree_simple_types@U?$pair@$$CBHPAVobject_t@@@std@@@std@@@std@@@2@V?$_Tree_const_iterator@V?$_Tree_val@U?$_Tree_simple_types@U?$pair@$$CBHPAVobject_t@@@std@@@std@@@std@@@2@@Z 1000f8b0 f i mfdpage.obj
 0001:0000e8b0       ?erase@?$_Tree@V?$_Tmap_traits@HPAVfms_fp_item_t@@U?$less@H@std@@V?$allocator@U?$pair@$$CBHPAVfms_fp_item_t@@@std@@@3@$0A@@std@@@std@@QAE?AV?$_Tree_iterator@V?$_Tree_val@U?$_Tree_simple_types@U?$pair@$$CBHPAVfms_fp_item_t@@@std@@@std@@@std@@@2@V?$_Tree_const_iterator@V?$_Tree_val@U?$_Tree_simple_types@U?$pair@$$CBHPAVfms_fp_item_t@@@std@@@std@@@std@@@2@@Z 1000f8b0 f i fms_fp.obj
 0001:0000f030       ?erase@?$_Tree@V?$_Tmap_traits@HV?$basic_string@DU?$char_traits@D@std@@V?$allocator@D@2@@std@@U?$less@H@2@V?$allocator@U?$pair@$$CBHV?$basic_string@DU?$char_traits@D@std@@V?$allocator@D@2@@std@@@std@@@2@$0A@@std@@@std@@QAE?AV?$_Tree_iterator@V?$_Tree_val@U?$_Tree_simple_types@U?$pair@$$CBHV?$basic_string@DU?$char_traits@D@std@@V?$allocator@D@2@@std@@@std@@@std@@@std@@@2@V?$_Tree_const_iterator@V?$_Tree_val@U?$_Tree_simple_types@U?$pair@$$CBHV?$basic_string@DU?$char_traits@D@std@@V?$allocator@D@2@@std@@@std@@@std@@@std@@@2@0@Z 10010030 f i mfdpage.obj
 0001:0000f0e0       ?erase@?$_Tree@V?$_Tmap_traits@HV?$basic_string@DU?$char_traits@D@std@@V?$allocator@D@2@@std@@U?$less@H@2@V?$allocator@U?$pair@$$CBHV?$basic_string@DU?$char_traits@D@std@@V?$allocator@D@2@@std@@@std@@@2@$0A@@std@@@std@@QAE?AV?$_Tree_iterator@V?$_Tree_val@U?$_Tree_simple_types@U?$pair@$$CBHV?$basic_string@DU?$char_traits@D@std@@V?$allocator@D@2@@std@@@std@@@std@@@std@@@2@V?$_Tree_const_iterator@V?$_Tree_val@U?$_Tree_simple_types@U?$pair@$$CBHV?$basic_string@DU?$char_traits@D@std@@V?$allocator@D@2@@std@@@std@@@std@@@std@@@2@@Z 100100e0 f i mfdpage.obj
 0001:0000f860       ?erase@?$_Tree@V?$_Tmap_traits@V?$basic_string@DU?$char_traits@D@std@@V?$allocator@D@2@@std@@PAVfms_fp_item_t@@U?$less@V?$basic_string@DU?$char_traits@D@std@@V?$allocator@D@2@@std@@@2@V?$allocator@U?$pair@$$CBV?$basic_string@DU?$char_traits@D@std@@V?$allocator@D@2@@std@@PAVfms_fp_item_t@@@std@@@2@$0A@@std@@@std@@QAE?AV?$_Tree_iterator@V?$_Tree_val@U?$_Tree_simple_types@U?$pair@$$CBV?$basic_string@DU?$char_traits@D@std@@V?$allocator@D@2@@std@@PAVfms_fp_item_t@@@std@@@std@@@std@@@2@V?$_Tree_const_iterator@V?$_Tree_val@U?$_Tree_simple_types@U?$pair@$$CBV?$basic_string@DU?$char_traits@D@std@@V?$allocator@D@2@@std@@PAVfms_fp_item_t@@@std@@@std@@@std@@@2@0@Z 10010860 f i fms_fp.obj
 0001:0000f860       ?erase@?$_Tree@V?$_Tmap_traits@V?$basic_string@DU?$char_traits@D@std@@V?$allocator@D@2@@std@@PAVfms_config_item_t@@U?$less@V?$basic_string@DU?$char_traits@D@std@@V?$allocator@D@2@@std@@@2@V?$allocator@U?$pair@$$CBV?$basic_string@DU?$char_traits@D@std@@V?$allocator@D@2@@std@@PAVfms_config_item_t@@@std@@@2@$0A@@std@@@std@@QAE?AV?$_Tree_iterator@V?$_Tree_val@U?$_Tree_simple_types@U?$pair@$$CBV?$basic_string@DU?$char_traits@D@std@@V?$allocator@D@2@@std@@PAVfms_config_item_t@@@std@@@std@@@std@@@2@V?$_Tree_const_iterator@V?$_Tree_val@U?$_Tree_simple_types@U?$pair@$$CBV?$basic_string@DU?$char_traits@D@std@@V?$allocator@D@2@@std@@PAVfms_config_item_t@@@std@@@std@@@std@@@2@0@Z 10010860 f i fms_config.obj
 0001:0000f860       ?erase@?$_Tree@V?$_Tmap_traits@V?$basic_string@DU?$char_traits@D@std@@V?$allocator@D@2@@std@@MU?$less@V?$basic_string@DU?$char_traits@D@std@@V?$allocator@D@2@@std@@@2@V?$allocator@U?$pair@$$CBV?$basic_string@DU?$char_traits@D@std@@V?$allocator@D@2@@std@@M@std@@@2@$0A@@std@@@std@@QAE?AV?$_Tree_iterator@V?$_Tree_val@U?$_Tree_simple_types@U?$pair@$$CBV?$basic_string@DU?$char_traits@D@std@@V?$allocator@D@2@@std@@M@std@@@std@@@std@@@2@V?$_Tree_const_iterator@V?$_Tree_val@U?$_Tree_simple_types@U?$pair@$$CBV?$basic_string@DU?$char_traits@D@std@@V?$allocator@D@2@@std@@M@std@@@std@@@std@@@2@0@Z 10010860 f i fms_config.obj
 0001:0000f860       ?erase@?$_Tree@V?$_Tmap_traits@V?$basic_string@DU?$char_traits@D@std@@V?$allocator@D@2@@std@@HU?$less@V?$basic_string@DU?$char_traits@D@std@@V?$allocator@D@2@@std@@@2@V?$allocator@U?$pair@$$CBV?$basic_string@DU?$char_traits@D@std@@V?$allocator@D@2@@std@@H@std@@@2@$0A@@std@@@std@@QAE?AV?$_Tree_iterator@V?$_Tree_val@U?$_Tree_simple_types@U?$pair@$$CBV?$basic_string@DU?$char_traits@D@std@@V?$allocator@D@2@@std@@H@std@@@std@@@std@@@2@V?$_Tree_const_iterator@V?$_Tree_val@U?$_Tree_simple_types@U?$pair@$$CBV?$basic_string@DU?$char_traits@D@std@@V?$allocator@D@2@@std@@H@std@@@std@@@std@@@2@0@Z 10010860 f i mfdpage.obj
 0001:0000f910       ?find@?$basic_string@DU?$char_traits@D@std@@V?$allocator@D@2@@std@@QBEIPBDI@Z 10010910 f i mfdpage.obj
 0001:0000f940       ?find@?$basic_string@DU?$char_traits@D@std@@V?$allocator@D@2@@std@@QBEIPBDII@Z 10010940 f i mfdpage.obj
 0001:0000fa20       ?find@?$char_traits@D@std@@SAPBDPBDIABD@Z 10010a20 f i mfdpage.obj
 0001:0000fa60       ?lower_bound@?$_Tree@V?$_Tmap_traits@HPAVobject_t@@U?$less@H@std@@V?$allocator@U?$pair@$$CBHPAVobject_t@@@std@@@3@$0A@@std@@@std@@QAE?AV?$_Tree_iterator@V?$_Tree_val@U?$_Tree_simple_types@U?$pair@$$CBHPAVobject_t@@@std@@@std@@@std@@@2@ABH@Z 10010a60 f i mfdpage.obj
 0001:0000fa60       ?lower_bound@?$_Tree@V?$_Tmap_traits@HMU?$less@H@std@@V?$allocator@U?$pair@$$CBHM@std@@@2@$0A@@std@@@std@@QAE?AV?$_Tree_iterator@V?$_Tree_val@U?$_Tree_simple_types@U?$pair@$$CBHM@std@@@std@@@std@@@2@ABH@Z 10010a60 f i fms_config.obj
 0001:0000fa60       ?lower_bound@?$_Tree@V?$_Tmap_traits@HV?$basic_string@DU?$char_traits@D@std@@V?$allocator@D@2@@std@@U?$less@H@2@V?$allocator@U?$pair@$$CBHV?$basic_string@DU?$char_traits@D@std@@V?$allocator@D@2@@std@@@std@@@2@$0A@@std@@@std@@QAE?AV?$_Tree_iterator@V?$_Tree_val@U?$_Tree_simple_types@U?$pair@$$CBHV?$basic_string@DU?$char_traits@D@std@@V?$allocator@D@2@@std@@@std@@@std@@@std@@@2@ABH@Z 10010a60 f i out_saitek.obj
 0001:0000fa60       ?lower_bound@?$_Tree@V?$_Tmap_traits@HPAVfms_fp_item_t@@U?$less@H@std@@V?$allocator@U?$pair@$$CBHPAVfms_fp_item_t@@@std@@@3@$0A@@std@@@std@@QAE?AV?$_Tree_iterator@V?$_Tree_val@U?$_Tree_simple_types@U?$pair@$$CBHPAVfms_fp_item_t@@@std@@@std@@@std@@@2@ABH@Z 10010a60 f i mfdpage_fms.obj
 0001:0000fa90       ?max_size@?$_Tree@V?$_Tmap_traits@V?$basic_string@DU?$char_traits@D@std@@V?$allocator@D@2@@std@@PAVfms_fp_item_t@@U?$less@V?$basic_string@DU?$char_traits@D@std@@V?$allocator@D@2@@std@@@2@V?$allocator@U?$pair@$$CBV?$basic_string@DU?$char_traits@D@std@@V?$allocator@D@2@@std@@PAVfms_fp_item_t@@@std@@@2@$0A@@std@@@std@@QBEIXZ 10010a90 f i fms_fp.obj
 0001:0000fa90       ?max_size@?$_Tree@V?$_Tmap_traits@V?$basic_string@DU?$char_traits@D@std@@V?$allocator@D@2@@std@@DU?$less@V?$basic_string@DU?$char_traits@D@std@@V?$allocator@D@2@@std@@@2@V?$allocator@U?$pair@$$CBV?$basic_string@DU?$char_traits@D@std@@V?$allocator@D@2@@std@@D@std@@@2@$0A@@std@@@std@@QBEIXZ 10010a90 f i mfdpage.obj
 0001:0000fa90       ?max_size@?$_Tree@V?$_Tmap_traits@V?$basic_string@DU?$char_traits@D@std@@V?$allocator@D@2@@std@@PAVfms_config_item_t@@U?$less@V?$basic_string@DU?$char_traits@D@std@@V?$allocator@D@2@@std@@@2@V?$allocator@U?$pair@$$CBV?$basic_string@DU?$char_traits@D@std@@V?$allocator@D@2@@std@@PAVfms_config_item_t@@@std@@@2@$0A@@std@@@std@@QBEIXZ 10010a90 f i fms_config.obj
 0001:0000fa90       ?max_size@?$_Tree@V?$_Tmap_traits@HV?$basic_string@DU?$char_traits@D@std@@V?$allocator@D@2@@std@@U?$less@H@2@V?$allocator@U?$pair@$$CBHV?$basic_string@DU?$char_traits@D@std@@V?$allocator@D@2@@std@@@std@@@2@$0A@@std@@@std@@QBEIXZ 10010a90 f i out_saitek.obj
 0001:0000fa90       ?max_size@?$_Tree@V?$_Tmap_traits@V?$basic_string@DU?$char_traits@D@std@@V?$allocator@D@2@@std@@MU?$less@V?$basic_string@DU?$char_traits@D@std@@V?$allocator@D@2@@std@@@2@V?$allocator@U?$pair@$$CBV?$basic_string@DU?$char_traits@D@std@@V?$allocator@D@2@@std@@M@std@@@2@$0A@@std@@@std@@QBEIXZ 10010a90 f i mfdpage_fms.obj
 0001:0000fa90       ?max_size@?$_Tree@V?$_Tmap_traits@V?$basic_string@DU?$char_traits@D@std@@V?$allocator@D@2@@std@@HU?$less@V?$basic_string@DU?$char_traits@D@std@@V?$allocator@D@2@@std@@@2@V?$allocator@U?$pair@$$CBV?$basic_string@DU?$char_traits@D@std@@V?$allocator@D@2@@std@@H@std@@@2@$0A@@std@@@std@@QBEIXZ 10010a90 f i mfdpage.obj
 0001:0000fab0       ?max_size@?$allocator_traits@V?$allocator@U?$_Tree_node@U?$pair@$$CBHM@std@@PAX@std@@@std@@@std@@SAIABV?$allocator@U?$_Tree_node@U?$pair@$$CBHM@std@@PAX@std@@@2@@Z 10010ab0 f i fms_config.obj
 0001:0000fab0       ?max_size@?$allocator_traits@V?$allocator@U?$_Tree_node@U?$pair@$$CBHPAVfms_fp_item_t@@@std@@PAX@std@@@std@@@std@@SAIABV?$allocator@U?$_Tree_node@U?$pair@$$CBHPAVfms_fp_item_t@@@std@@PAX@std@@@2@@Z 10010ab0 f i mfdpage_fms.obj
 0001:0000fab0       ?max_size@?$allocator_traits@V?$allocator@U?$_Tree_node@U?$pair@$$CBHPAVobject_t@@@std@@PAX@std@@@std@@@std@@SAIABV?$allocator@U?$_Tree_node@U?$pair@$$CBHPAVobject_t@@@std@@PAX@std@@@2@@Z 10010ab0 f i mfdpage.obj
 0001:0000fac0       ?replace@?$basic_string@DU?$char_traits@D@std@@V?$allocator@D@2@@std@@QAEAAV12@IIABV12@II@Z 10010ac0 f i mfdpage.obj
 0001:0000fd80       ?replace@?$basic_string@DU?$char_traits@D@std@@V?$allocator@D@2@@std@@QAEAAV12@IIPBDI@Z 10010d80 f i mfdpage.obj
 0001:0000fef0       ?replace@?$basic_string@DU?$char_traits@D@std@@V?$allocator@D@2@@std@@QAEAAV12@V?$_String_const_iterator@V?$_String_val@U?$_Simple_types@D@std@@@std@@@2@0V?$_String_iterator@V?$_String_val@U?$_Simple_types@D@std@@@std@@@2@1@Z 10010ef0 f i mfdpage.obj
 0001:0000ffb0       ??0mfdpage_fms_t@@QAE@V?$basic_string@DU?$char_traits@D@std@@V?$allocator@D@2@@std@@@Z 10010fb0 f   mfdpage_fms.obj
 0001:00010000       ??0mfdpage_fms_t@@QAE@V?$basic_string@DU?$char_traits@D@std@@V?$allocator@D@2@@std@@PAVfms_t@@@Z 10011000 f   mfdpage_fms.obj
 0001:00010070       ?get_template@mfdpage_fms_t@@UAE?AV?$basic_string@DU?$char_traits@D@std@@V?$allocator@D@2@@std@@V23@AAV?$map@HV?$basic_string@DU?$char_traits@D@std@@V?$allocator@D@2@@std@@U?$less@H@2@V?$allocator@U?$pair@$$CBHV?$basic_string@DU?$char_traits@D@std@@V?$allocator@D@2@@std@@@std@@@2@@3@@Z 10011070 f   mfdpage_fms.obj
 0001:000101f0       ?do_refresh@mfdpage_fms_t@@UAEXPAVobject_t@@@Z 100111f0 f   mfdpage_fms.obj
 0001:00010340       ?refresh_interval@mfdpage_fms_t@@UAEHV?$basic_string@DU?$char_traits@D@std@@V?$allocator@D@2@@std@@@Z 10011340 f   mfdpage_fms.obj
 0001:00010370       ?refresh_template@mfdpage_fms_t@@UAE?AV?$basic_string@DU?$char_traits@D@std@@V?$allocator@D@2@@std@@V23@V?$map@HPAVobject_t@@U?$less@H@std@@V?$allocator@U?$pair@$$CBHPAVobject_t@@@std@@@3@@3@0@Z 10011370 f   mfdpage_fms.obj
 0001:00010d10       ??$?0$$QAH$$$V@?$pair@$$CBHV?$basic_string@DU?$char_traits@D@std@@V?$allocator@D@2@@std@@@std@@QAE@Upiecewise_construct_t@1@V?$tuple@$$QAH@1@V?$tuple@$$$V@1@@Z 10011d10 f i mfdpage_fms.obj
 0001:00010d10       ??$?0ABH$$$V@?$pair@$$CBHV?$basic_string@DU?$char_traits@D@std@@V?$allocator@D@2@@std@@@std@@QAE@Upiecewise_construct_t@1@V?$tuple@ABH@1@V?$tuple@$$$V@1@@Z 10011d10 f i out_saitek.obj
 0001:00010d50       ??$?0$$QAV?$basic_string@DU?$char_traits@D@std@@V?$allocator@D@2@@std@@$$$V@?$pair@$$CBV?$basic_string@DU?$char_traits@D@std@@V?$allocator@D@2@@std@@M@std@@QAE@Upiecewise_construct_t@1@V?$tuple@$$QAV?$basic_string@DU?$char_traits@D@std@@V?$allocator@D@2@@std@@@1@V?$tuple@$$$V@1@@Z 10011d50 f i mfdpage_fms.obj
 0001:00010d90       ??$?0H$$$VPAPAX@?$tuple@$$QAH@std@@QAE@$$QAH@Z 10011d90 f i mfdpage_fms.obj
 0001:00010d90       ??$?0V?$basic_string@DU?$char_traits@D@std@@V?$allocator@D@2@@std@@$$$VPAPAX@?$tuple@$$QAV?$basic_string@DU?$char_traits@D@std@@V?$allocator@D@2@@std@@@std@@QAE@$$QAV?$basic_string@DU?$char_traits@D@std@@V?$allocator@D@2@@1@@Z 10011d90 f i tools.obj
 0001:00010dc0       ??$?0V?$tuple@$$QAH@std@@V?$tuple@$$$V@1@$0A@$S@?$pair@$$CBHV?$basic_string@DU?$char_traits@D@std@@V?$allocator@D@2@@std@@@std@@QAE@AAV?$tuple@$$QAH@1@AAV?$tuple@$$$V@1@U?$_Arg_idx@$0A@@1@U?$_Arg_idx@$S@1@@Z 10011dc0 f i mfdpage_fms.obj
 0001:00010dc0       ??$?0V?$tuple@ABH@std@@V?$tuple@$$$V@1@$0A@$S@?$pair@$$CBHV?$basic_string@DU?$char_traits@D@std@@V?$allocator@D@2@@std@@@std@@QAE@AAV?$tuple@ABH@1@AAV?$tuple@$$$V@1@U?$_Arg_idx@$0A@@1@U?$_Arg_idx@$S@1@@Z 10011dc0 f i out_saitek.obj
 0001:00010e00       ??$?0V?$tuple@$$QAV?$basic_string@DU?$char_traits@D@std@@V?$allocator@D@2@@std@@@std@@V?$tuple@$$$V@1@$0A@$S@?$pair@$$CBV?$basic_string@DU?$char_traits@D@std@@V?$allocator@D@2@@std@@M@std@@QAE@AAV?$tuple@$$QAV?$basic_string@DU?$char_traits@D@std@@V?$allocator@D@2@@std@@@1@AAV?$tuple@$$$V@1@U?$_Arg_idx@$0A@@1@U?$_Arg_idx@$S@1@@Z 10011e00 f i mfdpage_fms.obj
 0001:00010e40       ??$_Allocate@U?$_Tree_node@U?$pair@$$CBHM@std@@PAX@std@@@std@@YAPAU?$_Tree_node@U?$pair@$$CBHM@std@@PAX@0@IPAU10@@Z 10011e40 f i fms_config.obj
 0001:00010e40       ??$_Allocate@U?$_Tree_node@U?$pair@$$CBHPAVobject_t@@@std@@PAX@std@@@std@@YAPAU?$_Tree_node@U?$pair@$$CBHPAVobject_t@@@std@@PAX@0@IPAU10@@Z 10011e40 f i mfdpage.obj
 0001:00010e40       ??$_Allocate@U?$_Tree_node@U?$pair@$$CBHPAVfms_fp_item_t@@@std@@PAX@std@@@std@@YAPAU?$_Tree_node@U?$pair@$$CBHPAVfms_fp_item_t@@@std@@PAX@0@IPAU10@@Z 10011e40 f i mfdpage_fms.obj
 0001:00010e80       ??$_Buynode@ABUpiecewise_construct_t@std@@V?$tuple@ABH@2@V?$tuple@$$$V@2@@?$_Tree_buy@U?$pair@$$CBHPAVfms_fp_item_t@@@std@@V?$allocator@U?$pair@$$CBHPAVfms_fp_item_t@@@std@@@2@@std@@QAEPAU?$_Tree_node@U?$pair@$$CBHPAVfms_fp_item_t@@@std@@PAX@1@ABUpiecewise_construct_t@1@$$QAV?$tuple@ABH@1@$$QAV?$tuple@$$$V@1@@Z 10011e80 f i mfdpage_fms.obj
 0001:00010e80       ??$_Buynode@ABUpiecewise_construct_t@std@@V?$tuple@$$QAH@2@V?$tuple@$$$V@2@@?$_Tree_buy@U?$pair@$$CBHPAVobject_t@@@std@@V?$allocator@U?$pair@$$CBHPAVobject_t@@@std@@@2@@std@@QAEPAU?$_Tree_node@U?$pair@$$CBHPAVobject_t@@@std@@PAX@1@ABUpiecewise_construct_t@1@$$QAV?$tuple@$$QAH@1@$$QAV?$tuple@$$$V@1@@Z 10011e80 f i mfdpage_fms.obj
 0001:00010e80       ??$_Buynode@ABUpiecewise_construct_t@std@@V?$tuple@ABH@2@V?$tuple@$$$V@2@@?$_Tree_buy@U?$pair@$$CBHPAVobject_t@@@std@@V?$allocator@U?$pair@$$CBHPAVobject_t@@@std@@@2@@std@@QAEPAU?$_Tree_node@U?$pair@$$CBHPAVobject_t@@@std@@PAX@1@ABUpiecewise_construct_t@1@$$QAV?$tuple@ABH@1@$$QAV?$tuple@$$$V@1@@Z 10011e80 f i mfdpage.obj
 0001:00010e80       ??$_Buynode@ABUpiecewise_construct_t@std@@V?$tuple@$$QAH@2@V?$tuple@$$$V@2@@?$_Tree_buy@U?$pair@$$CBHPAVfms_fp_item_t@@@std@@V?$allocator@U?$pair@$$CBHPAVfms_fp_item_t@@@std@@@2@@std@@QAEPAU?$_Tree_node@U?$pair@$$CBHPAVfms_fp_item_t@@@std@@PAX@1@ABUpiecewise_construct_t@1@$$QAV?$tuple@$$QAH@1@$$QAV?$tuple@$$$V@1@@Z 10011e80 f i mfdpage_fms.obj
 0001:00010f80       ??$_Buynode@ABUpiecewise_construct_t@std@@V?$tuple@$$QAV?$basic_string@DU?$char_traits@D@std@@V?$allocator@D@2@@std@@@2@V?$tuple@$$$V@2@@?$_Tree_buy@U?$pair@$$CBV?$basic_string@DU?$char_traits@D@std@@V?$allocator@D@2@@std@@M@std@@V?$allocator@U?$pair@$$CBV?$basic_string@DU?$char_traits@D@std@@V?$allocator@D@2@@std@@M@std@@@2@@std@@QAEPAU?$_Tree_node@U?$pair@$$CBV?$basic_string@DU?$char_traits@D@std@@V?$allocator@D@2@@std@@M@std@@PAX@1@ABUpiecewise_construct_t@1@$$QAV?$tuple@$$QAV?$basic_string@DU?$char_traits@D@std@@V?$allocator@D@2@@std@@@1@$$QAV?$tuple@$$$V@1@@Z 10011f80 f i mfdpage_fms.obj
 0001:00011080       ??$_Insert_at@AAU?$pair@$$CBHPAVfms_fp_item_t@@@std@@PAU?$_Tree_node@U?$pair@$$CBHPAVfms_fp_item_t@@@std@@PAX@2@@?$_Tree@V?$_Tmap_traits@HPAVfms_fp_item_t@@U?$less@H@std@@V?$allocator@U?$pair@$$CBHPAVfms_fp_item_t@@@std@@@3@$0A@@std@@@std@@IAE?AV?$_Tree_iterator@V?$_Tree_val@U?$_Tree_simple_types@U?$pair@$$CBHPAVfms_fp_item_t@@@std@@@std@@@std@@@1@_NPAU?$_Tree_node@U?$pair@$$CBHPAVfms_fp_item_t@@@std@@PAX@1@AAU?$pair@$$CBHPAVfms_fp_item_t@@@1@1@Z 10012080 f i mfdpage_fms.obj
 0001:00011080       ??$_Insert_at@AAU?$pair@$$CBHM@std@@PAU?$_Tree_node@U?$pair@$$CBHM@std@@PAX@2@@?$_Tree@V?$_Tmap_traits@HMU?$less@H@std@@V?$allocator@U?$pair@$$CBHM@std@@@2@$0A@@std@@@std@@IAE?AV?$_Tree_iterator@V?$_Tree_val@U?$_Tree_simple_types@U?$pair@$$CBHM@std@@@std@@@std@@@1@_NPAU?$_Tree_node@U?$pair@$$CBHM@std@@PAX@1@AAU?$pair@$$CBHM@1@1@Z 10012080 f i fms_config.obj
 0001:00011080       ??$_Insert_at@AAU?$pair@$$CBHPAVobject_t@@@std@@PAU?$_Tree_node@U?$pair@$$CBHPAVobject_t@@@std@@PAX@2@@?$_Tree@V?$_Tmap_traits@HPAVobject_t@@U?$less@H@std@@V?$allocator@U?$pair@$$CBHPAVobject_t@@@std@@@3@$0A@@std@@@std@@IAE?AV?$_Tree_iterator@V?$_Tree_val@U?$_Tree_simple_types@U?$pair@$$CBHPAVobject_t@@@std@@@std@@@std@@@1@_NPAU?$_Tree_node@U?$pair@$$CBHPAVobject_t@@@std@@PAX@1@AAU?$pair@$$CBHPAVobject_t@@@1@1@Z 10012080 f i mfdpage.obj
 0001:000114b0       ??$_Insert_hint@AAU?$pair@$$CBHPAVfms_fp_item_t@@@std@@PAU?$_Tree_node@U?$pair@$$CBHPAVfms_fp_item_t@@@std@@PAX@2@@?$_Tree@V?$_Tmap_traits@HPAVfms_fp_item_t@@U?$less@H@std@@V?$allocator@U?$pair@$$CBHPAVfms_fp_item_t@@@std@@@3@$0A@@std@@@std@@IAE?AV?$_Tree_iterator@V?$_Tree_val@U?$_Tree_simple_types@U?$pair@$$CBHPAVfms_fp_item_t@@@std@@@std@@@std@@@1@V?$_Tree_const_iterator@V?$_Tree_val@U?$_Tree_simple_types@U?$pair@$$CBHPAVfms_fp_item_t@@@std@@@std@@@std@@@1@AAU?$pair@$$CBHPAVfms_fp_item_t@@@1@PAU?$_Tree_node@U?$pair@$$CBHPAVfms_fp_item_t@@@std@@PAX@1@@Z 100124b0 f i mfdpage_fms.obj
 0001:000114b0       ??$_Insert_hint@AAU?$pair@$$CBHM@std@@PAU?$_Tree_node@U?$pair@$$CBHM@std@@PAX@2@@?$_Tree@V?$_Tmap_traits@HMU?$less@H@std@@V?$allocator@U?$pair@$$CBHM@std@@@2@$0A@@std@@@std@@IAE?AV?$_Tree_iterator@V?$_Tree_val@U?$_Tree_simple_types@U?$pair@$$CBHM@std@@@std@@@std@@@1@V?$_Tree_const_iterator@V?$_Tree_val@U?$_Tree_simple_types@U?$pair@$$CBHM@std@@@std@@@std@@@1@AAU?$pair@$$CBHM@1@PAU?$_Tree_node@U?$pair@$$CBHM@std@@PAX@1@@Z 100124b0 f i fms_config.obj
 0001:000114b0       ??$_Insert_hint@AAU?$pair@$$CBHPAVobject_t@@@std@@PAU?$_Tree_node@U?$pair@$$CBHPAVobject_t@@@std@@PAX@2@@?$_Tree@V?$_Tmap_traits@HPAVobject_t@@U?$less@H@std@@V?$allocator@U?$pair@$$CBHPAVobject_t@@@std@@@3@$0A@@std@@@std@@IAE?AV?$_Tree_iterator@V?$_Tree_val@U?$_Tree_simple_types@U?$pair@$$CBHPAVobject_t@@@std@@@std@@@std@@@1@V?$_Tree_const_iterator@V?$_Tree_val@U?$_Tree_simple_types@U?$pair@$$CBHPAVobject_t@@@std@@@std@@@std@@@1@AAU?$pair@$$CBHPAVobject_t@@@1@PAU?$_Tree_node@U?$pair@$$CBHPAVobject_t@@@std@@PAX@1@@Z 100124b0 f i mfdpage.obj
 0001:00011c60       ??$_Insert_hint@AAU?$pair@$$CBV?$basic_string@DU?$char_traits@D@std@@V?$allocator@D@2@@std@@H@std@@PAU?$_Tree_node@U?$pair@$$CBV?$basic_string@DU?$char_traits@D@std@@V?$allocator@D@2@@std@@H@std@@PAX@2@@?$_Tree@V?$_Tmap_traits@V?$basic_string@DU?$char_traits@D@std@@V?$allocator@D@2@@std@@HU?$less@V?$basic_string@DU?$char_traits@D@std@@V?$allocator@D@2@@std@@@2@V?$allocator@U?$pair@$$CBV?$basic_string@DU?$char_traits@D@std@@V?$allocator@D@2@@std@@H@std@@@2@$0A@@std@@@std@@IAE?AV?$_Tree_iterator@V?$_Tree_val@U?$_Tree_simple_types@U?$pair@$$CBV?$basic_string@DU?$char_traits@D@std@@V?$allocator@D@2@@std@@H@std@@@std@@@std@@@1@V?$_Tree_const_iterator@V?$_Tree_val@U?$_Tree_simple_types@U?$pair@$$CBV?$basic_string@DU?$char_traits@D@std@@V?$allocator@D@2@@std@@H@std@@@std@@@std@@@1@AAU?$pair@$$CBV?$basic_string@DU?$char_traits@D@std@@V?$allocator@D@2@@std@@H@1@PAU?$_Tree_node@U?$pair@$$CBV?$basic_string@DU?$char_traits@D@std@@V?$allocator@D@2@@std@@H@std@@PAX@1@@Z 10012c60 f i mfdpage.obj
 0001:00011c60       ??$_Insert_hint@AAU?$pair@$$CBV?$basic_string@DU?$char_traits@D@std@@V?$allocator@D@2@@std@@PAVfms_fp_item_t@@@std@@PAU?$_Tree_node@U?$pair@$$CBV?$basic_string@DU?$char_traits@D@std@@V?$allocator@D@2@@std@@PAVfms_fp_item_t@@@std@@PAX@2@@?$_Tree@V?$_Tmap_traits@V?$basic_string@DU?$char_traits@D@std@@V?$allocator@D@2@@std@@PAVfms_fp_item_t@@U?$less@V?$basic_string@DU?$char_traits@D@std@@V?$allocator@D@2@@std@@@2@V?$allocator@U?$pair@$$CBV?$basic_string@DU?$char_traits@D@std@@V?$allocator@D@2@@std@@PAVfms_fp_item_t@@@std@@@2@$0A@@std@@@std@@IAE?AV?$_Tree_iterator@V?$_Tree_val@U?$_Tree_simple_types@U?$pair@$$CBV?$basic_string@DU?$char_traits@D@std@@V?$allocator@D@2@@std@@PAVfms_fp_item_t@@@std@@@std@@@std@@@1@V?$_Tree_const_iterator@V?$_Tree_val@U?$_Tree_simple_types@U?$pair@$$CBV?$basic_string@DU?$char_traits@D@std@@V?$allocator@D@2@@std@@PAVfms_fp_item_t@@@std@@@std@@@std@@@1@AAU?$pair@$$CBV?$basic_string@DU?$char_traits@D@std@@V?$allocator@D@2@@std@@PAVfms_fp_item_t@@@1@PAU?$_Tree_node@U?$pair@$$CBV?$basic_string@DU?$char_traits@D@std@@V?$allocator@D@2@@std@@PAVfms_fp_item_t@@@std@@PAX@1@@Z 10012c60 f i fms_fp.obj
 0001:00011c60       ??$_Insert_hint@AAU?$pair@$$CBV?$basic_string@DU?$char_traits@D@std@@V?$allocator@D@2@@std@@D@std@@PAU?$_Tree_node@U?$pair@$$CBV?$basic_string@DU?$char_traits@D@std@@V?$allocator@D@2@@std@@D@std@@PAX@2@@?$_Tree@V?$_Tmap_traits@V?$basic_string@DU?$char_traits@D@std@@V?$allocator@D@2@@std@@DU?$less@V?$basic_string@DU?$char_traits@D@std@@V?$allocator@D@2@@std@@@2@V?$allocator@U?$pair@$$CBV?$basic_string@DU?$char_traits@D@std@@V?$allocator@D@2@@std@@D@std@@@2@$0A@@std@@@std@@IAE?AV?$_Tree_iterator@V?$_Tree_val@U?$_Tree_simple_types@U?$pair@$$CBV?$basic_string@DU?$char_traits@D@std@@V?$allocator@D@2@@std@@D@std@@@std@@@std@@@1@V?$_Tree_const_iterator@V?$_Tree_val@U?$_Tree_simple_types@U?$pair@$$CBV?$basic_string@DU?$char_traits@D@std@@V?$allocator@D@2@@std@@D@std@@@std@@@std@@@1@AAU?$pair@$$CBV?$basic_string@DU?$char_traits@D@std@@V?$allocator@D@2@@std@@D@1@PAU?$_Tree_node@U?$pair@$$CBV?$basic_string@DU?$char_traits@D@std@@V?$allocator@D@2@@std@@D@std@@PAX@1@@Z 10012c60 f i mfdpage.obj
 0001:00011c60       ??$_Insert_hint@AAU?$pair@$$CBV?$basic_string@DU?$char_traits@D@std@@V?$allocator@D@2@@std@@PAVfms_config_item_t@@@std@@PAU?$_Tree_node@U?$pair@$$CBV?$basic_string@DU?$char_traits@D@std@@V?$allocator@D@2@@std@@PAVfms_config_item_t@@@std@@PAX@2@@?$_Tree@V?$_Tmap_traits@V?$basic_string@DU?$char_traits@D@std@@V?$allocator@D@2@@std@@PAVfms_config_item_t@@U?$less@V?$basic_string@DU?$char_traits@D@std@@V?$allocator@D@2@@std@@@2@V?$allocator@U?$pair@$$CBV?$basic_string@DU?$char_traits@D@std@@V?$allocator@D@2@@std@@PAVfms_config_item_t@@@std@@@2@$0A@@std@@@std@@IAE?AV?$_Tree_iterator@V?$_Tree_val@U?$_Tree_simple_types@U?$pair@$$CBV?$basic_string@DU?$char_traits@D@std@@V?$allocator@D@2@@std@@PAVfms_config_item_t@@@std@@@std@@@std@@@1@V?$_Tree_const_iterator@V?$_Tree_val@U?$_Tree_simple_types@U?$pair@$$CBV?$basic_string@DU?$char_traits@D@std@@V?$allocator@D@2@@std@@PAVfms_config_item_t@@@std@@@std@@@std@@@1@AAU?$pair@$$CBV?$basic_string@DU?$char_traits@D@std@@V?$allocator@D@2@@std@@PAVfms_config_item_t@@@1@PAU?$_Tree_node@U?$pair@$$CBV?$basic_string@DU?$char_traits@D@std@@V?$allocator@D@2@@std@@PAVfms_config_item_t@@@std@@PAX@1@@Z 10012c60 f i fms_config.obj
 0001:00011c60       ??$_Insert_hint@AAU?$pair@$$CBV?$basic_string@DU?$char_traits@D@std@@V?$allocator@D@2@@std@@M@std@@PAU?$_Tree_node@U?$pair@$$CBV?$basic_string@DU?$char_traits@D@std@@V?$allocator@D@2@@std@@M@std@@PAX@2@@?$_Tree@V?$_Tmap_traits@V?$basic_string@DU?$char_traits@D@std@@V?$allocator@D@2@@std@@MU?$less@V?$basic_string@DU?$char_traits@D@std@@V?$allocator@D@2@@std@@@2@V?$allocator@U?$pair@$$CBV?$basic_string@DU?$char_traits@D@std@@V?$allocator@D@2@@std@@M@std@@@2@$0A@@std@@@std@@IAE?AV?$_Tree_iterator@V?$_Tree_val@U?$_Tree_simple_types@U?$pair@$$CBV?$basic_string@DU?$char_traits@D@std@@V?$allocator@D@2@@std@@M@std@@@std@@@std@@@1@V?$_Tree_const_iterator@V?$_Tree_val@U?$_Tree_simple_types@U?$pair@$$CBV?$basic_string@DU?$char_traits@D@std@@V?$allocator@D@2@@std@@M@std@@@std@@@std@@@1@AAU?$pair@$$CBV?$basic_string@DU?$char_traits@D@std@@V?$allocator@D@2@@std@@M@1@PAU?$_Tree_node@U?$pair@$$CBV?$basic_string@DU?$char_traits@D@std@@V?$allocator@D@2@@std@@M@std@@PAX@1@@Z 10012c60 f i mfdpage_fms.obj
 0001:00012410       ??$_Insert_nohint@AAU?$pair@$$CBHPAVfms_fp_item_t@@@std@@PAU?$_Tree_node@U?$pair@$$CBHPAVfms_fp_item_t@@@std@@PAX@2@@?$_Tree@V?$_Tmap_traits@HPAVfms_fp_item_t@@U?$less@H@std@@V?$allocator@U?$pair@$$CBHPAVfms_fp_item_t@@@std@@@3@$0A@@std@@@std@@IAE?AU?$pair@V?$_Tree_iterator@V?$_Tree_val@U?$_Tree_simple_types@U?$pair@$$CBHPAVfms_fp_item_t@@@std@@@std@@@std@@@std@@_N@1@_NAAU?$pair@$$CBHPAVfms_fp_item_t@@@1@PAU?$_Tree_node@U?$pair@$$CBHPAVfms_fp_item_t@@@std@@PAX@1@@Z 10013410 f i mfdpage_fms.obj
 0001:00012410       ??$_Insert_nohint@AAU?$pair@$$CBHM@std@@PAU?$_Tree_node@U?$pair@$$CBHM@std@@PAX@2@@?$_Tree@V?$_Tmap_traits@HMU?$less@H@std@@V?$allocator@U?$pair@$$CBHM@std@@@2@$0A@@std@@@std@@IAE?AU?$pair@V?$_Tree_iterator@V?$_Tree_val@U?$_Tree_simple_types@U?$pair@$$CBHM@std@@@std@@@std@@@std@@_N@1@_NAAU?$pair@$$CBHM@1@PAU?$_Tree_node@U?$pair@$$CBHM@std@@PAX@1@@Z 10013410 f i fms_config.obj
 0001:00012410       ??$_Insert_nohint@AAU?$pair@$$CBHPAVobject_t@@@std@@PAU?$_Tree_node@U?$pair@$$CBHPAVobject_t@@@std@@PAX@2@@?$_Tree@V?$_Tmap_traits@HPAVobject_t@@U?$less@H@std@@V?$allocator@U?$pair@$$CBHPAVobject_t@@@std@@@3@$0A@@std@@@std@@IAE?AU?$pair@V?$_Tree_iterator@V?$_Tree_val@U?$_Tree_simple_types@U?$pair@$$CBHPAVobject_t@@@std@@@std@@@std@@@std@@_N@1@_NAAU?$pair@$$CBHPAVobject_t@@@1@PAU?$_Tree_node@U?$pair@$$CBHPAVobject_t@@@std@@PAX@1@@Z 10013410 f i mfdpage.obj
 0001:000126e0       ??$construct@U?$pair@$$CBHPAVobject_t@@@std@@ABUpiecewise_construct_t@2@V?$tuple@$$QAH@2@V?$tuple@$$$V@2@@?$_Wrap_alloc@V?$allocator@U?$_Tree_node@U?$pair@$$CBHPAVobject_t@@@std@@PAX@std@@@std@@@std@@QAEXPAU?$pair@$$CBHPAVobject_t@@@1@ABUpiecewise_construct_t@1@$$QAV?$tuple@$$QAH@1@$$QAV?$tuple@$$$V@1@@Z 100136e0 f i mfdpage_fms.obj
 0001:000126e0       ??$construct@U?$pair@$$CBHPAVfms_fp_item_t@@@std@@ABUpiecewise_construct_t@2@V?$tuple@$$QAH@2@V?$tuple@$$$V@2@@?$_Wrap_alloc@V?$allocator@U?$_Tree_node@U?$pair@$$CBHPAVfms_fp_item_t@@@std@@PAX@std@@@std@@@std@@QAEXPAU?$pair@$$CBHPAVfms_fp_item_t@@@1@ABUpiecewise_construct_t@1@$$QAV?$tuple@$$QAH@1@$$QAV?$tuple@$$$V@1@@Z 100136e0 f i mfdpage_fms.obj
 0001:000126e0       ??$construct@U?$pair@$$CBHPAVobject_t@@@std@@ABUpiecewise_construct_t@2@V?$tuple@ABH@2@V?$tuple@$$$V@2@@?$_Wrap_alloc@V?$allocator@U?$_Tree_node@U?$pair@$$CBHPAVobject_t@@@std@@PAX@std@@@std@@@std@@QAEXPAU?$pair@$$CBHPAVobject_t@@@1@ABUpiecewise_construct_t@1@$$QAV?$tuple@ABH@1@$$QAV?$tuple@$$$V@1@@Z 100136e0 f i mfdpage.obj
 0001:000126e0       ??$construct@U?$pair@$$CBHPAVfms_fp_item_t@@@std@@ABUpiecewise_construct_t@2@V?$tuple@ABH@2@V?$tuple@$$$V@2@@?$_Wrap_alloc@V?$allocator@U?$_Tree_node@U?$pair@$$CBHPAVfms_fp_item_t@@@std@@PAX@std@@@std@@@std@@QAEXPAU?$pair@$$CBHPAVfms_fp_item_t@@@1@ABUpiecewise_construct_t@1@$$QAV?$tuple@ABH@1@$$QAV?$tuple@$$$V@1@@Z 100136e0 f i mfdpage_fms.obj
 0001:00012730       ??$construct@U?$pair@$$CBHPAVfms_fp_item_t@@@std@@ABUpiecewise_construct_t@2@V?$tuple@ABH@2@V?$tuple@$$$V@2@@?$allocator@U?$_Tree_node@U?$pair@$$CBHPAVfms_fp_item_t@@@std@@PAX@std@@@std@@QAEXPAU?$pair@$$CBHPAVfms_fp_item_t@@@1@ABUpiecewise_construct_t@1@$$QAV?$tuple@ABH@1@$$QAV?$tuple@$$$V@1@@Z 10013730 f i mfdpage_fms.obj
 0001:00012730       ??$construct@U?$pair@$$CBHPAVfms_fp_item_t@@@std@@ABUpiecewise_construct_t@2@V?$tuple@$$QAH@2@V?$tuple@$$$V@2@@?$allocator@U?$_Tree_node@U?$pair@$$CBHPAVfms_fp_item_t@@@std@@PAX@std@@@std@@QAEXPAU?$pair@$$CBHPAVfms_fp_item_t@@@1@ABUpiecewise_construct_t@1@$$QAV?$tuple@$$QAH@1@$$QAV?$tuple@$$$V@1@@Z 10013730 f i mfdpage_fms.obj
 0001:00012730       ??$construct@U?$pair@$$CBHPAVobject_t@@@std@@ABUpiecewise_construct_t@2@V?$tuple@$$QAH@2@V?$tuple@$$$V@2@@?$allocator@U?$_Tree_node@U?$pair@$$CBHPAVobject_t@@@std@@PAX@std@@@std@@QAEXPAU?$pair@$$CBHPAVobject_t@@@1@ABUpiecewise_construct_t@1@$$QAV?$tuple@$$QAH@1@$$QAV?$tuple@$$$V@1@@Z 10013730 f i mfdpage_fms.obj
 0001:00012730       ??$construct@U?$pair@$$CBHPAVobject_t@@@std@@ABUpiecewise_construct_t@2@V?$tuple@ABH@2@V?$tuple@$$$V@2@@?$allocator@U?$_Tree_node@U?$pair@$$CBHPAVobject_t@@@std@@PAX@std@@@std@@QAEXPAU?$pair@$$CBHPAVobject_t@@@1@ABUpiecewise_construct_t@1@$$QAV?$tuple@ABH@1@$$QAV?$tuple@$$$V@1@@Z 10013730 f i mfdpage.obj
 0001:000127a0       ??$construct@U?$pair@$$CBHPAVobject_t@@@std@@ABUpiecewise_construct_t@2@V?$tuple@$$QAH@2@V?$tuple@$$$V@2@@?$allocator_traits@V?$allocator@U?$_Tree_node@U?$pair@$$CBHPAVobject_t@@@std@@PAX@std@@@std@@@std@@SAXAAV?$allocator@U?$_Tree_node@U?$pair@$$CBHPAVobject_t@@@std@@PAX@std@@@1@PAU?$pair@$$CBHPAVobject_t@@@1@ABUpiecewise_construct_t@1@$$QAV?$tuple@$$QAH@1@$$QAV?$tuple@$$$V@1@@Z 100137a0 f i mfdpage_fms.obj
 0001:000127a0       ??$construct@U?$pair@$$CBHPAVobject_t@@@std@@ABUpiecewise_construct_t@2@V?$tuple@ABH@2@V?$tuple@$$$V@2@@?$allocator_traits@V?$allocator@U?$_Tree_node@U?$pair@$$CBHPAVobject_t@@@std@@PAX@std@@@std@@@std@@SAXAAV?$allocator@U?$_Tree_node@U?$pair@$$CBHPAVobject_t@@@std@@PAX@std@@@1@PAU?$pair@$$CBHPAVobject_t@@@1@ABUpiecewise_construct_t@1@$$QAV?$tuple@ABH@1@$$QAV?$tuple@$$$V@1@@Z 100137a0 f i mfdpage.obj
 0001:000127a0       ??$construct@U?$pair@$$CBHPAVfms_fp_item_t@@@std@@ABUpiecewise_construct_t@2@V?$tuple@$$QAH@2@V?$tuple@$$$V@2@@?$allocator_traits@V?$allocator@U?$_Tree_node@U?$pair@$$CBHPAVfms_fp_item_t@@@std@@PAX@std@@@std@@@std@@SAXAAV?$allocator@U?$_Tree_node@U?$pair@$$CBHPAVfms_fp_item_t@@@std@@PAX@std@@@1@PAU?$pair@$$CBHPAVfms_fp_item_t@@@1@ABUpiecewise_construct_t@1@$$QAV?$tuple@$$QAH@1@$$QAV?$tuple@$$$V@1@@Z 100137a0 f i mfdpage_fms.obj
 0001:000127a0       ??$construct@U?$pair@$$CBHPAVfms_fp_item_t@@@std@@ABUpiecewise_construct_t@2@V?$tuple@ABH@2@V?$tuple@$$$V@2@@?$allocator_traits@V?$allocator@U?$_Tree_node@U?$pair@$$CBHPAVfms_fp_item_t@@@std@@PAX@std@@@std@@@std@@SAXAAV?$allocator@U?$_Tree_node@U?$pair@$$CBHPAVfms_fp_item_t@@@std@@PAX@std@@@1@PAU?$pair@$$CBHPAVfms_fp_item_t@@@1@ABUpiecewise_construct_t@1@$$QAV?$tuple@ABH@1@$$QAV?$tuple@$$$V@1@@Z 100137a0 f i mfdpage_fms.obj
 0001:000127e0       ??$construct@U?$pair@$$CBV?$basic_string@DU?$char_traits@D@std@@V?$allocator@D@2@@std@@M@std@@ABUpiecewise_construct_t@2@V?$tuple@$$QAV?$basic_string@DU?$char_traits@D@std@@V?$allocator@D@2@@std@@@2@V?$tuple@$$$V@2@@?$_Wrap_alloc@V?$allocator@U?$_Tree_node@U?$pair@$$CBV?$basic_string@DU?$char_traits@D@std@@V?$allocator@D@2@@std@@M@std@@PAX@std@@@std@@@std@@QAEXPAU?$pair@$$CBV?$basic_string@DU?$char_traits@D@std@@V?$allocator@D@2@@std@@M@1@ABUpiecewise_construct_t@1@$$QAV?$tuple@$$QAV?$basic_string@DU?$char_traits@D@std@@V?$allocator@D@2@@std@@@1@$$QAV?$tuple@$$$V@1@@Z 100137e0 f i mfdpage_fms.obj
 0001:00012830       ??$construct@U?$pair@$$CBV?$basic_string@DU?$char_traits@D@std@@V?$allocator@D@2@@std@@M@std@@ABUpiecewise_construct_t@2@V?$tuple@$$QAV?$basic_string@DU?$char_traits@D@std@@V?$allocator@D@2@@std@@@2@V?$tuple@$$$V@2@@?$allocator@U?$_Tree_node@U?$pair@$$CBV?$basic_string@DU?$char_traits@D@std@@V?$allocator@D@2@@std@@M@std@@PAX@std@@@std@@QAEXPAU?$pair@$$CBV?$basic_string@DU?$char_traits@D@std@@V?$allocator@D@2@@std@@M@1@ABUpiecewise_construct_t@1@$$QAV?$tuple@$$QAV?$basic_string@DU?$char_traits@D@std@@V?$allocator@D@2@@std@@@1@$$QAV?$tuple@$$$V@1@@Z 10013830 f i mfdpage_fms.obj
 0001:000128a0       ??$construct@U?$pair@$$CBV?$basic_string@DU?$char_traits@D@std@@V?$allocator@D@2@@std@@M@std@@ABUpiecewise_construct_t@2@V?$tuple@$$QAV?$basic_string@DU?$char_traits@D@std@@V?$allocator@D@2@@std@@@2@V?$tuple@$$$V@2@@?$allocator_traits@V?$allocator@U?$_Tree_node@U?$pair@$$CBV?$basic_string@DU?$char_traits@D@std@@V?$allocator@D@2@@std@@M@std@@PAX@std@@@std@@@std@@SAXAAV?$allocator@U?$_Tree_node@U?$pair@$$CBV?$basic_string@DU?$char_traits@D@std@@V?$allocator@D@2@@std@@M@std@@PAX@std@@@1@PAU?$pair@$$CBV?$basic_string@DU?$char_traits@D@std@@V?$allocator@D@2@@std@@M@1@ABUpiecewise_construct_t@1@$$QAV?$tuple@$$QAV?$basic_string@DU?$char_traits@D@std@@V?$allocator@D@2@@std@@@1@$$QAV?$tuple@$$$V@1@@Z 100138a0 f i mfdpage_fms.obj
 0001:000128e0       ??$destroy@PAU?$_Tree_node@PAVlistener_t@@PAX@std@@@?$_Wrap_alloc@V?$allocator@U?$_Tree_node@PAVlistener_t@@PAX@std@@@std@@@std@@QAEXPAPAU?$_Tree_node@PAVlistener_t@@PAX@1@@Z 100138e0 f i data.obj
 0001:000128e0       ??$destroy@PAU?$_Tree_node@U?$pair@$$CBHM@std@@PAX@std@@@?$_Wrap_alloc@V?$allocator@U?$_Tree_node@U?$pair@$$CBHM@std@@PAX@std@@@std@@@std@@QAEXPAPAU?$_Tree_node@U?$pair@$$CBHM@std@@PAX@1@@Z 100138e0 f i fms_config.obj
 0001:000128e0       ??$destroy@PAU?$_Tree_node@U?$pair@$$CBHPAVobject_t@@@std@@PAX@std@@@?$_Wrap_alloc@V?$allocator@U?$_Tree_node@U?$pair@$$CBHPAVobject_t@@@std@@PAX@std@@@std@@@std@@QAEXPAPAU?$_Tree_node@U?$pair@$$CBHPAVobject_t@@@std@@PAX@1@@Z 100138e0 f i mfdpage.obj
 0001:000128e0       ??$destroy@U?$pair@$$CBHM@std@@@?$_Wrap_alloc@V?$allocator@U?$_Tree_node@U?$pair@$$CBHM@std@@PAX@std@@@std@@@std@@QAEXPAU?$pair@$$CBHM@1@@Z 100138e0 f i fms_config.obj
 0001:000128e0       ??$destroy@PAD@?$_Wrap_alloc@V?$allocator@D@std@@@std@@QAEXPAPAD@Z 100138e0 f i main.obj
 0001:000128e0       ??$destroy@PAU?$_Tree_node@U?$pair@$$CBV?$basic_string@DU?$char_traits@D@std@@V?$allocator@D@2@@std@@H@std@@PAX@std@@@?$_Wrap_alloc@V?$allocator@U?$_Tree_node@U?$pair@$$CBV?$basic_string@DU?$char_traits@D@std@@V?$allocator@D@2@@std@@H@std@@PAX@std@@@std@@@std@@QAEXPAPAU?$_Tree_node@U?$pair@$$CBV?$basic_string@DU?$char_traits@D@std@@V?$allocator@D@2@@std@@H@std@@PAX@1@@Z 100138e0 f i mfdpage.obj
 0001:000128e0       ??$destroy@PAU?$_Tree_node@U?$pair@$$CBHV?$basic_string@DU?$char_traits@D@std@@V?$allocator@D@2@@std@@@std@@PAX@std@@@?$_Wrap_alloc@V?$allocator@U?$_Tree_node@U?$pair@$$CBHV?$basic_string@DU?$char_traits@D@std@@V?$allocator@D@2@@std@@@std@@PAX@std@@@std@@@std@@QAEXPAPAU?$_Tree_node@U?$pair@$$CBHV?$basic_string@DU?$char_traits@D@std@@V?$allocator@D@2@@std@@@std@@PAX@1@@Z 100138e0 f i out_saitek.obj
 0001:000128e0       ??$destroy@PAU?$_Tree_node@U?$pair@$$CBV?$basic_string@DU?$char_traits@D@std@@V?$allocator@D@2@@std@@PAVfms_config_item_t@@@std@@PAX@std@@@?$_Wrap_alloc@V?$allocator@U?$_Tree_node@U?$pair@$$CBV?$basic_string@DU?$char_traits@D@std@@V?$allocator@D@2@@std@@PAVfms_config_item_t@@@std@@PAX@std@@@std@@@std@@QAEXPAPAU?$_Tree_node@U?$pair@$$CBV?$basic_string@DU?$char_traits@D@std@@V?$allocator@D@2@@std@@PAVfms_config_item_t@@@std@@PAX@1@@Z 100138e0 f i fms_config.obj
 0001:000128e0       ??$destroy@PAVlistener_t@@@?$_Wrap_alloc@V?$allocator@U?$_Tree_node@PAVlistener_t@@PAX@std@@@std@@@std@@QAEXPAPAVlistener_t@@@Z 100138e0 f i data.obj
 0001:000128e0       ??$destroy@PAU?$_Tree_node@U?$pair@$$CBV?$basic_string@DU?$char_traits@D@std@@V?$allocator@D@2@@std@@PAVfms_fp_item_t@@@std@@PAX@std@@@?$_Wrap_alloc@V?$allocator@U?$_Tree_node@U?$pair@$$CBV?$basic_string@DU?$char_traits@D@std@@V?$allocator@D@2@@std@@PAVfms_fp_item_t@@@std@@PAX@std@@@std@@@std@@QAEXPAPAU?$_Tree_node@U?$pair@$$CBV?$basic_string@DU?$char_traits@D@std@@V?$allocator@D@2@@std@@PAVfms_fp_item_t@@@std@@PAX@1@@Z 100138e0 f i fms_fp.obj
 0001:000128e0       ??$destroy@PAVmfdpage_t@@@?$_Wrap_alloc@V?$allocator@U?$_Tree_node@PAVmfdpage_t@@PAX@std@@@std@@@std@@QAEXPAPAVmfdpage_t@@@Z 100138e0 f i in.obj
 0001:000128e0       ??$destroy@PAU?$_Tree_node@U?$pair@$$CBV?$basic_string@DU?$char_traits@D@std@@V?$allocator@D@2@@std@@V12@@std@@PAX@std@@@?$_Wrap_alloc@V?$allocator@U?$_Tree_node@U?$pair@$$CBV?$basic_string@DU?$char_traits@D@std@@V?$allocator@D@2@@std@@V12@@std@@PAX@std@@@std@@@std@@QAEXPAPAU?$_Tree_node@U?$pair@$$CBV?$basic_string@DU?$char_traits@D@std@@V?$allocator@D@2@@std@@V12@@std@@PAX@1@@Z 100138e0 f i tools.obj
 0001:000128e0       ??$destroy@PAU?$_Tree_node@U?$pair@$$CBV?$basic_string@DU?$char_traits@D@std@@V?$allocator@D@2@@std@@D@std@@PAX@std@@@?$_Wrap_alloc@V?$allocator@U?$_Tree_node@U?$pair@$$CBV?$basic_string@DU?$char_traits@D@std@@V?$allocator@D@2@@std@@D@std@@PAX@std@@@std@@@std@@QAEXPAPAU?$_Tree_node@U?$pair@$$CBV?$basic_string@DU?$char_traits@D@std@@V?$allocator@D@2@@std@@D@std@@PAX@1@@Z 100138e0 f i mfdpage.obj
 0001:000128e0       ??$destroy@PAVobject_t@@@?$_Wrap_alloc@V?$allocator@U?$_Tree_node@PAVobject_t@@PAX@std@@@std@@@std@@QAEXPAPAVobject_t@@@Z 100138e0 f i data.obj
 0001:000128e0       ??$destroy@PAU?$_Tree_node@PAVmfdpage_t@@PAX@std@@@?$_Wrap_alloc@V?$allocator@U?$_Tree_node@PAVmfdpage_t@@PAX@std@@@std@@@std@@QAEXPAPAU?$_Tree_node@PAVmfdpage_t@@PAX@1@@Z 100138e0 f i in.obj
 0001:000128e0       ??$destroy@PAU?$_Tree_node@U?$pair@$$CBV?$basic_string@DU?$char_traits@D@std@@V?$allocator@D@2@@std@@M@std@@PAX@std@@@?$_Wrap_alloc@V?$allocator@U?$_Tree_node@U?$pair@$$CBV?$basic_string@DU?$char_traits@D@std@@V?$allocator@D@2@@std@@M@std@@PAX@std@@@std@@@std@@QAEXPAPAU?$_Tree_node@U?$pair@$$CBV?$basic_string@DU?$char_traits@D@std@@V?$allocator@D@2@@std@@M@std@@PAX@1@@Z 100138e0 f i mfdpage_fms.obj
 0001:000128e0       ??$destroy@U?$pair@$$CBHPAVobject_t@@@std@@@?$_Wrap_alloc@V?$allocator@U?$_Tree_node@U?$pair@$$CBHPAVobject_t@@@std@@PAX@std@@@std@@@std@@QAEXPAU?$pair@$$CBHPAVobject_t@@@1@@Z 100138e0 f i mfdpage.obj
 0001:000128e0       ??$destroy@PAU?$_Tree_node@U?$pair@$$CBHPAVfms_fp_item_t@@@std@@PAX@std@@@?$_Wrap_alloc@V?$allocator@U?$_Tree_node@U?$pair@$$CBHPAVfms_fp_item_t@@@std@@PAX@std@@@std@@@std@@QAEXPAPAU?$_Tree_node@U?$pair@$$CBHPAVfms_fp_item_t@@@std@@PAX@1@@Z 100138e0 f i mfdpage_fms.obj
 0001:000128e0       ??$destroy@U?$pair@$$CBHPAVfms_fp_item_t@@@std@@@?$_Wrap_alloc@V?$allocator@U?$_Tree_node@U?$pair@$$CBHPAVfms_fp_item_t@@@std@@PAX@std@@@std@@@std@@QAEXPAU?$pair@$$CBHPAVfms_fp_item_t@@@1@@Z 100138e0 f i mfdpage_fms.obj
 0001:000128e0       ??$destroy@PAU?$_Tree_node@PAVobject_t@@PAX@std@@@?$_Wrap_alloc@V?$allocator@U?$_Tree_node@PAVobject_t@@PAX@std@@@std@@@std@@QAEXPAPAU?$_Tree_node@PAVobject_t@@PAX@1@@Z 100138e0 f i data.obj
 0001:00012900       ??$emplace_hint@ABUpiecewise_construct_t@std@@V?$tuple@ABH@2@V?$tuple@$$$V@2@@?$_Tree@V?$_Tmap_traits@HV?$basic_string@DU?$char_traits@D@std@@V?$allocator@D@2@@std@@U?$less@H@2@V?$allocator@U?$pair@$$CBHV?$basic_string@DU?$char_traits@D@std@@V?$allocator@D@2@@std@@@std@@@2@$0A@@std@@@std@@QAE?AV?$_Tree_iterator@V?$_Tree_val@U?$_Tree_simple_types@U?$pair@$$CBHV?$basic_string@DU?$char_traits@D@std@@V?$allocator@D@2@@std@@@std@@@std@@@std@@@1@V?$_Tree_const_iterator@V?$_Tree_val@U?$_Tree_simple_types@U?$pair@$$CBHV?$basic_string@DU?$char_traits@D@std@@V?$allocator@D@2@@std@@@std@@@std@@@std@@@1@ABUpiecewise_construct_t@1@$$QAV?$tuple@ABH@1@$$QAV?$tuple@$$$V@1@@Z 10013900 f i out_saitek.obj
 0001:00012900       ??$emplace_hint@ABUpiecewise_construct_t@std@@V?$tuple@$$QAH@2@V?$tuple@$$$V@2@@?$_Tree@V?$_Tmap_traits@HV?$basic_string@DU?$char_traits@D@std@@V?$allocator@D@2@@std@@U?$less@H@2@V?$allocator@U?$pair@$$CBHV?$basic_string@DU?$char_traits@D@std@@V?$allocator@D@2@@std@@@std@@@2@$0A@@std@@@std@@QAE?AV?$_Tree_iterator@V?$_Tree_val@U?$_Tree_simple_types@U?$pair@$$CBHV?$basic_string@DU?$char_traits@D@std@@V?$allocator@D@2@@std@@@std@@@std@@@std@@@1@V?$_Tree_const_iterator@V?$_Tree_val@U?$_Tree_simple_types@U?$pair@$$CBHV?$basic_string@DU?$char_traits@D@std@@V?$allocator@D@2@@std@@@std@@@std@@@std@@@1@ABUpiecewise_construct_t@1@$$QAV?$tuple@$$QAH@1@$$QAV?$tuple@$$$V@1@@Z 10013900 f i mfdpage_fms.obj
 0001:00012970       ??$emplace_hint@ABUpiecewise_construct_t@std@@V?$tuple@$$QAV?$basic_string@DU?$char_traits@D@std@@V?$allocator@D@2@@std@@@2@V?$tuple@$$$V@2@@?$_Tree@V?$_Tmap_traits@V?$basic_string@DU?$char_traits@D@std@@V?$allocator@D@2@@std@@MU?$less@V?$basic_string@DU?$char_traits@D@std@@V?$allocator@D@2@@std@@@2@V?$allocator@U?$pair@$$CBV?$basic_string@DU?$char_traits@D@std@@V?$allocator@D@2@@std@@M@std@@@2@$0A@@std@@@std@@QAE?AV?$_Tree_iterator@V?$_Tree_val@U?$_Tree_simple_types@U?$pair@$$CBV?$basic_string@DU?$char_traits@D@std@@V?$allocator@D@2@@std@@M@std@@@std@@@std@@@1@V?$_Tree_const_iterator@V?$_Tree_val@U?$_Tree_simple_types@U?$pair@$$CBV?$basic_string@DU?$char_traits@D@std@@V?$allocator@D@2@@std@@M@std@@@std@@@std@@@1@ABUpiecewise_construct_t@1@$$QAV?$tuple@$$QAV?$basic_string@DU?$char_traits@D@std@@V?$allocator@D@2@@std@@@1@$$QAV?$tuple@$$$V@1@@Z 10013970 f i mfdpage_fms.obj
 0001:000129e0       ??$emplace_hint@ABUpiecewise_construct_t@std@@V?$tuple@ABH@2@V?$tuple@$$$V@2@@?$_Tree@V?$_Tmap_traits@HPAVfms_fp_item_t@@U?$less@H@std@@V?$allocator@U?$pair@$$CBHPAVfms_fp_item_t@@@std@@@3@$0A@@std@@@std@@QAE?AV?$_Tree_iterator@V?$_Tree_val@U?$_Tree_simple_types@U?$pair@$$CBHPAVfms_fp_item_t@@@std@@@std@@@std@@@1@V?$_Tree_const_iterator@V?$_Tree_val@U?$_Tree_simple_types@U?$pair@$$CBHPAVfms_fp_item_t@@@std@@@std@@@std@@@1@ABUpiecewise_construct_t@1@$$QAV?$tuple@ABH@1@$$QAV?$tuple@$$$V@1@@Z 100139e0 f i mfdpage_fms.obj
 0001:000129e0       ??$emplace_hint@ABUpiecewise_construct_t@std@@V?$tuple@ABH@2@V?$tuple@$$$V@2@@?$_Tree@V?$_Tmap_traits@HPAVobject_t@@U?$less@H@std@@V?$allocator@U?$pair@$$CBHPAVobject_t@@@std@@@3@$0A@@std@@@std@@QAE?AV?$_Tree_iterator@V?$_Tree_val@U?$_Tree_simple_types@U?$pair@$$CBHPAVobject_t@@@std@@@std@@@std@@@1@V?$_Tree_const_iterator@V?$_Tree_val@U?$_Tree_simple_types@U?$pair@$$CBHPAVobject_t@@@std@@@std@@@std@@@1@ABUpiecewise_construct_t@1@$$QAV?$tuple@ABH@1@$$QAV?$tuple@$$$V@1@@Z 100139e0 f i mfdpage.obj
 0001:000129e0       ??$emplace_hint@ABUpiecewise_construct_t@std@@V?$tuple@$$QAH@2@V?$tuple@$$$V@2@@?$_Tree@V?$_Tmap_traits@HPAVobject_t@@U?$less@H@std@@V?$allocator@U?$pair@$$CBHPAVobject_t@@@std@@@3@$0A@@std@@@std@@QAE?AV?$_Tree_iterator@V?$_Tree_val@U?$_Tree_simple_types@U?$pair@$$CBHPAVobject_t@@@std@@@std@@@std@@@1@V?$_Tree_const_iterator@V?$_Tree_val@U?$_Tree_simple_types@U?$pair@$$CBHPAVobject_t@@@std@@@std@@@std@@@1@ABUpiecewise_construct_t@1@$$QAV?$tuple@$$QAH@1@$$QAV?$tuple@$$$V@1@@Z 100139e0 f i mfdpage_fms.obj
 0001:000129e0       ??$emplace_hint@ABUpiecewise_construct_t@std@@V?$tuple@$$QAH@2@V?$tuple@$$$V@2@@?$_Tree@V?$_Tmap_traits@HPAVfms_fp_item_t@@U?$less@H@std@@V?$allocator@U?$pair@$$CBHPAVfms_fp_item_t@@@std@@@3@$0A@@std@@@std@@QAE?AV?$_Tree_iterator@V?$_Tree_val@U?$_Tree_simple_types@U?$pair@$$CBHPAVfms_fp_item_t@@@std@@@std@@@std@@@1@V?$_Tree_const_iterator@V?$_Tree_val@U?$_Tree_simple_types@U?$pair@$$CBHPAVfms_fp_item_t@@@std@@@std@@@std@@@1@ABUpiecewise_construct_t@1@$$QAV?$tuple@$$QAH@1@$$QAV?$tuple@$$$V@1@@Z 100139e0 f i mfdpage_fms.obj
 0001:00012a50       ??$forward_as_tuple@H@std@@YA?AV?$tuple@$$QAH@0@$$QAH@Z 10013a50 f i mfdpage_fms.obj
 0001:00012a50       ??$forward_as_tuple@V?$basic_string@DU?$char_traits@D@std@@V?$allocator@D@2@@std@@@std@@YA?AV?$tuple@$$QAV?$basic_string@DU?$char_traits@D@std@@V?$allocator@D@2@@std@@@0@$$QAV?$basic_string@DU?$char_traits@D@std@@V?$allocator@D@2@@0@@Z 10013a50 f i tools.obj
 0001:00012a70       ??0?$_Tree_comp@$0A@V?$_Tmap_traits@V?$basic_string@DU?$char_traits@D@std@@V?$allocator@D@2@@std@@PAVfms_config_item_t@@U?$less@V?$basic_string@DU?$char_traits@D@std@@V?$allocator@D@2@@std@@@2@V?$allocator@U?$pair@$$CBV?$basic_string@DU?$char_traits@D@std@@V?$allocator@D@2@@std@@PAVfms_config_item_t@@@std@@@2@$0A@@std@@@std@@QAE@ABU?$less@V?$basic_string@DU?$char_traits@D@std@@V?$allocator@D@2@@std@@@1@ABV?$allocator@U?$pair@$$CBV?$basic_string@DU?$char_traits@D@std@@V?$allocator@D@2@@std@@PAVfms_config_item_t@@@std@@@1@@Z 10013a70 f i fms_config.obj
 0001:00012a70       ??0?$_Tree_comp@$0A@V?$_Tmap_traits@V?$basic_string@DU?$char_traits@D@std@@V?$allocator@D@2@@std@@HU?$less@V?$basic_string@DU?$char_traits@D@std@@V?$allocator@D@2@@std@@@2@V?$allocator@U?$pair@$$CBV?$basic_string@DU?$char_traits@D@std@@V?$allocator@D@2@@std@@H@std@@@2@$0A@@std@@@std@@QAE@ABU?$less@V?$basic_string@DU?$char_traits@D@std@@V?$allocator@D@2@@std@@@1@ABV?$allocator@U?$pair@$$CBV?$basic_string@DU?$char_traits@D@std@@V?$allocator@D@2@@std@@H@std@@@1@@Z 10013a70 f i mfdpage.obj
 0001:00012a70       ??0?$_Tree_comp@$0A@V?$_Tmap_traits@V?$basic_string@DU?$char_traits@D@std@@V?$allocator@D@2@@std@@PAVfms_fp_item_t@@U?$less@V?$basic_string@DU?$char_traits@D@std@@V?$allocator@D@2@@std@@@2@V?$allocator@U?$pair@$$CBV?$basic_string@DU?$char_traits@D@std@@V?$allocator@D@2@@std@@PAVfms_fp_item_t@@@std@@@2@$0A@@std@@@std@@QAE@ABU?$less@V?$basic_string@DU?$char_traits@D@std@@V?$allocator@D@2@@std@@@1@ABV?$allocator@U?$pair@$$CBV?$basic_string@DU?$char_traits@D@std@@V?$allocator@D@2@@std@@PAVfms_fp_item_t@@@std@@@1@@Z 10013a70 f i fms_fp.obj
 0001:00012a70       ??0?$_Tree_comp@$0A@V?$_Tmap_traits@V?$basic_string@DU?$char_traits@D@std@@V?$allocator@D@2@@std@@DU?$less@V?$basic_string@DU?$char_traits@D@std@@V?$allocator@D@2@@std@@@2@V?$allocator@U?$pair@$$CBV?$basic_string@DU?$char_traits@D@std@@V?$allocator@D@2@@std@@D@std@@@2@$0A@@std@@@std@@QAE@ABU?$less@V?$basic_string@DU?$char_traits@D@std@@V?$allocator@D@2@@std@@@1@ABV?$allocator@U?$pair@$$CBV?$basic_string@DU?$char_traits@D@std@@V?$allocator@D@2@@std@@D@std@@@1@@Z 10013a70 f i mfdpage_fms.obj
 0001:00012a70       ??0?$_Tree_comp@$0A@V?$_Tmap_traits@HV?$basic_string@DU?$char_traits@D@std@@V?$allocator@D@2@@std@@U?$less@H@2@V?$allocator@U?$pair@$$CBHV?$basic_string@DU?$char_traits@D@std@@V?$allocator@D@2@@std@@@std@@@2@$0A@@std@@@std@@QAE@ABU?$less@H@1@ABV?$allocator@U?$pair@$$CBHV?$basic_string@DU?$char_traits@D@std@@V?$allocator@D@2@@std@@@std@@@1@@Z 10013a70 f i out_saitek.obj
 0001:00012a70       ??0?$_Tree_comp@$0A@V?$_Tmap_traits@V?$basic_string@DU?$char_traits@D@std@@V?$allocator@D@2@@std@@MU?$less@V?$basic_string@DU?$char_traits@D@std@@V?$allocator@D@2@@std@@@2@V?$allocator@U?$pair@$$CBV?$basic_string@DU?$char_traits@D@std@@V?$allocator@D@2@@std@@M@std@@@2@$0A@@std@@@std@@QAE@ABU?$less@V?$basic_string@DU?$char_traits@D@std@@V?$allocator@D@2@@std@@@1@ABV?$allocator@U?$pair@$$CBV?$basic_string@DU?$char_traits@D@std@@V?$allocator@D@2@@std@@M@std@@@1@@Z 10013a70 f i fms_config.obj
 0001:00012a90       ??0?$map@V?$basic_string@DU?$char_traits@D@std@@V?$allocator@D@2@@std@@PAVfms_fp_item_t@@U?$less@V?$basic_string@DU?$char_traits@D@std@@V?$allocator@D@2@@std@@@2@V?$allocator@U?$pair@$$CBV?$basic_string@DU?$char_traits@D@std@@V?$allocator@D@2@@std@@PAVfms_fp_item_t@@@std@@@2@@std@@QAE@XZ 10013a90 f i fms_fp.obj
 0001:00012a90       ??0?$map@V?$basic_string@DU?$char_traits@D@std@@V?$allocator@D@2@@std@@HU?$less@V?$basic_string@DU?$char_traits@D@std@@V?$allocator@D@2@@std@@@2@V?$allocator@U?$pair@$$CBV?$basic_string@DU?$char_traits@D@std@@V?$allocator@D@2@@std@@H@std@@@2@@std@@QAE@XZ 10013a90 f i mfdpage.obj
 0001:00012a90       ??0?$map@V?$basic_string@DU?$char_traits@D@std@@V?$allocator@D@2@@std@@DU?$less@V?$basic_string@DU?$char_traits@D@std@@V?$allocator@D@2@@std@@@2@V?$allocator@U?$pair@$$CBV?$basic_string@DU?$char_traits@D@std@@V?$allocator@D@2@@std@@D@std@@@2@@std@@QAE@XZ 10013a90 f i mfdpage_fms.obj
 0001:00012a90       ??0?$map@V?$basic_string@DU?$char_traits@D@std@@V?$allocator@D@2@@std@@PAVfms_config_item_t@@U?$less@V?$basic_string@DU?$char_traits@D@std@@V?$allocator@D@2@@std@@@2@V?$allocator@U?$pair@$$CBV?$basic_string@DU?$char_traits@D@std@@V?$allocator@D@2@@std@@PAVfms_config_item_t@@@std@@@2@@std@@QAE@XZ 10013a90 f i fms_config.obj
 0001:00012a90       ??0?$map@V?$basic_string@DU?$char_traits@D@std@@V?$allocator@D@2@@std@@MU?$less@V?$basic_string@DU?$char_traits@D@std@@V?$allocator@D@2@@std@@@2@V?$allocator@U?$pair@$$CBV?$basic_string@DU?$char_traits@D@std@@V?$allocator@D@2@@std@@M@std@@@2@@std@@QAE@XZ 10013a90 f i fms_config.obj
 0001:00012a90       ??0?$map@HV?$basic_string@DU?$char_traits@D@std@@V?$allocator@D@2@@std@@U?$less@H@2@V?$allocator@U?$pair@$$CBHV?$basic_string@DU?$char_traits@D@std@@V?$allocator@D@2@@std@@@std@@@2@@std@@QAE@XZ 10013a90 f i out_saitek.obj
 0001:00012ac0       ??0mfdpage_type_t@@QAE@XZ  10013ac0 f i mfdpage_fms.obj
 0001:00012af0       ??4?$basic_string@DU?$char_traits@D@std@@V?$allocator@D@2@@std@@QAEAAV01@PBD@Z 10013af0 f i mfdpage_fms.obj
 0001:00012b10       ??A?$map@HPAVfms_fp_item_t@@U?$less@H@std@@V?$allocator@U?$pair@$$CBHPAVfms_fp_item_t@@@std@@@3@@std@@QAEAAPAVfms_fp_item_t@@ABH@Z 10013b10 f i mfdpage_fms.obj
 0001:00012bc0       ??A?$map@HPAVfms_fp_item_t@@U?$less@H@std@@V?$allocator@U?$pair@$$CBHPAVfms_fp_item_t@@@std@@@3@@std@@QAEAAPAVfms_fp_item_t@@$$QAH@Z 10013bc0 f i mfdpage_fms.obj
 0001:00012bc0       ??A?$map@HPAVobject_t@@U?$less@H@std@@V?$allocator@U?$pair@$$CBHPAVobject_t@@@std@@@3@@std@@QAEAAPAVobject_t@@$$QAH@Z 10013bc0 f i mfdpage_fms.obj
 0001:00012c80       ??A?$map@HV?$basic_string@DU?$char_traits@D@std@@V?$allocator@D@2@@std@@U?$less@H@2@V?$allocator@U?$pair@$$CBHV?$basic_string@DU?$char_traits@D@std@@V?$allocator@D@2@@std@@@std@@@2@@std@@QAEAAV?$basic_string@DU?$char_traits@D@std@@V?$allocator@D@2@@1@$$QAH@Z 10013c80 f i mfdpage_fms.obj
 0001:00012d40       ??A?$map@V?$basic_string@DU?$char_traits@D@std@@V?$allocator@D@2@@std@@MU?$less@V?$basic_string@DU?$char_traits@D@std@@V?$allocator@D@2@@std@@@2@V?$allocator@U?$pair@$$CBV?$basic_string@DU?$char_traits@D@std@@V?$allocator@D@2@@std@@M@std@@@2@@std@@QAEAAM$$QAV?$basic_string@DU?$char_traits@D@std@@V?$allocator@D@2@@1@@Z 10013d40 f i mfdpage_fms.obj
 0001:00012e00       ?_Buyheadnode@?$_Tree_alloc@$0A@U?$_Tree_base_types@U?$pair@$$CBV?$basic_string@DU?$char_traits@D@std@@V?$allocator@D@2@@std@@PAVfms_fp_item_t@@@std@@V?$allocator@U?$pair@$$CBV?$basic_string@DU?$char_traits@D@std@@V?$allocator@D@2@@std@@PAVfms_fp_item_t@@@std@@@2@@std@@@std@@QAEPAU?$_Tree_node@U?$pair@$$CBV?$basic_string@DU?$char_traits@D@std@@V?$allocator@D@2@@std@@PAVfms_fp_item_t@@@std@@PAX@2@XZ 10013e00 f i fms_fp.obj
 0001:00012e00       ?_Buyheadnode@?$_Tree_alloc@$0A@U?$_Tree_base_types@U?$pair@$$CBHV?$basic_string@DU?$char_traits@D@std@@V?$allocator@D@2@@std@@@std@@V?$allocator@U?$pair@$$CBHV?$basic_string@DU?$char_traits@D@std@@V?$allocator@D@2@@std@@@std@@@2@@std@@@std@@QAEPAU?$_Tree_node@U?$pair@$$CBHV?$basic_string@DU?$char_traits@D@std@@V?$allocator@D@2@@std@@@std@@PAX@2@XZ 10013e00 f i out_saitek.obj
 0001:00012e00       ?_Buyheadnode@?$_Tree_alloc@$0A@U?$_Tree_base_types@U?$pair@$$CBV?$basic_string@DU?$char_traits@D@std@@V?$allocator@D@2@@std@@M@std@@V?$allocator@U?$pair@$$CBV?$basic_string@DU?$char_traits@D@std@@V?$allocator@D@2@@std@@M@std@@@2@@std@@@std@@QAEPAU?$_Tree_node@U?$pair@$$CBV?$basic_string@DU?$char_traits@D@std@@V?$allocator@D@2@@std@@M@std@@PAX@2@XZ 10013e00 f i fms_config.obj
 0001:00012e00       ?_Buyheadnode@?$_Tree_alloc@$0A@U?$_Tree_base_types@U?$pair@$$CBV?$basic_string@DU?$char_traits@D@std@@V?$allocator@D@2@@std@@PAVfms_config_item_t@@@std@@V?$allocator@U?$pair@$$CBV?$basic_string@DU?$char_traits@D@std@@V?$allocator@D@2@@std@@PAVfms_config_item_t@@@std@@@2@@std@@@std@@QAEPAU?$_Tree_node@U?$pair@$$CBV?$basic_string@DU?$char_traits@D@std@@V?$allocator@D@2@@std@@PAVfms_config_item_t@@@std@@PAX@2@XZ 10013e00 f i fms_config.obj
 0001:00012e00       ?_Buyheadnode@?$_Tree_alloc@$0A@U?$_Tree_base_types@U?$pair@$$CBV?$basic_string@DU?$char_traits@D@std@@V?$allocator@D@2@@std@@D@std@@V?$allocator@U?$pair@$$CBV?$basic_string@DU?$char_traits@D@std@@V?$allocator@D@2@@std@@D@std@@@2@@std@@@std@@QAEPAU?$_Tree_node@U?$pair@$$CBV?$basic_string@DU?$char_traits@D@std@@V?$allocator@D@2@@std@@D@std@@PAX@2@XZ 10013e00 f i mfdpage_fms.obj
 0001:00012e00       ?_Buyheadnode@?$_Tree_alloc@$0A@U?$_Tree_base_types@U?$pair@$$CBV?$basic_string@DU?$char_traits@D@std@@V?$allocator@D@2@@std@@H@std@@V?$allocator@U?$pair@$$CBV?$basic_string@DU?$char_traits@D@std@@V?$allocator@D@2@@std@@H@std@@@2@@std@@@std@@QAEPAU?$_Tree_node@U?$pair@$$CBV?$basic_string@DU?$char_traits@D@std@@V?$allocator@D@2@@std@@H@std@@PAX@2@XZ 10013e00 f i mfdpage.obj
 0001:00012f50       ?_Buynode0@?$_Tree_buy@U?$pair@$$CBHM@std@@V?$allocator@U?$pair@$$CBHM@std@@@2@@std@@QAEPAU?$_Tree_node@U?$pair@$$CBHM@std@@PAX@2@XZ 10013f50 f i fms_config.obj
 0001:00012f50       ?_Buynode0@?$_Tree_buy@U?$pair@$$CBHPAVfms_fp_item_t@@@std@@V?$allocator@U?$pair@$$CBHPAVfms_fp_item_t@@@std@@@2@@std@@QAEPAU?$_Tree_node@U?$pair@$$CBHPAVfms_fp_item_t@@@std@@PAX@2@XZ 10013f50 f i mfdpage_fms.obj
 0001:00012f50       ?_Buynode0@?$_Tree_buy@U?$pair@$$CBHPAVobject_t@@@std@@V?$allocator@U?$pair@$$CBHPAVobject_t@@@std@@@2@@std@@QAEPAU?$_Tree_node@U?$pair@$$CBHPAVobject_t@@@std@@PAX@2@XZ 10013f50 f i mfdpage.obj
 0001:00013080       ?_Destroy_if_not_nil@?$_Tree@V?$_Tmap_traits@HPAVfms_fp_item_t@@U?$less@H@std@@V?$allocator@U?$pair@$$CBHPAVfms_fp_item_t@@@std@@@3@$0A@@std@@@std@@IAEXPAU?$_Tree_node@U?$pair@$$CBHPAVfms_fp_item_t@@@std@@PAX@2@@Z 10014080 f i mfdpage_fms.obj
 0001:00013080       ?_Destroy_if_not_nil@?$_Tree@V?$_Tmap_traits@HMU?$less@H@std@@V?$allocator@U?$pair@$$CBHM@std@@@2@$0A@@std@@@std@@IAEXPAU?$_Tree_node@U?$pair@$$CBHM@std@@PAX@2@@Z 10014080 f i fms_config.obj
 0001:00013080       ?_Destroy_if_not_nil@?$_Tree@V?$_Tmap_traits@HPAVobject_t@@U?$less@H@std@@V?$allocator@U?$pair@$$CBHPAVobject_t@@@std@@@3@$0A@@std@@@std@@IAEXPAU?$_Tree_node@U?$pair@$$CBHPAVobject_t@@@std@@PAX@2@@Z 10014080 f i mfdpage.obj
 0001:000130e0       ?_Lbound@?$_Tree@V?$_Tmap_traits@V?$basic_string@DU?$char_traits@D@std@@V?$allocator@D@2@@std@@HU?$less@V?$basic_string@DU?$char_traits@D@std@@V?$allocator@D@2@@std@@@2@V?$allocator@U?$pair@$$CBV?$basic_string@DU?$char_traits@D@std@@V?$allocator@D@2@@std@@H@std@@@2@$0A@@std@@@std@@IAEPAU?$_Tree_node@U?$pair@$$CBV?$basic_string@DU?$char_traits@D@std@@V?$allocator@D@2@@std@@H@std@@PAX@2@ABV?$basic_string@DU?$char_traits@D@std@@V?$allocator@D@2@@2@@Z 100140e0 f i mfdpage.obj
 0001:000130e0       ?_Lbound@?$_Tree@V?$_Tmap_traits@V?$basic_string@DU?$char_traits@D@std@@V?$allocator@D@2@@std@@PAVfms_fp_item_t@@U?$less@V?$basic_string@DU?$char_traits@D@std@@V?$allocator@D@2@@std@@@2@V?$allocator@U?$pair@$$CBV?$basic_string@DU?$char_traits@D@std@@V?$allocator@D@2@@std@@PAVfms_fp_item_t@@@std@@@2@$0A@@std@@@std@@IAEPAU?$_Tree_node@U?$pair@$$CBV?$basic_string@DU?$char_traits@D@std@@V?$allocator@D@2@@std@@PAVfms_fp_item_t@@@std@@PAX@2@ABV?$basic_string@DU?$char_traits@D@std@@V?$allocator@D@2@@2@@Z 100140e0 f i fms_fp.obj
 0001:000130e0       ?_Lbound@?$_Tree@V?$_Tmap_traits@V?$basic_string@DU?$char_traits@D@std@@V?$allocator@D@2@@std@@MU?$less@V?$basic_string@DU?$char_traits@D@std@@V?$allocator@D@2@@std@@@2@V?$allocator@U?$pair@$$CBV?$basic_string@DU?$char_traits@D@std@@V?$allocator@D@2@@std@@M@std@@@2@$0A@@std@@@std@@IAEPAU?$_Tree_node@U?$pair@$$CBV?$basic_string@DU?$char_traits@D@std@@V?$allocator@D@2@@std@@M@std@@PAX@2@ABV?$basic_string@DU?$char_traits@D@std@@V?$allocator@D@2@@2@@Z 100140e0 f i mfdpage_fms.obj
 0001:000130e0       ?_Lbound@?$_Tree@V?$_Tmap_traits@V?$basic_string@DU?$char_traits@D@std@@V?$allocator@D@2@@std@@V12@U?$less@V?$basic_string@DU?$char_traits@D@std@@V?$allocator@D@2@@std@@@2@V?$allocator@U?$pair@$$CBV?$basic_string@DU?$char_traits@D@std@@V?$allocator@D@2@@std@@V12@@std@@@2@$0A@@std@@@std@@IAEPAU?$_Tree_node@U?$pair@$$CBV?$basic_string@DU?$char_traits@D@std@@V?$allocator@D@2@@std@@V12@@std@@PAX@2@ABV?$basic_string@DU?$char_traits@D@std@@V?$allocator@D@2@@2@@Z 100140e0 f i tools.obj
 0001:000130e0       ?_Lbound@?$_Tree@V?$_Tmap_traits@V?$basic_string@DU?$char_traits@D@std@@V?$allocator@D@2@@std@@DU?$less@V?$basic_string@DU?$char_traits@D@std@@V?$allocator@D@2@@std@@@2@V?$allocator@U?$pair@$$CBV?$basic_string@DU?$char_traits@D@std@@V?$allocator@D@2@@std@@D@std@@@2@$0A@@std@@@std@@IAEPAU?$_Tree_node@U?$pair@$$CBV?$basic_string@DU?$char_traits@D@std@@V?$allocator@D@2@@std@@D@std@@PAX@2@ABV?$basic_string@DU?$char_traits@D@std@@V?$allocator@D@2@@2@@Z 100140e0 f i mfdpage.obj
 0001:000130e0       ?_Lbound@?$_Tree@V?$_Tmap_traits@V?$basic_string@DU?$char_traits@D@std@@V?$allocator@D@2@@std@@PAVfms_config_item_t@@U?$less@V?$basic_string@DU?$char_traits@D@std@@V?$allocator@D@2@@std@@@2@V?$allocator@U?$pair@$$CBV?$basic_string@DU?$char_traits@D@std@@V?$allocator@D@2@@std@@PAVfms_config_item_t@@@std@@@2@$0A@@std@@@std@@IAEPAU?$_Tree_node@U?$pair@$$CBV?$basic_string@DU?$char_traits@D@std@@V?$allocator@D@2@@std@@PAVfms_config_item_t@@@std@@PAX@2@ABV?$basic_string@DU?$char_traits@D@std@@V?$allocator@D@2@@2@@Z 100140e0 f i fms_config.obj
 0001:00013180       ?allocate@?$_Wrap_alloc@V?$allocator@U?$_Tree_node@U?$pair@$$CBHPAVobject_t@@@std@@PAX@std@@@std@@@std@@QAEPAU?$_Tree_node@U?$pair@$$CBHPAVobject_t@@@std@@PAX@2@I@Z 10014180 f i mfdpage.obj
 0001:00013180       ?allocate@?$_Wrap_alloc@V?$allocator@U?$_Tree_node@U?$pair@$$CBHM@std@@PAX@std@@@std@@@std@@QAEPAU?$_Tree_node@U?$pair@$$CBHM@std@@PAX@2@I@Z 10014180 f i fms_config.obj
 0001:00013180       ?allocate@?$_Wrap_alloc@V?$allocator@U?$_Tree_node@U?$pair@$$CBHPAVfms_fp_item_t@@@std@@PAX@std@@@std@@@std@@QAEPAU?$_Tree_node@U?$pair@$$CBHPAVfms_fp_item_t@@@std@@PAX@2@I@Z 10014180 f i mfdpage_fms.obj
 0001:000131a0       ?allocate@?$allocator@U?$_Tree_node@U?$pair@$$CBHM@std@@PAX@std@@@std@@QAEPAU?$_Tree_node@U?$pair@$$CBHM@std@@PAX@2@I@Z 100141a0 f i fms_config.obj
 0001:000131a0       ?allocate@?$allocator@U?$_Tree_node@U?$pair@$$CBHPAVobject_t@@@std@@PAX@std@@@std@@QAEPAU?$_Tree_node@U?$pair@$$CBHPAVobject_t@@@std@@PAX@2@I@Z 100141a0 f i mfdpage.obj
 0001:000131a0       ?allocate@?$allocator@U?$_Tree_node@U?$pair@$$CBHPAVfms_fp_item_t@@@std@@PAX@std@@@std@@QAEPAU?$_Tree_node@U?$pair@$$CBHPAVfms_fp_item_t@@@std@@PAX@2@I@Z 100141a0 f i mfdpage_fms.obj
 0001:000131c0       ?lower_bound@?$_Tree@V?$_Tmap_traits@V?$basic_string@DU?$char_traits@D@std@@V?$allocator@D@2@@std@@HU?$less@V?$basic_string@DU?$char_traits@D@std@@V?$allocator@D@2@@std@@@2@V?$allocator@U?$pair@$$CBV?$basic_string@DU?$char_traits@D@std@@V?$allocator@D@2@@std@@H@std@@@2@$0A@@std@@@std@@QAE?AV?$_Tree_iterator@V?$_Tree_val@U?$_Tree_simple_types@U?$pair@$$CBV?$basic_string@DU?$char_traits@D@std@@V?$allocator@D@2@@std@@H@std@@@std@@@std@@@2@ABV?$basic_string@DU?$char_traits@D@std@@V?$allocator@D@2@@2@@Z 100141c0 f i mfdpage.obj
 0001:000131c0       ?lower_bound@?$_Tree@V?$_Tmap_traits@V?$basic_string@DU?$char_traits@D@std@@V?$allocator@D@2@@std@@MU?$less@V?$basic_string@DU?$char_traits@D@std@@V?$allocator@D@2@@std@@@2@V?$allocator@U?$pair@$$CBV?$basic_string@DU?$char_traits@D@std@@V?$allocator@D@2@@std@@M@std@@@2@$0A@@std@@@std@@QAE?AV?$_Tree_iterator@V?$_Tree_val@U?$_Tree_simple_types@U?$pair@$$CBV?$basic_string@DU?$char_traits@D@std@@V?$allocator@D@2@@std@@M@std@@@std@@@std@@@2@ABV?$basic_string@DU?$char_traits@D@std@@V?$allocator@D@2@@2@@Z 100141c0 f i mfdpage_fms.obj
 0001:000131c0       ?lower_bound@?$_Tree@V?$_Tmap_traits@V?$basic_string@DU?$char_traits@D@std@@V?$allocator@D@2@@std@@PAVfms_fp_item_t@@U?$less@V?$basic_string@DU?$char_traits@D@std@@V?$allocator@D@2@@std@@@2@V?$allocator@U?$pair@$$CBV?$basic_string@DU?$char_traits@D@std@@V?$allocator@D@2@@std@@PAVfms_fp_item_t@@@std@@@2@$0A@@std@@@std@@QAE?AV?$_Tree_iterator@V?$_Tree_val@U?$_Tree_simple_types@U?$pair@$$CBV?$basic_string@DU?$char_traits@D@std@@V?$allocator@D@2@@std@@PAVfms_fp_item_t@@@std@@@std@@@std@@@2@ABV?$basic_string@DU?$char_traits@D@std@@V?$allocator@D@2@@2@@Z 100141c0 f i fms_fp.obj
 0001:000131c0       ?lower_bound@?$_Tree@V?$_Tmap_traits@V?$basic_string@DU?$char_traits@D@std@@V?$allocator@D@2@@std@@DU?$less@V?$basic_string@DU?$char_traits@D@std@@V?$allocator@D@2@@std@@@2@V?$allocator@U?$pair@$$CBV?$basic_string@DU?$char_traits@D@std@@V?$allocator@D@2@@std@@D@std@@@2@$0A@@std@@@std@@QAE?AV?$_Tree_iterator@V?$_Tree_val@U?$_Tree_simple_types@U?$pair@$$CBV?$basic_string@DU?$char_traits@D@std@@V?$allocator@D@2@@std@@D@std@@@std@@@std@@@2@ABV?$basic_string@DU?$char_traits@D@std@@V?$allocator@D@2@@2@@Z 100141c0 f i mfdpage.obj
 0001:000131c0       ?lower_bound@?$_Tree@V?$_Tmap_traits@V?$basic_string@DU?$char_traits@D@std@@V?$allocator@D@2@@std@@PAVfms_config_item_t@@U?$less@V?$basic_string@DU?$char_traits@D@std@@V?$allocator@D@2@@std@@@2@V?$allocator@U?$pair@$$CBV?$basic_string@DU?$char_traits@D@std@@V?$allocator@D@2@@std@@PAVfms_config_item_t@@@std@@@2@$0A@@std@@@std@@QAE?AV?$_Tree_iterator@V?$_Tree_val@U?$_Tree_simple_types@U?$pair@$$CBV?$basic_string@DU?$char_traits@D@std@@V?$allocator@D@2@@std@@PAVfms_config_item_t@@@std@@@std@@@std@@@2@ABV?$basic_string@DU?$char_traits@D@std@@V?$allocator@D@2@@2@@Z 100141c0 f i fms_config.obj
 0001:000131c0       ?lower_bound@?$_Tree@V?$_Tmap_traits@V?$basic_string@DU?$char_traits@D@std@@V?$allocator@D@2@@std@@V12@U?$less@V?$basic_string@DU?$char_traits@D@std@@V?$allocator@D@2@@std@@@2@V?$allocator@U?$pair@$$CBV?$basic_string@DU?$char_traits@D@std@@V?$allocator@D@2@@std@@V12@@std@@@2@$0A@@std@@@std@@QAE?AV?$_Tree_iterator@V?$_Tree_val@U?$_Tree_simple_types@U?$pair@$$CBV?$basic_string@DU?$char_traits@D@std@@V?$allocator@D@2@@std@@V12@@std@@@std@@@std@@@2@ABV?$basic_string@DU?$char_traits@D@std@@V?$allocator@D@2@@2@@Z 100141c0 f i tools.obj
 0001:000131f0       ?max_size@?$_Tree@V?$_Tmap_traits@HPAVobject_t@@U?$less@H@std@@V?$allocator@U?$pair@$$CBHPAVobject_t@@@std@@@3@$0A@@std@@@std@@QBEIXZ 100141f0 f i mfdpage.obj
 0001:000131f0       ?max_size@?$_Tree@V?$_Tmap_traits@HPAVfms_fp_item_t@@U?$less@H@std@@V?$allocator@U?$pair@$$CBHPAVfms_fp_item_t@@@std@@@3@$0A@@std@@@std@@QBEIXZ 100141f0 f i mfdpage_fms.obj
 0001:000131f0       ?max_size@?$_Tree@V?$_Tmap_traits@HMU?$less@H@std@@V?$allocator@U?$pair@$$CBHM@std@@@2@$0A@@std@@@std@@QBEIXZ 100141f0 f i fms_config.obj
 0001:00013210       ?max_size@?$_Wrap_alloc@V?$allocator@U?$_Tree_node@U?$pair@$$CBHPAVfms_fp_item_t@@@std@@PAX@std@@@std@@@std@@QBEIXZ 10014210 f i mfdpage_fms.obj
 0001:00013210       ?max_size@?$_Wrap_alloc@V?$allocator@U?$_Tree_node@U?$pair@$$CBHM@std@@PAX@std@@@std@@@std@@QBEIXZ 10014210 f i fms_config.obj
 0001:00013210       ?max_size@?$_Wrap_alloc@V?$allocator@U?$_Tree_node@U?$pair@$$CBHPAVobject_t@@@std@@PAX@std@@@std@@@std@@QBEIXZ 10014210 f i mfdpage.obj
 0001:00013230       ?max_size@?$allocator@U?$_Tree_node@U?$pair@$$CBHPAVfms_fp_item_t@@@std@@PAX@std@@@std@@QBEIXZ 10014230 f i mfdpage_fms.obj
 0001:00013230       ?max_size@?$allocator@U?$_Tree_node@U?$pair@$$CBHPAVobject_t@@@std@@PAX@std@@@std@@QBEIXZ 10014230 f i mfdpage.obj
 0001:00013230       ?max_size@?$allocator@U?$_Tree_node@U?$pair@$$CBHM@std@@PAX@std@@@std@@QBEIXZ 10014230 f i fms_config.obj
 0001:00013240       ??0mfdpage_flight_t@@QAE@V?$basic_string@DU?$char_traits@D@std@@V?$allocator@D@2@@std@@@Z 10014240 f   mfdpage_flight.obj
 0001:00013290       ?get_template@mfdpage_flight_t@@UAE?AV?$basic_string@DU?$char_traits@D@std@@V?$allocator@D@2@@std@@V23@AAV?$map@HV?$basic_string@DU?$char_traits@D@std@@V?$allocator@D@2@@std@@U?$less@H@2@V?$allocator@U?$pair@$$CBHV?$basic_string@DU?$char_traits@D@std@@V?$allocator@D@2@@std@@@std@@@2@@3@@Z 10014290 f   mfdpage_flight.obj
 0001:00013840       ?do_refresh@mfdpage_flight_t@@UAEXPAVobject_t@@@Z 10014840 f   mfdpage_flight.obj
 0001:00013850       ?refresh_interval@mfdpage_flight_t@@UAEHV?$basic_string@DU?$char_traits@D@std@@V?$allocator@D@2@@std@@@Z 10014850 f   mfdpage_flight.obj
 0001:00013880       ?refresh_template@mfdpage_flight_t@@UAE?AV?$basic_string@DU?$char_traits@D@std@@V?$allocator@D@2@@std@@V23@V?$map@HPAVobject_t@@U?$less@H@std@@V?$allocator@U?$pair@$$CBHPAVobject_t@@@std@@@3@@3@0@Z 10014880 f   mfdpage_flight.obj
 0001:00014190       ?fabs@@YAMM@Z              10015190 f i mfdpage_flight.obj
 0001:000141b0       ?find@?$basic_string@DU?$char_traits@D@std@@V?$allocator@D@2@@std@@QBEIDI@Z 100151b0 f i mfdpage_flight.obj
 0001:000141d0       ?replace@?$basic_string@DU?$char_traits@D@std@@V?$allocator@D@2@@std@@QAEAAV12@IIPBD@Z 100151d0 f i mfdpage_flight.obj
 0001:00014200       _fabsf                     10015200 f i mfdpage_flight.obj
 0001:00014270       ??0mfdpage_time_t@@QAE@V?$basic_string@DU?$char_traits@D@std@@V?$allocator@D@2@@std@@@Z 10015270 f   mfdpage_time.obj
 0001:000142f0       ?get_template@mfdpage_time_t@@UAE?AV?$basic_string@DU?$char_traits@D@std@@V?$allocator@D@2@@std@@V23@AAV?$map@HV?$basic_string@DU?$char_traits@D@std@@V?$allocator@D@2@@std@@U?$less@H@2@V?$allocator@U?$pair@$$CBHV?$basic_string@DU?$char_traits@D@std@@V?$allocator@D@2@@std@@@std@@@2@@3@@Z 100152f0 f   mfdpage_time.obj
 0001:00014340       ?do_refresh@mfdpage_time_t@@UAEXPAVobject_t@@@Z 10015340 f   mfdpage_time.obj
 0001:00014390       ?refresh_interval@mfdpage_time_t@@UAEHV?$basic_string@DU?$char_traits@D@std@@V?$allocator@D@2@@std@@@Z 10015390 f   mfdpage_time.obj
 0001:000143c0       ?refresh_template@mfdpage_time_t@@UAE?AV?$basic_string@DU?$char_traits@D@std@@V?$allocator@D@2@@std@@V23@V?$map@HPAVobject_t@@U?$less@H@std@@V?$allocator@U?$pair@$$CBHPAVobject_t@@@std@@@3@@3@0@Z 100153c0 f   mfdpage_time.obj
 0001:00014580       ??0mfdpage_weather_t@@QAE@V?$basic_string@DU?$char_traits@D@std@@V?$allocator@D@2@@std@@@Z 10015580 f   mfdpage_weather.obj
 0001:000145d0       ?get_template@mfdpage_weather_t@@UAE?AV?$basic_string@DU?$char_traits@D@std@@V?$allocator@D@2@@std@@V23@AAV?$map@HV?$basic_string@DU?$char_traits@D@std@@V?$allocator@D@2@@std@@U?$less@H@2@V?$allocator@U?$pair@$$CBHV?$basic_string@DU?$char_traits@D@std@@V?$allocator@D@2@@std@@@std@@@2@@3@@Z 100155d0 f   mfdpage_weather.obj
 0001:00014b80       ?do_refresh@mfdpage_weather_t@@UAEXPAVobject_t@@@Z 10015b80 f   mfdpage_weather.obj
 0001:00014b90       ?refresh_interval@mfdpage_weather_t@@UAEHV?$basic_string@DU?$char_traits@D@std@@V?$allocator@D@2@@std@@@Z 10015b90 f   mfdpage_weather.obj
 0001:00014bc0       ?refresh_template@mfdpage_weather_t@@UAE?AV?$basic_string@DU?$char_traits@D@std@@V?$allocator@D@2@@std@@V23@V?$map@HPAVobject_t@@U?$less@H@std@@V?$allocator@U?$pair@$$CBHPAVobject_t@@@std@@@3@@3@0@Z 10015bc0 f   mfdpage_weather.obj
 0001:00015340       ??0mfdpage_std_t@@QAE@V?$basic_string@DU?$char_traits@D@std@@V?$allocator@D@2@@std@@@Z 10016340 f   mfdpage_std.obj
 0001:00015390       ?get_template@mfdpage_std_t@@UAE?AV?$basic_string@DU?$char_traits@D@std@@V?$allocator@D@2@@std@@V23@AAV?$map@HV?$basic_string@DU?$char_traits@D@std@@V?$allocator@D@2@@std@@U?$less@H@2@V?$allocator@U?$pair@$$CBHV?$basic_string@DU?$char_traits@D@std@@V?$allocator@D@2@@std@@@std@@@2@@3@@Z 10016390 f   mfdpage_std.obj
 0001:000156f0       ?do_refresh@mfdpage_std_t@@UAEXPAVobject_t@@@Z 100166f0 f   mfdpage_std.obj
 0001:00015700       ?refresh_interval@mfdpage_std_t@@UAEHV?$basic_string@DU?$char_traits@D@std@@V?$allocator@D@2@@std@@@Z 10016700 f   mfdpage_std.obj
 0001:00015780       ?refresh_template@mfdpage_std_t@@UAE?AV?$basic_string@DU?$char_traits@D@std@@V?$allocator@D@2@@std@@V23@V?$map@HPAVobject_t@@U?$less@H@std@@V?$allocator@U?$pair@$$CBHPAVobject_t@@@std@@@3@@3@0@Z 10016780 f   mfdpage_std.obj
 0001:00015b20       ??0mfdpage_led_t@@QAE@V?$basic_string@DU?$char_traits@D@std@@V?$allocator@D@2@@std@@@Z 10016b20 f   mfdpage_led.obj
 0001:00015b80       ??0mfdpage_led_t@@QAE@V?$basic_string@DU?$char_traits@D@std@@V?$allocator@D@2@@std@@PAVout_t@@@Z 10016b80 f   mfdpage_led.obj
 0001:00015bf0       ?get_template@mfdpage_led_t@@UAE?AV?$basic_string@DU?$char_traits@D@std@@V?$allocator@D@2@@std@@V23@AAV?$map@HV?$basic_string@DU?$char_traits@D@std@@V?$allocator@D@2@@std@@U?$less@H@2@V?$allocator@U?$pair@$$CBHV?$basic_string@DU?$char_traits@D@std@@V?$allocator@D@2@@std@@@std@@@2@@3@@Z 10016bf0 f   mfdpage_led.obj
 0001:00016090       ?do_refresh@mfdpage_led_t@@UAEXPAVobject_t@@@Z 10017090 f   mfdpage_led.obj
 0001:00016750       ?refresh_interval@mfdpage_led_t@@UAEHV?$basic_string@DU?$char_traits@D@std@@V?$allocator@D@2@@std@@@Z 10017750 f   mfdpage_led.obj
 0001:00016780       ?refresh_template@mfdpage_led_t@@UAE?AV?$basic_string@DU?$char_traits@D@std@@V?$allocator@D@2@@std@@V23@V?$map@HPAVobject_t@@U?$less@H@std@@V?$allocator@U?$pair@$$CBHPAVobject_t@@@std@@@3@@3@0@Z 10017780 f   mfdpage_led.obj
 0001:000167c0       ?set_led_by_name@mfdpage_led_t@@AAAXHPBDH0ZZ 100177c0 f   mfdpage_led.obj
 0001:00016f90       ??$?0V?$basic_string@DU?$char_traits@D@std@@V?$allocator@D@2@@std@@V01@X@?$pair@$$CBV?$basic_string@DU?$char_traits@D@std@@V?$allocator@D@2@@std@@V12@@std@@QAE@$$QAV?$basic_string@DU?$char_traits@D@std@@V?$allocator@D@2@@1@0@Z 10017f90 f i mfdpage_led.obj
 0001:00016fd0       ??$_Buynode@V?$basic_string@DU?$char_traits@D@std@@V?$allocator@D@2@@std@@V12@@?$_Tree_buy@U?$pair@$$CBV?$basic_string@DU?$char_traits@D@std@@V?$allocator@D@2@@std@@V12@@std@@V?$allocator@U?$pair@$$CBV?$basic_string@DU?$char_traits@D@std@@V?$allocator@D@2@@std@@V12@@std@@@2@@std@@QAEPAU?$_Tree_node@U?$pair@$$CBV?$basic_string@DU?$char_traits@D@std@@V?$allocator@D@2@@std@@V12@@std@@PAX@1@$$QAV?$basic_string@DU?$char_traits@D@std@@V?$allocator@D@2@@1@0@Z 10017fd0 f i mfdpage_led.obj
 0001:000170c0       ??$_Copy@U?$integral_constant@_N$00@std@@@?$_Tree@V?$_Tmap_traits@V?$basic_string@DU?$char_traits@D@std@@V?$allocator@D@2@@std@@V12@U?$less@V?$basic_string@DU?$char_traits@D@std@@V?$allocator@D@2@@std@@@2@V?$allocator@U?$pair@$$CBV?$basic_string@DU?$char_traits@D@std@@V?$allocator@D@2@@std@@V12@@std@@@2@$0A@@std@@@std@@IAEXABV01@U?$integral_constant@_N$00@1@@Z 100180c0 f i mfdpage_led.obj
 0001:00017180       ??$_Copy_nodes@U?$integral_constant@_N$00@std@@@?$_Tree@V?$_Tmap_traits@V?$basic_string@DU?$char_traits@D@std@@V?$allocator@D@2@@std@@V12@U?$less@V?$basic_string@DU?$char_traits@D@std@@V?$allocator@D@2@@std@@@2@V?$allocator@U?$pair@$$CBV?$basic_string@DU?$char_traits@D@std@@V?$allocator@D@2@@std@@V12@@std@@@2@$0A@@std@@@std@@IAEPAU?$_Tree_node@U?$pair@$$CBV?$basic_string@DU?$char_traits@D@std@@V?$allocator@D@2@@std@@V12@@std@@PAX@1@PAU21@0U?$integral_constant@_N$00@1@@Z 10018180 f i mfdpage_led.obj
 0001:000172e0       ??$_Copy_or_move@H@?$_Tree@V?$_Tmap_traits@V?$basic_string@DU?$char_traits@D@std@@V?$allocator@D@2@@std@@V12@U?$less@V?$basic_string@DU?$char_traits@D@std@@V?$allocator@D@2@@std@@@2@V?$allocator@U?$pair@$$CBV?$basic_string@DU?$char_traits@D@std@@V?$allocator@D@2@@std@@V12@@std@@@2@$0A@@std@@@std@@IAEPAU?$_Tree_node@U?$pair@$$CBV?$basic_string@DU?$char_traits@D@std@@V?$allocator@D@2@@std@@V12@@std@@PAX@1@PAU21@U?$integral_constant@_N$00@1@1U?$integral_constant@_N$0A@@1@H@Z 100182e0 f i mfdpage_led.obj
 0001:00017330       ??$_Swap_adl@PAU?$_Tree_node@U?$pair@$$CBV?$basic_string@DU?$char_traits@D@std@@V?$allocator@D@2@@std@@V12@@std@@PAX@std@@@std@@YAXAAPAU?$_Tree_node@U?$pair@$$CBV?$basic_string@DU?$char_traits@D@std@@V?$allocator@D@2@@std@@V12@@std@@PAX@0@0@Z 10018330 f i mfdpage_led.obj
 0001:00017350       ??$_Transform@PADV?$_String_iterator@V?$_String_val@U?$_Simple_types@D@std@@@std@@@std@@P6AHH@Z@std@@YA?AV?$_String_iterator@V?$_String_val@U?$_Simple_types@D@std@@@std@@@0@PAD0V10@P6AHH@Z@Z 10018350 f i mfdpage_led.obj
 0001:000173a0       ??$_Unchecked@V?$_String_val@U?$_Simple_types@D@std@@@std@@@std@@YAPADV?$_String_iterator@V?$_String_val@U?$_Simple_types@D@std@@@std@@@0@@Z 100183a0 f i mfdpage_led.obj
 0001:000173b0       ??$construct@U?$pair@$$CBV?$basic_string@DU?$char_traits@D@std@@V?$allocator@D@2@@std@@V12@@std@@V?$basic_string@DU?$char_traits@D@std@@V?$allocator@D@2@@2@V32@@?$_Wrap_alloc@V?$allocator@U?$_Tree_node@U?$pair@$$CBV?$basic_string@DU?$char_traits@D@std@@V?$allocator@D@2@@std@@V12@@std@@PAX@std@@@std@@@std@@QAEXPAU?$pair@$$CBV?$basic_string@DU?$char_traits@D@std@@V?$allocator@D@2@@std@@V12@@1@$$QAV?$basic_string@DU?$char_traits@D@std@@V?$allocator@D@2@@1@1@Z 100183b0 f i mfdpage_led.obj
 0001:000173f0       ??$construct@U?$pair@$$CBV?$basic_string@DU?$char_traits@D@std@@V?$allocator@D@2@@std@@V12@@std@@V?$basic_string@DU?$char_traits@D@std@@V?$allocator@D@2@@2@V32@@?$allocator@U?$_Tree_node@U?$pair@$$CBV?$basic_string@DU?$char_traits@D@std@@V?$allocator@D@2@@std@@V12@@std@@PAX@std@@@std@@QAEXPAU?$pair@$$CBV?$basic_string@DU?$char_traits@D@std@@V?$allocator@D@2@@std@@V12@@1@$$QAV?$basic_string@DU?$char_traits@D@std@@V?$allocator@D@2@@1@1@Z 100183f0 f i mfdpage_led.obj
 0001:00017450       ??$construct@U?$pair@$$CBV?$basic_string@DU?$char_traits@D@std@@V?$allocator@D@2@@std@@V12@@std@@V?$basic_string@DU?$char_traits@D@std@@V?$allocator@D@2@@2@V32@@?$allocator_traits@V?$allocator@U?$_Tree_node@U?$pair@$$CBV?$basic_string@DU?$char_traits@D@std@@V?$allocator@D@2@@std@@V12@@std@@PAX@std@@@std@@@std@@SAXAAV?$allocator@U?$_Tree_node@U?$pair@$$CBV?$basic_string@DU?$char_traits@D@std@@V?$allocator@D@2@@std@@V12@@std@@PAX@std@@@1@PAU?$pair@$$CBV?$basic_string@DU?$char_traits@D@std@@V?$allocator@D@2@@std@@V12@@1@$$QAV?$basic_string@DU?$char_traits@D@std@@V?$allocator@D@2@@1@2@Z 10018450 f i mfdpage_led.obj
 0001:00017480       ??$swap@PAU?$_Tree_node@U?$pair@$$CBV?$basic_string@DU?$char_traits@D@std@@V?$allocator@D@2@@std@@V12@@std@@PAX@std@@@std@@YAXAAPAU?$_Tree_node@U?$pair@$$CBV?$basic_string@DU?$char_traits@D@std@@V?$allocator@D@2@@std@@V12@@std@@PAX@0@0@Z 10018480 f i mfdpage_led.obj
 0001:00017480       ??$swap@I@std@@YAXAAI0@Z   10018480 f i mfdpage_led.obj
 0001:000174c0       ??$transform@V?$_String_iterator@V?$_String_val@U?$_Simple_types@D@std@@@std@@@std@@V12@P6AHH@Z@std@@YA?AV?$_String_iterator@V?$_String_val@U?$_Simple_types@D@std@@@std@@@0@V10@00P6AHH@Z@Z 100184c0 f i mfdpage_led.obj
 0001:00017520       ??0?$_Tree@V?$_Tmap_traits@V?$basic_string@DU?$char_traits@D@std@@V?$allocator@D@2@@std@@V12@U?$less@V?$basic_string@DU?$char_traits@D@std@@V?$allocator@D@2@@std@@@2@V?$allocator@U?$pair@$$CBV?$basic_string@DU?$char_traits@D@std@@V?$allocator@D@2@@std@@V12@@std@@@2@$0A@@std@@@std@@QAE@ABU?$less@V?$basic_string@DU?$char_traits@D@std@@V?$allocator@D@2@@std@@@1@ABV?$allocator@U?$pair@$$CBV?$basic_string@DU?$char_traits@D@std@@V?$allocator@D@2@@std@@V12@@std@@@1@@Z 10018520 f i mfdpage_led.obj
 0001:00017540       ??0?$_Tree_alloc@$0A@U?$_Tree_base_types@U?$pair@$$CBV?$basic_string@DU?$char_traits@D@std@@V?$allocator@D@2@@std@@V12@@std@@V?$allocator@U?$pair@$$CBV?$basic_string@DU?$char_traits@D@std@@V?$allocator@D@2@@std@@V12@@std@@@2@@std@@@std@@QAE@ABV?$allocator@U?$pair@$$CBV?$basic_string@DU?$char_traits@D@std@@V?$allocator@D@2@@std@@V12@@std@@@1@@Z 10018540 f i mfdpage_led.obj
 0001:00017570       ??0?$_Tree_buy@U?$pair@$$CBV?$basic_string@DU?$char_traits@D@std@@V?$allocator@D@2@@std@@V12@@std@@V?$allocator@U?$pair@$$CBV?$basic_string@DU?$char_traits@D@std@@V?$allocator@D@2@@std@@V12@@std@@@2@@std@@QAE@ABV?$allocator@U?$pair@$$CBV?$basic_string@DU?$char_traits@D@std@@V?$allocator@D@2@@std@@V12@@std@@@1@@Z 10018570 f i mfdpage_led.obj
 0001:00017590       ??0?$_Tree_comp@$0A@V?$_Tmap_traits@V?$basic_string@DU?$char_traits@D@std@@V?$allocator@D@2@@std@@V12@U?$less@V?$basic_string@DU?$char_traits@D@std@@V?$allocator@D@2@@std@@@2@V?$allocator@U?$pair@$$CBV?$basic_string@DU?$char_traits@D@std@@V?$allocator@D@2@@std@@V12@@std@@@2@$0A@@std@@@std@@QAE@ABU?$less@V?$basic_string@DU?$char_traits@D@std@@V?$allocator@D@2@@std@@@1@ABV?$allocator@U?$pair@$$CBV?$basic_string@DU?$char_traits@D@std@@V?$allocator@D@2@@std@@V12@@std@@@1@@Z 10018590 f i mfdpage_led.obj
 0001:000175b0       ??0?$basic_string@DU?$char_traits@D@std@@V?$allocator@D@2@@std@@QAE@ABV01@IIABV?$allocator@D@1@@Z 100185b0 f i mfdpage_led.obj
 0001:000175f0       ??0?$map@V?$basic_string@DU?$char_traits@D@std@@V?$allocator@D@2@@std@@V12@U?$less@V?$basic_string@DU?$char_traits@D@std@@V?$allocator@D@2@@std@@@2@V?$allocator@U?$pair@$$CBV?$basic_string@DU?$char_traits@D@std@@V?$allocator@D@2@@std@@V12@@std@@@2@@std@@QAE@XZ 100185f0 f i mfdpage_led.obj
 0001:00017620       ??4?$_Tree@V?$_Tmap_traits@V?$basic_string@DU?$char_traits@D@std@@V?$allocator@D@2@@std@@V12@U?$less@V?$basic_string@DU?$char_traits@D@std@@V?$allocator@D@2@@std@@@2@V?$allocator@U?$pair@$$CBV?$basic_string@DU?$char_traits@D@std@@V?$allocator@D@2@@std@@V12@@std@@@2@$0A@@std@@@std@@QAEAAV01@$$QAV01@@Z 10018620 f i mfdpage_led.obj
 0001:00017670       ??4?$map@V?$basic_string@DU?$char_traits@D@std@@V?$allocator@D@2@@std@@V12@U?$less@V?$basic_string@DU?$char_traits@D@std@@V?$allocator@D@2@@std@@@2@V?$allocator@U?$pair@$$CBV?$basic_string@DU?$char_traits@D@std@@V?$allocator@D@2@@std@@V12@@std@@@2@@std@@QAEAAV01@$$QAV01@@Z 10018670 f i mfdpage_led.obj
 0001:000176a0       ??9?$_String_const_iterator@V?$_String_val@U?$_Simple_types@D@std@@@std@@@std@@QBE_NABV01@@Z 100186a0 f i mfdpage_led.obj
 0001:000176e0       ??E?$_String_const_iterator@V?$_String_val@U?$_Simple_types@D@std@@@std@@@std@@QAEAAV01@XZ 100186e0 f i mfdpage_led.obj
 0001:00017700       ??E?$_String_iterator@V?$_String_val@U?$_Simple_types@D@std@@@std@@@std@@QAEAAV01@XZ 10018700 f i mfdpage_led.obj
 0001:00017720       ??E?$_Tree_iterator@V?$_Tree_val@U?$_Tree_simple_types@U?$pair@$$CBV?$basic_string@DU?$char_traits@D@std@@V?$allocator@D@2@@std@@V12@@std@@@std@@@std@@@std@@QAEAAV01@XZ 10018720 f i mfdpage_led.obj
 0001:00017720       ??E?$_Tree_iterator@V?$_Tree_val@U?$_Tree_simple_types@U?$pair@$$CBHM@std@@@std@@@std@@@std@@QAEAAV01@XZ 10018720 f i fms_config.obj
 0001:00017720       ??E?$_Tree_iterator@V?$_Tree_val@U?$_Tree_simple_types@U?$pair@$$CBHPAVfms_fp_item_t@@@std@@@std@@@std@@@std@@QAEAAV01@XZ 10018720 f i fms_fp.obj
 0001:00017720       ??E?$_Tree_iterator@V?$_Tree_val@U?$_Tree_simple_types@U?$pair@$$CBHV?$basic_string@DU?$char_traits@D@std@@V?$allocator@D@2@@std@@@std@@@std@@@std@@@std@@QAEAAV01@XZ 10018720 f i mfdpage.obj
 0001:00017720       ??E?$_Tree_iterator@V?$_Tree_val@U?$_Tree_simple_types@U?$pair@$$CBV?$basic_string@DU?$char_traits@D@std@@V?$allocator@D@2@@std@@H@std@@@std@@@std@@@std@@QAEAAV01@XZ 10018720 f i mfdpage.obj
 0001:00017720       ??E?$_Tree_iterator@V?$_Tree_val@U?$_Tree_simple_types@U?$pair@$$CBHPAVobject_t@@@std@@@std@@@std@@@std@@QAEAAV01@XZ 10018720 f i mfdpage.obj
 0001:00017740       ??Y?$basic_string@DU?$char_traits@D@std@@V?$allocator@D@2@@std@@QAEAAV01@PBD@Z 10018740 f i mfdpage_led.obj
 0001:00017760       ?_Assign_rv@?$_Tree@V?$_Tmap_traits@V?$basic_string@DU?$char_traits@D@std@@V?$allocator@D@2@@std@@V12@U?$less@V?$basic_string@DU?$char_traits@D@std@@V?$allocator@D@2@@std@@@2@V?$allocator@U?$pair@$$CBV?$basic_string@DU?$char_traits@D@std@@V?$allocator@D@2@@std@@V12@@std@@@2@$0A@@std@@@std@@QAEX$$QAV12@@Z 10018760 f i mfdpage_led.obj
 0001:00017790       ?_Assign_rv@?$_Tree@V?$_Tmap_traits@V?$basic_string@DU?$char_traits@D@std@@V?$allocator@D@2@@std@@V12@U?$less@V?$basic_string@DU?$char_traits@D@std@@V?$allocator@D@2@@std@@@2@V?$allocator@U?$pair@$$CBV?$basic_string@DU?$char_traits@D@std@@V?$allocator@D@2@@std@@V12@@std@@@2@$0A@@std@@@std@@QAEX$$QAV12@U?$integral_constant@_N$00@2@@Z 10018790 f i mfdpage_led.obj
 0001:000177f0       ?_Assign_rv@?$_Tree@V?$_Tmap_traits@V?$basic_string@DU?$char_traits@D@std@@V?$allocator@D@2@@std@@V12@U?$less@V?$basic_string@DU?$char_traits@D@std@@V?$allocator@D@2@@std@@@2@V?$allocator@U?$pair@$$CBV?$basic_string@DU?$char_traits@D@std@@V?$allocator@D@2@@std@@V12@@std@@@2@$0A@@std@@@std@@QAEX$$QAV12@U?$integral_constant@_N$0A@@2@@Z 100187f0 f i mfdpage_led.obj
 0001:00017860       ?_Buyheadnode@?$_Tree_alloc@$0A@U?$_Tree_base_types@U?$pair@$$CBV?$basic_string@DU?$char_traits@D@std@@V?$allocator@D@2@@std@@V12@@std@@V?$allocator@U?$pair@$$CBV?$basic_string@DU?$char_traits@D@std@@V?$allocator@D@2@@std@@V12@@std@@@2@@std@@@std@@QAEPAU?$_Tree_node@U?$pair@$$CBV?$basic_string@DU?$char_traits@D@std@@V?$allocator@D@2@@std@@V12@@std@@PAX@2@XZ 10018860 f i mfdpage_led.obj
 0001:000179b0       ?append@?$basic_string@DU?$char_traits@D@std@@V?$allocator@D@2@@std@@QAEAAV12@ABV12@II@Z 100189b0 f i mfdpage_led.obj
 0001:00017a70       ?append@?$basic_string@DU?$char_traits@D@std@@V?$allocator@D@2@@std@@QAEAAV12@PBD@Z 10018a70 f i mfdpage_led.obj
 0001:00017aa0       ?append@?$basic_string@DU?$char_traits@D@std@@V?$allocator@D@2@@std@@QAEAAV12@PBDI@Z 10018aa0 f i mfdpage_led.obj
 0001:00017b50       ?substr@?$basic_string@DU?$char_traits@D@std@@V?$allocator@D@2@@std@@QBE?AV12@II@Z 10018b50 f i mfdpage_led.obj
 0001:00017b90       ??0fms_t@@QAE@XZ           10018b90 f   fms.obj
 0001:00017bd0       ??1fms_t@@QAE@XZ           10018bd0 f   fms.obj
 0001:00017c70       ?refresh@fms_t@@QAEXXZ     10018c70 f   fms.obj
 0001:00017e40       ?reset@fms_t@@QAEXXZ       10018e40 f   fms.obj
 0001:00017f40       ?load@fms_t@@QAEXXZ        10018f40 f   fms.obj
 0001:00017f80       ?displayed_index@fms_t@@QAEHXZ 10018f80 f   fms.obj
 0001:00017fd0       ?entry_name@fms_t@@QAE?AV?$basic_string@DU?$char_traits@D@std@@V?$allocator@D@2@@std@@H@Z 10018fd0 f   fms.obj
 0001:00018030       ?entry_type@fms_t@@QAE?AV?$basic_string@DU?$char_traits@D@std@@V?$allocator@D@2@@std@@H@Z 10019030 f   fms.obj
 0001:00018090       ?distance_to_entry@fms_t@@QAEMH@Z 10019090 f   fms.obj
 0001:00018180       ?remaining_distance_from_entry@fms_t@@QAEMH@Z 10019180 f   fms.obj
 0001:000181e0       ?minutes_to_entry@fms_t@@QAEMH@Z 100191e0 f   fms.obj
 0001:000182f0       ?time_to_entry@fms_t@@QAE?AV?$basic_string@DU?$char_traits@D@std@@V?$allocator@D@2@@std@@H@Z 100192f0 f   fms.obj
 0001:00018330       ?eta_to_entry@fms_t@@QAE?AV?$basic_string@DU?$char_traits@D@std@@V?$allocator@D@2@@std@@HM@Z 10019330 f   fms.obj
 0001:000183d0       ?remaining_distance@fms_t@@QAEMXZ 100193d0 f   fms.obj
 0001:000183f0       ?remaining_time@fms_t@@QAEMXZ 100193f0 f   fms.obj
 0001:00018410       ?flying_index@fms_t@@QAEHXZ 10019410 f   fms.obj
 0001:00018460       ?percentage@fms_t@@QAEMXZ  10019460 f   fms.obj
 0001:00018510       ?check_takeoff@fms_t@@QAEXM@Z 10019510 f   fms.obj
 0001:00018960       ?check_landing@fms_t@@QAEXM@Z 10019960 f   fms.obj
 0001:00018e50       ?check_position@fms_t@@QAEXXZ 10019e50 f   fms.obj
 0001:00019810       ?check_gate_departure@fms_t@@QAEXM@Z 1001a810 f   fms.obj
 0001:00019c20       ?check_gate_arrival@fms_t@@QAEXXZ 1001ac20 f   fms.obj
 0001:00019ec0       ?distance_to_current@fms_t@@AAEMXZ 1001aec0 f   fms.obj
 0001:00019f20       ?speed_to_current@fms_t@@AAEMXZ 1001af20 f   fms.obj
 0001:00019f80       ?time_to_current@fms_t@@AAEMXZ 1001af80 f   fms.obj
 0001:0001a040       ??$?9DU?$char_traits@D@std@@V?$allocator@D@1@@std@@YA_NABV?$basic_string@DU?$char_traits@D@std@@V?$allocator@D@2@@0@PBD@Z 1001b040 f i fms.obj
 0001:0001a080       ??_Gfms_config_t@@QAEPAXI@Z 1001b080 f i fms.obj
 0001:0001a0b0       ??_Gfms_fp_t@@QAEPAXI@Z    1001b0b0 f i fms.obj
 0001:0001a0e0       ??_Gfms_fuel_t@@QAEPAXI@Z  1001b0e0 f i fms.obj
 0001:0001a110       ??0fms_config_t@@QAE@XZ    1001b110 f   fms_config.obj
 0001:0001a170       ??1fms_config_t@@QAE@XZ    1001b170 f   fms_config.obj
 0001:0001a1b0       ?load@fms_config_t@@QAEXXZ 1001b1b0 f   fms_config.obj
 0001:0001a210       ?value_from_profile@fms_config_t@@QAEMV?$basic_string@DU?$char_traits@D@std@@V?$allocator@D@2@@std@@H@Z 1001b210 f   fms_config.obj
 0001:0001a400       ?load_config@fms_config_t@@AAEXXZ 1001b400 f   fms_config.obj
 0001:0001a9d0       ?load_profiles@fms_config_t@@AAEXXZ 1001b9d0 f   fms_config.obj
 0001:0001ab20       ?load_profile@fms_config_t@@AAEXV?$basic_string@DU?$char_traits@D@std@@V?$allocator@D@2@@std@@@Z 1001bb20 f   fms_config.obj
 0001:0001ace0       ?reverse_profile@fms_config_t@@AAEXV?$basic_string@DU?$char_traits@D@std@@V?$allocator@D@2@@std@@0@Z 1001bce0 f   fms_config.obj
 0001:0001ae30       ?combine_profile@fms_config_t@@AAEXV?$basic_string@DU?$char_traits@D@std@@V?$allocator@D@2@@std@@00@Z 1001be30 f   fms_config.obj
 0001:0001aff0       ?calculate_climb_desc@fms_config_t@@AAEXXZ 1001bff0 f   fms_config.obj
 0001:0001b2d0       ??0fms_config_item_t@@QAE@XZ 1001c2d0 f   fms_config.obj
 0001:0001b300       ??$?0ABH$$$V@?$pair@$$CBHM@std@@QAE@Upiecewise_construct_t@1@V?$tuple@ABH@1@V?$tuple@$$$V@1@@Z 1001c300 f i fms_config.obj
 0001:0001b340       ??$?0V?$tuple@ABH@std@@V?$tuple@$$$V@1@$0A@$S@?$pair@$$CBHM@std@@QAE@AAV?$tuple@ABH@1@AAV?$tuple@$$$V@1@U?$_Arg_idx@$0A@@1@U?$_Arg_idx@$S@1@@Z 1001c340 f i fms_config.obj
 0001:0001b380       ??$_Allocate@U?$_Tree_node@U?$pair@$$CBV?$basic_string@DU?$char_traits@D@std@@V?$allocator@D@2@@std@@M@std@@PAX@std@@@std@@YAPAU?$_Tree_node@U?$pair@$$CBV?$basic_string@DU?$char_traits@D@std@@V?$allocator@D@2@@std@@M@std@@PAX@0@IPAU10@@Z 1001c380 f i mfdpage_fms.obj
 0001:0001b380       ??$_Allocate@U?$_Tree_node@U?$pair@$$CBV?$basic_string@DU?$char_traits@D@std@@V?$allocator@D@2@@std@@PAVfms_config_item_t@@@std@@PAX@std@@@std@@YAPAU?$_Tree_node@U?$pair@$$CBV?$basic_string@DU?$char_traits@D@std@@V?$allocator@D@2@@std@@PAVfms_config_item_t@@@std@@PAX@0@IPAU10@@Z 1001c380 f i fms_config.obj
 0001:0001b380       ??$_Allocate@U?$_Tree_node@U?$pair@$$CBHV?$basic_string@DU?$char_traits@D@std@@V?$allocator@D@2@@std@@@std@@PAX@std@@@std@@YAPAU?$_Tree_node@U?$pair@$$CBHV?$basic_string@DU?$char_traits@D@std@@V?$allocator@D@2@@std@@@std@@PAX@0@IPAU10@@Z 1001c380 f i out_saitek.obj
 0001:0001b380       ??$_Allocate@U?$_Tree_node@U?$pair@$$CBV?$basic_string@DU?$char_traits@D@std@@V?$allocator@D@2@@std@@D@std@@PAX@std@@@std@@YAPAU?$_Tree_node@U?$pair@$$CBV?$basic_string@DU?$char_traits@D@std@@V?$allocator@D@2@@std@@D@std@@PAX@0@IPAU10@@Z 1001c380 f i mfdpage.obj
 0001:0001b380       ??$_Allocate@U?$_Tree_node@U?$pair@$$CBV?$basic_string@DU?$char_traits@D@std@@V?$allocator@D@2@@std@@PAVfms_fp_item_t@@@std@@PAX@std@@@std@@YAPAU?$_Tree_node@U?$pair@$$CBV?$basic_string@DU?$char_traits@D@std@@V?$allocator@D@2@@std@@PAVfms_fp_item_t@@@std@@PAX@0@IPAU10@@Z 1001c380 f i fms_fp.obj
 0001:0001b380       ??$_Allocate@U?$_Tree_node@U?$pair@$$CBV?$basic_string@DU?$char_traits@D@std@@V?$allocator@D@2@@std@@H@std@@PAX@std@@@std@@YAPAU?$_Tree_node@U?$pair@$$CBV?$basic_string@DU?$char_traits@D@std@@V?$allocator@D@2@@std@@H@std@@PAX@0@IPAU10@@Z 1001c380 f i mfdpage.obj
 0001:0001b3c0       ??$_Buynode@ABUpiecewise_construct_t@std@@V?$tuple@ABH@2@V?$tuple@$$$V@2@@?$_Tree_buy@U?$pair@$$CBHM@std@@V?$allocator@U?$pair@$$CBHM@std@@@2@@std@@QAEPAU?$_Tree_node@U?$pair@$$CBHM@std@@PAX@1@ABUpiecewise_construct_t@1@$$QAV?$tuple@ABH@1@$$QAV?$tuple@$$$V@1@@Z 1001c3c0 f i fms_config.obj
 0001:0001b4c0       ??$construct@U?$pair@$$CBHM@std@@ABUpiecewise_construct_t@2@V?$tuple@ABH@2@V?$tuple@$$$V@2@@?$_Wrap_alloc@V?$allocator@U?$_Tree_node@U?$pair@$$CBHM@std@@PAX@std@@@std@@@std@@QAEXPAU?$pair@$$CBHM@1@ABUpiecewise_construct_t@1@$$QAV?$tuple@ABH@1@$$QAV?$tuple@$$$V@1@@Z 1001c4c0 f i fms_config.obj
 0001:0001b510       ??$construct@U?$pair@$$CBHM@std@@ABUpiecewise_construct_t@2@V?$tuple@ABH@2@V?$tuple@$$$V@2@@?$allocator@U?$_Tree_node@U?$pair@$$CBHM@std@@PAX@std@@@std@@QAEXPAU?$pair@$$CBHM@1@ABUpiecewise_construct_t@1@$$QAV?$tuple@ABH@1@$$QAV?$tuple@$$$V@1@@Z 1001c510 f i fms_config.obj
 0001:0001b580       ??$construct@U?$pair@$$CBHM@std@@ABUpiecewise_construct_t@2@V?$tuple@ABH@2@V?$tuple@$$$V@2@@?$allocator_traits@V?$allocator@U?$_Tree_node@U?$pair@$$CBHM@std@@PAX@std@@@std@@@std@@SAXAAV?$allocator@U?$_Tree_node@U?$pair@$$CBHM@std@@PAX@std@@@1@PAU?$pair@$$CBHM@1@ABUpiecewise_construct_t@1@$$QAV?$tuple@ABH@1@$$QAV?$tuple@$$$V@1@@Z 1001c580 f i fms_config.obj
 0001:0001b5c0       ??$destroy@PAU?$_Tree_node@U?$pair@$$CBHPAVobject_t@@@std@@PAX@std@@@?$allocator_traits@V?$allocator@U?$_Tree_node@U?$pair@$$CBHPAVobject_t@@@std@@PAX@std@@@std@@@std@@SAXAAV?$allocator@U?$_Tree_node@U?$pair@$$CBHPAVobject_t@@@std@@PAX@std@@@1@PAPAU?$_Tree_node@U?$pair@$$CBHPAVobject_t@@@std@@PAX@1@@Z 1001c5c0 f i mfdpage.obj
 0001:0001b5c0       ??$destroy@PAU?$_Tree_node@U?$pair@$$CBV?$basic_string@DU?$char_traits@D@std@@V?$allocator@D@2@@std@@V12@@std@@PAX@std@@@?$allocator_traits@V?$allocator@U?$_Tree_node@U?$pair@$$CBV?$basic_string@DU?$char_traits@D@std@@V?$allocator@D@2@@std@@V12@@std@@PAX@std@@@std@@@std@@SAXAAV?$allocator@U?$_Tree_node@U?$pair@$$CBV?$basic_string@DU?$char_traits@D@std@@V?$allocator@D@2@@std@@V12@@std@@PAX@std@@@1@PAPAU?$_Tree_node@U?$pair@$$CBV?$basic_string@DU?$char_traits@D@std@@V?$allocator@D@2@@std@@V12@@std@@PAX@1@@Z 1001c5c0 f i tools.obj
 0001:0001b5c0       ??$destroy@PAU?$_Tree_node@U?$pair@$$CBV?$basic_string@DU?$char_traits@D@std@@V?$allocator@D@2@@std@@H@std@@PAX@std@@@?$allocator_traits@V?$allocator@U?$_Tree_node@U?$pair@$$CBV?$basic_string@DU?$char_traits@D@std@@V?$allocator@D@2@@std@@H@std@@PAX@std@@@std@@@std@@SAXAAV?$allocator@U?$_Tree_node@U?$pair@$$CBV?$basic_string@DU?$char_traits@D@std@@V?$allocator@D@2@@std@@H@std@@PAX@std@@@1@PAPAU?$_Tree_node@U?$pair@$$CBV?$basic_string@DU?$char_traits@D@std@@V?$allocator@D@2@@std@@H@std@@PAX@1@@Z 1001c5c0 f i mfdpage.obj
 0001:0001b5c0       ??$destroy@PAU?$_Tree_node@U?$pair@$$CBV?$basic_string@DU?$char_traits@D@std@@V?$allocator@D@2@@std@@PAVfms_fp_item_t@@@std@@PAX@std@@@?$allocator_traits@V?$allocator@U?$_Tree_node@U?$pair@$$CBV?$basic_string@DU?$char_traits@D@std@@V?$allocator@D@2@@std@@PAVfms_fp_item_t@@@std@@PAX@std@@@std@@@std@@SAXAAV?$allocator@U?$_Tree_node@U?$pair@$$CBV?$basic_string@DU?$char_traits@D@std@@V?$allocator@D@2@@std@@PAVfms_fp_item_t@@@std@@PAX@std@@@1@PAPAU?$_Tree_node@U?$pair@$$CBV?$basic_string@DU?$char_traits@D@std@@V?$allocator@D@2@@std@@PAVfms_fp_item_t@@@std@@PAX@1@@Z 1001c5c0 f i fms_fp.obj
 0001:0001b5c0       ??$destroy@PAVmfdpage_t@@@?$allocator_traits@V?$allocator@U?$_Tree_node@PAVmfdpage_t@@PAX@std@@@std@@@std@@SAXAAV?$allocator@U?$_Tree_node@PAVmfdpage_t@@PAX@std@@@1@PAPAVmfdpage_t@@@Z 1001c5c0 f i in.obj
 0001:0001b5c0       ??$destroy@PAU?$_Tree_node@U?$pair@$$CBHV?$basic_string@DU?$char_traits@D@std@@V?$allocator@D@2@@std@@@std@@PAX@std@@@?$allocator_traits@V?$allocator@U?$_Tree_node@U?$pair@$$CBHV?$basic_string@DU?$char_traits@D@std@@V?$allocator@D@2@@std@@@std@@PAX@std@@@std@@@std@@SAXAAV?$allocator@U?$_Tree_node@U?$pair@$$CBHV?$basic_string@DU?$char_traits@D@std@@V?$allocator@D@2@@std@@@std@@PAX@std@@@1@PAPAU?$_Tree_node@U?$pair@$$CBHV?$basic_string@DU?$char_traits@D@std@@V?$allocator@D@2@@std@@@std@@PAX@1@@Z 1001c5c0 f i out_saitek.obj
 0001:0001b5c0       ??$destroy@PAU?$_Tree_node@U?$pair@$$CBV?$basic_string@DU?$char_traits@D@std@@V?$allocator@D@2@@std@@D@std@@PAX@std@@@?$allocator_traits@V?$allocator@U?$_Tree_node@U?$pair@$$CBV?$basic_string@DU?$char_traits@D@std@@V?$allocator@D@2@@std@@D@std@@PAX@std@@@std@@@std@@SAXAAV?$allocator@U?$_Tree_node@U?$pair@$$CBV?$basic_string@DU?$char_traits@D@std@@V?$allocator@D@2@@std@@D@std@@PAX@std@@@1@PAPAU?$_Tree_node@U?$pair@$$CBV?$basic_string@DU?$char_traits@D@std@@V?$allocator@D@2@@std@@D@std@@PAX@1@@Z 1001c5c0 f i mfdpage.obj
 0001:0001b5c0       ??$destroy@PAU?$_Tree_node@PAVlistener_t@@PAX@std@@@?$allocator_traits@V?$allocator@U?$_Tree_node@PAVlistener_t@@PAX@std@@@std@@@std@@SAXAAV?$allocator@U?$_Tree_node@PAVlistener_t@@PAX@std@@@1@PAPAU?$_Tree_node@PAVlistener_t@@PAX@1@@Z 1001c5c0 f i data.obj
 0001:0001b5c0       ??$destroy@PAU?$_Tree_node@PAVobject_t@@PAX@std@@@?$allocator_traits@V?$allocator@U?$_Tree_node@PAVobject_t@@PAX@std@@@std@@@std@@SAXAAV?$allocator@U?$_Tree_node@PAVobject_t@@PAX@std@@@1@PAPAU?$_Tree_node@PAVobject_t@@PAX@1@@Z 1001c5c0 f i data.obj
 0001:0001b5c0       ??$destroy@PAU?$_Tree_node@U?$pair@$$CBV?$basic_string@DU?$char_traits@D@std@@V?$allocator@D@2@@std@@M@std@@PAX@std@@@?$allocator_traits@V?$allocator@U?$_Tree_node@U?$pair@$$CBV?$basic_string@DU?$char_traits@D@std@@V?$allocator@D@2@@std@@M@std@@PAX@std@@@std@@@std@@SAXAAV?$allocator@U?$_Tree_node@U?$pair@$$CBV?$basic_string@DU?$char_traits@D@std@@V?$allocator@D@2@@std@@M@std@@PAX@std@@@1@PAPAU?$_Tree_node@U?$pair@$$CBV?$basic_string@DU?$char_traits@D@std@@V?$allocator@D@2@@std@@M@std@@PAX@1@@Z 1001c5c0 f i mfdpage_fms.obj
 0001:0001b5c0       ??$destroy@PAVobject_t@@@?$allocator_traits@V?$allocator@U?$_Tree_node@PAVobject_t@@PAX@std@@@std@@@std@@SAXAAV?$allocator@U?$_Tree_node@PAVobject_t@@PAX@std@@@1@PAPAVobject_t@@@Z 1001c5c0 f i data.obj
 0001:0001b5c0       ??$destroy@U?$pair@$$CBHPAVobject_t@@@std@@@?$allocator_traits@V?$allocator@U?$_Tree_node@U?$pair@$$CBHPAVobject_t@@@std@@PAX@std@@@std@@@std@@SAXAAV?$allocator@U?$_Tree_node@U?$pair@$$CBHPAVobject_t@@@std@@PAX@std@@@1@PAU?$pair@$$CBHPAVobject_t@@@1@@Z 1001c5c0 f i mfdpage.obj
 0001:0001b5c0       ??$destroy@PAU?$_Tree_node@U?$pair@$$CBHPAVfms_fp_item_t@@@std@@PAX@std@@@?$allocator_traits@V?$allocator@U?$_Tree_node@U?$pair@$$CBHPAVfms_fp_item_t@@@std@@PAX@std@@@std@@@std@@SAXAAV?$allocator@U?$_Tree_node@U?$pair@$$CBHPAVfms_fp_item_t@@@std@@PAX@std@@@1@PAPAU?$_Tree_node@U?$pair@$$CBHPAVfms_fp_item_t@@@std@@PAX@1@@Z 1001c5c0 f i mfdpage_fms.obj
 0001:0001b5c0       ??$destroy@PAD@?$allocator_traits@V?$allocator@D@std@@@std@@SAXAAV?$allocator@D@1@PAPAD@Z 1001c5c0 f i main.obj
 0001:0001b5c0       ??$destroy@U?$pair@$$CBHPAVfms_fp_item_t@@@std@@@?$allocator_traits@V?$allocator@U?$_Tree_node@U?$pair@$$CBHPAVfms_fp_item_t@@@std@@PAX@std@@@std@@@std@@SAXAAV?$allocator@U?$_Tree_node@U?$pair@$$CBHPAVfms_fp_item_t@@@std@@PAX@std@@@1@PAU?$pair@$$CBHPAVfms_fp_item_t@@@1@@Z 1001c5c0 f i mfdpage_fms.obj
 0001:0001b5c0       ??$destroy@PAU?$_Tree_node@U?$pair@$$CBV?$basic_string@DU?$char_traits@D@std@@V?$allocator@D@2@@std@@PAVfms_config_item_t@@@std@@PAX@std@@@?$allocator_traits@V?$allocator@U?$_Tree_node@U?$pair@$$CBV?$basic_string@DU?$char_traits@D@std@@V?$allocator@D@2@@std@@PAVfms_config_item_t@@@std@@PAX@std@@@std@@@std@@SAXAAV?$allocator@U?$_Tree_node@U?$pair@$$CBV?$basic_string@DU?$char_traits@D@std@@V?$allocator@D@2@@std@@PAVfms_config_item_t@@@std@@PAX@std@@@1@PAPAU?$_Tree_node@U?$pair@$$CBV?$basic_string@DU?$char_traits@D@std@@V?$allocator@D@2@@std@@PAVfms_config_item_t@@@std@@PAX@1@@Z 1001c5c0 f i fms_config.obj
 0001:0001b5c0       ??$destroy@PAU?$_Tree_node@U?$pair@$$CBHM@std@@PAX@std@@@?$allocator_traits@V?$allocator@U?$_Tree_node@U?$pair@$$CBHM@std@@PAX@std@@@std@@@std@@SAXAAV?$allocator@U?$_Tree_node@U?$pair@$$CBHM@std@@PAX@std@@@1@PAPAU?$_Tree_node@U?$pair@$$CBHM@std@@PAX@1@@Z 1001c5c0 f i fms_config.obj
 0001:0001b5c0       ??$destroy@U?$pair@$$CBHM@std@@@?$allocator_traits@V?$allocator@U?$_Tree_node@U?$pair@$$CBHM@std@@PAX@std@@@std@@@std@@SAXAAV?$allocator@U?$_Tree_node@U?$pair@$$CBHM@std@@PAX@std@@@1@PAU?$pair@$$CBHM@1@@Z 1001c5c0 f i fms_config.obj
 0001:0001b5c0       ??$destroy@PAU?$_Tree_node@PAVmfdpage_t@@PAX@std@@@?$allocator_traits@V?$allocator@U?$_Tree_node@PAVmfdpage_t@@PAX@std@@@std@@@std@@SAXAAV?$allocator@U?$_Tree_node@PAVmfdpage_t@@PAX@std@@@1@PAPAU?$_Tree_node@PAVmfdpage_t@@PAX@1@@Z 1001c5c0 f i in.obj
 0001:0001b5c0       ??$destroy@PAVlistener_t@@@?$allocator_traits@V?$allocator@U?$_Tree_node@PAVlistener_t@@PAX@std@@@std@@@std@@SAXAAV?$allocator@U?$_Tree_node@PAVlistener_t@@PAX@std@@@1@PAPAVlistener_t@@@Z 1001c5c0 f i data.obj
 0001:0001b5e0       ??$emplace_hint@ABUpiecewise_construct_t@std@@V?$tuple@ABH@2@V?$tuple@$$$V@2@@?$_Tree@V?$_Tmap_traits@HMU?$less@H@std@@V?$allocator@U?$pair@$$CBHM@std@@@2@$0A@@std@@@std@@QAE?AV?$_Tree_iterator@V?$_Tree_val@U?$_Tree_simple_types@U?$pair@$$CBHM@std@@@std@@@std@@@1@V?$_Tree_const_iterator@V?$_Tree_val@U?$_Tree_simple_types@U?$pair@$$CBHM@std@@@std@@@std@@@1@ABUpiecewise_construct_t@1@$$QAV?$tuple@ABH@1@$$QAV?$tuple@$$$V@1@@Z 1001c5e0 f i fms_config.obj
 0001:0001b650       ??$emplace_hint@ABUpiecewise_construct_t@std@@V?$tuple@ABV?$basic_string@DU?$char_traits@D@std@@V?$allocator@D@2@@std@@@2@V?$tuple@$$$V@2@@?$_Tree@V?$_Tmap_traits@V?$basic_string@DU?$char_traits@D@std@@V?$allocator@D@2@@std@@PAVfms_fp_item_t@@U?$less@V?$basic_string@DU?$char_traits@D@std@@V?$allocator@D@2@@std@@@2@V?$allocator@U?$pair@$$CBV?$basic_string@DU?$char_traits@D@std@@V?$allocator@D@2@@std@@PAVfms_fp_item_t@@@std@@@2@$0A@@std@@@std@@QAE?AV?$_Tree_iterator@V?$_Tree_val@U?$_Tree_simple_types@U?$pair@$$CBV?$basic_string@DU?$char_traits@D@std@@V?$allocator@D@2@@std@@PAVfms_fp_item_t@@@std@@@std@@@std@@@1@V?$_Tree_const_iterator@V?$_Tree_val@U?$_Tree_simple_types@U?$pair@$$CBV?$basic_string@DU?$char_traits@D@std@@V?$allocator@D@2@@std@@PAVfms_fp_item_t@@@std@@@std@@@std@@@1@ABUpiecewise_construct_t@1@$$QAV?$tuple@ABV?$basic_string@DU?$char_traits@D@std@@V?$allocator@D@2@@std@@@1@$$QAV?$tuple@$$$V@1@@Z 1001c650 f i fms_fp.obj
 0001:0001b650       ??$emplace_hint@ABUpiecewise_construct_t@std@@V?$tuple@ABV?$basic_string@DU?$char_traits@D@std@@V?$allocator@D@2@@std@@@2@V?$tuple@$$$V@2@@?$_Tree@V?$_Tmap_traits@V?$basic_string@DU?$char_traits@D@std@@V?$allocator@D@2@@std@@PAVfms_config_item_t@@U?$less@V?$basic_string@DU?$char_traits@D@std@@V?$allocator@D@2@@std@@@2@V?$allocator@U?$pair@$$CBV?$basic_string@DU?$char_traits@D@std@@V?$allocator@D@2@@std@@PAVfms_config_item_t@@@std@@@2@$0A@@std@@@std@@QAE?AV?$_Tree_iterator@V?$_Tree_val@U?$_Tree_simple_types@U?$pair@$$CBV?$basic_string@DU?$char_traits@D@std@@V?$allocator@D@2@@std@@PAVfms_config_item_t@@@std@@@std@@@std@@@1@V?$_Tree_const_iterator@V?$_Tree_val@U?$_Tree_simple_types@U?$pair@$$CBV?$basic_string@DU?$char_traits@D@std@@V?$allocator@D@2@@std@@PAVfms_config_item_t@@@std@@@std@@@std@@@1@ABUpiecewise_construct_t@1@$$QAV?$tuple@ABV?$basic_string@DU?$char_traits@D@std@@V?$allocator@D@2@@std@@@1@$$QAV?$tuple@$$$V@1@@Z 1001c650 f i fms_config.obj
 0001:0001b6c0       ??0?$_Tree@V?$_Tmap_traits@HPAVobject_t@@U?$less@H@std@@V?$allocator@U?$pair@$$CBHPAVobject_t@@@std@@@3@$0A@@std@@@std@@QAE@ABU?$less@H@1@ABV?$allocator@U?$pair@$$CBHPAVobject_t@@@std@@@1@@Z 1001c6c0 f i mfdpage.obj
 0001:0001b6c0       ??0?$_Tree@V?$_Tmap_traits@HPAVfms_fp_item_t@@U?$less@H@std@@V?$allocator@U?$pair@$$CBHPAVfms_fp_item_t@@@std@@@3@$0A@@std@@@std@@QAE@ABU?$less@H@1@ABV?$allocator@U?$pair@$$CBHPAVfms_fp_item_t@@@std@@@1@@Z 1001c6c0 f i fms_fp.obj
 0001:0001b6c0       ??0?$_Tree@V?$_Tmap_traits@HMU?$less@H@std@@V?$allocator@U?$pair@$$CBHM@std@@@2@$0A@@std@@@std@@QAE@ABU?$less@H@1@ABV?$allocator@U?$pair@$$CBHM@std@@@1@@Z 1001c6c0 f i fms_config.obj
 0001:0001b6e0       ??0?$_Tree@V?$_Tmap_traits@V?$basic_string@DU?$char_traits@D@std@@V?$allocator@D@2@@std@@DU?$less@V?$basic_string@DU?$char_traits@D@std@@V?$allocator@D@2@@std@@@2@V?$allocator@U?$pair@$$CBV?$basic_string@DU?$char_traits@D@std@@V?$allocator@D@2@@std@@D@std@@@2@$0A@@std@@@std@@QAE@ABU?$less@V?$basic_string@DU?$char_traits@D@std@@V?$allocator@D@2@@std@@@1@ABV?$allocator@U?$pair@$$CBV?$basic_string@DU?$char_traits@D@std@@V?$allocator@D@2@@std@@D@std@@@1@@Z 1001c6e0 f i mfdpage_fms.obj
 0001:0001b6e0       ??0?$_Tree@V?$_Tmap_traits@HV?$basic_string@DU?$char_traits@D@std@@V?$allocator@D@2@@std@@U?$less@H@2@V?$allocator@U?$pair@$$CBHV?$basic_string@DU?$char_traits@D@std@@V?$allocator@D@2@@std@@@std@@@2@$0A@@std@@@std@@QAE@ABU?$less@H@1@ABV?$allocator@U?$pair@$$CBHV?$basic_string@DU?$char_traits@D@std@@V?$allocator@D@2@@std@@@std@@@1@@Z 1001c6e0 f i out_saitek.obj
 0001:0001b6e0       ??0?$_Tree@V?$_Tmap_traits@V?$basic_string@DU?$char_traits@D@std@@V?$allocator@D@2@@std@@PAVfms_config_item_t@@U?$less@V?$basic_string@DU?$char_traits@D@std@@V?$allocator@D@2@@std@@@2@V?$allocator@U?$pair@$$CBV?$basic_string@DU?$char_traits@D@std@@V?$allocator@D@2@@std@@PAVfms_config_item_t@@@std@@@2@$0A@@std@@@std@@QAE@ABU?$less@V?$basic_string@DU?$char_traits@D@std@@V?$allocator@D@2@@std@@@1@ABV?$allocator@U?$pair@$$CBV?$basic_string@DU?$char_traits@D@std@@V?$allocator@D@2@@std@@PAVfms_config_item_t@@@std@@@1@@Z 1001c6e0 f i fms_config.obj
 0001:0001b6e0       ??0?$_Tree@V?$_Tmap_traits@V?$basic_string@DU?$char_traits@D@std@@V?$allocator@D@2@@std@@PAVfms_fp_item_t@@U?$less@V?$basic_string@DU?$char_traits@D@std@@V?$allocator@D@2@@std@@@2@V?$allocator@U?$pair@$$CBV?$basic_string@DU?$char_traits@D@std@@V?$allocator@D@2@@std@@PAVfms_fp_item_t@@@std@@@2@$0A@@std@@@std@@QAE@ABU?$less@V?$basic_string@DU?$char_traits@D@std@@V?$allocator@D@2@@std@@@1@ABV?$allocator@U?$pair@$$CBV?$basic_string@DU?$char_traits@D@std@@V?$allocator@D@2@@std@@PAVfms_fp_item_t@@@std@@@1@@Z 1001c6e0 f i fms_fp.obj
 0001:0001b6e0       ??0?$_Tree@V?$_Tmap_traits@V?$basic_string@DU?$char_traits@D@std@@V?$allocator@D@2@@std@@HU?$less@V?$basic_string@DU?$char_traits@D@std@@V?$allocator@D@2@@std@@@2@V?$allocator@U?$pair@$$CBV?$basic_string@DU?$char_traits@D@std@@V?$allocator@D@2@@std@@H@std@@@2@$0A@@std@@@std@@QAE@ABU?$less@V?$basic_string@DU?$char_traits@D@std@@V?$allocator@D@2@@std@@@1@ABV?$allocator@U?$pair@$$CBV?$basic_string@DU?$char_traits@D@std@@V?$allocator@D@2@@std@@H@std@@@1@@Z 1001c6e0 f i mfdpage.obj
 0001:0001b6e0       ??0?$_Tree@V?$_Tmap_traits@V?$basic_string@DU?$char_traits@D@std@@V?$allocator@D@2@@std@@MU?$less@V?$basic_string@DU?$char_traits@D@std@@V?$allocator@D@2@@std@@@2@V?$allocator@U?$pair@$$CBV?$basic_string@DU?$char_traits@D@std@@V?$allocator@D@2@@std@@M@std@@@2@$0A@@std@@@std@@QAE@ABU?$less@V?$basic_string@DU?$char_traits@D@std@@V?$allocator@D@2@@std@@@1@ABV?$allocator@U?$pair@$$CBV?$basic_string@DU?$char_traits@D@std@@V?$allocator@D@2@@std@@M@std@@@1@@Z 1001c6e0 f i fms_config.obj
 0001:0001b700       ??1?$_Tree_comp@$0A@V?$_Tset_traits@PAVobject_t@@U?$less@PAVobject_t@@@std@@V?$allocator@PAVobject_t@@@3@$0A@@std@@@std@@QAE@XZ 1001c700 f i data.obj
 0001:0001b700       ??1?$_Tree_comp@$0A@V?$_Tmap_traits@HPAVfms_fp_item_t@@U?$less@H@std@@V?$allocator@U?$pair@$$CBHPAVfms_fp_item_t@@@std@@@3@$0A@@std@@@std@@QAE@XZ 1001c700 f i fms_fp.obj
 0001:0001b700       ??1?$_Tree_comp@$0A@V?$_Tmap_traits@HV?$basic_string@DU?$char_traits@D@std@@V?$allocator@D@2@@std@@U?$less@H@2@V?$allocator@U?$pair@$$CBHV?$basic_string@DU?$char_traits@D@std@@V?$allocator@D@2@@std@@@std@@@2@$0A@@std@@@std@@QAE@XZ 1001c700 f i mfdpage.obj
 0001:0001b700       ??1?$_Tree_comp@$0A@V?$_Tmap_traits@V?$basic_string@DU?$char_traits@D@std@@V?$allocator@D@2@@std@@HU?$less@V?$basic_string@DU?$char_traits@D@std@@V?$allocator@D@2@@std@@@2@V?$allocator@U?$pair@$$CBV?$basic_string@DU?$char_traits@D@std@@V?$allocator@D@2@@std@@H@std@@@2@$0A@@std@@@std@@QAE@XZ 1001c700 f i mfdpage.obj
 0001:0001b700       ??1?$_Tree_comp@$0A@V?$_Tset_traits@PAVlistener_t@@U?$less@PAVlistener_t@@@std@@V?$allocator@PAVlistener_t@@@3@$0A@@std@@@std@@QAE@XZ 1001c700 f i data.obj
 0001:0001b700       ??1?$_Tree_comp@$0A@V?$_Tset_traits@PAVmfdpage_t@@U?$less@PAVmfdpage_t@@@std@@V?$allocator@PAVmfdpage_t@@@3@$0A@@std@@@std@@QAE@XZ 1001c700 f i in.obj
 0001:0001b700       ??1?$_Tree_comp@$0A@V?$_Tmap_traits@V?$basic_string@DU?$char_traits@D@std@@V?$allocator@D@2@@std@@V12@U?$less@V?$basic_string@DU?$char_traits@D@std@@V?$allocator@D@2@@std@@@2@V?$allocator@U?$pair@$$CBV?$basic_string@DU?$char_traits@D@std@@V?$allocator@D@2@@std@@V12@@std@@@2@$0A@@std@@@std@@QAE@XZ 1001c700 f i tools.obj
 0001:0001b700       ??1?$_Tree_comp@$0A@V?$_Tmap_traits@V?$basic_string@DU?$char_traits@D@std@@V?$allocator@D@2@@std@@PAVfms_config_item_t@@U?$less@V?$basic_string@DU?$char_traits@D@std@@V?$allocator@D@2@@std@@@2@V?$allocator@U?$pair@$$CBV?$basic_string@DU?$char_traits@D@std@@V?$allocator@D@2@@std@@PAVfms_config_item_t@@@std@@@2@$0A@@std@@@std@@QAE@XZ 1001c700 f i fms_config.obj
 0001:0001b700       ??1?$_Tree_comp@$0A@V?$_Tmap_traits@V?$basic_string@DU?$char_traits@D@std@@V?$allocator@D@2@@std@@MU?$less@V?$basic_string@DU?$char_traits@D@std@@V?$allocator@D@2@@std@@@2@V?$allocator@U?$pair@$$CBV?$basic_string@DU?$char_traits@D@std@@V?$allocator@D@2@@std@@M@std@@@2@$0A@@std@@@std@@QAE@XZ 1001c700 f i fms_config.obj
 0001:0001b700       ??1?$_Tree_comp@$0A@V?$_Tmap_traits@HPAVobject_t@@U?$less@H@std@@V?$allocator@U?$pair@$$CBHPAVobject_t@@@std@@@3@$0A@@std@@@std@@QAE@XZ 1001c700 f i mfdpage.obj
 0001:0001b700       ??1?$_Tree_comp@$0A@V?$_Tmap_traits@V?$basic_string@DU?$char_traits@D@std@@V?$allocator@D@2@@std@@PAVfms_fp_item_t@@U?$less@V?$basic_string@DU?$char_traits@D@std@@V?$allocator@D@2@@std@@@2@V?$allocator@U?$pair@$$CBV?$basic_string@DU?$char_traits@D@std@@V?$allocator@D@2@@std@@PAVfms_fp_item_t@@@std@@@2@$0A@@std@@@std@@QAE@XZ 1001c700 f i fms_fp.obj
 0001:0001b720       ??9?$_Tree_const_iterator@V?$_Tree_val@U?$_Tree_simple_types@PAVlistener_t@@@std@@@std@@@std@@QBE_NABV01@@Z 1001c720 f i data.obj
 0001:0001b720       ??9?$_Tree_const_iterator@V?$_Tree_val@U?$_Tree_simple_types@U?$pair@$$CBHPAVfms_fp_item_t@@@std@@@std@@@std@@@std@@QBE_NABV01@@Z 1001c720 f i fms_fp.obj
 0001:0001b720       ??9?$_Tree_const_iterator@V?$_Tree_val@U?$_Tree_simple_types@U?$pair@$$CBHM@std@@@std@@@std@@@std@@QBE_NABV01@@Z 1001c720 f i fms_config.obj
 0001:0001b720       ??9?$_Tree_const_iterator@V?$_Tree_val@U?$_Tree_simple_types@U?$pair@$$CBV?$basic_string@DU?$char_traits@D@std@@V?$allocator@D@2@@std@@PAVfms_config_item_t@@@std@@@std@@@std@@@std@@QBE_NABV01@@Z 1001c720 f i fms_config.obj
 0001:0001b720       ??9?$_Tree_const_iterator@V?$_Tree_val@U?$_Tree_simple_types@U?$pair@$$CBV?$basic_string@DU?$char_traits@D@std@@V?$allocator@D@2@@std@@H@std@@@std@@@std@@@std@@QBE_NABV01@@Z 1001c720 f i mfdpage.obj
 0001:0001b720       ??9?$_Tree_const_iterator@V?$_Tree_val@U?$_Tree_simple_types@U?$pair@$$CBHV?$basic_string@DU?$char_traits@D@std@@V?$allocator@D@2@@std@@@std@@@std@@@std@@@std@@QBE_NABV01@@Z 1001c720 f i mfdpage.obj
 0001:0001b720       ??9?$_Tree_const_iterator@V?$_Tree_val@U?$_Tree_simple_types@U?$pair@$$CBV?$basic_string@DU?$char_traits@D@std@@V?$allocator@D@2@@std@@M@std@@@std@@@std@@@std@@QBE_NABV01@@Z 1001c720 f i fms_config.obj
 0001:0001b720       ??9?$_Tree_const_iterator@V?$_Tree_val@U?$_Tree_simple_types@U?$pair@$$CBV?$basic_string@DU?$char_traits@D@std@@V?$allocator@D@2@@std@@V12@@std@@@std@@@std@@@std@@QBE_NABV01@@Z 1001c720 f i tools.obj
 0001:0001b720       ??9?$_Tree_const_iterator@V?$_Tree_val@U?$_Tree_simple_types@U?$pair@$$CBHPAVobject_t@@@std@@@std@@@std@@@std@@QBE_NABV01@@Z 1001c720 f i mfdpage.obj
 0001:0001b720       ??9?$_Tree_const_iterator@V?$_Tree_val@U?$_Tree_simple_types@U?$pair@$$CBV?$basic_string@DU?$char_traits@D@std@@V?$allocator@D@2@@std@@PAVfms_fp_item_t@@@std@@@std@@@std@@@std@@QBE_NABV01@@Z 1001c720 f i fms_fp.obj
 0001:0001b720       ??9?$_Tree_const_iterator@V?$_Tree_val@U?$_Tree_simple_types@PAVobject_t@@@std@@@std@@@std@@QBE_NABV01@@Z 1001c720 f i data.obj
 0001:0001b720       ??9?$_Tree_const_iterator@V?$_Tree_val@U?$_Tree_simple_types@PAVmfdpage_t@@@std@@@std@@@std@@QBE_NABV01@@Z 1001c720 f i in.obj
 0001:0001b760       ??A?$map@HMU?$less@H@std@@V?$allocator@U?$pair@$$CBHM@std@@@2@@std@@QAEAAMABH@Z 1001c760 f i fms_config.obj
 0001:0001b810       ??A?$map@V?$basic_string@DU?$char_traits@D@std@@V?$allocator@D@2@@std@@PAVfms_config_item_t@@U?$less@V?$basic_string@DU?$char_traits@D@std@@V?$allocator@D@2@@std@@@2@V?$allocator@U?$pair@$$CBV?$basic_string@DU?$char_traits@D@std@@V?$allocator@D@2@@std@@PAVfms_config_item_t@@@std@@@2@@std@@QAEAAPAVfms_config_item_t@@ABV?$basic_string@DU?$char_traits@D@std@@V?$allocator@D@2@@1@@Z 1001c810 f i fms_config.obj
 0001:0001b8c0       ??D?$_Tree_iterator@V?$_Tree_val@U?$_Tree_simple_types@U?$pair@$$CBHM@std@@@std@@@std@@@std@@QBEAAU?$pair@$$CBHM@1@XZ 1001c8c0 f i fms_config.obj
 0001:0001b8c0       ??D?$_Tree_iterator@V?$_Tree_val@U?$_Tree_simple_types@U?$pair@$$CBV?$basic_string@DU?$char_traits@D@std@@V?$allocator@D@2@@std@@PAVfms_config_item_t@@@std@@@std@@@std@@@std@@QBEAAU?$pair@$$CBV?$basic_string@DU?$char_traits@D@std@@V?$allocator@D@2@@std@@PAVfms_config_item_t@@@1@XZ 1001c8c0 f i fms_config.obj
 0001:0001b8c0       ??D?$_Tree_iterator@V?$_Tree_val@U?$_Tree_simple_types@U?$pair@$$CBHV?$basic_string@DU?$char_traits@D@std@@V?$allocator@D@2@@std@@@std@@@std@@@std@@@std@@QBEAAU?$pair@$$CBHV?$basic_string@DU?$char_traits@D@std@@V?$allocator@D@2@@std@@@1@XZ 1001c8c0 f i out_saitek.obj
 0001:0001b8c0       ??D?$_Tree_iterator@V?$_Tree_val@U?$_Tree_simple_types@U?$pair@$$CBV?$basic_string@DU?$char_traits@D@std@@V?$allocator@D@2@@std@@M@std@@@std@@@std@@@std@@QBEAAU?$pair@$$CBV?$basic_string@DU?$char_traits@D@std@@V?$allocator@D@2@@std@@M@1@XZ 1001c8c0 f i mfdpage_fms.obj
 0001:0001b8c0       ??D?$_Tree_iterator@V?$_Tree_val@U?$_Tree_simple_types@U?$pair@$$CBHPAVobject_t@@@std@@@std@@@std@@@std@@QBEAAU?$pair@$$CBHPAVobject_t@@@1@XZ 1001c8c0 f i mfdpage.obj
 0001:0001b8c0       ??D?$_Tree_iterator@V?$_Tree_val@U?$_Tree_simple_types@U?$pair@$$CBV?$basic_string@DU?$char_traits@D@std@@V?$allocator@D@2@@std@@PAVfms_fp_item_t@@@std@@@std@@@std@@@std@@QBEAAU?$pair@$$CBV?$basic_string@DU?$char_traits@D@std@@V?$allocator@D@2@@std@@PAVfms_fp_item_t@@@1@XZ 1001c8c0 f i fms_fp.obj
 0001:0001b8c0       ??D?$_Tree_iterator@V?$_Tree_val@U?$_Tree_simple_types@U?$pair@$$CBV?$basic_string@DU?$char_traits@D@std@@V?$allocator@D@2@@std@@H@std@@@std@@@std@@@std@@QBEAAU?$pair@$$CBV?$basic_string@DU?$char_traits@D@std@@V?$allocator@D@2@@std@@H@1@XZ 1001c8c0 f i mfdpage.obj
 0001:0001b8c0       ??D?$_Tree_iterator@V?$_Tree_val@U?$_Tree_simple_types@U?$pair@$$CBV?$basic_string@DU?$char_traits@D@std@@V?$allocator@D@2@@std@@D@std@@@std@@@std@@@std@@QBEAAU?$pair@$$CBV?$basic_string@DU?$char_traits@D@std@@V?$allocator@D@2@@std@@D@1@XZ 1001c8c0 f i mfdpage.obj
 0001:0001b8c0       ??D?$_Tree_iterator@V?$_Tree_val@U?$_Tree_simple_types@U?$pair@$$CBHPAVfms_fp_item_t@@@std@@@std@@@std@@@std@@QBEAAU?$pair@$$CBHPAVfms_fp_item_t@@@1@XZ 1001c8c0 f i mfdpage_fms.obj
 0001:0001b8c0       ??D?$_Tree_iterator@V?$_Tree_val@U?$_Tree_simple_types@U?$pair@$$CBV?$basic_string@DU?$char_traits@D@std@@V?$allocator@D@2@@std@@V12@@std@@@std@@@std@@@std@@QBEAAU?$pair@$$CBV?$basic_string@DU?$char_traits@D@std@@V?$allocator@D@2@@std@@V12@@1@XZ 1001c8c0 f i tools.obj
 0001:0001b8e0       ??E?$_Tree_const_iterator@V?$_Tree_val@U?$_Tree_simple_types@PAVlistener_t@@@std@@@std@@@std@@QAE?AV01@H@Z 1001c8e0 f i data.obj
 0001:0001b8e0       ??E?$_Tree_const_iterator@V?$_Tree_val@U?$_Tree_simple_types@U?$pair@$$CBHPAVfms_fp_item_t@@@std@@@std@@@std@@@std@@QAE?AV01@H@Z 1001c8e0 f i fms_fp.obj
 0001:0001b8e0       ??E?$_Tree_const_iterator@V?$_Tree_val@U?$_Tree_simple_types@U?$pair@$$CBV?$basic_string@DU?$char_traits@D@std@@V?$allocator@D@2@@std@@V12@@std@@@std@@@std@@@std@@QAE?AV01@H@Z 1001c8e0 f i tools.obj
 0001:0001b8e0       ??E?$_Tree_const_iterator@V?$_Tree_val@U?$_Tree_simple_types@U?$pair@$$CBHPAVobject_t@@@std@@@std@@@std@@@std@@QAE?AV01@H@Z 1001c8e0 f i mfdpage.obj
 0001:0001b8e0       ??E?$_Tree_const_iterator@V?$_Tree_val@U?$_Tree_simple_types@U?$pair@$$CBV?$basic_string@DU?$char_traits@D@std@@V?$allocator@D@2@@std@@H@std@@@std@@@std@@@std@@QAE?AV01@H@Z 1001c8e0 f i mfdpage.obj
 0001:0001b8e0       ??E?$_Tree_const_iterator@V?$_Tree_val@U?$_Tree_simple_types@PAVobject_t@@@std@@@std@@@std@@QAE?AV01@H@Z 1001c8e0 f i data.obj
 0001:0001b8e0       ??E?$_Tree_const_iterator@V?$_Tree_val@U?$_Tree_simple_types@PAVmfdpage_t@@@std@@@std@@@std@@QAE?AV01@H@Z 1001c8e0 f i in.obj
 0001:0001b8e0       ??E?$_Tree_const_iterator@V?$_Tree_val@U?$_Tree_simple_types@U?$pair@$$CBV?$basic_string@DU?$char_traits@D@std@@V?$allocator@D@2@@std@@PAVfms_fp_item_t@@@std@@@std@@@std@@@std@@QAE?AV01@H@Z 1001c8e0 f i fms_fp.obj
 0001:0001b8e0       ??E?$_Tree_const_iterator@V?$_Tree_val@U?$_Tree_simple_types@U?$pair@$$CBV?$basic_string@DU?$char_traits@D@std@@V?$allocator@D@2@@std@@M@std@@@std@@@std@@@std@@QAE?AV01@H@Z 1001c8e0 f i fms_config.obj
 0001:0001b8e0       ??E?$_Tree_const_iterator@V?$_Tree_val@U?$_Tree_simple_types@U?$pair@$$CBV?$basic_string@DU?$char_traits@D@std@@V?$allocator@D@2@@std@@PAVfms_config_item_t@@@std@@@std@@@std@@@std@@QAE?AV01@H@Z 1001c8e0 f i fms_config.obj
 0001:0001b8e0       ??E?$_Tree_const_iterator@V?$_Tree_val@U?$_Tree_simple_types@U?$pair@$$CBHV?$basic_string@DU?$char_traits@D@std@@V?$allocator@D@2@@std@@@std@@@std@@@std@@@std@@QAE?AV01@H@Z 1001c8e0 f i mfdpage.obj
 0001:0001b910       ?_Getal@?$_Tree_alloc@$0A@U?$_Tree_base_types@U?$pair@$$CBV?$basic_string@DU?$char_traits@D@std@@V?$allocator@D@2@@std@@M@std@@V?$allocator@U?$pair@$$CBV?$basic_string@DU?$char_traits@D@std@@V?$allocator@D@2@@std@@M@std@@@2@@std@@@std@@QBE?AU?$_Wrap_alloc@V?$allocator@U?$_Tree_node@U?$pair@$$CBV?$basic_string@DU?$char_traits@D@std@@V?$allocator@D@2@@std@@M@std@@PAX@std@@@std@@@2@XZ 1001c910 f i mfdpage_fms.obj
 0001:0001b910       ?_Getal@?$_Tree_alloc@$0A@U?$_Tree_base_types@U?$pair@$$CBHPAVfms_fp_item_t@@@std@@V?$allocator@U?$pair@$$CBHPAVfms_fp_item_t@@@std@@@2@@std@@@std@@QBE?AU?$_Wrap_alloc@V?$allocator@U?$_Tree_node@U?$pair@$$CBHPAVfms_fp_item_t@@@std@@PAX@std@@@std@@@2@XZ 1001c910 f i mfdpage_fms.obj
 0001:0001b910       ?_Getal@?$_Tree_alloc@$0A@U?$_Tree_base_types@U?$pair@$$CBV?$basic_string@DU?$char_traits@D@std@@V?$allocator@D@2@@std@@PAVfms_config_item_t@@@std@@V?$allocator@U?$pair@$$CBV?$basic_string@DU?$char_traits@D@std@@V?$allocator@D@2@@std@@PAVfms_config_item_t@@@std@@@2@@std@@@std@@QBE?AU?$_Wrap_alloc@V?$allocator@U?$_Tree_node@U?$pair@$$CBV?$basic_string@DU?$char_traits@D@std@@V?$allocator@D@2@@std@@PAVfms_config_item_t@@@std@@PAX@std@@@std@@@2@XZ 1001c910 f i fms_config.obj
 0001:0001b910       ?_Getal@?$_Tree_alloc@$0A@U?$_Tree_base_types@U?$pair@$$CBV?$basic_string@DU?$char_traits@D@std@@V?$allocator@D@2@@std@@H@std@@V?$allocator@U?$pair@$$CBV?$basic_string@DU?$char_traits@D@std@@V?$allocator@D@2@@std@@H@std@@@2@@std@@@std@@QBE?AU?$_Wrap_alloc@V?$allocator@U?$_Tree_node@U?$pair@$$CBV?$basic_string@DU?$char_traits@D@std@@V?$allocator@D@2@@std@@H@std@@PAX@std@@@std@@@2@XZ 1001c910 f i mfdpage.obj
 0001:0001b910       ?_Getal@?$_Tree_alloc@$0A@U?$_Tree_base_types@PAVobject_t@@V?$allocator@PAVobject_t@@@std@@@std@@@std@@QBE?AU?$_Wrap_alloc@V?$allocator@U?$_Tree_node@PAVobject_t@@PAX@std@@@std@@@2@XZ 1001c910 f i data.obj
 0001:0001b910       ?_Getal@?$_Tree_alloc@$0A@U?$_Tree_base_types@PAVmfdpage_t@@V?$allocator@PAVmfdpage_t@@@std@@@std@@@std@@QBE?AU?$_Wrap_alloc@V?$allocator@U?$_Tree_node@PAVmfdpage_t@@PAX@std@@@std@@@2@XZ 1001c910 f i in.obj
 0001:0001b910       ?_Getal@?$_Tree_alloc@$0A@U?$_Tree_base_types@U?$pair@$$CBHM@std@@V?$allocator@U?$pair@$$CBHM@std@@@2@@std@@@std@@QBE?AU?$_Wrap_alloc@V?$allocator@U?$_Tree_node@U?$pair@$$CBHM@std@@PAX@std@@@std@@@2@XZ 1001c910 f i fms_config.obj
 0001:0001b910       ?_Getal@?$_Tree_alloc@$0A@U?$_Tree_base_types@U?$pair@$$CBV?$basic_string@DU?$char_traits@D@std@@V?$allocator@D@2@@std@@D@std@@V?$allocator@U?$pair@$$CBV?$basic_string@DU?$char_traits@D@std@@V?$allocator@D@2@@std@@D@std@@@2@@std@@@std@@QBE?AU?$_Wrap_alloc@V?$allocator@U?$_Tree_node@U?$pair@$$CBV?$basic_string@DU?$char_traits@D@std@@V?$allocator@D@2@@std@@D@std@@PAX@std@@@std@@@2@XZ 1001c910 f i mfdpage.obj
 0001:0001b910       ?_Getal@?$_Tree_alloc@$0A@U?$_Tree_base_types@U?$pair@$$CBV?$basic_string@DU?$char_traits@D@std@@V?$allocator@D@2@@std@@V12@@std@@V?$allocator@U?$pair@$$CBV?$basic_string@DU?$char_traits@D@std@@V?$allocator@D@2@@std@@V12@@std@@@2@@std@@@std@@QBE?AU?$_Wrap_alloc@V?$allocator@U?$_Tree_node@U?$pair@$$CBV?$basic_string@DU?$char_traits@D@std@@V?$allocator@D@2@@std@@V12@@std@@PAX@std@@@std@@@2@XZ 1001c910 f i tools.obj
 0001:0001b910       ?_Getal@?$_Tree_alloc@$0A@U?$_Tree_base_types@PAVlistener_t@@V?$allocator@PAVlistener_t@@@std@@@std@@@std@@QBE?AU?$_Wrap_alloc@V?$allocator@U?$_Tree_node@PAVlistener_t@@PAX@std@@@std@@@2@XZ 1001c910 f i data.obj
 0001:0001b910       ?_Getal@?$_Tree_alloc@$0A@U?$_Tree_base_types@U?$pair@$$CBV?$basic_string@DU?$char_traits@D@std@@V?$allocator@D@2@@std@@PAVfms_fp_item_t@@@std@@V?$allocator@U?$pair@$$CBV?$basic_string@DU?$char_traits@D@std@@V?$allocator@D@2@@std@@PAVfms_fp_item_t@@@std@@@2@@std@@@std@@QBE?AU?$_Wrap_alloc@V?$allocator@U?$_Tree_node@U?$pair@$$CBV?$basic_string@DU?$char_traits@D@std@@V?$allocator@D@2@@std@@PAVfms_fp_item_t@@@std@@PAX@std@@@std@@@2@XZ 1001c910 f i fms_fp.obj
 0001:0001b910       ?_Getal@?$_Tree_alloc@$0A@U?$_Tree_base_types@U?$pair@$$CBHV?$basic_string@DU?$char_traits@D@std@@V?$allocator@D@2@@std@@@std@@V?$allocator@U?$pair@$$CBHV?$basic_string@DU?$char_traits@D@std@@V?$allocator@D@2@@std@@@std@@@2@@std@@@std@@QBE?AU?$_Wrap_alloc@V?$allocator@U?$_Tree_node@U?$pair@$$CBHV?$basic_string@DU?$char_traits@D@std@@V?$allocator@D@2@@std@@@std@@PAX@std@@@std@@@2@XZ 1001c910 f i out_saitek.obj
 0001:0001b910       ?_Getal@?$_String_alloc@$0A@U?$_String_base_types@DV?$allocator@D@std@@@std@@@std@@QBE?AU?$_Wrap_alloc@V?$allocator@D@std@@@2@XZ 1001c910 f i main.obj
 0001:0001b910       ?_Getal@?$_Tree_alloc@$0A@U?$_Tree_base_types@U?$pair@$$CBHPAVobject_t@@@std@@V?$allocator@U?$pair@$$CBHPAVobject_t@@@std@@@2@@std@@@std@@QBE?AU?$_Wrap_alloc@V?$allocator@U?$_Tree_node@U?$pair@$$CBHPAVobject_t@@@std@@PAX@std@@@std@@@2@XZ 1001c910 f i mfdpage.obj
 0001:0001b930       ?_Getcomp@?$_Tree_comp@$0A@V?$_Tset_traits@PAVlistener_t@@U?$less@PAVlistener_t@@@std@@V?$allocator@PAVlistener_t@@@3@$0A@@std@@@std@@QBE?AU?$less@PAVlistener_t@@@2@XZ 1001c930 f i data.obj
 0001:0001b930       ?_Getcomp@?$_Tree_comp@$0A@V?$_Tmap_traits@V?$basic_string@DU?$char_traits@D@std@@V?$allocator@D@2@@std@@DU?$less@V?$basic_string@DU?$char_traits@D@std@@V?$allocator@D@2@@std@@@2@V?$allocator@U?$pair@$$CBV?$basic_string@DU?$char_traits@D@std@@V?$allocator@D@2@@std@@D@std@@@2@$0A@@std@@@std@@QBE?AU?$less@V?$basic_string@DU?$char_traits@D@std@@V?$allocator@D@2@@std@@@2@XZ 1001c930 f i mfdpage.obj
 0001:0001b930       ?_Getcomp@?$_Tree_comp@$0A@V?$_Tmap_traits@HMU?$less@H@std@@V?$allocator@U?$pair@$$CBHM@std@@@2@$0A@@std@@@std@@QBE?AU?$less@H@2@XZ 1001c930 f i fms_config.obj
 0001:0001b930       ?_Getcomp@?$_Tree_comp@$0A@V?$_Tmap_traits@V?$basic_string@DU?$char_traits@D@std@@V?$allocator@D@2@@std@@PAVfms_fp_item_t@@U?$less@V?$basic_string@DU?$char_traits@D@std@@V?$allocator@D@2@@std@@@2@V?$allocator@U?$pair@$$CBV?$basic_string@DU?$char_traits@D@std@@V?$allocator@D@2@@std@@PAVfms_fp_item_t@@@std@@@2@$0A@@std@@@std@@QBE?AU?$less@V?$basic_string@DU?$char_traits@D@std@@V?$allocator@D@2@@std@@@2@XZ 1001c930 f i fms_fp.obj
 0001:0001b930       ?_Getcomp@?$_Tree_comp@$0A@V?$_Tmap_traits@V?$basic_string@DU?$char_traits@D@std@@V?$allocator@D@2@@std@@V12@U?$less@V?$basic_string@DU?$char_traits@D@std@@V?$allocator@D@2@@std@@@2@V?$allocator@U?$pair@$$CBV?$basic_string@DU?$char_traits@D@std@@V?$allocator@D@2@@std@@V12@@std@@@2@$0A@@std@@@std@@QBE?AU?$less@V?$basic_string@DU?$char_traits@D@std@@V?$allocator@D@2@@std@@@2@XZ 1001c930 f i tools.obj
 0001:0001b930       ?_Getcomp@?$_Tree_comp@$0A@V?$_Tset_traits@PAVmfdpage_t@@U?$less@PAVmfdpage_t@@@std@@V?$allocator@PAVmfdpage_t@@@3@$0A@@std@@@std@@QBE?AU?$less@PAVmfdpage_t@@@2@XZ 1001c930 f i in.obj
 0001:0001b930       ?_Getcomp@?$_Tree_comp@$0A@V?$_Tmap_traits@HV?$basic_string@DU?$char_traits@D@std@@V?$allocator@D@2@@std@@U?$less@H@2@V?$allocator@U?$pair@$$CBHV?$basic_string@DU?$char_traits@D@std@@V?$allocator@D@2@@std@@@std@@@2@$0A@@std@@@std@@QBE?AU?$less@H@2@XZ 1001c930 f i out_saitek.obj
 0001:0001b930       ?_Getcomp@?$_Tree_comp@$0A@V?$_Tmap_traits@HPAVfms_fp_item_t@@U?$less@H@std@@V?$allocator@U?$pair@$$CBHPAVfms_fp_item_t@@@std@@@3@$0A@@std@@@std@@QBE?AU?$less@H@2@XZ 1001c930 f i mfdpage_fms.obj
 0001:0001b930       ?_Getcomp@?$_Tree_comp@$0A@V?$_Tmap_traits@V?$basic_string@DU?$char_traits@D@std@@V?$allocator@D@2@@std@@HU?$less@V?$basic_string@DU?$char_traits@D@std@@V?$allocator@D@2@@std@@@2@V?$allocator@U?$pair@$$CBV?$basic_string@DU?$char_traits@D@std@@V?$allocator@D@2@@std@@H@std@@@2@$0A@@std@@@std@@QBE?AU?$less@V?$basic_string@DU?$char_traits@D@std@@V?$allocator@D@2@@std@@@2@XZ 1001c930 f i mfdpage.obj
 0001:0001b930       ?_Getcomp@?$_Tree_comp@$0A@V?$_Tmap_traits@V?$basic_string@DU?$char_traits@D@std@@V?$allocator@D@2@@std@@MU?$less@V?$basic_string@DU?$char_traits@D@std@@V?$allocator@D@2@@std@@@2@V?$allocator@U?$pair@$$CBV?$basic_string@DU?$char_traits@D@std@@V?$allocator@D@2@@std@@M@std@@@2@$0A@@std@@@std@@QBE?AU?$less@V?$basic_string@DU?$char_traits@D@std@@V?$allocator@D@2@@std@@@2@XZ 1001c930 f i mfdpage_fms.obj
 0001:0001b930       ?_Getcomp@?$_Tree_comp@$0A@V?$_Tmap_traits@V?$basic_string@DU?$char_traits@D@std@@V?$allocator@D@2@@std@@PAVfms_config_item_t@@U?$less@V?$basic_string@DU?$char_traits@D@std@@V?$allocator@D@2@@std@@@2@V?$allocator@U?$pair@$$CBV?$basic_string@DU?$char_traits@D@std@@V?$allocator@D@2@@std@@PAVfms_config_item_t@@@std@@@2@$0A@@std@@@std@@QBE?AU?$less@V?$basic_string@DU?$char_traits@D@std@@V?$allocator@D@2@@std@@@2@XZ 1001c930 f i fms_config.obj
 0001:0001b930       ?_Getcomp@?$_Tree_comp@$0A@V?$_Tmap_traits@HPAVobject_t@@U?$less@H@std@@V?$allocator@U?$pair@$$CBHPAVobject_t@@@std@@@3@$0A@@std@@@std@@QBE?AU?$less@H@2@XZ 1001c930 f i mfdpage.obj
 0001:0001b930       ?_Getcomp@?$_Tree_comp@$0A@V?$_Tset_traits@PAVobject_t@@U?$less@PAVobject_t@@@std@@V?$allocator@PAVobject_t@@@3@$0A@@std@@@std@@QBE?AU?$less@PAVobject_t@@@2@XZ 1001c930 f i data.obj
 0001:0001b940       ?allocate@?$_Wrap_alloc@V?$allocator@U?$_Tree_node@U?$pair@$$CBV?$basic_string@DU?$char_traits@D@std@@V?$allocator@D@2@@std@@D@std@@PAX@std@@@std@@@std@@QAEPAU?$_Tree_node@U?$pair@$$CBV?$basic_string@DU?$char_traits@D@std@@V?$allocator@D@2@@std@@D@std@@PAX@2@I@Z 1001c940 f i mfdpage.obj
 0001:0001b940       ?allocate@?$_Wrap_alloc@V?$allocator@U?$_Tree_node@U?$pair@$$CBHV?$basic_string@DU?$char_traits@D@std@@V?$allocator@D@2@@std@@@std@@PAX@std@@@std@@@std@@QAEPAU?$_Tree_node@U?$pair@$$CBHV?$basic_string@DU?$char_traits@D@std@@V?$allocator@D@2@@std@@@std@@PAX@2@I@Z 1001c940 f i out_saitek.obj
 0001:0001b940       ?allocate@?$_Wrap_alloc@V?$allocator@U?$_Tree_node@U?$pair@$$CBV?$basic_string@DU?$char_traits@D@std@@V?$allocator@D@2@@std@@H@std@@PAX@std@@@std@@@std@@QAEPAU?$_Tree_node@U?$pair@$$CBV?$basic_string@DU?$char_traits@D@std@@V?$allocator@D@2@@std@@H@std@@PAX@2@I@Z 1001c940 f i mfdpage.obj
 0001:0001b940       ?allocate@?$_Wrap_alloc@V?$allocator@U?$_Tree_node@U?$pair@$$CBV?$basic_string@DU?$char_traits@D@std@@V?$allocator@D@2@@std@@M@std@@PAX@std@@@std@@@std@@QAEPAU?$_Tree_node@U?$pair@$$CBV?$basic_string@DU?$char_traits@D@std@@V?$allocator@D@2@@std@@M@std@@PAX@2@I@Z 1001c940 f i mfdpage_fms.obj
 0001:0001b940       ?allocate@?$_Wrap_alloc@V?$allocator@U?$_Tree_node@U?$pair@$$CBV?$basic_string@DU?$char_traits@D@std@@V?$allocator@D@2@@std@@PAVfms_fp_item_t@@@std@@PAX@std@@@std@@@std@@QAEPAU?$_Tree_node@U?$pair@$$CBV?$basic_string@DU?$char_traits@D@std@@V?$allocator@D@2@@std@@PAVfms_fp_item_t@@@std@@PAX@2@I@Z 1001c940 f i fms_fp.obj
 0001:0001b940       ?allocate@?$_Wrap_alloc@V?$allocator@U?$_Tree_node@U?$pair@$$CBV?$basic_string@DU?$char_traits@D@std@@V?$allocator@D@2@@std@@PAVfms_config_item_t@@@std@@PAX@std@@@std@@@std@@QAEPAU?$_Tree_node@U?$pair@$$CBV?$basic_string@DU?$char_traits@D@std@@V?$allocator@D@2@@std@@PAVfms_config_item_t@@@std@@PAX@2@I@Z 1001c940 f i fms_config.obj
 0001:0001b960       ?allocate@?$allocator@U?$_Tree_node@U?$pair@$$CBV?$basic_string@DU?$char_traits@D@std@@V?$allocator@D@2@@std@@D@std@@PAX@std@@@std@@QAEPAU?$_Tree_node@U?$pair@$$CBV?$basic_string@DU?$char_traits@D@std@@V?$allocator@D@2@@std@@D@std@@PAX@2@I@Z 1001c960 f i mfdpage.obj
 0001:0001b960       ?allocate@?$allocator@U?$_Tree_node@U?$pair@$$CBV?$basic_string@DU?$char_traits@D@std@@V?$allocator@D@2@@std@@PAVfms_fp_item_t@@@std@@PAX@std@@@std@@QAEPAU?$_Tree_node@U?$pair@$$CBV?$basic_string@DU?$char_traits@D@std@@V?$allocator@D@2@@std@@PAVfms_fp_item_t@@@std@@PAX@2@I@Z 1001c960 f i fms_fp.obj
 0001:0001b960       ?allocate@?$allocator@U?$_Tree_node@U?$pair@$$CBHV?$basic_string@DU?$char_traits@D@std@@V?$allocator@D@2@@std@@@std@@PAX@std@@@std@@QAEPAU?$_Tree_node@U?$pair@$$CBHV?$basic_string@DU?$char_traits@D@std@@V?$allocator@D@2@@std@@@std@@PAX@2@I@Z 1001c960 f i out_saitek.obj
 0001:0001b960       ?allocate@?$allocator@U?$_Tree_node@U?$pair@$$CBV?$basic_string@DU?$char_traits@D@std@@V?$allocator@D@2@@std@@PAVfms_config_item_t@@@std@@PAX@std@@@std@@QAEPAU?$_Tree_node@U?$pair@$$CBV?$basic_string@DU?$char_traits@D@std@@V?$allocator@D@2@@std@@PAVfms_config_item_t@@@std@@PAX@2@I@Z 1001c960 f i fms_config.obj
 0001:0001b960       ?allocate@?$allocator@U?$_Tree_node@U?$pair@$$CBV?$basic_string@DU?$char_traits@D@std@@V?$allocator@D@2@@std@@M@std@@PAX@std@@@std@@QAEPAU?$_Tree_node@U?$pair@$$CBV?$basic_string@DU?$char_traits@D@std@@V?$allocator@D@2@@std@@M@std@@PAX@2@I@Z 1001c960 f i mfdpage_fms.obj
 0001:0001b960       ?allocate@?$allocator@U?$_Tree_node@U?$pair@$$CBV?$basic_string@DU?$char_traits@D@std@@V?$allocator@D@2@@std@@H@std@@PAX@std@@@std@@QAEPAU?$_Tree_node@U?$pair@$$CBV?$basic_string@DU?$char_traits@D@std@@V?$allocator@D@2@@std@@H@std@@PAX@2@I@Z 1001c960 f i mfdpage.obj
 0001:0001b980       ?begin@?$_Tree@V?$_Tmap_traits@V?$basic_string@DU?$char_traits@D@std@@V?$allocator@D@2@@std@@PAVfms_fp_item_t@@U?$less@V?$basic_string@DU?$char_traits@D@std@@V?$allocator@D@2@@std@@@2@V?$allocator@U?$pair@$$CBV?$basic_string@DU?$char_traits@D@std@@V?$allocator@D@2@@std@@PAVfms_fp_item_t@@@std@@@2@$0A@@std@@@std@@QAE?AV?$_Tree_iterator@V?$_Tree_val@U?$_Tree_simple_types@U?$pair@$$CBV?$basic_string@DU?$char_traits@D@std@@V?$allocator@D@2@@std@@PAVfms_fp_item_t@@@std@@@std@@@std@@@2@XZ 1001c980 f i fms_fp.obj
 0001:0001b980       ?begin@?$_Tree@V?$_Tmap_traits@V?$basic_string@DU?$char_traits@D@std@@V?$allocator@D@2@@std@@HU?$less@V?$basic_string@DU?$char_traits@D@std@@V?$allocator@D@2@@std@@@2@V?$allocator@U?$pair@$$CBV?$basic_string@DU?$char_traits@D@std@@V?$allocator@D@2@@std@@H@std@@@2@$0A@@std@@@std@@QAE?AV?$_Tree_iterator@V?$_Tree_val@U?$_Tree_simple_types@U?$pair@$$CBV?$basic_string@DU?$char_traits@D@std@@V?$allocator@D@2@@std@@H@std@@@std@@@std@@@2@XZ 1001c980 f i mfdpage.obj
 0001:0001b980       ?begin@?$_Tree@V?$_Tmap_traits@V?$basic_string@DU?$char_traits@D@std@@V?$allocator@D@2@@std@@V12@U?$less@V?$basic_string@DU?$char_traits@D@std@@V?$allocator@D@2@@std@@@2@V?$allocator@U?$pair@$$CBV?$basic_string@DU?$char_traits@D@std@@V?$allocator@D@2@@std@@V12@@std@@@2@$0A@@std@@@std@@QAE?AV?$_Tree_iterator@V?$_Tree_val@U?$_Tree_simple_types@U?$pair@$$CBV?$basic_string@DU?$char_traits@D@std@@V?$allocator@D@2@@std@@V12@@std@@@std@@@std@@@2@XZ 1001c980 f i tools.obj
 0001:0001b980       ?begin@?$_Tree@V?$_Tmap_traits@V?$basic_string@DU?$char_traits@D@std@@V?$allocator@D@2@@std@@DU?$less@V?$basic_string@DU?$char_traits@D@std@@V?$allocator@D@2@@std@@@2@V?$allocator@U?$pair@$$CBV?$basic_string@DU?$char_traits@D@std@@V?$allocator@D@2@@std@@D@std@@@2@$0A@@std@@@std@@QAE?AV?$_Tree_iterator@V?$_Tree_val@U?$_Tree_simple_types@U?$pair@$$CBV?$basic_string@DU?$char_traits@D@std@@V?$allocator@D@2@@std@@D@std@@@std@@@std@@@2@XZ 1001c980 f i mfdpage.obj
 0001:0001b980       ?begin@?$_Tree@V?$_Tmap_traits@HPAVfms_fp_item_t@@U?$less@H@std@@V?$allocator@U?$pair@$$CBHPAVfms_fp_item_t@@@std@@@3@$0A@@std@@@std@@QAE?AV?$_Tree_iterator@V?$_Tree_val@U?$_Tree_simple_types@U?$pair@$$CBHPAVfms_fp_item_t@@@std@@@std@@@std@@@2@XZ 1001c980 f i mfdpage_fms.obj
 0001:0001b980       ?begin@?$_Tree@V?$_Tmap_traits@V?$basic_string@DU?$char_traits@D@std@@V?$allocator@D@2@@std@@PAVfms_config_item_t@@U?$less@V?$basic_string@DU?$char_traits@D@std@@V?$allocator@D@2@@std@@@2@V?$allocator@U?$pair@$$CBV?$basic_string@DU?$char_traits@D@std@@V?$allocator@D@2@@std@@PAVfms_config_item_t@@@std@@@2@$0A@@std@@@std@@QAE?AV?$_Tree_iterator@V?$_Tree_val@U?$_Tree_simple_types@U?$pair@$$CBV?$basic_string@DU?$char_traits@D@std@@V?$allocator@D@2@@std@@PAVfms_config_item_t@@@std@@@std@@@std@@@2@XZ 1001c980 f i fms_config.obj
 0001:0001b980       ?begin@?$_Tree@V?$_Tmap_traits@V?$basic_string@DU?$char_traits@D@std@@V?$allocator@D@2@@std@@MU?$less@V?$basic_string@DU?$char_traits@D@std@@V?$allocator@D@2@@std@@@2@V?$allocator@U?$pair@$$CBV?$basic_string@DU?$char_traits@D@std@@V?$allocator@D@2@@std@@M@std@@@2@$0A@@std@@@std@@QAE?AV?$_Tree_iterator@V?$_Tree_val@U?$_Tree_simple_types@U?$pair@$$CBV?$basic_string@DU?$char_traits@D@std@@V?$allocator@D@2@@std@@M@std@@@std@@@std@@@2@XZ 1001c980 f i mfdpage_fms.obj
 0001:0001b980       ?begin@?$_Tree@V?$_Tmap_traits@HPAVobject_t@@U?$less@H@std@@V?$allocator@U?$pair@$$CBHPAVobject_t@@@std@@@3@$0A@@std@@@std@@QAE?AV?$_Tree_iterator@V?$_Tree_val@U?$_Tree_simple_types@U?$pair@$$CBHPAVobject_t@@@std@@@std@@@std@@@2@XZ 1001c980 f i mfdpage.obj
 0001:0001b980       ?begin@?$_Tree@V?$_Tmap_traits@HMU?$less@H@std@@V?$allocator@U?$pair@$$CBHM@std@@@2@$0A@@std@@@std@@QAE?AV?$_Tree_iterator@V?$_Tree_val@U?$_Tree_simple_types@U?$pair@$$CBHM@std@@@std@@@std@@@2@XZ 1001c980 f i fms_config.obj
 0001:0001b980       ?begin@?$_Tree@V?$_Tmap_traits@HV?$basic_string@DU?$char_traits@D@std@@V?$allocator@D@2@@std@@U?$less@H@2@V?$allocator@U?$pair@$$CBHV?$basic_string@DU?$char_traits@D@std@@V?$allocator@D@2@@std@@@std@@@2@$0A@@std@@@std@@QAE?AV?$_Tree_iterator@V?$_Tree_val@U?$_Tree_simple_types@U?$pair@$$CBHV?$basic_string@DU?$char_traits@D@std@@V?$allocator@D@2@@std@@@std@@@std@@@std@@@2@XZ 1001c980 f i out_saitek.obj
 0001:0001b9b0       ?end@?$_Tree@V?$_Tmap_traits@V?$basic_string@DU?$char_traits@D@std@@V?$allocator@D@2@@std@@V12@U?$less@V?$basic_string@DU?$char_traits@D@std@@V?$allocator@D@2@@std@@@2@V?$allocator@U?$pair@$$CBV?$basic_string@DU?$char_traits@D@std@@V?$allocator@D@2@@std@@V12@@std@@@2@$0A@@std@@@std@@QAE?AV?$_Tree_iterator@V?$_Tree_val@U?$_Tree_simple_types@U?$pair@$$CBV?$basic_string@DU?$char_traits@D@std@@V?$allocator@D@2@@std@@V12@@std@@@std@@@std@@@2@XZ 1001c9b0 f i tools.obj
 0001:0001b9b0       ?end@?$_Tree@V?$_Tmap_traits@V?$basic_string@DU?$char_traits@D@std@@V?$allocator@D@2@@std@@MU?$less@V?$basic_string@DU?$char_traits@D@std@@V?$allocator@D@2@@std@@@2@V?$allocator@U?$pair@$$CBV?$basic_string@DU?$char_traits@D@std@@V?$allocator@D@2@@std@@M@std@@@2@$0A@@std@@@std@@QAE?AV?$_Tree_iterator@V?$_Tree_val@U?$_Tree_simple_types@U?$pair@$$CBV?$basic_string@DU?$char_traits@D@std@@V?$allocator@D@2@@std@@M@std@@@std@@@std@@@2@XZ 1001c9b0 f i mfdpage_fms.obj
 0001:0001b9b0       ?end@?$_Tree@V?$_Tmap_traits@V?$basic_string@DU?$char_traits@D@std@@V?$allocator@D@2@@std@@PAVfms_fp_item_t@@U?$less@V?$basic_string@DU?$char_traits@D@std@@V?$allocator@D@2@@std@@@2@V?$allocator@U?$pair@$$CBV?$basic_string@DU?$char_traits@D@std@@V?$allocator@D@2@@std@@PAVfms_fp_item_t@@@std@@@2@$0A@@std@@@std@@QAE?AV?$_Tree_iterator@V?$_Tree_val@U?$_Tree_simple_types@U?$pair@$$CBV?$basic_string@DU?$char_traits@D@std@@V?$allocator@D@2@@std@@PAVfms_fp_item_t@@@std@@@std@@@std@@@2@XZ 1001c9b0 f i fms_fp.obj
 0001:0001b9b0       ?end@?$_Tree@V?$_Tmap_traits@V?$basic_string@DU?$char_traits@D@std@@V?$allocator@D@2@@std@@HU?$less@V?$basic_string@DU?$char_traits@D@std@@V?$allocator@D@2@@std@@@2@V?$allocator@U?$pair@$$CBV?$basic_string@DU?$char_traits@D@std@@V?$allocator@D@2@@std@@H@std@@@2@$0A@@std@@@std@@QAE?AV?$_Tree_iterator@V?$_Tree_val@U?$_Tree_simple_types@U?$pair@$$CBV?$basic_string@DU?$char_traits@D@std@@V?$allocator@D@2@@std@@H@std@@@std@@@std@@@2@XZ 1001c9b0 f i mfdpage.obj
 0001:0001b9b0       ?end@?$_Tree@V?$_Tmap_traits@V?$basic_string@DU?$char_traits@D@std@@V?$allocator@D@2@@std@@PAVfms_config_item_t@@U?$less@V?$basic_string@DU?$char_traits@D@std@@V?$allocator@D@2@@std@@@2@V?$allocator@U?$pair@$$CBV?$basic_string@DU?$char_traits@D@std@@V?$allocator@D@2@@std@@PAVfms_config_item_t@@@std@@@2@$0A@@std@@@std@@QAE?AV?$_Tree_iterator@V?$_Tree_val@U?$_Tree_simple_types@U?$pair@$$CBV?$basic_string@DU?$char_traits@D@std@@V?$allocator@D@2@@std@@PAVfms_config_item_t@@@std@@@std@@@std@@@2@XZ 1001c9b0 f i fms_config.obj
 0001:0001b9b0       ?end@?$_Tree@V?$_Tmap_traits@HMU?$less@H@std@@V?$allocator@U?$pair@$$CBHM@std@@@2@$0A@@std@@@std@@QAE?AV?$_Tree_iterator@V?$_Tree_val@U?$_Tree_simple_types@U?$pair@$$CBHM@std@@@std@@@std@@@2@XZ 1001c9b0 f i fms_config.obj
 0001:0001b9b0       ?end@?$_Tree@V?$_Tmap_traits@HV?$basic_string@DU?$char_traits@D@std@@V?$allocator@D@2@@std@@U?$less@H@2@V?$allocator@U?$pair@$$CBHV?$basic_string@DU?$char_traits@D@std@@V?$allocator@D@2@@std@@@std@@@2@$0A@@std@@@std@@QAE?AV?$_Tree_iterator@V?$_Tree_val@U?$_Tree_simple_types@U?$pair@$$CBHV?$basic_string@DU?$char_traits@D@std@@V?$allocator@D@2@@std@@@std@@@std@@@std@@@2@XZ 1001c9b0 f i out_saitek.obj
 0001:0001b9b0       ?end@?$_Tree@V?$_Tmap_traits@HPAVfms_fp_item_t@@U?$less@H@std@@V?$allocator@U?$pair@$$CBHPAVfms_fp_item_t@@@std@@@3@$0A@@std@@@std@@QAE?AV?$_Tree_iterator@V?$_Tree_val@U?$_Tree_simple_types@U?$pair@$$CBHPAVfms_fp_item_t@@@std@@@std@@@std@@@2@XZ 1001c9b0 f i mfdpage_fms.obj
 0001:0001b9b0       ?end@?$_Tree@V?$_Tmap_traits@HPAVobject_t@@U?$less@H@std@@V?$allocator@U?$pair@$$CBHPAVobject_t@@@std@@@3@$0A@@std@@@std@@QAE?AV?$_Tree_iterator@V?$_Tree_val@U?$_Tree_simple_types@U?$pair@$$CBHPAVobject_t@@@std@@@std@@@std@@@2@XZ 1001c9b0 f i mfdpage.obj
 0001:0001b9b0       ?end@?$_Tree@V?$_Tmap_traits@V?$basic_string@DU?$char_traits@D@std@@V?$allocator@D@2@@std@@DU?$less@V?$basic_string@DU?$char_traits@D@std@@V?$allocator@D@2@@std@@@2@V?$allocator@U?$pair@$$CBV?$basic_string@DU?$char_traits@D@std@@V?$allocator@D@2@@std@@D@std@@@2@$0A@@std@@@std@@QAE?AV?$_Tree_iterator@V?$_Tree_val@U?$_Tree_simple_types@U?$pair@$$CBV?$basic_string@DU?$char_traits@D@std@@V?$allocator@D@2@@std@@D@std@@@std@@@std@@@2@XZ 1001c9b0 f i mfdpage.obj
 0001:0001b9e0       ?max_size@?$_Wrap_alloc@V?$allocator@U?$_Tree_node@U?$pair@$$CBV?$basic_string@DU?$char_traits@D@std@@V?$allocator@D@2@@std@@D@std@@PAX@std@@@std@@@std@@QBEIXZ 1001c9e0 f i mfdpage.obj
 0001:0001b9e0       ?max_size@?$_Wrap_alloc@V?$allocator@U?$_Tree_node@U?$pair@$$CBV?$basic_string@DU?$char_traits@D@std@@V?$allocator@D@2@@std@@PAVfms_fp_item_t@@@std@@PAX@std@@@std@@@std@@QBEIXZ 1001c9e0 f i fms_fp.obj
 0001:0001b9e0       ?max_size@?$_Wrap_alloc@V?$allocator@U?$_Tree_node@U?$pair@$$CBHV?$basic_string@DU?$char_traits@D@std@@V?$allocator@D@2@@std@@@std@@PAX@std@@@std@@@std@@QBEIXZ 1001c9e0 f i out_saitek.obj
 0001:0001b9e0       ?max_size@?$_Wrap_alloc@V?$allocator@U?$_Tree_node@U?$pair@$$CBV?$basic_string@DU?$char_traits@D@std@@V?$allocator@D@2@@std@@PAVfms_config_item_t@@@std@@PAX@std@@@std@@@std@@QBEIXZ 1001c9e0 f i fms_config.obj
 0001:0001b9e0       ?max_size@?$_Wrap_alloc@V?$allocator@U?$_Tree_node@U?$pair@$$CBV?$basic_string@DU?$char_traits@D@std@@V?$allocator@D@2@@std@@H@std@@PAX@std@@@std@@@std@@QBEIXZ 1001c9e0 f i mfdpage.obj
 0001:0001b9e0       ?max_size@?$_Wrap_alloc@V?$allocator@U?$_Tree_node@U?$pair@$$CBV?$basic_string@DU?$char_traits@D@std@@V?$allocator@D@2@@std@@M@std@@PAX@std@@@std@@@std@@QBEIXZ 1001c9e0 f i mfdpage_fms.obj
 0001:0001ba00       ??0fms_fuel_t@@QAE@XZ      1001ca00 f   fms_fuel.obj
 0001:0001ba30       ??0fms_fuel_t@@QAE@PAVfms_config_t@@@Z 1001ca30 f   fms_fuel.obj
 0001:0001ba80       ??1fms_fuel_t@@QAE@XZ      1001ca80 f   fms_fuel.obj
 0001:0001ba90       ?load@fms_fuel_t@@QAEXXZ   1001ca90 f   fms_fuel.obj
 0001:0001bac0       ?remaining@fms_fuel_t@@QAE?AV?$basic_string@DU?$char_traits@D@std@@V?$allocator@D@2@@std@@XZ 1001cac0 f   fms_fuel.obj
 0001:0001bbc0       ?fuel_flow@fms_fuel_t@@QAEMXZ 1001cbc0 f   fms_fuel.obj
 0001:0001bc20       ?num_engines@fms_fuel_t@@AAEHXZ 1001cc20 f   fms_fuel.obj
 0001:0001bc70       ?lb_to_load@fms_fuel_t@@AAEMXZ 1001cc70 f   fms_fuel.obj
 0001:0001bec0       ?fuel_on_board@fms_fuel_t@@AAEMXZ 1001cec0 f   fms_fuel.obj
 0001:0001bf20       ??0fms_fp_t@@QAE@XZ        1001cf20 f   fms_fp.obj
 0001:0001bf70       ??0fms_fp_t@@QAE@PAVfms_config_t@@@Z 1001cf70 f   fms_fp.obj
 0001:0001c050       ??1fms_fp_t@@QAE@XZ        1001d050 f   fms_fp.obj
 0001:0001c0a0       ?load@fms_fp_t@@QAEXXZ     1001d0a0 f   fms_fp.obj
 0001:0001cc90       ?status2string@fms_fp_t@@QAE?AV?$basic_string@DU?$char_traits@D@std@@V?$allocator@D@2@@std@@H@Z 1001dc90 f   fms_fp.obj
 0001:0001cdd0       ?has_changed@fms_fp_t@@QAEHV?$basic_string@DU?$char_traits@D@std@@V?$allocator@D@2@@std@@@Z 1001ddd0 f   fms_fp.obj
 0001:0001d120       ?update_expected_time@fms_fp_t@@QAEXM@Z 1001e120 f   fms_fp.obj
 0001:0001d220       ?save@fms_fp_t@@AAEXXZ     1001e220 f   fms_fp.obj
 0001:0001d690       ?num_entries@fms_fp_t@@AAEHXZ 1001e690 f   fms_fp.obj
 0001:0001d6b0       ?load_entry@fms_fp_t@@AAEXHPAVfms_fp_item_t@@@Z 1001e6b0 f   fms_fp.obj
 0001:0001d7f0       ?load_entry_type@fms_fp_t@@AAE?AV?$basic_string@DU?$char_traits@D@std@@V?$allocator@D@2@@std@@H@Z 1001e7f0 f   fms_fp.obj
 0001:0001d910       ?load_cache@fms_fp_t@@AAEXPAVfms_fp_item_t@@@Z 1001e910 f   fms_fp.obj
 0001:0001d9f0       ?load_distance@fms_fp_t@@AAEXPAVfms_fp_item_t@@0@Z 1001e9f0 f   fms_fp.obj
 0001:0001dac0       ?load_flight_status@fms_fp_t@@AAEXPAVfms_fp_item_t@@@Z 1001eac0 f   fms_fp.obj
 0001:0001dc00       ?load_time@fms_fp_t@@AAEXPAVfms_fp_item_t@@0@Z 1001ec00 f   fms_fp.obj
 0001:0001e690       ?distance_between@fms_fp_t@@AAEMPAVfms_fp_item_t@@0H@Z 1001f690 f   fms_fp.obj
 0001:0001e790       ?calculate_distance@fms_fp_t@@AAENNNNNH@Z 1001f790 f   fms_fp.obj
 0001:0001e960       ??0fms_fp_item_t@@QAE@XZ   1001f960 f   fms_fp.obj
 0001:0001ead0       ??$?0ABV?$basic_string@DU?$char_traits@D@std@@V?$allocator@D@2@@std@@$$$V@?$pair@$$CBV?$basic_string@DU?$char_traits@D@std@@V?$allocator@D@2@@std@@PAVfms_config_item_t@@@std@@QAE@Upiecewise_construct_t@1@V?$tuple@ABV?$basic_string@DU?$char_traits@D@std@@V?$allocator@D@2@@std@@@1@V?$tuple@$$$V@1@@Z 1001fad0 f i fms_config.obj
 0001:0001ead0       ??$?0ABV?$basic_string@DU?$char_traits@D@std@@V?$allocator@D@2@@std@@$$$V@?$pair@$$CBV?$basic_string@DU?$char_traits@D@std@@V?$allocator@D@2@@std@@PAVfms_fp_item_t@@@std@@QAE@Upiecewise_construct_t@1@V?$tuple@ABV?$basic_string@DU?$char_traits@D@std@@V?$allocator@D@2@@std@@@1@V?$tuple@$$$V@1@@Z 1001fad0 f i fms_fp.obj
 0001:0001eb10       ??$?0V?$tuple@ABV?$basic_string@DU?$char_traits@D@std@@V?$allocator@D@2@@std@@@std@@V?$tuple@$$$V@1@$0A@$S@?$pair@$$CBV?$basic_string@DU?$char_traits@D@std@@V?$allocator@D@2@@std@@PAVfms_fp_item_t@@@std@@QAE@AAV?$tuple@ABV?$basic_string@DU?$char_traits@D@std@@V?$allocator@D@2@@std@@@1@AAV?$tuple@$$$V@1@U?$_Arg_idx@$0A@@1@U?$_Arg_idx@$S@1@@Z 1001fb10 f i fms_fp.obj
 0001:0001eb10       ??$?0V?$tuple@ABV?$basic_string@DU?$char_traits@D@std@@V?$allocator@D@2@@std@@@std@@V?$tuple@$$$V@1@$0A@$S@?$pair@$$CBV?$basic_string@DU?$char_traits@D@std@@V?$allocator@D@2@@std@@PAVfms_config_item_t@@@std@@QAE@AAV?$tuple@ABV?$basic_string@DU?$char_traits@D@std@@V?$allocator@D@2@@std@@@1@AAV?$tuple@$$$V@1@U?$_Arg_idx@$0A@@1@U?$_Arg_idx@$S@1@@Z 1001fb10 f i fms_config.obj
 0001:0001eb50       ??$_Buynode@ABUpiecewise_construct_t@std@@V?$tuple@ABV?$basic_string@DU?$char_traits@D@std@@V?$allocator@D@2@@std@@@2@V?$tuple@$$$V@2@@?$_Tree_buy@U?$pair@$$CBV?$basic_string@DU?$char_traits@D@std@@V?$allocator@D@2@@std@@PAVfms_fp_item_t@@@std@@V?$allocator@U?$pair@$$CBV?$basic_string@DU?$char_traits@D@std@@V?$allocator@D@2@@std@@PAVfms_fp_item_t@@@std@@@2@@std@@QAEPAU?$_Tree_node@U?$pair@$$CBV?$basic_string@DU?$char_traits@D@std@@V?$allocator@D@2@@std@@PAVfms_fp_item_t@@@std@@PAX@1@ABUpiecewise_construct_t@1@$$QAV?$tuple@ABV?$basic_string@DU?$char_traits@D@std@@V?$allocator@D@2@@std@@@1@$$QAV?$tuple@$$$V@1@@Z 1001fb50 f i fms_fp.obj
 0001:0001eb50       ??$_Buynode@ABUpiecewise_construct_t@std@@V?$tuple@ABV?$basic_string@DU?$char_traits@D@std@@V?$allocator@D@2@@std@@@2@V?$tuple@$$$V@2@@?$_Tree_buy@U?$pair@$$CBV?$basic_string@DU?$char_traits@D@std@@V?$allocator@D@2@@std@@PAVfms_config_item_t@@@std@@V?$allocator@U?$pair@$$CBV?$basic_string@DU?$char_traits@D@std@@V?$allocator@D@2@@std@@PAVfms_config_item_t@@@std@@@2@@std@@QAEPAU?$_Tree_node@U?$pair@$$CBV?$basic_string@DU?$char_traits@D@std@@V?$allocator@D@2@@std@@PAVfms_config_item_t@@@std@@PAX@1@ABUpiecewise_construct_t@1@$$QAV?$tuple@ABV?$basic_string@DU?$char_traits@D@std@@V?$allocator@D@2@@std@@@1@$$QAV?$tuple@$$$V@1@@Z 1001fb50 f i fms_config.obj
 0001:0001ec50       ??$_Insert_at@AAU?$pair@$$CBV?$basic_string@DU?$char_traits@D@std@@V?$allocator@D@2@@std@@H@std@@PAU?$_Tree_node@U?$pair@$$CBV?$basic_string@DU?$char_traits@D@std@@V?$allocator@D@2@@std@@H@std@@PAX@2@@?$_Tree@V?$_Tmap_traits@V?$basic_string@DU?$char_traits@D@std@@V?$allocator@D@2@@std@@HU?$less@V?$basic_string@DU?$char_traits@D@std@@V?$allocator@D@2@@std@@@2@V?$allocator@U?$pair@$$CBV?$basic_string@DU?$char_traits@D@std@@V?$allocator@D@2@@std@@H@std@@@2@$0A@@std@@@std@@IAE?AV?$_Tree_iterator@V?$_Tree_val@U?$_Tree_simple_types@U?$pair@$$CBV?$basic_string@DU?$char_traits@D@std@@V?$allocator@D@2@@std@@H@std@@@std@@@std@@@1@_NPAU?$_Tree_node@U?$pair@$$CBV?$basic_string@DU?$char_traits@D@std@@V?$allocator@D@2@@std@@H@std@@PAX@1@AAU?$pair@$$CBV?$basic_string@DU?$char_traits@D@std@@V?$allocator@D@2@@std@@H@1@1@Z 1001fc50 f i mfdpage.obj
 0001:0001ec50       ??$_Insert_at@AAU?$pair@$$CBV?$basic_string@DU?$char_traits@D@std@@V?$allocator@D@2@@std@@D@std@@PAU?$_Tree_node@U?$pair@$$CBV?$basic_string@DU?$char_traits@D@std@@V?$allocator@D@2@@std@@D@std@@PAX@2@@?$_Tree@V?$_Tmap_traits@V?$basic_string@DU?$char_traits@D@std@@V?$allocator@D@2@@std@@DU?$less@V?$basic_string@DU?$char_traits@D@std@@V?$allocator@D@2@@std@@@2@V?$allocator@U?$pair@$$CBV?$basic_string@DU?$char_traits@D@std@@V?$allocator@D@2@@std@@D@std@@@2@$0A@@std@@@std@@IAE?AV?$_Tree_iterator@V?$_Tree_val@U?$_Tree_simple_types@U?$pair@$$CBV?$basic_string@DU?$char_traits@D@std@@V?$allocator@D@2@@std@@D@std@@@std@@@std@@@1@_NPAU?$_Tree_node@U?$pair@$$CBV?$basic_string@DU?$char_traits@D@std@@V?$allocator@D@2@@std@@D@std@@PAX@1@AAU?$pair@$$CBV?$basic_string@DU?$char_traits@D@std@@V?$allocator@D@2@@std@@D@1@1@Z 1001fc50 f i mfdpage.obj
 0001:0001ec50       ??$_Insert_at@AAU?$pair@$$CBV?$basic_string@DU?$char_traits@D@std@@V?$allocator@D@2@@std@@PAVfms_fp_item_t@@@std@@PAU?$_Tree_node@U?$pair@$$CBV?$basic_string@DU?$char_traits@D@std@@V?$allocator@D@2@@std@@PAVfms_fp_item_t@@@std@@PAX@2@@?$_Tree@V?$_Tmap_traits@V?$basic_string@DU?$char_traits@D@std@@V?$allocator@D@2@@std@@PAVfms_fp_item_t@@U?$less@V?$basic_string@DU?$char_traits@D@std@@V?$allocator@D@2@@std@@@2@V?$allocator@U?$pair@$$CBV?$basic_string@DU?$char_traits@D@std@@V?$allocator@D@2@@std@@PAVfms_fp_item_t@@@std@@@2@$0A@@std@@@std@@IAE?AV?$_Tree_iterator@V?$_Tree_val@U?$_Tree_simple_types@U?$pair@$$CBV?$basic_string@DU?$char_traits@D@std@@V?$allocator@D@2@@std@@PAVfms_fp_item_t@@@std@@@std@@@std@@@1@_NPAU?$_Tree_node@U?$pair@$$CBV?$basic_string@DU?$char_traits@D@std@@V?$allocator@D@2@@std@@PAVfms_fp_item_t@@@std@@PAX@1@AAU?$pair@$$CBV?$basic_string@DU?$char_traits@D@std@@V?$allocator@D@2@@std@@PAVfms_fp_item_t@@@1@1@Z 1001fc50 f i fms_fp.obj
 0001:0001ec50       ??$_Insert_at@AAU?$pair@$$CBV?$basic_string@DU?$char_traits@D@std@@V?$allocator@D@2@@std@@M@std@@PAU?$_Tree_node@U?$pair@$$CBV?$basic_string@DU?$char_traits@D@std@@V?$allocator@D@2@@std@@M@std@@PAX@2@@?$_Tree@V?$_Tmap_traits@V?$basic_string@DU?$char_traits@D@std@@V?$allocator@D@2@@std@@MU?$less@V?$basic_string@DU?$char_traits@D@std@@V?$allocator@D@2@@std@@@2@V?$allocator@U?$pair@$$CBV?$basic_string@DU?$char_traits@D@std@@V?$allocator@D@2@@std@@M@std@@@2@$0A@@std@@@std@@IAE?AV?$_Tree_iterator@V?$_Tree_val@U?$_Tree_simple_types@U?$pair@$$CBV?$basic_string@DU?$char_traits@D@std@@V?$allocator@D@2@@std@@M@std@@@std@@@std@@@1@_NPAU?$_Tree_node@U?$pair@$$CBV?$basic_string@DU?$char_traits@D@std@@V?$allocator@D@2@@std@@M@std@@PAX@1@AAU?$pair@$$CBV?$basic_string@DU?$char_traits@D@std@@V?$allocator@D@2@@std@@M@1@1@Z 1001fc50 f i mfdpage_fms.obj
 0001:0001ec50       ??$_Insert_at@AAU?$pair@$$CBV?$basic_string@DU?$char_traits@D@std@@V?$allocator@D@2@@std@@PAVfms_config_item_t@@@std@@PAU?$_Tree_node@U?$pair@$$CBV?$basic_string@DU?$char_traits@D@std@@V?$allocator@D@2@@std@@PAVfms_config_item_t@@@std@@PAX@2@@?$_Tree@V?$_Tmap_traits@V?$basic_string@DU?$char_traits@D@std@@V?$allocator@D@2@@std@@PAVfms_config_item_t@@U?$less@V?$basic_string@DU?$char_traits@D@std@@V?$allocator@D@2@@std@@@2@V?$allocator@U?$pair@$$CBV?$basic_string@DU?$char_traits@D@std@@V?$allocator@D@2@@std@@PAVfms_config_item_t@@@std@@@2@$0A@@std@@@std@@IAE?AV?$_Tree_iterator@V?$_Tree_val@U?$_Tree_simple_types@U?$pair@$$CBV?$basic_string@DU?$char_traits@D@std@@V?$allocator@D@2@@std@@PAVfms_config_item_t@@@std@@@std@@@std@@@1@_NPAU?$_Tree_node@U?$pair@$$CBV?$basic_string@DU?$char_traits@D@std@@V?$allocator@D@2@@std@@PAVfms_config_item_t@@@std@@PAX@1@AAU?$pair@$$CBV?$basic_string@DU?$char_traits@D@std@@V?$allocator@D@2@@std@@PAVfms_config_item_t@@@1@1@Z 1001fc50 f i fms_config.obj
 0001:0001f080       ??$_Insert_nohint@AAU?$pair@$$CBV?$basic_string@DU?$char_traits@D@std@@V?$allocator@D@2@@std@@D@std@@PAU?$_Tree_node@U?$pair@$$CBV?$basic_string@DU?$char_traits@D@std@@V?$allocator@D@2@@std@@D@std@@PAX@2@@?$_Tree@V?$_Tmap_traits@V?$basic_string@DU?$char_traits@D@std@@V?$allocator@D@2@@std@@DU?$less@V?$basic_string@DU?$char_traits@D@std@@V?$allocator@D@2@@std@@@2@V?$allocator@U?$pair@$$CBV?$basic_string@DU?$char_traits@D@std@@V?$allocator@D@2@@std@@D@std@@@2@$0A@@std@@@std@@IAE?AU?$pair@V?$_Tree_iterator@V?$_Tree_val@U?$_Tree_simple_types@U?$pair@$$CBV?$basic_string@DU?$char_traits@D@std@@V?$allocator@D@2@@std@@D@std@@@std@@@std@@@std@@_N@1@_NAAU?$pair@$$CBV?$basic_string@DU?$char_traits@D@std@@V?$allocator@D@2@@std@@D@1@PAU?$_Tree_node@U?$pair@$$CBV?$basic_string@DU?$char_traits@D@std@@V?$allocator@D@2@@std@@D@std@@PAX@1@@Z 10020080 f i mfdpage.obj
 0001:0001f080       ??$_Insert_nohint@AAU?$pair@$$CBV?$basic_string@DU?$char_traits@D@std@@V?$allocator@D@2@@std@@M@std@@PAU?$_Tree_node@U?$pair@$$CBV?$basic_string@DU?$char_traits@D@std@@V?$allocator@D@2@@std@@M@std@@PAX@2@@?$_Tree@V?$_Tmap_traits@V?$basic_string@DU?$char_traits@D@std@@V?$allocator@D@2@@std@@MU?$less@V?$basic_string@DU?$char_traits@D@std@@V?$allocator@D@2@@std@@@2@V?$allocator@U?$pair@$$CBV?$basic_string@DU?$char_traits@D@std@@V?$allocator@D@2@@std@@M@std@@@2@$0A@@std@@@std@@IAE?AU?$pair@V?$_Tree_iterator@V?$_Tree_val@U?$_Tree_simple_types@U?$pair@$$CBV?$basic_string@DU?$char_traits@D@std@@V?$allocator@D@2@@std@@M@std@@@std@@@std@@@std@@_N@1@_NAAU?$pair@$$CBV?$basic_string@DU?$char_traits@D@std@@V?$allocator@D@2@@std@@M@1@PAU?$_Tree_node@U?$pair@$$CBV?$basic_string@DU?$char_traits@D@std@@V?$allocator@D@2@@std@@M@std@@PAX@1@@Z 10020080 f i mfdpage_fms.obj
 0001:0001f080       ??$_Insert_nohint@AAU?$pair@$$CBV?$basic_string@DU?$char_traits@D@std@@V?$allocator@D@2@@std@@PAVfms_config_item_t@@@std@@PAU?$_Tree_node@U?$pair@$$CBV?$basic_string@DU?$char_traits@D@std@@V?$allocator@D@2@@std@@PAVfms_config_item_t@@@std@@PAX@2@@?$_Tree@V?$_Tmap_traits@V?$basic_string@DU?$char_traits@D@std@@V?$allocator@D@2@@std@@PAVfms_config_item_t@@U?$less@V?$basic_string@DU?$char_traits@D@std@@V?$allocator@D@2@@std@@@2@V?$allocator@U?$pair@$$CBV?$basic_string@DU?$char_traits@D@std@@V?$allocator@D@2@@std@@PAVfms_config_item_t@@@std@@@2@$0A@@std@@@std@@IAE?AU?$pair@V?$_Tree_iterator@V?$_Tree_val@U?$_Tree_simple_types@U?$pair@$$CBV?$basic_string@DU?$char_traits@D@std@@V?$allocator@D@2@@std@@PAVfms_config_item_t@@@std@@@std@@@std@@@std@@_N@1@_NAAU?$pair@$$CBV?$basic_string@DU?$char_traits@D@std@@V?$allocator@D@2@@std@@PAVfms_config_item_t@@@1@PAU?$_Tree_node@U?$pair@$$CBV?$basic_string@DU?$char_traits@D@std@@V?$allocator@D@2@@std@@PAVfms_config_item_t@@@std@@PAX@1@@Z 10020080 f i fms_config.obj
 0001:0001f080       ??$_Insert_nohint@AAU?$pair@$$CBV?$basic_string@DU?$char_traits@D@std@@V?$allocator@D@2@@std@@PAVfms_fp_item_t@@@std@@PAU?$_Tree_node@U?$pair@$$CBV?$basic_string@DU?$char_traits@D@std@@V?$allocator@D@2@@std@@PAVfms_fp_item_t@@@std@@PAX@2@@?$_Tree@V?$_Tmap_traits@V?$basic_string@DU?$char_traits@D@std@@V?$allocator@D@2@@std@@PAVfms_fp_item_t@@U?$less@V?$basic_string@DU?$char_traits@D@std@@V?$allocator@D@2@@std@@@2@V?$allocator@U?$pair@$$CBV?$basic_string@DU?$char_traits@D@std@@V?$allocator@D@2@@std@@PAVfms_fp_item_t@@@std@@@2@$0A@@std@@@std@@IAE?AU?$pair@V?$_Tree_iterator@V?$_Tree_val@U?$_Tree_simple_types@U?$pair@$$CBV?$basic_string@DU?$char_traits@D@std@@V?$allocator@D@2@@std@@PAVfms_fp_item_t@@@std@@@std@@@std@@@std@@_N@1@_NAAU?$pair@$$CBV?$basic_string@DU?$char_traits@D@std@@V?$allocator@D@2@@std@@PAVfms_fp_item_t@@@1@PAU?$_Tree_node@U?$pair@$$CBV?$basic_string@DU?$char_traits@D@std@@V?$allocator@D@2@@std@@PAVfms_fp_item_t@@@std@@PAX@1@@Z 10020080 f i fms_fp.obj
 0001:0001f080       ??$_Insert_nohint@AAU?$pair@$$CBV?$basic_string@DU?$char_traits@D@std@@V?$allocator@D@2@@std@@H@std@@PAU?$_Tree_node@U?$pair@$$CBV?$basic_string@DU?$char_traits@D@std@@V?$allocator@D@2@@std@@H@std@@PAX@2@@?$_Tree@V?$_Tmap_traits@V?$basic_string@DU?$char_traits@D@std@@V?$allocator@D@2@@std@@HU?$less@V?$basic_string@DU?$char_traits@D@std@@V?$allocator@D@2@@std@@@2@V?$allocator@U?$pair@$$CBV?$basic_string@DU?$char_traits@D@std@@V?$allocator@D@2@@std@@H@std@@@2@$0A@@std@@@std@@IAE?AU?$pair@V?$_Tree_iterator@V?$_Tree_val@U?$_Tree_simple_types@U?$pair@$$CBV?$basic_string@DU?$char_traits@D@std@@V?$allocator@D@2@@std@@H@std@@@std@@@std@@@std@@_N@1@_NAAU?$pair@$$CBV?$basic_string@DU?$char_traits@D@std@@V?$allocator@D@2@@std@@H@1@PAU?$_Tree_node@U?$pair@$$CBV?$basic_string@DU?$char_traits@D@std@@V?$allocator@D@2@@std@@H@std@@PAX@1@@Z 10020080 f i mfdpage.obj
 0001:0001f350       ??$construct@U?$pair@$$CBV?$basic_string@DU?$char_traits@D@std@@V?$allocator@D@2@@std@@PAVfms_config_item_t@@@std@@ABUpiecewise_construct_t@2@V?$tuple@ABV?$basic_string@DU?$char_traits@D@std@@V?$allocator@D@2@@std@@@2@V?$tuple@$$$V@2@@?$_Wrap_alloc@V?$allocator@U?$_Tree_node@U?$pair@$$CBV?$basic_string@DU?$char_traits@D@std@@V?$allocator@D@2@@std@@PAVfms_config_item_t@@@std@@PAX@std@@@std@@@std@@QAEXPAU?$pair@$$CBV?$basic_string@DU?$char_traits@D@std@@V?$allocator@D@2@@std@@PAVfms_config_item_t@@@1@ABUpiecewise_construct_t@1@$$QAV?$tuple@ABV?$basic_string@DU?$char_traits@D@std@@V?$allocator@D@2@@std@@@1@$$QAV?$tuple@$$$V@1@@Z 10020350 f i fms_config.obj
 0001:0001f350       ??$construct@U?$pair@$$CBV?$basic_string@DU?$char_traits@D@std@@V?$allocator@D@2@@std@@PAVfms_fp_item_t@@@std@@ABUpiecewise_construct_t@2@V?$tuple@ABV?$basic_string@DU?$char_traits@D@std@@V?$allocator@D@2@@std@@@2@V?$tuple@$$$V@2@@?$_Wrap_alloc@V?$allocator@U?$_Tree_node@U?$pair@$$CBV?$basic_string@DU?$char_traits@D@std@@V?$allocator@D@2@@std@@PAVfms_fp_item_t@@@std@@PAX@std@@@std@@@std@@QAEXPAU?$pair@$$CBV?$basic_string@DU?$char_traits@D@std@@V?$allocator@D@2@@std@@PAVfms_fp_item_t@@@1@ABUpiecewise_construct_t@1@$$QAV?$tuple@ABV?$basic_string@DU?$char_traits@D@std@@V?$allocator@D@2@@std@@@1@$$QAV?$tuple@$$$V@1@@Z 10020350 f i fms_fp.obj
 0001:0001f3a0       ??$construct@U?$pair@$$CBV?$basic_string@DU?$char_traits@D@std@@V?$allocator@D@2@@std@@PAVfms_fp_item_t@@@std@@ABUpiecewise_construct_t@2@V?$tuple@ABV?$basic_string@DU?$char_traits@D@std@@V?$allocator@D@2@@std@@@2@V?$tuple@$$$V@2@@?$allocator@U?$_Tree_node@U?$pair@$$CBV?$basic_string@DU?$char_traits@D@std@@V?$allocator@D@2@@std@@PAVfms_fp_item_t@@@std@@PAX@std@@@std@@QAEXPAU?$pair@$$CBV?$basic_string@DU?$char_traits@D@std@@V?$allocator@D@2@@std@@PAVfms_fp_item_t@@@1@ABUpiecewise_construct_t@1@$$QAV?$tuple@ABV?$basic_string@DU?$char_traits@D@std@@V?$allocator@D@2@@std@@@1@$$QAV?$tuple@$$$V@1@@Z 100203a0 f i fms_fp.obj
 0001:0001f3a0       ??$construct@U?$pair@$$CBV?$basic_string@DU?$char_traits@D@std@@V?$allocator@D@2@@std@@PAVfms_config_item_t@@@std@@ABUpiecewise_construct_t@2@V?$tuple@ABV?$basic_string@DU?$char_traits@D@std@@V?$allocator@D@2@@std@@@2@V?$tuple@$$$V@2@@?$allocator@U?$_Tree_node@U?$pair@$$CBV?$basic_string@DU?$char_traits@D@std@@V?$allocator@D@2@@std@@PAVfms_config_item_t@@@std@@PAX@std@@@std@@QAEXPAU?$pair@$$CBV?$basic_string@DU?$char_traits@D@std@@V?$allocator@D@2@@std@@PAVfms_config_item_t@@@1@ABUpiecewise_construct_t@1@$$QAV?$tuple@ABV?$basic_string@DU?$char_traits@D@std@@V?$allocator@D@2@@std@@@1@$$QAV?$tuple@$$$V@1@@Z 100203a0 f i fms_config.obj
 0001:0001f410       ??$construct@U?$pair@$$CBV?$basic_string@DU?$char_traits@D@std@@V?$allocator@D@2@@std@@PAVfms_fp_item_t@@@std@@ABUpiecewise_construct_t@2@V?$tuple@ABV?$basic_string@DU?$char_traits@D@std@@V?$allocator@D@2@@std@@@2@V?$tuple@$$$V@2@@?$allocator_traits@V?$allocator@U?$_Tree_node@U?$pair@$$CBV?$basic_string@DU?$char_traits@D@std@@V?$allocator@D@2@@std@@PAVfms_fp_item_t@@@std@@PAX@std@@@std@@@std@@SAXAAV?$allocator@U?$_Tree_node@U?$pair@$$CBV?$basic_string@DU?$char_traits@D@std@@V?$allocator@D@2@@std@@PAVfms_fp_item_t@@@std@@PAX@std@@@1@PAU?$pair@$$CBV?$basic_string@DU?$char_traits@D@std@@V?$allocator@D@2@@std@@PAVfms_fp_item_t@@@1@ABUpiecewise_construct_t@1@$$QAV?$tuple@ABV?$basic_string@DU?$char_traits@D@std@@V?$allocator@D@2@@std@@@1@$$QAV?$tuple@$$$V@1@@Z 10020410 f i fms_fp.obj
 0001:0001f410       ??$construct@U?$pair@$$CBV?$basic_string@DU?$char_traits@D@std@@V?$allocator@D@2@@std@@PAVfms_config_item_t@@@std@@ABUpiecewise_construct_t@2@V?$tuple@ABV?$basic_string@DU?$char_traits@D@std@@V?$allocator@D@2@@std@@@2@V?$tuple@$$$V@2@@?$allocator_traits@V?$allocator@U?$_Tree_node@U?$pair@$$CBV?$basic_string@DU?$char_traits@D@std@@V?$allocator@D@2@@std@@PAVfms_config_item_t@@@std@@PAX@std@@@std@@@std@@SAXAAV?$allocator@U?$_Tree_node@U?$pair@$$CBV?$basic_string@DU?$char_traits@D@std@@V?$allocator@D@2@@std@@PAVfms_config_item_t@@@std@@PAX@std@@@1@PAU?$pair@$$CBV?$basic_string@DU?$char_traits@D@std@@V?$allocator@D@2@@std@@PAVfms_config_item_t@@@1@ABUpiecewise_construct_t@1@$$QAV?$tuple@ABV?$basic_string@DU?$char_traits@D@std@@V?$allocator@D@2@@std@@@1@$$QAV?$tuple@$$$V@1@@Z 10020410 f i fms_config.obj
 0001:0001f450       ??0?$_Tree_alloc@$0A@U?$_Tree_base_types@U?$pair@$$CBHPAVobject_t@@@std@@V?$allocator@U?$pair@$$CBHPAVobject_t@@@std@@@2@@std@@@std@@QAE@ABV?$allocator@U?$pair@$$CBHPAVobject_t@@@std@@@1@@Z 10020450 f i mfdpage.obj
 0001:0001f450       ??0?$_Tree_alloc@$0A@U?$_Tree_base_types@U?$pair@$$CBHM@std@@V?$allocator@U?$pair@$$CBHM@std@@@2@@std@@@std@@QAE@ABV?$allocator@U?$pair@$$CBHM@std@@@1@@Z 10020450 f i fms_config.obj
 0001:0001f450       ??0?$_Tree_alloc@$0A@U?$_Tree_base_types@U?$pair@$$CBHPAVfms_fp_item_t@@@std@@V?$allocator@U?$pair@$$CBHPAVfms_fp_item_t@@@std@@@2@@std@@@std@@QAE@ABV?$allocator@U?$pair@$$CBHPAVfms_fp_item_t@@@std@@@1@@Z 10020450 f i fms_fp.obj
 0001:0001f480       ??0?$_Tree_buy@U?$pair@$$CBHPAVobject_t@@@std@@V?$allocator@U?$pair@$$CBHPAVobject_t@@@std@@@2@@std@@QAE@ABV?$allocator@U?$pair@$$CBHPAVobject_t@@@std@@@1@@Z 10020480 f i mfdpage.obj
 0001:0001f480       ??0?$_Tree_buy@U?$pair@$$CBHPAVfms_fp_item_t@@@std@@V?$allocator@U?$pair@$$CBHPAVfms_fp_item_t@@@std@@@2@@std@@QAE@ABV?$allocator@U?$pair@$$CBHPAVfms_fp_item_t@@@std@@@1@@Z 10020480 f i fms_fp.obj
 0001:0001f480       ??0?$_Tree_buy@U?$pair@$$CBHM@std@@V?$allocator@U?$pair@$$CBHM@std@@@2@@std@@QAE@ABV?$allocator@U?$pair@$$CBHM@std@@@1@@Z 10020480 f i fms_config.obj
 0001:0001f4a0       ??0?$_Tree_comp@$0A@V?$_Tmap_traits@HMU?$less@H@std@@V?$allocator@U?$pair@$$CBHM@std@@@2@$0A@@std@@@std@@QAE@ABU?$less@H@1@ABV?$allocator@U?$pair@$$CBHM@std@@@1@@Z 100204a0 f i fms_config.obj
 0001:0001f4a0       ??0?$_Tree_comp@$0A@V?$_Tmap_traits@HPAVobject_t@@U?$less@H@std@@V?$allocator@U?$pair@$$CBHPAVobject_t@@@std@@@3@$0A@@std@@@std@@QAE@ABU?$less@H@1@ABV?$allocator@U?$pair@$$CBHPAVobject_t@@@std@@@1@@Z 100204a0 f i mfdpage.obj
 0001:0001f4a0       ??0?$_Tree_comp@$0A@V?$_Tmap_traits@HPAVfms_fp_item_t@@U?$less@H@std@@V?$allocator@U?$pair@$$CBHPAVfms_fp_item_t@@@std@@@3@$0A@@std@@@std@@QAE@ABU?$less@H@1@ABV?$allocator@U?$pair@$$CBHPAVfms_fp_item_t@@@std@@@1@@Z 100204a0 f i fms_fp.obj
 0001:0001f4c0       ??0?$_Tree_const_iterator@V?$_Tree_val@U?$_Tree_simple_types@U?$pair@$$CBV?$basic_string@DU?$char_traits@D@std@@V?$allocator@D@2@@std@@PAVfms_config_item_t@@@std@@@std@@@std@@@std@@QAE@XZ 100204c0 f i fms_config.obj
 0001:0001f4c0       ??0?$_Tree_const_iterator@V?$_Tree_val@U?$_Tree_simple_types@U?$pair@$$CBV?$basic_string@DU?$char_traits@D@std@@V?$allocator@D@2@@std@@PAVfms_fp_item_t@@@std@@@std@@@std@@@std@@QAE@XZ 100204c0 f i fms_fp.obj
 0001:0001f4c0       ??0?$_Tree_const_iterator@V?$_Tree_val@U?$_Tree_simple_types@U?$pair@$$CBHV?$basic_string@DU?$char_traits@D@std@@V?$allocator@D@2@@std@@@std@@@std@@@std@@@std@@QAE@XZ 100204c0 f i out_saitek.obj
 0001:0001f4c0       ??0?$_Tree_const_iterator@V?$_Tree_val@U?$_Tree_simple_types@U?$pair@$$CBV?$basic_string@DU?$char_traits@D@std@@V?$allocator@D@2@@std@@V12@@std@@@std@@@std@@@std@@QAE@XZ 100204c0 f i tools.obj
 0001:0001f4c0       ??0?$_Tree_const_iterator@V?$_Tree_val@U?$_Tree_simple_types@U?$pair@$$CBV?$basic_string@DU?$char_traits@D@std@@V?$allocator@D@2@@std@@D@std@@@std@@@std@@@std@@QAE@XZ 100204c0 f i mfdpage.obj
 0001:0001f4c0       ??0?$_Tree_const_iterator@V?$_Tree_val@U?$_Tree_simple_types@U?$pair@$$CBHPAVobject_t@@@std@@@std@@@std@@@std@@QAE@XZ 100204c0 f i mfdpage.obj
 0001:0001f4c0       ??0?$_Tree_const_iterator@V?$_Tree_val@U?$_Tree_simple_types@U?$pair@$$CBV?$basic_string@DU?$char_traits@D@std@@V?$allocator@D@2@@std@@H@std@@@std@@@std@@@std@@QAE@XZ 100204c0 f i mfdpage.obj
 0001:0001f4c0       ??0?$_Tree_const_iterator@V?$_Tree_val@U?$_Tree_simple_types@U?$pair@$$CBHPAVfms_fp_item_t@@@std@@@std@@@std@@@std@@QAE@XZ 100204c0 f i mfdpage_fms.obj
 0001:0001f4c0       ??0?$_Tree_const_iterator@V?$_Tree_val@U?$_Tree_simple_types@U?$pair@$$CBHM@std@@@std@@@std@@@std@@QAE@XZ 100204c0 f i fms_config.obj
 0001:0001f4c0       ??0?$_Tree_const_iterator@V?$_Tree_val@U?$_Tree_simple_types@U?$pair@$$CBV?$basic_string@DU?$char_traits@D@std@@V?$allocator@D@2@@std@@M@std@@@std@@@std@@@std@@QAE@XZ 100204c0 f i mfdpage_fms.obj
 0001:0001f4e0       ??A?$map@V?$basic_string@DU?$char_traits@D@std@@V?$allocator@D@2@@std@@PAVfms_fp_item_t@@U?$less@V?$basic_string@DU?$char_traits@D@std@@V?$allocator@D@2@@std@@@2@V?$allocator@U?$pair@$$CBV?$basic_string@DU?$char_traits@D@std@@V?$allocator@D@2@@std@@PAVfms_fp_item_t@@@std@@@2@@std@@QAEAAPAVfms_fp_item_t@@ABV?$basic_string@DU?$char_traits@D@std@@V?$allocator@D@2@@1@@Z 100204e0 f i fms_fp.obj
 0001:0001f590       ?_Destroy_if_not_nil@?$_Tree@V?$_Tmap_traits@V?$basic_string@DU?$char_traits@D@std@@V?$allocator@D@2@@std@@PAVfms_fp_item_t@@U?$less@V?$basic_string@DU?$char_traits@D@std@@V?$allocator@D@2@@std@@@2@V?$allocator@U?$pair@$$CBV?$basic_string@DU?$char_traits@D@std@@V?$allocator@D@2@@std@@PAVfms_fp_item_t@@@std@@@2@$0A@@std@@@std@@IAEXPAU?$_Tree_node@U?$pair@$$CBV?$basic_string@DU?$char_traits@D@std@@V?$allocator@D@2@@std@@PAVfms_fp_item_t@@@std@@PAX@2@@Z 10020590 f i fms_fp.obj
 0001:0001f590       ?_Destroy_if_not_nil@?$_Tree@V?$_Tmap_traits@V?$basic_string@DU?$char_traits@D@std@@V?$allocator@D@2@@std@@MU?$less@V?$basic_string@DU?$char_traits@D@std@@V?$allocator@D@2@@std@@@2@V?$allocator@U?$pair@$$CBV?$basic_string@DU?$char_traits@D@std@@V?$allocator@D@2@@std@@M@std@@@2@$0A@@std@@@std@@IAEXPAU?$_Tree_node@U?$pair@$$CBV?$basic_string@DU?$char_traits@D@std@@V?$allocator@D@2@@std@@M@std@@PAX@2@@Z 10020590 f i mfdpage_fms.obj
 0001:0001f590       ?_Destroy_if_not_nil@?$_Tree@V?$_Tmap_traits@V?$basic_string@DU?$char_traits@D@std@@V?$allocator@D@2@@std@@HU?$less@V?$basic_string@DU?$char_traits@D@std@@V?$allocator@D@2@@std@@@2@V?$allocator@U?$pair@$$CBV?$basic_string@DU?$char_traits@D@std@@V?$allocator@D@2@@std@@H@std@@@2@$0A@@std@@@std@@IAEXPAU?$_Tree_node@U?$pair@$$CBV?$basic_string@DU?$char_traits@D@std@@V?$allocator@D@2@@std@@H@std@@PAX@2@@Z 10020590 f i mfdpage.obj
 0001:0001f590       ?_Destroy_if_not_nil@?$_Tree@V?$_Tmap_traits@V?$basic_string@DU?$char_traits@D@std@@V?$allocator@D@2@@std@@DU?$less@V?$basic_string@DU?$char_traits@D@std@@V?$allocator@D@2@@std@@@2@V?$allocator@U?$pair@$$CBV?$basic_string@DU?$char_traits@D@std@@V?$allocator@D@2@@std@@D@std@@@2@$0A@@std@@@std@@IAEXPAU?$_Tree_node@U?$pair@$$CBV?$basic_string@DU?$char_traits@D@std@@V?$allocator@D@2@@std@@D@std@@PAX@2@@Z 10020590 f i mfdpage.obj
 0001:0001f590       ?_Destroy_if_not_nil@?$_Tree@V?$_Tmap_traits@V?$basic_string@DU?$char_traits@D@std@@V?$allocator@D@2@@std@@PAVfms_config_item_t@@U?$less@V?$basic_string@DU?$char_traits@D@std@@V?$allocator@D@2@@std@@@2@V?$allocator@U?$pair@$$CBV?$basic_string@DU?$char_traits@D@std@@V?$allocator@D@2@@std@@PAVfms_config_item_t@@@std@@@2@$0A@@std@@@std@@IAEXPAU?$_Tree_node@U?$pair@$$CBV?$basic_string@DU?$char_traits@D@std@@V?$allocator@D@2@@std@@PAVfms_config_item_t@@@std@@PAX@2@@Z 10020590 f i fms_config.obj
 0001:0001f5f0       ?erase@?$_Tree@V?$_Tmap_traits@V?$basic_string@DU?$char_traits@D@std@@V?$allocator@D@2@@std@@MU?$less@V?$basic_string@DU?$char_traits@D@std@@V?$allocator@D@2@@std@@@2@V?$allocator@U?$pair@$$CBV?$basic_string@DU?$char_traits@D@std@@V?$allocator@D@2@@std@@M@std@@@2@$0A@@std@@@std@@QAE?AV?$_Tree_iterator@V?$_Tree_val@U?$_Tree_simple_types@U?$pair@$$CBV?$basic_string@DU?$char_traits@D@std@@V?$allocator@D@2@@std@@M@std@@@std@@@std@@@2@V?$_Tree_const_iterator@V?$_Tree_val@U?$_Tree_simple_types@U?$pair@$$CBV?$basic_string@DU?$char_traits@D@std@@V?$allocator@D@2@@std@@M@std@@@std@@@std@@@2@@Z 100205f0 f i fms_config.obj
 0001:0001f5f0       ?erase@?$_Tree@V?$_Tmap_traits@V?$basic_string@DU?$char_traits@D@std@@V?$allocator@D@2@@std@@HU?$less@V?$basic_string@DU?$char_traits@D@std@@V?$allocator@D@2@@std@@@2@V?$allocator@U?$pair@$$CBV?$basic_string@DU?$char_traits@D@std@@V?$allocator@D@2@@std@@H@std@@@2@$0A@@std@@@std@@QAE?AV?$_Tree_iterator@V?$_Tree_val@U?$_Tree_simple_types@U?$pair@$$CBV?$basic_string@DU?$char_traits@D@std@@V?$allocator@D@2@@std@@H@std@@@std@@@std@@@2@V?$_Tree_const_iterator@V?$_Tree_val@U?$_Tree_simple_types@U?$pair@$$CBV?$basic_string@DU?$char_traits@D@std@@V?$allocator@D@2@@std@@H@std@@@std@@@std@@@2@@Z 100205f0 f i mfdpage.obj
 0001:0001f5f0       ?erase@?$_Tree@V?$_Tmap_traits@V?$basic_string@DU?$char_traits@D@std@@V?$allocator@D@2@@std@@PAVfms_fp_item_t@@U?$less@V?$basic_string@DU?$char_traits@D@std@@V?$allocator@D@2@@std@@@2@V?$allocator@U?$pair@$$CBV?$basic_string@DU?$char_traits@D@std@@V?$allocator@D@2@@std@@PAVfms_fp_item_t@@@std@@@2@$0A@@std@@@std@@QAE?AV?$_Tree_iterator@V?$_Tree_val@U?$_Tree_simple_types@U?$pair@$$CBV?$basic_string@DU?$char_traits@D@std@@V?$allocator@D@2@@std@@PAVfms_fp_item_t@@@std@@@std@@@std@@@2@V?$_Tree_const_iterator@V?$_Tree_val@U?$_Tree_simple_types@U?$pair@$$CBV?$basic_string@DU?$char_traits@D@std@@V?$allocator@D@2@@std@@PAVfms_fp_item_t@@@std@@@std@@@std@@@2@@Z 100205f0 f i fms_fp.obj
 0001:0001f5f0       ?erase@?$_Tree@V?$_Tmap_traits@V?$basic_string@DU?$char_traits@D@std@@V?$allocator@D@2@@std@@PAVfms_config_item_t@@U?$less@V?$basic_string@DU?$char_traits@D@std@@V?$allocator@D@2@@std@@@2@V?$allocator@U?$pair@$$CBV?$basic_string@DU?$char_traits@D@std@@V?$allocator@D@2@@std@@PAVfms_config_item_t@@@std@@@2@$0A@@std@@@std@@QAE?AV?$_Tree_iterator@V?$_Tree_val@U?$_Tree_simple_types@U?$pair@$$CBV?$basic_string@DU?$char_traits@D@std@@V?$allocator@D@2@@std@@PAVfms_config_item_t@@@std@@@std@@@std@@@2@V?$_Tree_const_iterator@V?$_Tree_val@U?$_Tree_simple_types@U?$pair@$$CBV?$basic_string@DU?$char_traits@D@std@@V?$allocator@D@2@@std@@PAVfms_config_item_t@@@std@@@std@@@std@@@2@@Z 100205f0 f i fms_config.obj
 0001:0001fd70       ?max_size@?$allocator@U?$_Tree_node@U?$pair@$$CBV?$basic_string@DU?$char_traits@D@std@@V?$allocator@D@2@@std@@M@std@@PAX@std@@@std@@QBEIXZ 10020d70 f i mfdpage_fms.obj
 0001:0001fd70       ?max_size@?$allocator@U?$_Tree_node@U?$pair@$$CBV?$basic_string@DU?$char_traits@D@std@@V?$allocator@D@2@@std@@PAVfms_config_item_t@@@std@@PAX@std@@@std@@QBEIXZ 10020d70 f i fms_config.obj
 0001:0001fd70       ?max_size@?$allocator@U?$_Tree_node@U?$pair@$$CBHV?$basic_string@DU?$char_traits@D@std@@V?$allocator@D@2@@std@@@std@@PAX@std@@@std@@QBEIXZ 10020d70 f i out_saitek.obj
 0001:0001fd70       ?max_size@?$allocator@U?$_Tree_node@U?$pair@$$CBV?$basic_string@DU?$char_traits@D@std@@V?$allocator@D@2@@std@@PAVfms_fp_item_t@@@std@@PAX@std@@@std@@QBEIXZ 10020d70 f i fms_fp.obj
 0001:0001fd70       ?max_size@?$allocator@U?$_Tree_node@U?$pair@$$CBV?$basic_string@DU?$char_traits@D@std@@V?$allocator@D@2@@std@@H@std@@PAX@std@@@std@@QBEIXZ 10020d70 f i mfdpage.obj
 0001:0001fd70       ?max_size@?$allocator@U?$_Tree_node@U?$pair@$$CBV?$basic_string@DU?$char_traits@D@std@@V?$allocator@D@2@@std@@D@std@@PAX@std@@@std@@QBEIXZ 10020d70 f i mfdpage.obj
 0001:0001fd80       ?max_size@?$allocator_traits@V?$allocator@U?$_Tree_node@U?$pair@$$CBV?$basic_string@DU?$char_traits@D@std@@V?$allocator@D@2@@std@@D@std@@PAX@std@@@std@@@std@@SAIABV?$allocator@U?$_Tree_node@U?$pair@$$CBV?$basic_string@DU?$char_traits@D@std@@V?$allocator@D@2@@std@@D@std@@PAX@std@@@2@@Z 10020d80 f i mfdpage.obj
 0001:0001fd80       ?max_size@?$allocator_traits@V?$allocator@U?$_Tree_node@U?$pair@$$CBV?$basic_string@DU?$char_traits@D@std@@V?$allocator@D@2@@std@@PAVfms_config_item_t@@@std@@PAX@std@@@std@@@std@@SAIABV?$allocator@U?$_Tree_node@U?$pair@$$CBV?$basic_string@DU?$char_traits@D@std@@V?$allocator@D@2@@std@@PAVfms_config_item_t@@@std@@PAX@std@@@2@@Z 10020d80 f i fms_config.obj
 0001:0001fd80       ?max_size@?$allocator_traits@V?$allocator@U?$_Tree_node@U?$pair@$$CBHV?$basic_string@DU?$char_traits@D@std@@V?$allocator@D@2@@std@@@std@@PAX@std@@@std@@@std@@SAIABV?$allocator@U?$_Tree_node@U?$pair@$$CBHV?$basic_string@DU?$char_traits@D@std@@V?$allocator@D@2@@std@@@std@@PAX@std@@@2@@Z 10020d80 f i out_saitek.obj
 0001:0001fd80       ?max_size@?$allocator_traits@V?$allocator@U?$_Tree_node@U?$pair@$$CBV?$basic_string@DU?$char_traits@D@std@@V?$allocator@D@2@@std@@H@std@@PAX@std@@@std@@@std@@SAIABV?$allocator@U?$_Tree_node@U?$pair@$$CBV?$basic_string@DU?$char_traits@D@std@@V?$allocator@D@2@@std@@H@std@@PAX@std@@@2@@Z 10020d80 f i mfdpage.obj
 0001:0001fd80       ?max_size@?$allocator_traits@V?$allocator@U?$_Tree_node@U?$pair@$$CBV?$basic_string@DU?$char_traits@D@std@@V?$allocator@D@2@@std@@M@std@@PAX@std@@@std@@@std@@SAIABV?$allocator@U?$_Tree_node@U?$pair@$$CBV?$basic_string@DU?$char_traits@D@std@@V?$allocator@D@2@@std@@M@std@@PAX@std@@@2@@Z 10020d80 f i mfdpage_fms.obj
 0001:0001fd80       ?max_size@?$allocator_traits@V?$allocator@U?$_Tree_node@U?$pair@$$CBV?$basic_string@DU?$char_traits@D@std@@V?$allocator@D@2@@std@@PAVfms_fp_item_t@@@std@@PAX@std@@@std@@@std@@SAIABV?$allocator@U?$_Tree_node@U?$pair@$$CBV?$basic_string@DU?$char_traits@D@std@@V?$allocator@D@2@@std@@PAVfms_fp_item_t@@@std@@PAX@std@@@2@@Z 10020d80 f i fms_fp.obj
 0001:0001fd90       ??0fms_utils_t@@QAE@XZ     10020d90 f   fms_utils.obj
 0001:0001fda0       ?time2minutes@fms_utils_t@@QAEMV?$basic_string@DU?$char_traits@D@std@@V?$allocator@D@2@@std@@@Z 10020da0 f   fms_utils.obj
 0001:0001fe10       ?minutes2time@fms_utils_t@@QAE?AV?$basic_string@DU?$char_traits@D@std@@V?$allocator@D@2@@std@@M@Z 10020e10 f   fms_utils.obj
 0001:0001ff40       ?zulu2time@fms_utils_t@@QAE?AV?$basic_string@DU?$char_traits@D@std@@V?$allocator@D@2@@std@@M@Z 10020f40 f   fms_utils.obj
 0001:0001ff80       ?zulu2minutes@fms_utils_t@@QAEMM@Z 10020f80 f   fms_utils.obj
 0001:0001fff0       ?kts2kmm@fms_utils_t@@QAEMM@Z 10020ff0 f   fms_utils.obj
 0001:00020020       ?ms2kts@fms_utils_t@@QAEMM@Z 10021020 f   fms_utils.obj
 0001:00020050       ?nm2km@fms_utils_t@@QAEMM@Z 10021050 f   fms_utils.obj
 0001:00020080       ?deg2rad@fms_utils_t@@QAENN@Z 10021080 f   fms_utils.obj
 0001:000200b0       ?rad2deg@fms_utils_t@@QAENN@Z 100210b0 f   fms_utils.obj
 0001:000200e0       ?altitude2string@fms_utils_t@@QAE?AV?$basic_string@DU?$char_traits@D@std@@V?$allocator@D@2@@std@@M@Z 100210e0 f   fms_utils.obj
 0001:00020250       ?delay2string@fms_utils_t@@QAE?AV?$basic_string@DU?$char_traits@D@std@@V?$allocator@D@2@@std@@M@Z 10021250 f   fms_utils.obj
 0001:00020400       ?getInstance@config_t@@SAPAV1@XZ 10021400 f   config.obj
 0001:00020470       ?read_config@config_t@@QAEXXZ 10021470 f   config.obj
 0001:00020490       ?read_config_main@config_t@@QAEXXZ 10021490 f   config.obj
 0001:000204d0       ?read_config_fms@config_t@@QAEXXZ 100214d0 f   config.obj
 0001:00020580       ?get_config@config_t@@QAE?AV?$map@V?$basic_string@DU?$char_traits@D@std@@V?$allocator@D@2@@std@@V12@U?$less@V?$basic_string@DU?$char_traits@D@std@@V?$allocator@D@2@@std@@@2@V?$allocator@U?$pair@$$CBV?$basic_string@DU?$char_traits@D@std@@V?$allocator@D@2@@std@@V12@@std@@@2@@std@@XZ 10021580 f   config.obj
 0001:000205a0       ?get_config_fms@config_t@@QAE?AV?$map@V?$basic_string@DU?$char_traits@D@std@@V?$allocator@D@2@@std@@V12@U?$less@V?$basic_string@DU?$char_traits@D@std@@V?$allocator@D@2@@std@@@2@V?$allocator@U?$pair@$$CBV?$basic_string@DU?$char_traits@D@std@@V?$allocator@D@2@@std@@V12@@std@@@2@@std@@XZ 100215a0 f   config.obj
 0001:000205c0       ?set_fms_config@config_t@@QAEXV?$basic_string@DU?$char_traits@D@std@@V?$allocator@D@2@@std@@00@Z 100215c0 f   config.obj
 0001:000206c0       ?get_fms_local_path@config_t@@AAE?AV?$basic_string@DU?$char_traits@D@std@@V?$allocator@D@2@@std@@XZ 100216c0 f   config.obj
 0001:00020820       ?do_read_config@config_t@@AAE?AV?$map@V?$basic_string@DU?$char_traits@D@std@@V?$allocator@D@2@@std@@V12@U?$less@V?$basic_string@DU?$char_traits@D@std@@V?$allocator@D@2@@std@@@2@V?$allocator@U?$pair@$$CBV?$basic_string@DU?$char_traits@D@std@@V?$allocator@D@2@@std@@V12@@std@@@2@@std@@PAD@Z 10021820 f   config.obj
 0001:00020ae0       ?debug_out@config_t@@AAAXHPBDZZ 10021ae0 f   config.obj
 0001:00020d10       ??$_Buynode@AAU?$pair@$$CBV?$basic_string@DU?$char_traits@D@std@@V?$allocator@D@2@@std@@V12@@std@@@?$_Tree_buy@U?$pair@$$CBV?$basic_string@DU?$char_traits@D@std@@V?$allocator@D@2@@std@@V12@@std@@V?$allocator@U?$pair@$$CBV?$basic_string@DU?$char_traits@D@std@@V?$allocator@D@2@@std@@V12@@std@@@2@@std@@QAEPAU?$_Tree_node@U?$pair@$$CBV?$basic_string@DU?$char_traits@D@std@@V?$allocator@D@2@@std@@V12@@std@@PAX@1@AAU?$pair@$$CBV?$basic_string@DU?$char_traits@D@std@@V?$allocator@D@2@@std@@V12@@1@@Z 10021d10 f i config.obj
 0001:00020df0       ??$_Copy@U?$integral_constant@_N$0A@@std@@@?$_Tree@V?$_Tmap_traits@V?$basic_string@DU?$char_traits@D@std@@V?$allocator@D@2@@std@@V12@U?$less@V?$basic_string@DU?$char_traits@D@std@@V?$allocator@D@2@@std@@@2@V?$allocator@U?$pair@$$CBV?$basic_string@DU?$char_traits@D@std@@V?$allocator@D@2@@std@@V12@@std@@@2@$0A@@std@@@std@@IAEXABV01@U?$integral_constant@_N$0A@@1@@Z 10021df0 f i config.obj
 0001:00020eb0       ??$_Copy_nodes@U?$integral_constant@_N$0A@@std@@@?$_Tree@V?$_Tmap_traits@V?$basic_string@DU?$char_traits@D@std@@V?$allocator@D@2@@std@@V12@U?$less@V?$basic_string@DU?$char_traits@D@std@@V?$allocator@D@2@@std@@@2@V?$allocator@U?$pair@$$CBV?$basic_string@DU?$char_traits@D@std@@V?$allocator@D@2@@std@@V12@@std@@@2@$0A@@std@@@std@@IAEPAU?$_Tree_node@U?$pair@$$CBV?$basic_string@DU?$char_traits@D@std@@V?$allocator@D@2@@std@@V12@@std@@PAX@1@PAU21@0U?$integral_constant@_N$0A@@1@@Z 10021eb0 f i config.obj
 0001:00021010       ??$_Copy_or_move@U?$integral_constant@_N$0A@@std@@U?$integral_constant@_N$00@2@U12@H@?$_Tree@V?$_Tmap_traits@V?$basic_string@DU?$char_traits@D@std@@V?$allocator@D@2@@std@@V12@U?$less@V?$basic_string@DU?$char_traits@D@std@@V?$allocator@D@2@@std@@@2@V?$allocator@U?$pair@$$CBV?$basic_string@DU?$char_traits@D@std@@V?$allocator@D@2@@std@@V12@@std@@@2@$0A@@std@@@std@@IAEPAU?$_Tree_node@U?$pair@$$CBV?$basic_string@DU?$char_traits@D@std@@V?$allocator@D@2@@std@@V12@@std@@PAX@1@PAU21@U?$integral_constant@_N$0A@@1@U?$integral_constant@_N$00@1@1H@Z 10022010 f i config.obj
 0001:00021040       ??$_Fgetc@D@std@@YA_NAADPAU_iobuf@@@Z 10022040 f i config.obj
 0001:00021070       ??$_Fputc@D@std@@YA_NDPAU_iobuf@@@Z 10022070 f i config.obj
 0001:000210b0       ??$_Ungetc@D@std@@YA_NABDPAU_iobuf@@@Z 100220b0 f i config.obj
 0001:000210f0       ??$construct@U?$pair@$$CBV?$basic_string@DU?$char_traits@D@std@@V?$allocator@D@2@@std@@V12@@std@@AAU12@@?$_Wrap_alloc@V?$allocator@U?$_Tree_node@U?$pair@$$CBV?$basic_string@DU?$char_traits@D@std@@V?$allocator@D@2@@std@@V12@@std@@PAX@std@@@std@@@std@@QAEXPAU?$pair@$$CBV?$basic_string@DU?$char_traits@D@std@@V?$allocator@D@2@@std@@V12@@1@AAU21@@Z 100220f0 f i config.obj
 0001:00021120       ??$construct@U?$pair@$$CBV?$basic_string@DU?$char_traits@D@std@@V?$allocator@D@2@@std@@V12@@std@@AAU12@@?$allocator@U?$_Tree_node@U?$pair@$$CBV?$basic_string@DU?$char_traits@D@std@@V?$allocator@D@2@@std@@V12@@std@@PAX@std@@@std@@QAEXPAU?$pair@$$CBV?$basic_string@DU?$char_traits@D@std@@V?$allocator@D@2@@std@@V12@@1@AAU21@@Z 10022120 f i config.obj
 0001:00021170       ??$construct@U?$pair@$$CBV?$basic_string@DU?$char_traits@D@std@@V?$allocator@D@2@@std@@V12@@std@@AAU12@@?$allocator_traits@V?$allocator@U?$_Tree_node@U?$pair@$$CBV?$basic_string@DU?$char_traits@D@std@@V?$allocator@D@2@@std@@V12@@std@@PAX@std@@@std@@@std@@SAXAAV?$allocator@U?$_Tree_node@U?$pair@$$CBV?$basic_string@DU?$char_traits@D@std@@V?$allocator@D@2@@std@@V12@@std@@PAX@std@@@1@PAU?$pair@$$CBV?$basic_string@DU?$char_traits@D@std@@V?$allocator@D@2@@std@@V12@@1@AAU31@@Z 10022170 f i config.obj
 0001:00021190       ??$use_facet@V?$codecvt@DDH@std@@@std@@YAABV?$codecvt@DDH@0@ABVlocale@0@@Z 10022190 f i config.obj
 0001:00021260       ??0?$_Tree@V?$_Tmap_traits@V?$basic_string@DU?$char_traits@D@std@@V?$allocator@D@2@@std@@V12@U?$less@V?$basic_string@DU?$char_traits@D@std@@V?$allocator@D@2@@std@@@2@V?$allocator@U?$pair@$$CBV?$basic_string@DU?$char_traits@D@std@@V?$allocator@D@2@@std@@V12@@std@@@2@$0A@@std@@@std@@QAE@$$QAV01@@Z 10022260 f i config.obj
 0001:000212c0       ??0?$_Tree@V?$_Tmap_traits@V?$basic_string@DU?$char_traits@D@std@@V?$allocator@D@2@@std@@V12@U?$less@V?$basic_string@DU?$char_traits@D@std@@V?$allocator@D@2@@std@@@2@V?$allocator@U?$pair@$$CBV?$basic_string@DU?$char_traits@D@std@@V?$allocator@D@2@@std@@V12@@std@@@2@$0A@@std@@@std@@QAE@ABV01@ABV?$allocator@U?$pair@$$CBV?$basic_string@DU?$char_traits@D@std@@V?$allocator@D@2@@std@@V12@@std@@@1@@Z 100222c0 f i config.obj
 0001:00021370       ??$?0U?$_Tree_node@U?$pair@$$CBHPAVobject_t@@@std@@PAX@std@@@?$allocator@U?$pair@$$CBHPAVobject_t@@@std@@@std@@QAE@ABV?$allocator@U?$_Tree_node@U?$pair@$$CBHPAVobject_t@@@std@@PAX@std@@@1@@Z 10022370 f i mfdpage.obj
 0001:00021370       ??0?$allocator@U?$_Tree_node@U?$pair@$$CBV?$basic_string@DU?$char_traits@D@std@@V?$allocator@D@2@@std@@V12@@std@@PAX@std@@@std@@QAE@ABV01@@Z 10022370 f i config.obj
 0001:00021370       ??$?0U?$_Tree_node@U?$pair@$$CBV?$basic_string@DU?$char_traits@D@std@@V?$allocator@D@2@@std@@V12@@std@@PAX@std@@@?$allocator@U?$pair@$$CBV?$basic_string@DU?$char_traits@D@std@@V?$allocator@D@2@@std@@V12@@std@@@std@@QAE@ABV?$allocator@U?$_Tree_node@U?$pair@$$CBV?$basic_string@DU?$char_traits@D@std@@V?$allocator@D@2@@std@@V12@@std@@PAX@std@@@1@@Z 10022370 f i mfdpage_led.obj
 0001:00021370       ??0?$tuple@$$$V@std@@QAE@ABV01@@Z 10022370 f i tools.obj
 0001:00021370       ??0?$allocator@U?$_Tree_node@U?$pair@$$CBHPAVobject_t@@@std@@PAX@std@@@std@@QAE@ABV01@@Z 10022370 f i mfdpage.obj
 0001:00021370       ??0?$allocator@D@std@@QAE@ABV01@@Z 10022370 f i data.obj
 0001:00021380       ??0?$basic_filebuf@DU?$char_traits@D@std@@@std@@QAE@PAU_iobuf@@@Z 10022380 f i config.obj
 0001:000213b0       ??0?$basic_ifstream@DU?$char_traits@D@std@@@std@@QAE@PBDHH@Z 100223b0 f i config.obj
 0001:00021470       ??0?$basic_string@DU?$char_traits@D@std@@V?$allocator@D@2@@std@@QAE@ID@Z 10022470 f i config.obj
 0001:000214b0       ??0?$fpos@H@std@@QAE@H_J@Z 100224b0 f i config.obj
 0001:000214f0       ??0?$map@V?$basic_string@DU?$char_traits@D@std@@V?$allocator@D@2@@std@@V12@U?$less@V?$basic_string@DU?$char_traits@D@std@@V?$allocator@D@2@@std@@@2@V?$allocator@U?$pair@$$CBV?$basic_string@DU?$char_traits@D@std@@V?$allocator@D@2@@std@@V12@@std@@@2@@std@@QAE@$$QAV01@@Z 100224f0 f i config.obj
 0001:00021520       ??0?$map@V?$basic_string@DU?$char_traits@D@std@@V?$allocator@D@2@@std@@V12@U?$less@V?$basic_string@DU?$char_traits@D@std@@V?$allocator@D@2@@std@@@2@V?$allocator@U?$pair@$$CBV?$basic_string@DU?$char_traits@D@std@@V?$allocator@D@2@@std@@V12@@std@@@2@@std@@QAE@ABV01@@Z 10022520 f i config.obj
 0001:00021570       ??0?$pair@$$CBV?$basic_string@DU?$char_traits@D@std@@V?$allocator@D@2@@std@@V12@@std@@QAE@ABU01@@Z 10022570 f i config.obj
 0001:000215a0       ??0config_t@@AAE@XZ        100225a0 f i config.obj
 0001:000215d0       ??1?$basic_filebuf@DU?$char_traits@D@std@@@std@@UAE@XZ 100225d0 f i config.obj
 0001:00021620       ??1?$basic_ifstream@DU?$char_traits@D@std@@@std@@UAE@XZ 10022620 f i config.obj
 0001:00021680       ??1locale@std@@QAE@XZ      10022680 f i config.obj
 0001:000216d0       ??_D?$basic_ifstream@DU?$char_traits@D@std@@@std@@QAEXXZ 100226d0 f i config.obj
 0001:000216f2       ??_E?$basic_ifstream@DU?$char_traits@D@std@@@std@@$4PPPPPPPM@A@AEPAXI@Z 100226f2 f i config.obj
 0001:00021700       ??_G?$basic_filebuf@DU?$char_traits@D@std@@@std@@UAEPAXI@Z 10022700 f i config.obj
 0001:00021700       ??_E?$basic_filebuf@DU?$char_traits@D@std@@@std@@UAEPAXI@Z 10022700 f i config.obj
 0001:00021730       ??_G?$basic_ifstream@DU?$char_traits@D@std@@@std@@UAEPAXI@Z 10022730 f i config.obj
 0001:00021730       ??_E?$basic_ifstream@DU?$char_traits@D@std@@@std@@UAEPAXI@Z 10022730 f i config.obj
 0001:00021770       ?_Endwrite@?$basic_filebuf@DU?$char_traits@D@std@@@std@@IAE_NXZ 10022770 f i config.obj
 0001:00021930       ?_Getfacet@locale@std@@QBEPBVfacet@12@I@Z 10022930 f i config.obj
 0001:000219c0       ?_Init@?$basic_filebuf@DU?$char_traits@D@std@@@std@@IAEXPAU_iobuf@@W4_Initfl@12@@Z 100229c0 f i config.obj
 0001:00021a70       ?_Initcvt@?$basic_filebuf@DU?$char_traits@D@std@@@std@@IAEXPBV?$codecvt@DDH@2@@Z 10022a70 f i config.obj
 0001:00021ab0       ?_Lock@?$basic_filebuf@DU?$char_traits@D@std@@@std@@UAEXXZ 10022ab0 f i config.obj
 0001:00021ae0       ?_Reset_back@?$basic_filebuf@DU?$char_traits@D@std@@@std@@AAEXXZ 10022ae0 f i config.obj
 0001:00021b20       ?_Set_back@?$basic_filebuf@DU?$char_traits@D@std@@@std@@AAEXXZ 10022b20 f i config.obj
 0001:00021b80       ?_Unlock@?$basic_filebuf@DU?$char_traits@D@std@@@std@@UAEXXZ 10022b80 f i config.obj
 0001:00021bb0       ?assign@?$basic_string@DU?$char_traits@D@std@@V?$allocator@D@2@@std@@QAEAAV12@ID@Z 10022bb0 f i config.obj
 0001:00021c10       ?close@?$basic_filebuf@DU?$char_traits@D@std@@@std@@QAEPAV12@XZ 10022c10 f i config.obj
 0001:00021c80       ?close@?$basic_ifstream@DU?$char_traits@D@std@@@std@@QAEXXZ 10022c80 f i config.obj
 0001:00021cc0       ?find@?$basic_string@DU?$char_traits@D@std@@V?$allocator@D@2@@std@@QBEIABV12@I@Z 10022cc0 f i config.obj
 0001:00021cf0       ?imbue@?$basic_filebuf@DU?$char_traits@D@std@@@std@@MAEXABVlocale@2@@Z 10022cf0 f i config.obj
 0001:00021d20       ?key_comp@?$_Tree@V?$_Tmap_traits@V?$basic_string@DU?$char_traits@D@std@@V?$allocator@D@2@@std@@V12@U?$less@V?$basic_string@DU?$char_traits@D@std@@V?$allocator@D@2@@std@@@2@V?$allocator@U?$pair@$$CBV?$basic_string@DU?$char_traits@D@std@@V?$allocator@D@2@@std@@V12@@std@@@2@$0A@@std@@@std@@QBE?AU?$less@V?$basic_string@DU?$char_traits@D@std@@V?$allocator@D@2@@std@@@2@XZ 10022d20 f i config.obj
 0001:00021d20       ?key_comp@?$_Tree@V?$_Tmap_traits@HPAVobject_t@@U?$less@H@std@@V?$allocator@U?$pair@$$CBHPAVobject_t@@@std@@@3@$0A@@std@@@std@@QBE?AU?$less@H@2@XZ 10022d20 f i mfdpage.obj
 0001:00021d40       ?state@?$fpos@H@std@@QBEHXZ 10022d40 f i config.obj
 0001:00021d40       ?length@?$basic_string@DU?$char_traits@D@std@@V?$allocator@D@2@@std@@QBEIXZ 10022d40 f i config.obj
 0001:00021d40       ?size@?$basic_string@DU?$char_traits@D@std@@V?$allocator@D@2@@std@@QBEIXZ 10022d40 f i main.obj
 0001:00021d60       ?open@?$basic_filebuf@DU?$char_traits@D@std@@@std@@QAEPAV12@PBDHH@Z 10022d60 f i config.obj
 0001:00021de0       ?overflow@?$basic_filebuf@DU?$char_traits@D@std@@@std@@MAEHH@Z 10022de0 f i config.obj
 0001:000220b0       ?pbackfail@?$basic_filebuf@DU?$char_traits@D@std@@@std@@MAEHH@Z 100230b0 f i config.obj
 0001:00022210       ?resize@?$basic_string@DU?$char_traits@D@std@@V?$allocator@D@2@@std@@QAEXI@Z 10023210 f i config.obj
 0001:00022230       ?resize@?$basic_string@DU?$char_traits@D@std@@V?$allocator@D@2@@std@@QAEXID@Z 10023230 f i config.obj
 0001:00022270       ?seekoff@?$basic_filebuf@DU?$char_traits@D@std@@@std@@MAE?AV?$fpos@H@2@_JHH@Z 10023270 f i config.obj
 0001:00022350       ?seekpos@?$basic_filebuf@DU?$char_traits@D@std@@@std@@MAE?AV?$fpos@H@2@V32@H@Z 10023350 f i config.obj
 0001:00022440       ?seekpos@?$fpos@H@std@@QBE_JXZ 10023440 f i config.obj
 0001:00022460       ?select_on_container_copy_construction@?$_Wrap_alloc@V?$allocator@U?$_Tree_node@U?$pair@$$CBV?$basic_string@DU?$char_traits@D@std@@V?$allocator@D@2@@std@@V12@@std@@PAX@std@@@std@@@std@@QBE?AU12@XZ 10023460 f i config.obj
 0001:00022460       ?select_on_container_copy_construction@?$_Wrap_alloc@V?$allocator@D@std@@@std@@QBE?AU12@XZ 10023460 f i out_saitek.obj
 0001:00022460       ?select_on_container_copy_construction@?$_Wrap_alloc@V?$allocator@U?$_Tree_node@U?$pair@$$CBHPAVobject_t@@@std@@PAX@std@@@std@@@std@@QBE?AU12@XZ 10023460 f i mfdpage.obj
 0001:00022490       ?select_on_container_copy_construction@?$allocator@U?$_Tree_node@U?$pair@$$CBHPAVobject_t@@@std@@PAX@std@@@std@@QBE?AV12@XZ 10023490 f i mfdpage.obj
 0001:00022490       ?select_on_container_copy_construction@?$allocator@D@std@@QBE?AV12@XZ 10023490 f i out_saitek.obj
 0001:00022490       ?select_on_container_copy_construction@?$allocator@U?$_Tree_node@U?$pair@$$CBV?$basic_string@DU?$char_traits@D@std@@V?$allocator@D@2@@std@@V12@@std@@PAX@std@@@std@@QBE?AV12@XZ 10023490 f i config.obj
 0001:000224b0       ?select_on_container_copy_construction@?$allocator_traits@V?$allocator@U?$_Tree_node@U?$pair@$$CBV?$basic_string@DU?$char_traits@D@std@@V?$allocator@D@2@@std@@V12@@std@@PAX@std@@@std@@@std@@SA?AV?$allocator@U?$_Tree_node@U?$pair@$$CBV?$basic_string@DU?$char_traits@D@std@@V?$allocator@D@2@@std@@V12@@std@@PAX@std@@@2@ABV32@@Z 100234b0 f i config.obj
 0001:000224b0       ?select_on_container_copy_construction@?$allocator_traits@V?$allocator@D@std@@@std@@SA?AV?$allocator@D@2@ABV32@@Z 100234b0 f i out_saitek.obj
 0001:000224b0       ?select_on_container_copy_construction@?$allocator_traits@V?$allocator@U?$_Tree_node@U?$pair@$$CBHPAVobject_t@@@std@@PAX@std@@@std@@@std@@SA?AV?$allocator@U?$_Tree_node@U?$pair@$$CBHPAVobject_t@@@std@@PAX@std@@@2@ABV32@@Z 100234b0 f i mfdpage.obj
 0001:000224d0       ?setbuf@?$basic_filebuf@DU?$char_traits@D@std@@@std@@MAEPAV?$basic_streambuf@DU?$char_traits@D@std@@@2@PAD_J@Z 100234d0 f i config.obj
 0001:00022540       ?sync@?$basic_filebuf@DU?$char_traits@D@std@@@std@@MAEHXZ 10023540 f i config.obj
 0001:000225c0       ?uflow@?$basic_filebuf@DU?$char_traits@D@std@@@std@@MAEHXZ 100235c0 f i config.obj
 0001:00022860       ?underflow@?$basic_filebuf@DU?$char_traits@D@std@@@std@@MAEHXZ 10023860 f i config.obj
 0001:00022900       ??0gui_t@@QAE@XZ           10023900 f   gui.obj
 0001:00022930       ??0gui_t@@QAE@PAVmfdpages_t@@PAVfms_t@@PAVout_t@@@Z 10023930 f   gui.obj
 0001:00022a40       ??1gui_t@@QAE@XZ           10023a40 f   gui.obj
 0001:00022a50       ?enable@gui_t@@SAXXZ       10023a50 f   gui.obj
 0001:00022b40       ?disable@gui_t@@SAXXZ      10023b40 f   gui.obj
 0001:00022b70       ?menu_handler@gui_t@@CAXPAX0@Z 10023b70 f   gui.obj
 0001:00022bd0       ??0gui_mfd_t@@QAE@PAVout_t@@@Z 10023bd0 f   gui_mfd.obj
 0001:00022c10       ?enable@gui_mfd_t@@SAXXZ   10023c10 f   gui_mfd.obj
 0001:00022c70       ?disable@gui_mfd_t@@SAXXZ  10023c70 f   gui_mfd.obj
 0001:00022c80       ?create@gui_mfd_t@@CAXHHHH@Z 10023c80 f   gui_mfd.obj
 0001:00022f40       ?click@gui_mfd_t@@CAHJPAXJJ@Z 10023f40 f   gui_mfd.obj
 0001:00022fc0       ?hotkey_handler@gui_mfd_t@@CAXPAX@Z 10023fc0 f   gui_mfd.obj
 0001:00022fd0       ??0gui_fms_option_t@@QAE@PAVconfig_t@@PAVfms_t@@@Z 10023fd0 f   gui_fms_option.obj
 0001:00023000       ?enable@gui_fms_option_t@@SAXXZ 10024000 f   gui_fms_option.obj
 0001:00023060       ?disable@gui_fms_option_t@@SAXXZ 10024060 f   gui_fms_option.obj
 0001:00023070       ?create@gui_fms_option_t@@CAXHHHH@Z 10024070 f   gui_fms_option.obj
 0001:00023510       ?click@gui_fms_option_t@@CAHJPAXJJ@Z 10024510 f   gui_fms_option.obj
 0001:000236a0       ??0gui_fms_status_t@@QAE@PAVconfig_t@@PAVfms_t@@@Z 100246a0 f   gui_fms_status.obj
 0001:00023720       ?enable@gui_fms_status_t@@SAXXZ 10024720 f   gui_fms_status.obj
 0001:00023760       ?disable@gui_fms_status_t@@SAXXZ 10024760 f   gui_fms_status.obj
 0001:00023780       ?create@gui_fms_status_t@@CAXXZ 10024780 f   gui_fms_status.obj
 0001:00025b90       ?hotkey_handler@gui_fms_status_t@@CAXPAX@Z 10026b90 f   gui_fms_status.obj
 0001:00025ba0       ?click@gui_fms_status_t@@CAHJPAXJJ@Z 10026ba0 f   gui_fms_status.obj
 0001:00025c44       _usb_open                  10026c44 f   libusb0:libusb0.dll
 0001:00025c4a       _usb_close                 10026c4a f   libusb0:libusb0.dll
 0001:00025c50       _usb_control_msg           10026c50 f   libusb0:libusb0.dll
 0001:00025c56       _usb_strerror              10026c56 f   libusb0:libusb0.dll
 0001:00025c5c       _usb_init                  10026c5c f   libusb0:libusb0.dll
 0001:00025c62       _usb_find_busses           10026c62 f   libusb0:libusb0.dll
 0001:00025c68       _usb_find_devices          10026c68 f   libusb0:libusb0.dll
 0001:00025c6e       _usb_get_busses            10026c6e f   libusb0:libusb0.dll
 0001:00025c74       ?_Lock@?$basic_streambuf@DU?$char_traits@D@std@@@std@@UAEXXZ 10026c74 f   msvcprt:MSVCP120.dll
 0001:00025c7a       ?_Unlock@?$basic_streambuf@DU?$char_traits@D@std@@@std@@UAEXXZ 10026c7a f   msvcprt:MSVCP120.dll
 0001:00025c80       ?imbue@?$basic_streambuf@DU?$char_traits@D@std@@@std@@MAEXABVlocale@2@@Z 10026c80 f   msvcprt:MSVCP120.dll
 0001:00025c86       ?setbuf@?$basic_streambuf@DU?$char_traits@D@std@@@std@@MAEPAV12@PAD_J@Z 10026c86 f   msvcprt:MSVCP120.dll
 0001:00025c8c       ?showmanyc@?$basic_streambuf@DU?$char_traits@D@std@@@std@@MAE_JXZ 10026c8c f   msvcprt:MSVCP120.dll
 0001:00025c92       ?sync@?$basic_streambuf@DU?$char_traits@D@std@@@std@@MAEHXZ 10026c92 f   msvcprt:MSVCP120.dll
 0001:00025c98       ?uflow@?$basic_streambuf@DU?$char_traits@D@std@@@std@@MAEHXZ 10026c98 f   msvcprt:MSVCP120.dll
 0001:00025c9e       ?xsgetn@?$basic_streambuf@DU?$char_traits@D@std@@@std@@MAE_JPAD_J@Z 10026c9e f   msvcprt:MSVCP120.dll
 0001:00025ca4       ?xsputn@?$basic_streambuf@DU?$char_traits@D@std@@@std@@MAE_JPBD_J@Z 10026ca4 f   msvcprt:MSVCP120.dll
 0001:00025caa       ??1_Fac_node@std@@QAE@XZ   10026caa f i msvcprt:locale0_implib.obj
 0001:00025cbf       ??1_Fac_tidy_reg_t@std@@QAE@XZ 10026cbf f i msvcprt:locale0_implib.obj
 0001:00025ce3       ?_Facet_Register@std@@YAXPAV_Facet_base@1@@Z 10026ce3 f   msvcprt:locale0_implib.obj
 0001:00025d0c       __purecall                 10026d0c f   MSVCRT:MSVCR120.dll
 0001:00025d12       ??2@YAPAXI@Z               10026d12 f   MSVCRT:MSVCR120.dll
 0001:00025d18       ??3@YAXPAX@Z               10026d18 f   MSVCRT:MSVCR120.dll
 0001:00025d1e       ___atonexitinit            10026d1e f   MSVCRT:atonexit.obj
 0001:00025d5a       __onexit                   10026d5a f   MSVCRT:atonexit.obj
 0001:00025e03       _atexit                    10026e03 f   MSVCRT:atonexit.obj
 0001:00025e18       _memcpy                    10026e18 f   MSVCRT:MSVCR120.dll
 0001:00025e1e       _strcpy                    10026e1e f   MSVCRT:MSVCR120.dll
 0001:00025e24       _strcat                    10026e24 f   MSVCRT:MSVCR120.dll
 0001:00025e2a       _strcmp                    10026e2a f   MSVCRT:MSVCR120.dll
 0001:00025e30       _strlen                    10026e30 f   MSVCRT:MSVCR120.dll
 0001:00025e36       @__security_check_cookie@4 10026e36 f   MSVCRT:secchk.obj
 0001:00025e46       __CxxThrowException@8      10026e46 f   MSVCRT:MSVCR120.dll
 0001:00025e4c       ___CxxFrameHandler3        10026e4c f   MSVCRT:MSVCR120.dll
 0001:00025e52       ??_Etype_info@@UAEPAXI@Z   10026e52 f i MSVCRT:ti_inst.obj
 0001:00025ea0       _memcmp                    10026ea0 f   MSVCRT:MSVCR120.dll
 0001:00025eb0       __ftol2_sse                10026eb0 f   MSVCRT:ftol2.obj
 0001:00025eb9       __ftol2_pentium4           10026eb9 f   MSVCRT:ftol2.obj
 0001:00025ecc       __ftol2_sse_excpt          10026ecc f   MSVCRT:ftol2.obj
 0001:00025ee6       __ftol2                    10026ee6 f   MSVCRT:ftol2.obj
 0001:00025f5b       ___raise_securityfailure   10026f5b f   MSVCRT:gs_report.obj
 0001:00025f98       ___report_gsfailure        10026f98 f   MSVCRT:gs_report.obj
 0001:00026093       ___report_rangecheckfailure 10027093 f   MSVCRT:gs_report.obj
 0001:0002609f       ___report_securityfailure  1002709f f   MSVCRT:gs_report.obj
 0001:00026170       _memset                    10027170 f   MSVCRT:MSVCR120.dll
 0001:00026176       _fabs                      10027176 f   MSVCRT:MSVCR120.dll
 0001:00026180       __chkstk                   10027180 f   MSVCRT:chkstk.obj
 0001:00026180       __alloca_probe             10027180 f   MSVCRT:chkstk.obj
 0001:000261ac       _acos                      100271ac f   MSVCRT:MSVCR120.dll
 0001:000261b2       _cos                       100271b2 f   MSVCRT:MSVCR120.dll
 0001:000261b8       _sin                       100271b8 f   MSVCRT:MSVCR120.dll
 0001:000261be       ??0bad_cast@std@@QAE@ABV01@@Z 100271be f   MSVCRT:MSVCR120.dll
 0001:000261c4       ??0exception@std@@QAE@ABV01@@Z 100271c4 f   MSVCRT:MSVCR120.dll
 0001:000261ca       ??1bad_cast@std@@UAE@XZ    100271ca f   MSVCRT:MSVCR120.dll
 0001:0002621c       __CRT_INIT@12              1002721c f   MSVCRT:crtdll.obj
 0001:00026413       __DllMainCRTStartup@12     10027413 f   MSVCRT:crtdll.obj
 0001:0002656a       __lock                     1002756a f   MSVCRT:MSVCR120.dll
 0001:00026570       __unlock                   10027570 f   MSVCRT:MSVCR120.dll
 0001:00026576       ___dllonexit               10027576 f   MSVCRT:MSVCR120.dll
 0001:00026580       __SEH_prolog4              10027580 f   MSVCRT:sehprolg4.obj
 0001:000265c5       __SEH_epilog4              100275c5 f   MSVCRT:sehprolg4.obj
 0001:000265d9       __except_handler4          100275d9 f   MSVCRT:chandler4gs.obj
 0001:000265fc       ??_M@YGXPAXIHP6EX0@Z@Z     100275fc f   MSVCRT:ehvecdtr.obj
 0001:0002666b       ?__ArrayUnwind@@YGXPAXIHP6EX0@Z@Z 1002766b f   MSVCRT:ehvecdtr.obj
 0001:000266ca       ??1type_info@@UAE@XZ       100276ca f   MSVCRT:MSVCR120.dll
 0001:000266d0       ___isa_available_init      100276d0 f   MSVCRT:cpu_disp.obj
 0001:0002684a       __crt_debugger_hook        1002784a f   MSVCRT:MSVCR120.dll
 0001:00026850       ___crtUnhandledException   10027850 f   MSVCRT:MSVCR120.dll
 0001:00026856       ___crtTerminateProcess     10027856 f   MSVCRT:MSVCR120.dll
 0001:0002685c       ___CppXcptFilter           1002785c f   MSVCRT:MSVCR120.dll
 0001:00026862       __amsg_exit                10027862 f   MSVCRT:MSVCR120.dll
 0001:00026870       __FindPESection            10027870 f   MSVCRT:pesect.obj
 0001:000268c0       __IsNonwritableInCurrentImage 100278c0 f   MSVCRT:pesect.obj
 0001:00026980       __ValidateImageBase        10027980 f   MSVCRT:pesect.obj
 0001:000269b1       ___security_init_cookie    100279b1 f   MSVCRT:gs_support.obj
 0001:00026a4d       __RTC_Initialize           10027a4d f   MSVCRT:initsect.obj
 0001:00026a6d       __RTC_Terminate            10027a6d f   MSVCRT:initsect.obj
 0001:00026a8e       __initterm                 10027a8e f   MSVCRT:MSVCR120.dll
 0001:00026a94       __initterm_e               10027a94 f   MSVCRT:MSVCR120.dll
 0001:00026a9a       ___clean_type_info_names   10027a9a f   MSVCRT:tncleanup.obj
 0001:00026aa6       __except_handler4_common   10027aa6 f   MSVCRT:MSVCR120.dll
 0001:00026aac       ?terminate@@YAXXZ          10027aac f   MSVCRT:MSVCR120.dll
 0001:00026ab2       ___clean_type_info_names_internal 10027ab2 f   MSVCRT:MSVCR120.dll
 0001:00026ab8       _IsProcessorFeaturePresent@4 10027ab8 f   kernel32:KERNEL32.dll
 0002:00000000       __imp__GetSystemTimeAsFileTime@4 10029000     kernel32:KERNEL32.dll
 0002:00000004       __imp__GetCurrentThreadId@0 10029004     kernel32:KERNEL32.dll
 0002:00000008       __imp__GetCurrentProcessId@0 10029008     kernel32:KERNEL32.dll
 0002:0000000c       __imp__QueryPerformanceCounter@4 1002900c     kernel32:KERNEL32.dll
 0002:00000010       __imp__IsProcessorFeaturePresent@4 10029010     kernel32:KERNEL32.dll
 0002:00000014       __imp__IsDebuggerPresent@0 10029014     kernel32:KERNEL32.dll
 0002:00000018       __imp__DecodePointer@4     10029018     kernel32:KERNEL32.dll
 0002:0000001c       __imp__EncodePointer@4     1002901c     kernel32:KERNEL32.dll
 0002:00000020       \177KERNEL32_NULL_THUNK_DATA 10029020     kernel32:KERNEL32.dll
 0002:00000024       __imp_?id@?$codecvt@DDH@std@@2V0locale@2@A 10029024     msvcprt:MSVCP120.dll
 0002:00000028       __imp_?_Fiopen@std@@YAPAU_iobuf@@PBDHH@Z 10029028     msvcprt:MSVCP120.dll
 0002:0000002c       __imp_?getline@?$basic_istream@DU?$char_traits@D@std@@@std@@QAEAAV12@PAD_J@Z 1002902c     msvcprt:MSVCP120.dll
 0002:00000030       __imp_??1?$basic_istream@DU?$char_traits@D@std@@@std@@UAE@XZ 10029030     msvcprt:MSVCP120.dll
 0002:00000034       __imp_??0?$basic_istream@DU?$char_traits@D@std@@@std@@QAE@PAV?$basic_streambuf@DU?$char_traits@D@std@@@1@_N@Z 10029034     msvcprt:MSVCP120.dll
 0002:00000038       __imp_?_Init@?$basic_streambuf@DU?$char_traits@D@std@@@std@@IAEXPAPAD0PAH001@Z 10029038     msvcprt:MSVCP120.dll
 0002:0000003c       __imp_?_Init@?$basic_streambuf@DU?$char_traits@D@std@@@std@@IAEXXZ 1002903c     msvcprt:MSVCP120.dll
 0002:00000040       __imp_?_Gninc@?$basic_streambuf@DU?$char_traits@D@std@@@std@@IAEPADXZ 10029040     msvcprt:MSVCP120.dll
 0002:00000044       __imp_?_Gndec@?$basic_streambuf@DU?$char_traits@D@std@@@std@@IAEPADXZ 10029044     msvcprt:MSVCP120.dll
 0002:00000048       __imp_?getloc@?$basic_streambuf@DU?$char_traits@D@std@@@std@@QBE?AVlocale@2@XZ 10029048     msvcprt:MSVCP120.dll
 0002:0000004c       __imp_?eof@ios_base@std@@QBE_NXZ 1002904c     msvcprt:MSVCP120.dll
 0002:00000050       __imp_?good@ios_base@std@@QBE_NXZ 10029050     msvcprt:MSVCP120.dll
 0002:00000054       __imp_?_Getcat@?$codecvt@DDH@std@@SAIPAPBVfacet@locale@2@PBV42@@Z 10029054     msvcprt:MSVCP120.dll
 0002:00000058       __imp_?unshift@?$codecvt@DDH@std@@QBEHAAHPAD1AAPAD@Z 10029058     msvcprt:MSVCP120.dll
 0002:0000005c       __imp_?out@?$codecvt@DDH@std@@QBEHAAHPBD1AAPBDPAD3AAPAD@Z 1002905c     msvcprt:MSVCP120.dll
 0002:00000060       __imp_?in@?$codecvt@DDH@std@@QBEHAAHPBD1AAPBDPAD3AAPAD@Z 10029060     msvcprt:MSVCP120.dll
 0002:00000064       __imp_?always_noconv@codecvt_base@std@@QBE_NXZ 10029064     msvcprt:MSVCP120.dll
 0002:00000068       __imp_?_Getgloballocale@locale@std@@CAPAV_Locimp@12@XZ 10029068     msvcprt:MSVCP120.dll
 0002:0000006c       __imp_??Bid@locale@std@@QAEIXZ 1002906c     msvcprt:MSVCP120.dll
 0002:00000070       __imp_??1_Lockit@std@@QAE@XZ 10029070     msvcprt:MSVCP120.dll
 0002:00000074       __imp_??0_Lockit@std@@QAE@H@Z 10029074     msvcprt:MSVCP120.dll
 0002:00000078       __imp_?_Swap_all@_Container_base0@std@@QAEXAAU12@@Z 10029078     msvcprt:MSVCP120.dll
 0002:0000007c       __imp_??1?$basic_iostream@DU?$char_traits@D@std@@@std@@UAE@XZ 1002907c     msvcprt:MSVCP120.dll
 0002:00000080       __imp_??0?$basic_iostream@DU?$char_traits@D@std@@@std@@QAE@PAV?$basic_streambuf@DU?$char_traits@D@std@@@1@@Z 10029080     msvcprt:MSVCP120.dll
 0002:00000084       __imp_?_Ipfx@?$basic_istream@DU?$char_traits@D@std@@@std@@QAE_N_N@Z 10029084     msvcprt:MSVCP120.dll
 0002:00000088       __imp_?rdbuf@?$basic_ios@DU?$char_traits@D@std@@@std@@QBEPAV?$basic_streambuf@DU?$char_traits@D@std@@@2@XZ 10029088     msvcprt:MSVCP120.dll
 0002:0000008c       __imp_?setstate@?$basic_ios@DU?$char_traits@D@std@@@std@@QAEXH_N@Z 1002908c     msvcprt:MSVCP120.dll
 0002:00000090       __imp_?snextc@?$basic_streambuf@DU?$char_traits@D@std@@@std@@QAEHXZ 10029090     msvcprt:MSVCP120.dll
 0002:00000094       __imp_?sgetc@?$basic_streambuf@DU?$char_traits@D@std@@@std@@QAEHXZ 10029094     msvcprt:MSVCP120.dll
 0002:00000098       __imp_?sbumpc@?$basic_streambuf@DU?$char_traits@D@std@@@std@@QAEHXZ 10029098     msvcprt:MSVCP120.dll
 0002:0000009c       __imp_??Bios_base@std@@QBE_NXZ 1002909c     msvcprt:MSVCP120.dll
 0002:000000a0       __imp_?_BADOFF@std@@3_JB   100290a0     msvcprt:MSVCP120.dll
 0002:000000a4       __imp_?xsputn@?$basic_streambuf@DU?$char_traits@D@std@@@std@@MAE_JPBD_J@Z 100290a4     msvcprt:MSVCP120.dll
 0002:000000a8       __imp_?xsgetn@?$basic_streambuf@DU?$char_traits@D@std@@@std@@MAE_JPAD_J@Z 100290a8     msvcprt:MSVCP120.dll
 0002:000000ac       __imp_?uflow@?$basic_streambuf@DU?$char_traits@D@std@@@std@@MAEHXZ 100290ac     msvcprt:MSVCP120.dll
 0002:000000b0       __imp_?sync@?$basic_streambuf@DU?$char_traits@D@std@@@std@@MAEHXZ 100290b0     msvcprt:MSVCP120.dll
 0002:000000b4       __imp_?_Xbad_alloc@std@@YAXXZ 100290b4     msvcprt:MSVCP120.dll
 0002:000000b8       __imp_?_Xlength_error@std@@YAXPBD@Z 100290b8     msvcprt:MSVCP120.dll
 0002:000000bc       __imp_?_Xout_of_range@std@@YAXPBD@Z 100290bc     msvcprt:MSVCP120.dll
 0002:000000c0       __imp_??0id@locale@std@@QAE@I@Z 100290c0     msvcprt:MSVCP120.dll
 0002:000000c4       __imp_?_Syserror_map@std@@YAPBDH@Z 100290c4     msvcprt:MSVCP120.dll
 0002:000000c8       __imp_?_Winerror_map@std@@YAPBDH@Z 100290c8     msvcprt:MSVCP120.dll
 0002:000000cc       __imp_??0?$basic_streambuf@DU?$char_traits@D@std@@@std@@IAE@XZ 100290cc     msvcprt:MSVCP120.dll
 0002:000000d0       __imp_??1?$basic_streambuf@DU?$char_traits@D@std@@@std@@UAE@XZ 100290d0     msvcprt:MSVCP120.dll
 0002:000000d4       __imp_?eback@?$basic_streambuf@DU?$char_traits@D@std@@@std@@IBEPADXZ 100290d4     msvcprt:MSVCP120.dll
 0002:000000d8       __imp_?gptr@?$basic_streambuf@DU?$char_traits@D@std@@@std@@IBEPADXZ 100290d8     msvcprt:MSVCP120.dll
 0002:000000dc       __imp_?pbase@?$basic_streambuf@DU?$char_traits@D@std@@@std@@IBEPADXZ 100290dc     msvcprt:MSVCP120.dll
 0002:000000e0       __imp_?pptr@?$basic_streambuf@DU?$char_traits@D@std@@@std@@IBEPADXZ 100290e0     msvcprt:MSVCP120.dll
 0002:000000e4       __imp_?egptr@?$basic_streambuf@DU?$char_traits@D@std@@@std@@IBEPADXZ 100290e4     msvcprt:MSVCP120.dll
 0002:000000e8       __imp_?gbump@?$basic_streambuf@DU?$char_traits@D@std@@@std@@IAEXH@Z 100290e8     msvcprt:MSVCP120.dll
 0002:000000ec       __imp_?setg@?$basic_streambuf@DU?$char_traits@D@std@@@std@@IAEXPAD00@Z 100290ec     msvcprt:MSVCP120.dll
 0002:000000f0       __imp_?epptr@?$basic_streambuf@DU?$char_traits@D@std@@@std@@IBEPADXZ 100290f0     msvcprt:MSVCP120.dll
 0002:000000f4       __imp_?pbump@?$basic_streambuf@DU?$char_traits@D@std@@@std@@IAEXH@Z 100290f4     msvcprt:MSVCP120.dll
 0002:000000f8       __imp_?setp@?$basic_streambuf@DU?$char_traits@D@std@@@std@@IAEXPAD0@Z 100290f8     msvcprt:MSVCP120.dll
 0002:000000fc       __imp_?setp@?$basic_streambuf@DU?$char_traits@D@std@@@std@@IAEXPAD00@Z 100290fc     msvcprt:MSVCP120.dll
 0002:00000100       __imp_?_Pninc@?$basic_streambuf@DU?$char_traits@D@std@@@std@@IAEPADXZ 10029100     msvcprt:MSVCP120.dll
 0002:00000104       __imp_??1?$basic_ios@DU?$char_traits@D@std@@@std@@UAE@XZ 10029104     msvcprt:MSVCP120.dll
 0002:00000108       __imp_??0?$basic_ios@DU?$char_traits@D@std@@@std@@IAE@XZ 10029108     msvcprt:MSVCP120.dll
 0002:0000010c       __imp_??0?$basic_ostream@DU?$char_traits@D@std@@@std@@QAE@PAV?$basic_streambuf@DU?$char_traits@D@std@@@1@_N@Z 1002910c     msvcprt:MSVCP120.dll
 0002:00000110       __imp_??1?$basic_ostream@DU?$char_traits@D@std@@@std@@UAE@XZ 10029110     msvcprt:MSVCP120.dll
 0002:00000114       __imp_??6?$basic_ostream@DU?$char_traits@D@std@@@std@@QAEAAV01@H@Z 10029114     msvcprt:MSVCP120.dll
 0002:00000118       __imp_??6?$basic_ostream@DU?$char_traits@D@std@@@std@@QAEAAV01@M@Z 10029118     msvcprt:MSVCP120.dll
 0002:0000011c       __imp_??6?$basic_ostream@DU?$char_traits@D@std@@@std@@QAEAAV01@N@Z 1002911c     msvcprt:MSVCP120.dll
 0002:00000120       __imp_?_Lock@?$basic_streambuf@DU?$char_traits@D@std@@@std@@UAEXXZ 10029120     msvcprt:MSVCP120.dll
 0002:00000124       __imp_?_Unlock@?$basic_streambuf@DU?$char_traits@D@std@@@std@@UAEXXZ 10029124     msvcprt:MSVCP120.dll
 0002:00000128       __imp_?imbue@?$basic_streambuf@DU?$char_traits@D@std@@@std@@MAEXABVlocale@2@@Z 10029128     msvcprt:MSVCP120.dll
 0002:0000012c       __imp_?setbuf@?$basic_streambuf@DU?$char_traits@D@std@@@std@@MAEPAV12@PAD_J@Z 1002912c     msvcprt:MSVCP120.dll
 0002:00000130       __imp_?showmanyc@?$basic_streambuf@DU?$char_traits@D@std@@@std@@MAE_JXZ 10029130     msvcprt:MSVCP120.dll
 0002:00000134       \177MSVCP120_NULL_THUNK_DATA 10029134     msvcprt:MSVCP120.dll
 0002:00000138       __imp___localtime64        10029138     MSVCRT:MSVCR120.dll
 0002:0000013c       __imp____crtTerminateProcess 1002913c     MSVCRT:MSVCR120.dll
 0002:00000140       __imp____crtUnhandledException 10029140     MSVCRT:MSVCR120.dll
 0002:00000144       __imp___crt_debugger_hook  10029144     MSVCRT:MSVCR120.dll
 0002:00000148       __imp_??1type_info@@UAE@XZ 10029148     MSVCRT:MSVCR120.dll
 0002:0000014c       __imp___onexit             1002914c     MSVCRT:MSVCR120.dll
 0002:00000150       __imp____dllonexit         10029150     MSVCRT:MSVCR120.dll
 0002:00000154       __imp___calloc_crt         10029154     MSVCRT:MSVCR120.dll
 0002:00000158       __imp___unlock             10029158     MSVCRT:MSVCR120.dll
 0002:0000015c       __imp____clean_type_info_names_internal 1002915c     MSVCRT:MSVCR120.dll
 0002:00000160       __imp_?terminate@@YAXXZ    10029160     MSVCRT:MSVCR120.dll
 0002:00000164       __imp___except_handler4_common 10029164     MSVCRT:MSVCR120.dll
 0002:00000168       __imp___initterm_e         10029168     MSVCRT:MSVCR120.dll
 0002:0000016c       __imp___initterm           1002916c     MSVCRT:MSVCR120.dll
 0002:00000170       __imp___malloc_crt         10029170     MSVCRT:MSVCR120.dll
 0002:00000174       __imp__free                10029174     MSVCRT:MSVCR120.dll
 0002:00000178       __imp___amsg_exit          10029178     MSVCRT:MSVCR120.dll
 0002:0000017c       __imp___lock               1002917c     MSVCRT:MSVCR120.dll
 0002:00000180       __imp__sprintf             10029180     MSVCRT:MSVCR120.dll
 0002:00000184       __imp_??1bad_cast@std@@UAE@XZ 10029184     MSVCRT:MSVCR120.dll
 0002:00000188       __imp_??0exception@std@@QAE@ABV01@@Z 10029188     MSVCRT:MSVCR120.dll
 0002:0000018c       __imp_??0bad_cast@std@@QAE@ABV01@@Z 1002918c     MSVCRT:MSVCR120.dll
 0002:00000190       __imp_??0bad_cast@std@@QAE@PBD@Z 10029190     MSVCRT:MSVCR120.dll
 0002:00000194       __imp__memcpy_s            10029194     MSVCRT:MSVCR120.dll
 0002:00000198       __imp___unlock_file        10029198     MSVCRT:MSVCR120.dll
 0002:0000019c       __imp___lock_file          1002919c     MSVCRT:MSVCR120.dll
 0002:000001a0       __imp__ungetc              100291a0     MSVCRT:MSVCR120.dll
 0002:000001a4       __imp__setvbuf             100291a4     MSVCRT:MSVCR120.dll
 0002:000001a8       __imp__fwrite              100291a8     MSVCRT:MSVCR120.dll
 0002:000001ac       __imp___fseeki64           100291ac     MSVCRT:MSVCR120.dll
 0002:000001b0       __imp__fsetpos             100291b0     MSVCRT:MSVCR120.dll
 0002:000001b4       __imp__fputc               100291b4     MSVCRT:MSVCR120.dll
 0002:000001b8       __imp__fgetpos             100291b8     MSVCRT:MSVCR120.dll
 0002:000001bc       __imp__fgetc               100291bc     MSVCRT:MSVCR120.dll
 0002:000001c0       __imp__sscanf              100291c0     MSVCRT:MSVCR120.dll
 0002:000001c4       __imp__sin                 100291c4     MSVCRT:MSVCR120.dll
 0002:000001c8       __imp___purecall           100291c8     MSVCRT:MSVCR120.dll
 0002:000001cc       __imp_??2@YAPAXI@Z         100291cc     MSVCRT:MSVCR120.dll
 0002:000001d0       __imp_??3@YAXPAX@Z         100291d0     MSVCRT:MSVCR120.dll
 0002:000001d4       __imp__memcpy              100291d4     MSVCRT:MSVCR120.dll
 0002:000001d8       __imp__strcpy              100291d8     MSVCRT:MSVCR120.dll
 0002:000001dc       __imp__strcat              100291dc     MSVCRT:MSVCR120.dll
 0002:000001e0       __imp__strcmp              100291e0     MSVCRT:MSVCR120.dll
 0002:000001e4       __imp__strlen              100291e4     MSVCRT:MSVCR120.dll
 0002:000001e8       __imp__memmove             100291e8     MSVCRT:MSVCR120.dll
 0002:000001ec       __imp__abort               100291ec     MSVCRT:MSVCR120.dll
 0002:000001f0       __imp___CxxThrowException@8 100291f0     MSVCRT:MSVCR120.dll
 0002:000001f4       __imp____CxxFrameHandler3  100291f4     MSVCRT:MSVCR120.dll
 0002:000001f8       __imp__fclose              100291f8     MSVCRT:MSVCR120.dll
 0002:000001fc       __imp__fflush              100291fc     MSVCRT:MSVCR120.dll
 0002:00000200       __imp__fopen               10029200     MSVCRT:MSVCR120.dll
 0002:00000204       __imp__fprintf             10029204     MSVCRT:MSVCR120.dll
 0002:00000208       __imp__vfprintf            10029208     MSVCRT:MSVCR120.dll
 0002:0000020c       __imp__atoi                1002920c     MSVCRT:MSVCR120.dll
 0002:00000210       __imp__memcmp              10029210     MSVCRT:MSVCR120.dll
 0002:00000214       __imp__strftime            10029214     MSVCRT:MSVCR120.dll
 0002:00000218       __imp__cos                 10029218     MSVCRT:MSVCR120.dll
 0002:0000021c       __imp___time64             1002921c     MSVCRT:MSVCR120.dll
 0002:00000220       __imp__strncpy             10029220     MSVCRT:MSVCR120.dll
 0002:00000224       __imp__strtok              10029224     MSVCRT:MSVCR120.dll
 0002:00000228       __imp___snprintf           10029228     MSVCRT:MSVCR120.dll
 0002:0000022c       __imp__memset              1002922c     MSVCRT:MSVCR120.dll
 0002:00000230       __imp__memchr              10029230     MSVCRT:MSVCR120.dll
 0002:00000234       __imp__fabs                10029234     MSVCRT:MSVCR120.dll
 0002:00000238       __imp__tolower             10029238     MSVCRT:MSVCR120.dll
 0002:0000023c       __imp__atof                1002923c     MSVCRT:MSVCR120.dll
 0002:00000240       __imp__acos                10029240     MSVCRT:MSVCR120.dll
 0002:00000244       __imp____CppXcptFilter     10029244     MSVCRT:MSVCR120.dll
 0002:00000248       \177MSVCR120_NULL_THUNK_DATA 10029248     MSVCRT:MSVCR120.dll
 0002:0000024c       __imp__XPLMRegisterCommandHandler 1002924c     XPLM:XPLM.dll
 0002:00000250       __imp__XPLMGetDisplayedFMSEntry 10029250     XPLM:XPLM.dll
 0002:00000254       __imp__XPLMGetDestinationFMSEntry 10029254     XPLM:XPLM.dll
 0002:00000258       __imp__XPLMSpeakString     10029258     XPLM:XPLM.dll
 0002:0000025c       __imp__XPLMGetDatavf       1002925c     XPLM:XPLM.dll
 0002:00000260       __imp__XPLMGetNavAidInfo   10029260     XPLM:XPLM.dll
 0002:00000264       __imp__XPLMCountFMSEntries 10029264     XPLM:XPLM.dll
 0002:00000268       __imp__XPLMGetFMSEntryInfo 10029268     XPLM:XPLM.dll
 0002:0000026c       __imp__XPLMCountAircraft   1002926c     XPLM:XPLM.dll
 0002:00000270       __imp__XPLMGetNthAircraftModel 10029270     XPLM:XPLM.dll
 0002:00000274       __imp__XPLMFindPluginsMenu 10029274     XPLM:XPLM.dll
 0002:00000278       __imp__XPLMCreateMenu      10029278     XPLM:XPLM.dll
 0002:0000027c       __imp__XPLMDestroyMenu     1002927c     XPLM:XPLM.dll
 0002:00000280       __imp__XPLMAppendMenuItem  10029280     XPLM:XPLM.dll
 0002:00000284       __imp__XPLMAppendMenuSeparator 10029284     XPLM:XPLM.dll
 0002:00000288       __imp__XPLMRegisterHotKey  10029288     XPLM:XPLM.dll
 0002:0000028c       __imp__XPLMGetScreenSize   1002928c     XPLM:XPLM.dll
 0002:00000290       __imp__XPLMUnregisterHotKey 10029290     XPLM:XPLM.dll
 0002:00000294       __imp__XPLMCreateCommand   10029294     XPLM:XPLM.dll
 0002:00000298       __imp__XPLMGetDatab        10029298     XPLM:XPLM.dll
 0002:0000029c       __imp__XPLMGetDatad        1002929c     XPLM:XPLM.dll
 0002:000002a0       __imp__XPLMGetDataf        100292a0     XPLM:XPLM.dll
 0002:000002a4       __imp__XPLMGetDatai        100292a4     XPLM:XPLM.dll
 0002:000002a8       __imp__XPLMGetDataRefTypes 100292a8     XPLM:XPLM.dll
 0002:000002ac       __imp__XPLMFindDataRef     100292ac     XPLM:XPLM.dll
 0002:000002b0       __imp__XPLMUnregisterFlightLoopCallback 100292b0     XPLM:XPLM.dll
 0002:000002b4       __imp__XPLMRegisterFlightLoopCallback 100292b4     XPLM:XPLM.dll
 0002:000002b8       \177XPLM_NULL_THUNK_DATA   100292b8     XPLM:XPLM.dll
 0002:000002bc       __imp__XPCreateWidget      100292bc     XPWidgets:XPWidgets.dll
 0002:000002c0       __imp__XPDestroyWidget     100292c0     XPWidgets:XPWidgets.dll
 0002:000002c4       __imp__XPShowWidget        100292c4     XPWidgets:XPWidgets.dll
 0002:000002c8       __imp__XPHideWidget        100292c8     XPWidgets:XPWidgets.dll
 0002:000002cc       __imp__XPIsWidgetVisible   100292cc     XPWidgets:XPWidgets.dll
 0002:000002d0       __imp__XPSetWidgetProperty 100292d0     XPWidgets:XPWidgets.dll
 0002:000002d4       __imp__XPAddWidgetCallback 100292d4     XPWidgets:XPWidgets.dll
 0002:000002d8       __imp__XPGetWidgetDescriptor 100292d8     XPWidgets:XPWidgets.dll
 0002:000002dc       \177XPWidgets_NULL_THUNK_DATA 100292dc     XPWidgets:XPWidgets.dll
 0002:000002e0       __imp__usb_open            100292e0     libusb0:libusb0.dll
 0002:000002e4       __imp__usb_close           100292e4     libusb0:libusb0.dll
 0002:000002e8       __imp__usb_control_msg     100292e8     libusb0:libusb0.dll
 0002:000002ec       __imp__usb_strerror        100292ec     libusb0:libusb0.dll
 0002:000002f0       __imp__usb_init            100292f0     libusb0:libusb0.dll
 0002:000002f4       __imp__usb_find_busses     100292f4     libusb0:libusb0.dll
 0002:000002f8       __imp__usb_find_devices    100292f8     libusb0:libusb0.dll
 0002:000002fc       __imp__usb_get_busses      100292fc     libusb0:libusb0.dll
 0002:00000300       \177libusb0_NULL_THUNK_DATA 10029300     libusb0:libusb0.dll
 0002:00000304       ___xc_a                    10029304     MSVCRT:cinitexe.obj
 0002:000004a0       ___xc_z                    100294a0     MSVCRT:cinitexe.obj
 0002:000004a4       ___xi_a                    100294a4     MSVCRT:cinitexe.obj
 0002:000004b4       ___xi_z                    100294b4     MSVCRT:cinitexe.obj
 0002:00000550       ??_7error_category@std@@6B@ 10029550     main.obj
 0002:0000056c       ??_7_Generic_error_category@std@@6B@ 1002956c     main.obj
 0002:00000584       ??_C@_07DCLBNMLN@generic?$AA@ 10029584     main.obj
 0002:0000058c       ??_C@_0O@BFJCFAAK@unknown?5error?$AA@ 1002958c     main.obj
 0002:000005a0       ??_7_Iostream_error_category@std@@6B@ 100295a0     main.obj
 0002:000005b8       ??_C@_08LLGCOLLL@iostream?$AA@ 100295b8     main.obj
 0002:000005c4       ??_C@_0BG@PADBLCHM@iostream?5stream?5error?$AA@ 100295c4     main.obj
 0002:000005e0       ??_7_System_error_category@std@@6B@ 100295e0     main.obj
 0002:000005f8       ??_C@_06FHFOAHML@system?$AA@ 100295f8     main.obj
 0002:00000600       ??_C@_0BA@JFNIOLAK@string?5too?5long?$AA@ 10029600     main.obj
 0002:00000610       ??_C@_0BI@CFPLBAOH@invalid?5string?5position?$AA@ 10029610     main.obj
 0002:00000744       __real@3f000000            10029744     session.obj
 0002:00000810       ??_C@_0BE@JONHPENG@map?1set?$DMT?$DO?5too?5long?$AA@ 10029810     tools.obj
 0002:00000a3c       ?npos@?$basic_string@DU?$char_traits@D@std@@V?$allocator@D@2@@std@@2IB 10029a3c     data.obj
 0002:00000a44       ??_7object_t@@6B@          10029a44     data.obj
 0002:00000a70       ??_7provider_t@@6B@        10029a70     data.obj
 0002:00000a80       ??_7datasource_t@@6B@      10029a80     data.obj
 0002:00000aac       ??_7data_t@@6B@            10029aac     data.obj
 0002:00000abc       ??_7?$basic_stringbuf@DU?$char_traits@D@std@@V?$allocator@D@2@@std@@6B@ 10029abc     data.obj
 0002:00000afc       ??_7?$basic_ostringstream@DU?$char_traits@D@std@@V?$allocator@D@2@@std@@6B@ 10029afc     data.obj
 0002:00000b00       ??_8?$basic_ostringstream@DU?$char_traits@D@std@@V?$allocator@D@2@@std@@7B@ 10029b00     data.obj
 0002:00000b08       __real@00000000            10029b08     data.obj
 0002:00000b10       __real@0000000000000000    10029b10     data.obj
 0002:00000fd8       ??_7out_joystick_t@@6B@    10029fd8     out_saitek.obj
 0002:00001004       ??_7out_saitek_t@@6B@      1002a004     out_saitek.obj
 0002:00001734       ??_7listener_t@@6B@        1002a734     mfdpage.obj
 0002:0000174c       ??_7mfdpage_t@@6B@         1002a74c     mfdpage.obj
 0002:00001764       ??_7?$basic_stringstream@DU?$char_traits@D@std@@V?$allocator@D@2@@std@@6B@ 1002a764     mfdpage.obj
 0002:00001768       ??_8?$basic_stringstream@DU?$char_traits@D@std@@V?$allocator@D@2@@std@@7B?$basic_istream@DU?$char_traits@D@std@@@1@@ 1002a768     mfdpage.obj
 0002:00001770       ??_8?$basic_stringstream@DU?$char_traits@D@std@@V?$allocator@D@2@@std@@7B?$basic_ostream@DU?$char_traits@D@std@@@1@@ 1002a770     mfdpage.obj
 0002:00001a20       ??_7mfdpage_type_t@@6B@    1002aa20     mfdpage_fms.obj
 0002:00001a34       ??_7mfdpage_fms_t@@6B@     1002aa34     mfdpage_fms.obj
 0002:0000221c       ??_7mfdpage_flight_t@@6B@  1002b21c     mfdpage_flight.obj
 0002:0000222c       __real@3f800000            1002b22c     mfdpage_flight.obj
 0002:00002230       __real@3fff1a9fbe76c8b4    1002b230     mfdpage_flight.obj
 0002:00002238       __real@40000000            1002b238     mfdpage_flight.obj
 0002:0000223c       __real@42c80000            1002b23c     mfdpage_flight.obj
 0002:00002240       __real@447a0000            1002b240     mfdpage_flight.obj
 0002:0000229c       ??_7mfdpage_time_t@@6B@    1002b29c     mfdpage_time.obj
 0002:00002918       ??_7mfdpage_weather_t@@6B@ 1002b918     mfdpage_weather.obj
 0002:00002928       __real@400a3f28fd4f4b98    1002b928     mfdpage_weather.obj
 0002:00002930       __real@40400000            1002b930     mfdpage_weather.obj
 0002:00002938       __real@4059000000000000    1002b938     mfdpage_weather.obj
 0002:00002940       __real@40800000            1002b940     mfdpage_weather.obj
 0002:00002944       __real@40a00000            1002b944     mfdpage_weather.obj
 0002:00002948       __real@41200000            1002b948     mfdpage_weather.obj
 0002:00002d3c       ??_7mfdpage_std_t@@6B@     1002bd3c     mfdpage_std.obj
 0002:0000334c       ??_7mfdpage_led_t@@6B@     1002c34c     mfdpage_led.obj
 0002:00003ac8       __real@3f50624dd2f1a9fc    1002cac8     fms.obj
 0002:00003ad0       __real@42700000            1002cad0     fms.obj
 0002:00003ad4       __real@42a00000            1002cad4     fms.obj
 0002:00003ad8       __real@bf800000            1002cad8     fms.obj
 0002:00004c60       __real@3febc9eecbfb15b5    1002dc60     fms_fp.obj
 0002:00004c68       __real@3ff26c8b43958106    1002dc68     fms_fp.obj
 0002:00004c70       __real@3ff9bfdf7e8038a0    1002dc70     fms_fp.obj
 0002:00004c78       __real@404e000000000000    1002dc78     fms_fp.obj
 0002:00004c80       __real@44160000            1002dc80     fms_fp.obj
 0002:00004ce0       __real@3f9f9c62a1b5c7ce    1002dce0     fms_utils.obj
 0002:00004ce8       __real@3ffda1cac083126f    1002dce8     fms_utils.obj
 0002:00004cf0       __real@400921fb54442d18    1002dcf0     fms_utils.obj
 0002:00004cf8       __real@4066800000000000    1002dcf8     fms_utils.obj
 0002:00004d00       __real@42c60000            1002dd00     fms_utils.obj
 0002:00004d04       __real@45dac000            1002dd04     fms_utils.obj
 0002:00004d08       __real@c2c60000            1002dd08     fms_utils.obj
 0002:00004f68       ??_7?$basic_filebuf@DU?$char_traits@D@std@@@std@@6B@ 1002df68     config.obj
 0002:00004fa8       ??_7?$basic_ifstream@DU?$char_traits@D@std@@@std@@6B@ 1002dfa8     config.obj
 0002:00004fac       ??_8?$basic_ifstream@DU?$char_traits@D@std@@@std@@7B@ 1002dfac     config.obj
 0002:00004fb4       ??_C@_08EPJLHIJG@bad?5cast?$AA@ 1002dfb4     config.obj
 0002:00005338       ??_7type_info@@6B@         1002e338     MSVCRT:ti_inst.obj
 0002:00005344       __pRawDllMain              1002e344     MSVCRT:crtdll.obj
 0002:00005344       __pDefaultRawDllMain       1002e344     MSVCRT:crtdll.obj
 0002:00005348       __load_config_used         1002e348     MSVCRT:loadcfg.obj
 0002:00005390       ??_R4error_category@std@@6B@ 1002e390     main.obj
 0002:000053a4       ??_R3error_category@std@@8 1002e3a4     main.obj
 0002:000053b4       ??_R2error_category@std@@8 1002e3b4     main.obj
 0002:000053bc       ??_R1A@?0A@EA@error_category@std@@8 1002e3bc     main.obj
 0002:000053d8       ??_R4_Generic_error_category@std@@6B@ 1002e3d8     main.obj
 0002:000053ec       ??_R3_Generic_error_category@std@@8 1002e3ec     main.obj
 0002:000053fc       ??_R2_Generic_error_category@std@@8 1002e3fc     main.obj
 0002:00005408       ??_R1A@?0A@EA@_Generic_error_category@std@@8 1002e408     main.obj
 0002:00005424       ??_R4_Iostream_error_category@std@@6B@ 1002e424     main.obj
 0002:00005438       ??_R3_Iostream_error_category@std@@8 1002e438     main.obj
 0002:00005448       ??_R2_Iostream_error_category@std@@8 1002e448     main.obj
 0002:00005458       ??_R1A@?0A@EA@_Iostream_error_category@std@@8 1002e458     main.obj
 0002:00005474       ??_R4_System_error_category@std@@6B@ 1002e474     main.obj
 0002:00005488       ??_R3_System_error_category@std@@8 1002e488     main.obj
 0002:00005498       ??_R2_System_error_category@std@@8 1002e498     main.obj
 0002:000054a8       ??_R1A@?0A@EA@_System_error_category@std@@8 1002e4a8     main.obj
 0002:000054c4       ??_R4?$basic_stringbuf@DU?$char_traits@D@std@@V?$allocator@D@2@@std@@6B@ 1002e4c4     data.obj
 0002:000054d8       ??_R3?$basic_stringbuf@DU?$char_traits@D@std@@V?$allocator@D@2@@std@@8 1002e4d8     data.obj
 0002:000054e8       ??_R2?$basic_stringbuf@DU?$char_traits@D@std@@V?$allocator@D@2@@std@@8 1002e4e8     data.obj
 0002:000054f4       ??_R1A@?0A@EA@?$basic_stringbuf@DU?$char_traits@D@std@@V?$allocator@D@2@@std@@8 1002e4f4     data.obj
 0002:00005510       ??_R1A@?0A@EA@?$basic_streambuf@DU?$char_traits@D@std@@@std@@8 1002e510     data.obj
 0002:0000552c       ??_R3?$basic_streambuf@DU?$char_traits@D@std@@@std@@8 1002e52c     data.obj
 0002:0000553c       ??_R2?$basic_streambuf@DU?$char_traits@D@std@@@std@@8 1002e53c     data.obj
 0002:00005544       ??_R4?$basic_ostringstream@DU?$char_traits@D@std@@V?$allocator@D@2@@std@@6B@ 1002e544     data.obj
 0002:00005558       ??_R3?$basic_ostringstream@DU?$char_traits@D@std@@V?$allocator@D@2@@std@@8 1002e558     data.obj
 0002:00005568       ??_R2?$basic_ostringstream@DU?$char_traits@D@std@@V?$allocator@D@2@@std@@8 1002e568     data.obj
 0002:00005580       ??_R1A@?0A@EA@?$basic_ostringstream@DU?$char_traits@D@std@@V?$allocator@D@2@@std@@8 1002e580     data.obj
 0002:0000559c       ??_R1A@?0A@EA@?$basic_ostream@DU?$char_traits@D@std@@@std@@8 1002e59c     data.obj
 0002:000055b8       ??_R3?$basic_ostream@DU?$char_traits@D@std@@@std@@8 1002e5b8     data.obj
 0002:000055c8       ??_R2?$basic_ostream@DU?$char_traits@D@std@@@std@@8 1002e5c8     data.obj
 0002:000055dc       ??_R1A@A@3FA@?$basic_ios@DU?$char_traits@D@std@@@std@@8 1002e5dc     data.obj
 0002:000055f8       ??_R3?$basic_ios@DU?$char_traits@D@std@@@std@@8 1002e5f8     data.obj
 0002:00005608       ??_R2?$basic_ios@DU?$char_traits@D@std@@@std@@8 1002e608     data.obj
 0002:00005618       ??_R1A@?0A@EA@?$basic_ios@DU?$char_traits@D@std@@@std@@8 1002e618     data.obj
 0002:00005634       ??_R1A@?0A@EA@ios_base@std@@8 1002e634     data.obj
 0002:00005650       ??_R3ios_base@std@@8       1002e650     data.obj
 0002:00005660       ??_R2ios_base@std@@8       1002e660     data.obj
 0002:0000566c       ??_R17?0A@EA@?$_Iosb@H@std@@8 1002e66c     data.obj
 0002:00005688       ??_R3?$_Iosb@H@std@@8      1002e688     data.obj
 0002:00005698       ??_R2?$_Iosb@H@std@@8      1002e698     data.obj
 0002:000056a0       ??_R1A@?0A@EA@?$_Iosb@H@std@@8 1002e6a0     data.obj
 0002:000056bc       ??_R1A@A@3EA@ios_base@std@@8 1002e6bc     data.obj
 0002:000056d8       ??_R17A@3EA@?$_Iosb@H@std@@8 1002e6d8     data.obj
 0002:000056f4       ??_R4object_t@@6B@         1002e6f4     data.obj
 0002:00005708       ??_R3object_t@@8           1002e708     data.obj
 0002:00005718       ??_R2object_t@@8           1002e718     data.obj
 0002:00005720       ??_R1A@?0A@EA@object_t@@8  1002e720     data.obj
 0002:0000573c       ??_R4provider_t@@6B@       1002e73c     data.obj
 0002:00005750       ??_R3provider_t@@8         1002e750     data.obj
 0002:00005760       ??_R2provider_t@@8         1002e760     data.obj
 0002:00005768       ??_R1A@?0A@EA@provider_t@@8 1002e768     data.obj
 0002:00005784       ??_R4datasource_t@@6B@     1002e784     data.obj
 0002:00005798       ??_R3datasource_t@@8       1002e798     data.obj
 0002:000057a8       ??_R2datasource_t@@8       1002e7a8     data.obj
 0002:000057b8       ??_R1A@?0A@EA@datasource_t@@8 1002e7b8     data.obj
 0002:000057d4       ??_R13?0A@EA@tools_t@@8    1002e7d4     data.obj
 0002:000057f0       ??_R3tools_t@@8            1002e7f0     data.obj
 0002:00005800       ??_R2tools_t@@8            1002e800     data.obj
 0002:00005808       ??_R1A@?0A@EA@tools_t@@8   1002e808     data.obj
 0002:00005824       ??_R4data_t@@6B@           1002e824     data.obj
 0002:00005838       ??_R3data_t@@8             1002e838     data.obj
 0002:00005848       ??_R2data_t@@8             1002e848     data.obj
 0002:00005858       ??_R1A@?0A@EA@data_t@@8    1002e858     data.obj
 0002:00005874       ??_R4out_joystick_t@@6B@   1002e874     out_saitek.obj
 0002:00005888       ??_R3out_joystick_t@@8     1002e888     out_saitek.obj
 0002:00005898       ??_R2out_joystick_t@@8     1002e898     out_saitek.obj
 0002:000058a0       ??_R1A@?0A@EA@out_joystick_t@@8 1002e8a0     out_saitek.obj
 0002:000058bc       ??_R4out_saitek_t@@6B@     1002e8bc     out_saitek.obj
 0002:000058d0       ??_R3out_saitek_t@@8       1002e8d0     out_saitek.obj
 0002:000058e0       ??_R2out_saitek_t@@8       1002e8e0     out_saitek.obj
 0002:000058f0       ??_R1A@?0A@EA@out_saitek_t@@8 1002e8f0     out_saitek.obj
 0002:0000590c       ??_R4?$basic_stringstream@DU?$char_traits@D@std@@V?$allocator@D@2@@std@@6B@ 1002e90c     mfdpage.obj
 0002:00005920       ??_R3?$basic_stringstream@DU?$char_traits@D@std@@V?$allocator@D@2@@std@@8 1002e920     mfdpage.obj
 0002:00005930       ??_R2?$basic_stringstream@DU?$char_traits@D@std@@V?$allocator@D@2@@std@@8 1002e930     mfdpage.obj
 0002:0000595c       ??_R1A@?0A@EA@?$basic_stringstream@DU?$char_traits@D@std@@V?$allocator@D@2@@std@@8 1002e95c     mfdpage.obj
 0002:00005978       ??_R1A@?0A@EA@?$basic_iostream@DU?$char_traits@D@std@@@std@@8 1002e978     mfdpage.obj
 0002:00005994       ??_R3?$basic_iostream@DU?$char_traits@D@std@@@std@@8 1002e994     mfdpage.obj
 0002:000059a4       ??_R2?$basic_iostream@DU?$char_traits@D@std@@@std@@8 1002e9a4     mfdpage.obj
 0002:000059cc       ??_R1A@?0A@EA@?$basic_istream@DU?$char_traits@D@std@@@std@@8 1002e9cc     mfdpage.obj
 0002:000059e8       ??_R3?$basic_istream@DU?$char_traits@D@std@@@std@@8 1002e9e8     mfdpage.obj
 0002:000059f8       ??_R2?$basic_istream@DU?$char_traits@D@std@@@std@@8 1002e9f8     mfdpage.obj
 0002:00005a0c       ??_R1BA@?0A@EA@?$basic_ostream@DU?$char_traits@D@std@@@std@@8 1002ea0c     mfdpage.obj
 0002:00005a28       ??_R4listener_t@@6B@       1002ea28     mfdpage.obj
 0002:00005a3c       ??_R3listener_t@@8         1002ea3c     mfdpage.obj
 0002:00005a4c       ??_R2listener_t@@8         1002ea4c     mfdpage.obj
 0002:00005a54       ??_R1A@?0A@EA@listener_t@@8 1002ea54     mfdpage.obj
 0002:00005a70       ??_R4mfdpage_t@@6B@        1002ea70     mfdpage.obj
 0002:00005a84       ??_R3mfdpage_t@@8          1002ea84     mfdpage.obj
 0002:00005a94       ??_R2mfdpage_t@@8          1002ea94     mfdpage.obj
 0002:00005aa4       ??_R1A@?0A@EA@mfdpage_t@@8 1002eaa4     mfdpage.obj
 0002:00005ac0       ??_R4mfdpage_type_t@@6B@   1002eac0     mfdpage_fms.obj
 0002:00005ad4       ??_R3mfdpage_type_t@@8     1002ead4     mfdpage_fms.obj
 0002:00005ae4       ??_R2mfdpage_type_t@@8     1002eae4     mfdpage_fms.obj
 0002:00005aec       ??_R1A@?0A@EA@mfdpage_type_t@@8 1002eaec     mfdpage_fms.obj
 0002:00005b08       ??_R4mfdpage_fms_t@@6B@    1002eb08     mfdpage_fms.obj
 0002:00005b1c       ??_R3mfdpage_fms_t@@8      1002eb1c     mfdpage_fms.obj
 0002:00005b2c       ??_R2mfdpage_fms_t@@8      1002eb2c     mfdpage_fms.obj
 0002:00005b40       ??_R1A@?0A@EA@mfdpage_fms_t@@8 1002eb40     mfdpage_fms.obj
 0002:00005b5c       ??_R1CA@?0A@EA@tools_t@@8  1002eb5c     mfdpage_fms.obj
 0002:00005b78       ??_R1CE@?0A@EA@fms_utils_t@@8 1002eb78     mfdpage_fms.obj
 0002:00005b94       ??_R3fms_utils_t@@8        1002eb94     mfdpage_fms.obj
 0002:00005ba4       ??_R2fms_utils_t@@8        1002eba4     mfdpage_fms.obj
 0002:00005bac       ??_R1A@?0A@EA@fms_utils_t@@8 1002ebac     mfdpage_fms.obj
 0002:00005bc8       ??_R4mfdpage_flight_t@@6B@ 1002ebc8     mfdpage_flight.obj
 0002:00005bdc       ??_R3mfdpage_flight_t@@8   1002ebdc     mfdpage_flight.obj
 0002:00005bec       ??_R2mfdpage_flight_t@@8   1002ebec     mfdpage_flight.obj
 0002:00005bfc       ??_R1A@?0A@EA@mfdpage_flight_t@@8 1002ebfc     mfdpage_flight.obj
 0002:00005c18       ??_R4mfdpage_time_t@@6B@   1002ec18     mfdpage_time.obj
 0002:00005c2c       ??_R3mfdpage_time_t@@8     1002ec2c     mfdpage_time.obj
 0002:00005c3c       ??_R2mfdpage_time_t@@8     1002ec3c     mfdpage_time.obj
 0002:00005c50       ??_R1A@?0A@EA@mfdpage_time_t@@8 1002ec50     mfdpage_time.obj
 0002:00005c6c       ??_R4mfdpage_weather_t@@6B@ 1002ec6c     mfdpage_weather.obj
 0002:00005c80       ??_R3mfdpage_weather_t@@8  1002ec80     mfdpage_weather.obj
 0002:00005c90       ??_R2mfdpage_weather_t@@8  1002ec90     mfdpage_weather.obj
 0002:00005ca0       ??_R1A@?0A@EA@mfdpage_weather_t@@8 1002eca0     mfdpage_weather.obj
 0002:00005cbc       ??_R4mfdpage_std_t@@6B@    1002ecbc     mfdpage_std.obj
 0002:00005cd0       ??_R3mfdpage_std_t@@8      1002ecd0     mfdpage_std.obj
 0002:00005ce0       ??_R2mfdpage_std_t@@8      1002ece0     mfdpage_std.obj
 0002:00005cf0       ??_R1A@?0A@EA@mfdpage_std_t@@8 1002ecf0     mfdpage_std.obj
 0002:00005d0c       ??_R4mfdpage_led_t@@6B@    1002ed0c     mfdpage_led.obj
 0002:00005d20       ??_R3mfdpage_led_t@@8      1002ed20     mfdpage_led.obj
 0002:00005d30       ??_R2mfdpage_led_t@@8      1002ed30     mfdpage_led.obj
 0002:00005d40       ??_R1A@?0A@EA@mfdpage_led_t@@8 1002ed40     mfdpage_led.obj
 0002:00005d5c       ??_R4?$basic_filebuf@DU?$char_traits@D@std@@@std@@6B@ 1002ed5c     config.obj
 0002:00005d70       ??_R3?$basic_filebuf@DU?$char_traits@D@std@@@std@@8 1002ed70     config.obj
 0002:00005d80       ??_R2?$basic_filebuf@DU?$char_traits@D@std@@@std@@8 1002ed80     config.obj
 0002:00005d8c       ??_R1A@?0A@EA@?$basic_filebuf@DU?$char_traits@D@std@@@std@@8 1002ed8c     config.obj
 0002:00005da8       ??_R4?$basic_ifstream@DU?$char_traits@D@std@@@std@@6B@ 1002eda8     config.obj
 0002:00005dbc       ??_R3?$basic_ifstream@DU?$char_traits@D@std@@@std@@8 1002edbc     config.obj
 0002:00005dcc       ??_R2?$basic_ifstream@DU?$char_traits@D@std@@@std@@8 1002edcc     config.obj
 0002:00005de4       ??_R1A@?0A@EA@?$basic_ifstream@DU?$char_traits@D@std@@@std@@8 1002ede4     config.obj
 0002:00005e00       ??_R4type_info@@6B@        1002ee00     MSVCRT:ti_inst.obj
 0002:00005e14       ??_R3type_info@@8          1002ee14     MSVCRT:ti_inst.obj
 0002:00005e24       ??_R2type_info@@8          1002ee24     MSVCRT:ti_inst.obj
 0002:00005e2c       ??_R1A@?0A@EA@type_info@@8 1002ee2c     MSVCRT:ti_inst.obj
 0002:00005e50       ___safe_se_handler_table   1002ee50     <linker-defined>
 0002:00005ef4       ___rtc_iaa                 1002eef4     MSVCRT:initsect.obj
 0002:00005ef8       ___rtc_izz                 1002eef8     MSVCRT:initsect.obj
 0002:00005efc       ___rtc_taa                 1002eefc     MSVCRT:initsect.obj
 0002:00005f00       ___rtc_tzz                 1002ef00     MSVCRT:initsect.obj
 0002:00006254       __TI2PAD                   1002f254     data.obj
 0002:00006264       __CTA2PAD                  1002f264     data.obj
 0002:00006270       __CT??_R0PAD@84            1002f270     data.obj
 0002:0000628c       __CT??_R0PAX@84            1002f28c     data.obj
 0002:00006dec       __CT??_R0?AVexception@std@@@8??0exception@std@@QAE@ABV01@@Z12 1002fdec     config.obj
 0002:00006e08       __TI2?AVbad_cast@std@@     1002fe08     config.obj
 0002:00006e18       __CTA2?AVbad_cast@std@@    1002fe18     config.obj
 0002:00006e24       __CT??_R0?AVbad_cast@std@@@8??0bad_cast@std@@QAE@ABV01@@Z12 1002fe24     config.obj
 0002:00006fa8       __IMPORT_DESCRIPTOR_XPLM   1002ffa8     XPLM:XPLM.dll
 0002:00006fbc       __IMPORT_DESCRIPTOR_XPWidgets 1002ffbc     XPWidgets:XPWidgets.dll
 0002:00006fd0       __IMPORT_DESCRIPTOR_libusb0 1002ffd0     libusb0:libusb0.dll
 0002:00006fe4       __IMPORT_DESCRIPTOR_MSVCP120 1002ffe4     msvcprt:MSVCP120.dll
 0002:00006ff8       __IMPORT_DESCRIPTOR_MSVCR120 1002fff8     MSVCRT:MSVCR120.dll
 0002:0000700c       __IMPORT_DESCRIPTOR_KERNEL32 1003000c     kernel32:KERNEL32.dll
 0002:00007020       __NULL_IMPORT_DESCRIPTOR   10030020     XPLM:XPLM.dll
 0003:00000000       ?plugin_version@@3PBDB     10032000     main.obj
 0003:00000004       ___security_cookie         10032004     MSVCRT:gs_cookie.obj
 0003:00000008       ___security_cookie_complement 10032008     MSVCRT:gs_cookie.obj
 0003:00000010       ___isa_enabled             10032010     MSVCRT:cpu_disp.obj
 0003:00000014       ___native_dllmain_reason   10032014     MSVCRT:natstart.obj
 0003:00000018       ??_R0PAD@8                 10032018     main.obj
 0003:00000028       ??_R0?AVerror_category@std@@@8 10032028     main.obj
 0003:0000004c       ??_R0?AV_Generic_error_category@std@@@8 1003204c     main.obj
 0003:00000078       ??_R0?AV_Iostream_error_category@std@@@8 10032078     main.obj
 0003:000000a4       ??_R0?AV_System_error_category@std@@@8 100320a4     main.obj
 0003:000000d0       ??_R0PAX@8                 100320d0     data.obj
 0003:000000e0       ??_R0?AV?$basic_stringbuf@DU?$char_traits@D@std@@V?$allocator@D@2@@std@@@8 100320e0     data.obj
 0003:00000130       ??_R0?AV?$basic_streambuf@DU?$char_traits@D@std@@@std@@@8 10032130     data.obj
 0003:00000170       ??_R0?AV?$basic_ostringstream@DU?$char_traits@D@std@@V?$allocator@D@2@@std@@@8 10032170     data.obj
 0003:000001c4       ??_R0?AV?$basic_ostream@DU?$char_traits@D@std@@@std@@@8 100321c4     data.obj
 0003:00000200       ??_R0?AV?$basic_ios@DU?$char_traits@D@std@@@std@@@8 10032200     data.obj
 0003:00000238       ??_R0?AVios_base@std@@@8   10032238     data.obj
 0003:00000254       ??_R0?AV?$_Iosb@H@std@@@8  10032254     data.obj
 0003:00000270       ??_R0?AVobject_t@@@8       10032270     data.obj
 0003:00000288       ??_R0?AVprovider_t@@@8     10032288     data.obj
 0003:000002a4       ??_R0?AVdatasource_t@@@8   100322a4     data.obj
 0003:000002c0       ??_R0?AVtools_t@@@8        100322c0     data.obj
 0003:000002d8       ??_R0?AVdata_t@@@8         100322d8     data.obj
 0003:000002f0       ??_R0?AVout_joystick_t@@@8 100322f0     out_saitek.obj
 0003:00000310       ??_R0?AVout_saitek_t@@@8   10032310     out_saitek.obj
 0003:00000330       ??_R0?AV?$basic_stringstream@DU?$char_traits@D@std@@V?$allocator@D@2@@std@@@8 10032330     mfdpage.obj
 0003:00000380       ??_R0?AV?$basic_iostream@DU?$char_traits@D@std@@@std@@@8 10032380     mfdpage.obj
 0003:000003bc       ??_R0?AV?$basic_istream@DU?$char_traits@D@std@@@std@@@8 100323bc     mfdpage.obj
 0003:000003f8       ??_R0?AVlistener_t@@@8     100323f8     mfdpage.obj
 0003:00000414       ??_R0?AVmfdpage_t@@@8      10032414     mfdpage.obj
 0003:0000042c       ??_R0?AVmfdpage_type_t@@@8 1003242c     mfdpage_fms.obj
 0003:0000044c       ??_R0?AVmfdpage_fms_t@@@8  1003244c     mfdpage_fms.obj
 0003:00000468       ??_R0?AVfms_utils_t@@@8    10032468     mfdpage_fms.obj
 0003:00000484       ??_R0?AVmfdpage_flight_t@@@8 10032484     mfdpage_flight.obj
 0003:000004a4       ??_R0?AVmfdpage_time_t@@@8 100324a4     mfdpage_time.obj
 0003:000004c4       ??_R0?AVmfdpage_weather_t@@@8 100324c4     mfdpage_weather.obj
 0003:000004e4       ??_R0?AVmfdpage_std_t@@@8  100324e4     mfdpage_std.obj
 0003:00000500       ??_R0?AVmfdpage_led_t@@@8  10032500     mfdpage_led.obj
 0003:0000051c       ??_R0?AVexception@std@@@8  1003251c     config.obj
 0003:00000538       ??_R0?AVbad_cast@std@@@8   10032538     config.obj
 0003:00000554       ??_R0?AV?$basic_filebuf@DU?$char_traits@D@std@@@std@@@8 10032554     config.obj
 0003:00000590       ??_R0?AV?$basic_ifstream@DU?$char_traits@D@std@@@std@@@8 10032590     config.obj
 0003:000005cc       ??_R0?AVtype_info@@@8      100325cc     MSVCRT:ti_inst.obj
 0003:000005f0       ?_Generic_object@?$_Error_objects@H@std@@2V_Generic_error_category@2@A 100325f0     main.obj
 0003:000005f4       ?_Iostream_object@?$_Error_objects@H@std@@2V_Iostream_error_category@2@A 100325f4     main.obj
 0003:000005f8       ?_System_object@?$_Error_objects@H@std@@2V_System_error_category@2@A 100325f8     main.obj
 0003:000005fc       ?id@?$num_put@DV?$back_insert_iterator@V?$basic_string@DU?$char_traits@D@std@@V?$allocator@D@2@@std@@@std@@@std@@2V0locale@2@A 100325fc     main.obj
 0003:00000600       ?id@?$num_put@_WV?$back_insert_iterator@V?$basic_string@_WU?$char_traits@_W@std@@V?$allocator@_W@2@@std@@@std@@@std@@2V0locale@2@A 10032600     main.obj
 0003:00000650       ?instanceFlag@config_t@@0_NA 10032650     config.obj
 0003:00000654       ?single@config_t@@0PAV1@A  10032654     config.obj
 0003:0000065c       ?_Stinit@?1??_Init@?$basic_filebuf@DU?$char_traits@D@std@@@std@@IAEXPAU_iobuf@@W4_Initfl@23@@Z@4HA 1003265c     config.obj
 0003:00000660       ?_Psave@?$_Facetptr@V?$codecvt@DDH@std@@@std@@2PBVfacet@locale@2@B 10032660     config.obj
 0003:00000a2c       ___isa_available           10032a2c     MSVCRT:cpu_disp.obj
 0003:00000a30       ___favor                   10032a30     MSVCRT:cpu_disp.obj
 0003:00000a34       ?__type_info_root_node@@3U__type_info_node@@A 10032a34     MSVCRT:tncleanup.obj
 0003:00000a3c       ___native_startup_lock     10032a3c     <common>
 0003:00000a40       ___native_startup_state    10032a40     <common>
 0003:00000a44       ___dyn_tls_init_callback   10032a44     <common>
 0003:00000a48       ___onexitend               10032a48     <common>
 0003:00000a4c       ___onexitbegin             10032a4c     <common>

 entry point at        0001:00026413

 Static symbols

 0001:00000000       ??__E?_Generic_object@?$_Error_objects@H@std@@2V_Generic_error_category@2@A@@YAXXZ 10001000 f   main.obj
 0001:00000020       ??__E?_Iostream_object@?$_Error_objects@H@std@@2V_Iostream_error_category@2@A@@YAXXZ 10001020 f   main.obj
 0001:00000040       ??__E?_System_object@?$_Error_objects@H@std@@2V_System_error_category@2@A@@YAXXZ 10001040 f   main.obj
 0001:00000060       ??__E?id@?$num_put@DV?$back_insert_iterator@V?$basic_string@DU?$char_traits@D@std@@V?$allocator@D@2@@std@@@std@@@std@@2V0locale@2@A@@YAXXZ 10001060 f   main.obj
 0001:00000080       ??__E?id@?$num_put@_WV?$back_insert_iterator@V?$basic_string@_WU?$char_traits@_W@std@@V?$allocator@_W@2@@std@@@std@@@std@@2V0locale@2@A@@YAXXZ 10001080 f   main.obj
 0001:000000a0       ??__E_Tuple_alloc@std@@YAXXZ 100010a0 f   main.obj
 0001:000000b0       ??__Eallocator_arg@std@@YAXXZ 100010b0 f   main.obj
 0001:000000c0       ??__Eignore@std@@YAXXZ     100010c0 f   main.obj
 0001:000000d0       ??__Epiecewise_construct@std@@YAXXZ 100010d0 f   main.obj
 0001:000000e0       ??__E_Tuple_alloc@std@@YAXXZ 100010e0 f   session.obj
 0001:000000f0       ??__Eallocator_arg@std@@YAXXZ 100010f0 f   session.obj
 0001:00000100       ??__Eignore@std@@YAXXZ     10001100 f   session.obj
 0001:00000110       ??__Epiecewise_construct@std@@YAXXZ 10001110 f   session.obj
 0001:00000120       ??__E_Tuple_alloc@std@@YAXXZ 10001120 f   tools.obj
 0001:00000130       ??__Eallocator_arg@std@@YAXXZ 10001130 f   tools.obj
 0001:00000140       ??__Eignore@std@@YAXXZ     10001140 f   tools.obj
 0001:00000150       ??__Epiecewise_construct@std@@YAXXZ 10001150 f   tools.obj
 0001:00000160       ??__E_Tuple_alloc@std@@YAXXZ 10001160 f   data.obj
 0001:00000170       ??__Eallocator_arg@std@@YAXXZ 10001170 f   data.obj
 0001:00000180       ??__Eignore@std@@YAXXZ     10001180 f   data.obj
 0001:00000190       ??__Epiecewise_construct@std@@YAXXZ 10001190 f   data.obj
 0001:000001a0       ??__E_Tuple_alloc@std@@YAXXZ 100011a0 f   out.obj
 0001:000001b0       ??__Eallocator_arg@std@@YAXXZ 100011b0 f   out.obj
 0001:000001c0       ??__Eignore@std@@YAXXZ     100011c0 f   out.obj
 0001:000001d0       ??__Epiecewise_construct@std@@YAXXZ 100011d0 f   out.obj
 0001:000001e0       ??__E_Tuple_alloc@std@@YAXXZ 100011e0 f   out_saitek.obj
 0001:000001f0       ??__Eallocator_arg@std@@YAXXZ 100011f0 f   out_saitek.obj
 0001:00000200       ??__Eignore@std@@YAXXZ     10001200 f   out_saitek.obj
 0001:00000210       ??__Epiecewise_construct@std@@YAXXZ 10001210 f   out_saitek.obj
 0001:00000220       ??__E_Tuple_alloc@std@@YAXXZ 10001220 f   in.obj
 0001:00000230       ??__Eallocator_arg@std@@YAXXZ 10001230 f   in.obj
 0001:00000240       ??__Eignore@std@@YAXXZ     10001240 f   in.obj
 0001:00000250       ??__Epiecewise_construct@std@@YAXXZ 10001250 f   in.obj
 0001:00000260       ??__E_Tuple_alloc@std@@YAXXZ 10001260 f   mfdpage.obj
 0001:00000270       ??__Eallocator_arg@std@@YAXXZ 10001270 f   mfdpage.obj
 0001:00000280       ??__Eignore@std@@YAXXZ     10001280 f   mfdpage.obj
 0001:00000290       ??__Epiecewise_construct@std@@YAXXZ 10001290 f   mfdpage.obj
 0001:000002a0       ??__E_Tuple_alloc@std@@YAXXZ 100012a0 f   mfdpage_fms.obj
 0001:000002b0       ??__Eallocator_arg@std@@YAXXZ 100012b0 f   mfdpage_fms.obj
 0001:000002c0       ??__Eignore@std@@YAXXZ     100012c0 f   mfdpage_fms.obj
 0001:000002d0       ??__Epiecewise_construct@std@@YAXXZ 100012d0 f   mfdpage_fms.obj
 0001:000002e0       ??__E_Tuple_alloc@std@@YAXXZ 100012e0 f   mfdpage_flight.obj
 0001:000002f0       ??__Eallocator_arg@std@@YAXXZ 100012f0 f   mfdpage_flight.obj
 0001:00000300       ??__Eignore@std@@YAXXZ     10001300 f   mfdpage_flight.obj
 0001:00000310       ??__Epiecewise_construct@std@@YAXXZ 10001310 f   mfdpage_flight.obj
 0001:00000320       ??__E_Tuple_alloc@std@@YAXXZ 10001320 f   mfdpage_time.obj
 0001:00000330       ??__Eallocator_arg@std@@YAXXZ 10001330 f   mfdpage_time.obj
 0001:00000340       ??__Eignore@std@@YAXXZ     10001340 f   mfdpage_time.obj
 0001:00000350       ??__Epiecewise_construct@std@@YAXXZ 10001350 f   mfdpage_time.obj
 0001:00000360       ??__E_Tuple_alloc@std@@YAXXZ 10001360 f   mfdpage_weather.obj
 0001:00000370       ??__Eallocator_arg@std@@YAXXZ 10001370 f   mfdpage_weather.obj
 0001:00000380       ??__Eignore@std@@YAXXZ     10001380 f   mfdpage_weather.obj
 0001:00000390       ??__Epiecewise_construct@std@@YAXXZ 10001390 f   mfdpage_weather.obj
 0001:000003a0       ??__E_Tuple_alloc@std@@YAXXZ 100013a0 f   mfdpage_std.obj
 0001:000003b0       ??__Eallocator_arg@std@@YAXXZ 100013b0 f   mfdpage_std.obj
 0001:000003c0       ??__Eignore@std@@YAXXZ     100013c0 f   mfdpage_std.obj
 0001:000003d0       ??__Epiecewise_construct@std@@YAXXZ 100013d0 f   mfdpage_std.obj
 0001:000003e0       ??__E_Tuple_alloc@std@@YAXXZ 100013e0 f   mfdpage_led.obj
 0001:000003f0       ??__Eallocator_arg@std@@YAXXZ 100013f0 f   mfdpage_led.obj
 0001:00000400       ??__Eignore@std@@YAXXZ     10001400 f   mfdpage_led.obj
 0001:00000410       ??__Epiecewise_construct@std@@YAXXZ 10001410 f   mfdpage_led.obj
 0001:00000420       ??__E_Tuple_alloc@std@@YAXXZ 10001420 f   fms.obj
 0001:00000430       ??__Eallocator_arg@std@@YAXXZ 10001430 f   fms.obj
 0001:00000440       ??__Eignore@std@@YAXXZ     10001440 f   fms.obj
 0001:00000450       ??__Epiecewise_construct@std@@YAXXZ 10001450 f   fms.obj
 0001:00000460       ??__E_Tuple_alloc@std@@YAXXZ 10001460 f   fms_config.obj
 0001:00000470       ??__Eallocator_arg@std@@YAXXZ 10001470 f   fms_config.obj
 0001:00000480       ??__Eignore@std@@YAXXZ     10001480 f   fms_config.obj
 0001:00000490       ??__Epiecewise_construct@std@@YAXXZ 10001490 f   fms_config.obj
 0001:000004a0       ??__E_Tuple_alloc@std@@YAXXZ 100014a0 f   fms_fuel.obj
 0001:000004b0       ??__Eallocator_arg@std@@YAXXZ 100014b0 f   fms_fuel.obj
 0001:000004c0       ??__Eignore@std@@YAXXZ     100014c0 f   fms_fuel.obj
 0001:000004d0       ??__Epiecewise_construct@std@@YAXXZ 100014d0 f   fms_fuel.obj
 0001:000004e0       ??__E_Tuple_alloc@std@@YAXXZ 100014e0 f   fms_fp.obj
 0001:000004f0       ??__Eallocator_arg@std@@YAXXZ 100014f0 f   fms_fp.obj
 0001:00000500       ??__Eignore@std@@YAXXZ     10001500 f   fms_fp.obj
 0001:00000510       ??__Epiecewise_construct@std@@YAXXZ 10001510 f   fms_fp.obj
 0001:00000520       ??__E_Tuple_alloc@std@@YAXXZ 10001520 f   fms_utils.obj
 0001:00000530       ??__Eallocator_arg@std@@YAXXZ 10001530 f   fms_utils.obj
 0001:00000540       ??__Eignore@std@@YAXXZ     10001540 f   fms_utils.obj
 0001:00000550       ??__Epiecewise_construct@std@@YAXXZ 10001550 f   fms_utils.obj
 0001:00000560       ??__E_Tuple_alloc@std@@YAXXZ 10001560 f   config.obj
 0001:00000570       ??__Eallocator_arg@std@@YAXXZ 10001570 f   config.obj
 0001:00000580       ??__Eignore@std@@YAXXZ     10001580 f   config.obj
 0001:00000590       ??__Epiecewise_construct@std@@YAXXZ 10001590 f   config.obj
 0001:000005a0       ??__E_Tuple_alloc@std@@YAXXZ 100015a0 f   gui.obj
 0001:000005b0       ??__Eallocator_arg@std@@YAXXZ 100015b0 f   gui.obj
 0001:000005c0       ??__Eignore@std@@YAXXZ     100015c0 f   gui.obj
 0001:000005d0       ??__Epiecewise_construct@std@@YAXXZ 100015d0 f   gui.obj
 0001:000005e0       ??__E_Tuple_alloc@std@@YAXXZ 100015e0 f   gui_mfd.obj
 0001:000005f0       ??__Eallocator_arg@std@@YAXXZ 100015f0 f   gui_mfd.obj
 0001:00000600       ??__Eignore@std@@YAXXZ     10001600 f   gui_mfd.obj
 0001:00000610       ??__Epiecewise_construct@std@@YAXXZ 10001610 f   gui_mfd.obj
 0001:00000620       ??__E_Tuple_alloc@std@@YAXXZ 10001620 f   gui_fms_option.obj
 0001:00000630       ??__Eallocator_arg@std@@YAXXZ 10001630 f   gui_fms_option.obj
 0001:00000640       ??__Eignore@std@@YAXXZ     10001640 f   gui_fms_option.obj
 0001:00000650       ??__Epiecewise_construct@std@@YAXXZ 10001650 f   gui_fms_option.obj
 0001:00000660       ??__E_Tuple_alloc@std@@YAXXZ 10001660 f   gui_fms_status.obj
 0001:00000670       ??__Eallocator_arg@std@@YAXXZ 10001670 f   gui_fms_status.obj
 0001:00000680       ??__Eignore@std@@YAXXZ     10001680 f   gui_fms_status.obj
 0001:00000690       ??__Epiecewise_construct@std@@YAXXZ 10001690 f   gui_fms_status.obj
 0001:0000069d       ??__E_Fac_tidy_reg@std@@YAXXZ 1000169d f   msvcprt:locale0_implib.obj
 0001:0000077d       __catch$_XPluginStart$0    1000177d f   main.obj
 0001:00000ce5       __catch$?_Copy@?$basic_string@DU?$char_traits@D@std@@V?$allocator@D@2@@std@@QAEXII@Z$0 10001ce5 f i main.obj
 0001:00000d11       __catch$?_Copy@?$basic_string@DU?$char_traits@D@std@@V?$allocator@D@2@@std@@QAEXII@Z$1 10001d11 f i main.obj
 0001:00001aa0       _localtime                 10002aa0 f   tools.obj
 0001:00001ac0       _time                      10002ac0 f   tools.obj
 0001:00001d0c       $LN14                      10002d0c     tools.obj
 0001:00001fd1       __catch$??$_Buynode@ABUpiecewise_construct_t@std@@V?$tuple@$$QAV?$basic_string@DU?$char_traits@D@std@@V?$allocator@D@2@@std@@@2@V?$tuple@$$$V@2@@?$_Tree_buy@U?$pair@$$CBV?$basic_string@DU?$char_traits@D@std@@V?$allocator@D@2@@std@@V12@@std@@V?$allocator@U?$pair@$$CBV?$basic_string@DU?$char_traits@D@std@@V?$allocator@D@2@@std@@V12@@std@@@2@@std@@QAEPAU?$_Tree_node@U?$pair@$$CBV?$basic_string@DU?$char_traits@D@std@@V?$allocator@D@2@@std@@V12@@std@@PAX@1@ABUpiecewise_construct_t@1@$$QAV?$tuple@$$QAV?$basic_string@DU?$char_traits@D@std@@V?$allocator@D@2@@std@@@1@$$QAV?$tuple@$$$V@1@@Z$0 10002fd1 f i tools.obj
 0001:00002b88       __catch$??$_Insert_hint@AAU?$pair@$$CBV?$basic_string@DU?$char_traits@D@std@@V?$allocator@D@2@@std@@V12@@std@@PAU?$_Tree_node@U?$pair@$$CBV?$basic_string@DU?$char_traits@D@std@@V?$allocator@D@2@@std@@V12@@std@@PAX@2@@?$_Tree@V?$_Tmap_traits@V?$basic_string@DU?$char_traits@D@std@@V?$allocator@D@2@@std@@V12@U?$less@V?$basic_string@DU?$char_traits@D@std@@V?$allocator@D@2@@std@@@2@V?$allocator@U?$pair@$$CBV?$basic_string@DU?$char_traits@D@std@@V?$allocator@D@2@@std@@V12@@std@@@2@$0A@@std@@@std@@IAE?AV?$_Tree_iterator@V?$_Tree_val@U?$_Tree_simple_types@U?$pair@$$CBV?$basic_string@DU?$char_traits@D@std@@V?$allocator@D@2@@std@@V12@@std@@@std@@@std@@@1@V?$_Tree_const_iterator@V?$_Tree_val@U?$_Tree_simple_types@U?$pair@$$CBV?$basic_string@DU?$char_traits@D@std@@V?$allocator@D@2@@std@@V12@@std@@@std@@@std@@@1@AAU?$pair@$$CBV?$basic_string@DU?$char_traits@D@std@@V?$allocator@D@2@@std@@V12@@1@PAU?$_Tree_node@U?$pair@$$CBV?$basic_string@DU?$char_traits@D@std@@V?$allocator@D@2@@std@@V12@@std@@PAX@1@@Z$0 10003b88 f i tools.obj
 0001:00002e89       __catch$??$_Insert_nohint@AAU?$pair@$$CBV?$basic_string@DU?$char_traits@D@std@@V?$allocator@D@2@@std@@V12@@std@@PAU?$_Tree_node@U?$pair@$$CBV?$basic_string@DU?$char_traits@D@std@@V?$allocator@D@2@@std@@V12@@std@@PAX@2@@?$_Tree@V?$_Tmap_traits@V?$basic_string@DU?$char_traits@D@std@@V?$allocator@D@2@@std@@V12@U?$less@V?$basic_string@DU?$char_traits@D@std@@V?$allocator@D@2@@std@@@2@V?$allocator@U?$pair@$$CBV?$basic_string@DU?$char_traits@D@std@@V?$allocator@D@2@@std@@V12@@std@@@2@$0A@@std@@@std@@IAE?AU?$pair@V?$_Tree_iterator@V?$_Tree_val@U?$_Tree_simple_types@U?$pair@$$CBV?$basic_string@DU?$char_traits@D@std@@V?$allocator@D@2@@std@@V12@@std@@@std@@@std@@@std@@_N@1@_NAAU?$pair@$$CBV?$basic_string@DU?$char_traits@D@std@@V?$allocator@D@2@@std@@V12@@1@PAU?$_Tree_node@U?$pair@$$CBV?$basic_string@DU?$char_traits@D@std@@V?$allocator@D@2@@std@@V12@@std@@PAX@1@@Z$0 10003e89 f i tools.obj
 0001:00003467       __catch$?_Buynode0@?$_Tree_buy@U?$pair@$$CBV?$basic_string@DU?$char_traits@D@std@@V?$allocator@D@2@@std@@V12@@std@@V?$allocator@U?$pair@$$CBV?$basic_string@DU?$char_traits@D@std@@V?$allocator@D@2@@std@@V12@@std@@@2@@std@@QAEPAU?$_Tree_node@U?$pair@$$CBV?$basic_string@DU?$char_traits@D@std@@V?$allocator@D@2@@std@@V12@@std@@PAX@2@XZ$0 10004467 f i tools.obj
 0001:00004490       $LN10                      10005490     data.obj
 0001:000044a4       $LN9                       100054a4     data.obj
 0001:000045d8       $LN10                      100055d8     data.obj
 0001:000045ec       $LN9                       100055ec     data.obj
 0001:00004a78       $LN32                      10005a78     data.obj
 0001:00004a98       $LN31                      10005a98     data.obj
 0001:00005527       __catch$??$_Buynode@ABQAVlistener_t@@@?$_Tree_buy@PAVlistener_t@@V?$allocator@PAVlistener_t@@@std@@@std@@QAEPAU?$_Tree_node@PAVlistener_t@@PAX@1@ABQAVlistener_t@@@Z$0 10006527 f i data.obj
 0001:00005527       __catch$??$_Buynode@ABQAVobject_t@@@?$_Tree_buy@PAVobject_t@@V?$allocator@PAVobject_t@@@std@@@std@@QAEPAU?$_Tree_node@PAVobject_t@@PAX@1@ABQAVobject_t@@@Z$0 10006527 f i data.obj
 0001:00005527       __catch$??$_Buynode@ABQAVmfdpage_t@@@?$_Tree_buy@PAVmfdpage_t@@V?$allocator@PAVmfdpage_t@@@std@@@std@@QAEPAU?$_Tree_node@PAVmfdpage_t@@PAX@1@ABQAVmfdpage_t@@@Z$0 10006527 f i data.obj
 0001:00005cdd       __catch$??$_Insert_nohint@ABQAVlistener_t@@U_Nil@std@@@?$_Tree@V?$_Tset_traits@PAVlistener_t@@U?$less@PAVlistener_t@@@std@@V?$allocator@PAVlistener_t@@@3@$0A@@std@@@std@@IAE?AU?$pair@V?$_Tree_const_iterator@V?$_Tree_val@U?$_Tree_simple_types@PAVlistener_t@@@std@@@std@@@std@@_N@1@_NABQAVlistener_t@@U_Nil@1@@Z$0 10006cdd f i data.obj
 0001:00005cdd       __catch$??$_Insert_nohint@ABQAVobject_t@@U_Nil@std@@@?$_Tree@V?$_Tset_traits@PAVobject_t@@U?$less@PAVobject_t@@@std@@V?$allocator@PAVobject_t@@@3@$0A@@std@@@std@@IAE?AU?$pair@V?$_Tree_const_iterator@V?$_Tree_val@U?$_Tree_simple_types@PAVobject_t@@@std@@@std@@@std@@_N@1@_NABQAVobject_t@@U_Nil@1@@Z$0 10006cdd f i data.obj
 0001:00005cdd       __catch$??$_Insert_nohint@ABQAVmfdpage_t@@U_Nil@std@@@?$_Tree@V?$_Tset_traits@PAVmfdpage_t@@U?$less@PAVmfdpage_t@@@std@@V?$allocator@PAVmfdpage_t@@@3@$0A@@std@@@std@@IAE?AU?$pair@V?$_Tree_const_iterator@V?$_Tree_val@U?$_Tree_simple_types@PAVmfdpage_t@@@std@@@std@@@std@@_N@1@_NABQAVmfdpage_t@@U_Nil@1@@Z$0 10006cdd f i data.obj
 0001:000063f7       __catch$?_Buyheadnode@?$_Tree_alloc@$0A@U?$_Tree_base_types@PAVmfdpage_t@@V?$allocator@PAVmfdpage_t@@@std@@@std@@@std@@QAEPAU?$_Tree_node@PAVmfdpage_t@@PAX@2@XZ$0 100073f7 f i data.obj
 0001:000063f7       __catch$?_Buyheadnode@?$_Tree_alloc@$0A@U?$_Tree_base_types@PAVlistener_t@@V?$allocator@PAVlistener_t@@@std@@@std@@@std@@QAEPAU?$_Tree_node@PAVlistener_t@@PAX@2@XZ$0 100073f7 f i data.obj
 0001:000063f7       __catch$?_Buyheadnode@?$_Tree_alloc@$0A@U?$_Tree_base_types@PAVobject_t@@V?$allocator@PAVobject_t@@@std@@@std@@@std@@QAEPAU?$_Tree_node@PAVobject_t@@PAX@2@XZ$0 100073f7 f i data.obj
 0001:00008cd1       __catch$??$_Buynode@ABUpiecewise_construct_t@std@@V?$tuple@$$QAH@2@V?$tuple@$$$V@2@@?$_Tree_buy@U?$pair@$$CBHV?$basic_string@DU?$char_traits@D@std@@V?$allocator@D@2@@std@@@std@@V?$allocator@U?$pair@$$CBHV?$basic_string@DU?$char_traits@D@std@@V?$allocator@D@2@@std@@@std@@@2@@std@@QAEPAU?$_Tree_node@U?$pair@$$CBHV?$basic_string@DU?$char_traits@D@std@@V?$allocator@D@2@@std@@@std@@PAX@1@ABUpiecewise_construct_t@1@$$QAV?$tuple@$$QAH@1@$$QAV?$tuple@$$$V@1@@Z$0 10009cd1 f i out_saitek.obj
 0001:00008cd1       __catch$??$_Buynode@ABUpiecewise_construct_t@std@@V?$tuple@ABH@2@V?$tuple@$$$V@2@@?$_Tree_buy@U?$pair@$$CBHV?$basic_string@DU?$char_traits@D@std@@V?$allocator@D@2@@std@@@std@@V?$allocator@U?$pair@$$CBHV?$basic_string@DU?$char_traits@D@std@@V?$allocator@D@2@@std@@@std@@@2@@std@@QAEPAU?$_Tree_node@U?$pair@$$CBHV?$basic_string@DU?$char_traits@D@std@@V?$allocator@D@2@@std@@@std@@PAX@1@ABUpiecewise_construct_t@1@$$QAV?$tuple@ABH@1@$$QAV?$tuple@$$$V@1@@Z$0 10009cd1 f i out_saitek.obj
 0001:00009888       __catch$??$_Insert_hint@AAU?$pair@$$CBHV?$basic_string@DU?$char_traits@D@std@@V?$allocator@D@2@@std@@@std@@PAU?$_Tree_node@U?$pair@$$CBHV?$basic_string@DU?$char_traits@D@std@@V?$allocator@D@2@@std@@@std@@PAX@2@@?$_Tree@V?$_Tmap_traits@HV?$basic_string@DU?$char_traits@D@std@@V?$allocator@D@2@@std@@U?$less@H@2@V?$allocator@U?$pair@$$CBHV?$basic_string@DU?$char_traits@D@std@@V?$allocator@D@2@@std@@@std@@@2@$0A@@std@@@std@@IAE?AV?$_Tree_iterator@V?$_Tree_val@U?$_Tree_simple_types@U?$pair@$$CBHV?$basic_string@DU?$char_traits@D@std@@V?$allocator@D@2@@std@@@std@@@std@@@std@@@1@V?$_Tree_const_iterator@V?$_Tree_val@U?$_Tree_simple_types@U?$pair@$$CBHV?$basic_string@DU?$char_traits@D@std@@V?$allocator@D@2@@std@@@std@@@std@@@std@@@1@AAU?$pair@$$CBHV?$basic_string@DU?$char_traits@D@std@@V?$allocator@D@2@@std@@@1@PAU?$_Tree_node@U?$pair@$$CBHV?$basic_string@DU?$char_traits@D@std@@V?$allocator@D@2@@std@@@std@@PAX@1@@Z$0 1000a888 f i out_saitek.obj
 0001:00009b89       __catch$??$_Insert_nohint@AAU?$pair@$$CBHV?$basic_string@DU?$char_traits@D@std@@V?$allocator@D@2@@std@@@std@@PAU?$_Tree_node@U?$pair@$$CBHV?$basic_string@DU?$char_traits@D@std@@V?$allocator@D@2@@std@@@std@@PAX@2@@?$_Tree@V?$_Tmap_traits@HV?$basic_string@DU?$char_traits@D@std@@V?$allocator@D@2@@std@@U?$less@H@2@V?$allocator@U?$pair@$$CBHV?$basic_string@DU?$char_traits@D@std@@V?$allocator@D@2@@std@@@std@@@2@$0A@@std@@@std@@IAE?AU?$pair@V?$_Tree_iterator@V?$_Tree_val@U?$_Tree_simple_types@U?$pair@$$CBHV?$basic_string@DU?$char_traits@D@std@@V?$allocator@D@2@@std@@@std@@@std@@@std@@@std@@_N@1@_NAAU?$pair@$$CBHV?$basic_string@DU?$char_traits@D@std@@V?$allocator@D@2@@std@@@1@PAU?$_Tree_node@U?$pair@$$CBHV?$basic_string@DU?$char_traits@D@std@@V?$allocator@D@2@@std@@@std@@PAX@1@@Z$0 1000ab89 f i out_saitek.obj
 0001:0000a1f7       __catch$?_Buynode0@?$_Tree_buy@U?$pair@$$CBV?$basic_string@DU?$char_traits@D@std@@V?$allocator@D@2@@std@@PAVfms_config_item_t@@@std@@V?$allocator@U?$pair@$$CBV?$basic_string@DU?$char_traits@D@std@@V?$allocator@D@2@@std@@PAVfms_config_item_t@@@std@@@2@@std@@QAEPAU?$_Tree_node@U?$pair@$$CBV?$basic_string@DU?$char_traits@D@std@@V?$allocator@D@2@@std@@PAVfms_config_item_t@@@std@@PAX@2@XZ$0 1000b1f7 f i out_saitek.obj
 0001:0000a1f7       __catch$?_Buynode0@?$_Tree_buy@U?$pair@$$CBV?$basic_string@DU?$char_traits@D@std@@V?$allocator@D@2@@std@@PAVfms_fp_item_t@@@std@@V?$allocator@U?$pair@$$CBV?$basic_string@DU?$char_traits@D@std@@V?$allocator@D@2@@std@@PAVfms_fp_item_t@@@std@@@2@@std@@QAEPAU?$_Tree_node@U?$pair@$$CBV?$basic_string@DU?$char_traits@D@std@@V?$allocator@D@2@@std@@PAVfms_fp_item_t@@@std@@PAX@2@XZ$0 1000b1f7 f i out_saitek.obj
 0001:0000a1f7       __catch$?_Buynode0@?$_Tree_buy@U?$pair@$$CBHV?$basic_string@DU?$char_traits@D@std@@V?$allocator@D@2@@std@@@std@@V?$allocator@U?$pair@$$CBHV?$basic_string@DU?$char_traits@D@std@@V?$allocator@D@2@@std@@@std@@@2@@std@@QAEPAU?$_Tree_node@U?$pair@$$CBHV?$basic_string@DU?$char_traits@D@std@@V?$allocator@D@2@@std@@@std@@PAX@2@XZ$0 1000b1f7 f i out_saitek.obj
 0001:0000a1f7       __catch$?_Buynode0@?$_Tree_buy@U?$pair@$$CBV?$basic_string@DU?$char_traits@D@std@@V?$allocator@D@2@@std@@D@std@@V?$allocator@U?$pair@$$CBV?$basic_string@DU?$char_traits@D@std@@V?$allocator@D@2@@std@@D@std@@@2@@std@@QAEPAU?$_Tree_node@U?$pair@$$CBV?$basic_string@DU?$char_traits@D@std@@V?$allocator@D@2@@std@@D@std@@PAX@2@XZ$0 1000b1f7 f i out_saitek.obj
 0001:0000a1f7       __catch$?_Buynode0@?$_Tree_buy@U?$pair@$$CBV?$basic_string@DU?$char_traits@D@std@@V?$allocator@D@2@@std@@M@std@@V?$allocator@U?$pair@$$CBV?$basic_string@DU?$char_traits@D@std@@V?$allocator@D@2@@std@@M@std@@@2@@std@@QAEPAU?$_Tree_node@U?$pair@$$CBV?$basic_string@DU?$char_traits@D@std@@V?$allocator@D@2@@std@@M@std@@PAX@2@XZ$0 1000b1f7 f i out_saitek.obj
 0001:0000a1f7       __catch$?_Buynode0@?$_Tree_buy@U?$pair@$$CBV?$basic_string@DU?$char_traits@D@std@@V?$allocator@D@2@@std@@H@std@@V?$allocator@U?$pair@$$CBV?$basic_string@DU?$char_traits@D@std@@V?$allocator@D@2@@std@@H@std@@@2@@std@@QAEPAU?$_Tree_node@U?$pair@$$CBV?$basic_string@DU?$char_traits@D@std@@V?$allocator@D@2@@std@@H@std@@PAX@2@XZ$0 1000b1f7 f i out_saitek.obj
 0001:0000acc7       __catch$?_Buynode0@?$_Tree_buy@PAVobject_t@@V?$allocator@PAVobject_t@@@std@@@std@@QAEPAU?$_Tree_node@PAVobject_t@@PAX@2@XZ$0 1000bcc7 f i in.obj
 0001:0000acc7       __catch$?_Buynode0@?$_Tree_buy@PAVmfdpage_t@@V?$allocator@PAVmfdpage_t@@@std@@@std@@QAEPAU?$_Tree_node@PAVmfdpage_t@@PAX@2@XZ$0 1000bcc7 f i in.obj
 0001:0000acc7       __catch$?_Buynode0@?$_Tree_buy@PAVlistener_t@@V?$allocator@PAVlistener_t@@@std@@@std@@QAEPAU?$_Tree_node@PAVlistener_t@@PAX@2@XZ$0 1000bcc7 f i in.obj
 0001:0000af90       _time                      1000bf90 f   mfdpage.obj
 0001:0000c667       __catch$??$_Buynode@AAU?$pair@$$CBHPAVobject_t@@@std@@@?$_Tree_buy@U?$pair@$$CBHPAVobject_t@@@std@@V?$allocator@U?$pair@$$CBHPAVobject_t@@@std@@@2@@std@@QAEPAU?$_Tree_node@U?$pair@$$CBHPAVobject_t@@@std@@PAX@1@AAU?$pair@$$CBHPAVobject_t@@@1@@Z$0 1000d667 f i mfdpage.obj
 0001:0000c761       __catch$??$_Buynode@ABUpiecewise_construct_t@std@@V?$tuple@$$QAV?$basic_string@DU?$char_traits@D@std@@V?$allocator@D@2@@std@@@2@V?$tuple@$$$V@2@@?$_Tree_buy@U?$pair@$$CBV?$basic_string@DU?$char_traits@D@std@@V?$allocator@D@2@@std@@D@std@@V?$allocator@U?$pair@$$CBV?$basic_string@DU?$char_traits@D@std@@V?$allocator@D@2@@std@@D@std@@@2@@std@@QAEPAU?$_Tree_node@U?$pair@$$CBV?$basic_string@DU?$char_traits@D@std@@V?$allocator@D@2@@std@@D@std@@PAX@1@ABUpiecewise_construct_t@1@$$QAV?$tuple@$$QAV?$basic_string@DU?$char_traits@D@std@@V?$allocator@D@2@@std@@@1@$$QAV?$tuple@$$$V@1@@Z$0 1000d761 f i mfdpage.obj
 0001:0000c861       __catch$??$_Buynode@ABUpiecewise_construct_t@std@@V?$tuple@$$QAV?$basic_string@DU?$char_traits@D@std@@V?$allocator@D@2@@std@@@2@V?$tuple@$$$V@2@@?$_Tree_buy@U?$pair@$$CBV?$basic_string@DU?$char_traits@D@std@@V?$allocator@D@2@@std@@H@std@@V?$allocator@U?$pair@$$CBV?$basic_string@DU?$char_traits@D@std@@V?$allocator@D@2@@std@@H@std@@@2@@std@@QAEPAU?$_Tree_node@U?$pair@$$CBV?$basic_string@DU?$char_traits@D@std@@V?$allocator@D@2@@std@@H@std@@PAX@1@ABUpiecewise_construct_t@1@$$QAV?$tuple@$$QAV?$basic_string@DU?$char_traits@D@std@@V?$allocator@D@2@@std@@@1@$$QAV?$tuple@$$$V@1@@Z$0 1000d861 f i mfdpage.obj
 0001:0000c961       __catch$??$_Buynode@ABUpiecewise_construct_t@std@@V?$tuple@ABV?$basic_string@DU?$char_traits@D@std@@V?$allocator@D@2@@std@@@2@V?$tuple@$$$V@2@@?$_Tree_buy@U?$pair@$$CBV?$basic_string@DU?$char_traits@D@std@@V?$allocator@D@2@@std@@V12@@std@@V?$allocator@U?$pair@$$CBV?$basic_string@DU?$char_traits@D@std@@V?$allocator@D@2@@std@@V12@@std@@@2@@std@@QAEPAU?$_Tree_node@U?$pair@$$CBV?$basic_string@DU?$char_traits@D@std@@V?$allocator@D@2@@std@@V12@@std@@PAX@1@ABUpiecewise_construct_t@1@$$QAV?$tuple@ABV?$basic_string@DU?$char_traits@D@std@@V?$allocator@D@2@@std@@@1@$$QAV?$tuple@$$$V@1@@Z$0 1000d961 f i mfdpage.obj
 0001:0000cb97       __catch$??$_Copy_nodes@U?$integral_constant@_N$0A@@std@@@?$_Tree@V?$_Tmap_traits@HPAVobject_t@@U?$less@H@std@@V?$allocator@U?$pair@$$CBHPAVobject_t@@@std@@@3@$0A@@std@@@std@@IAEPAU?$_Tree_node@U?$pair@$$CBHPAVobject_t@@@std@@PAX@1@PAU21@0U?$integral_constant@_N$0A@@1@@Z$0 1000db97 f i mfdpage.obj
 0001:0000d350       __catch$??$getline@DU?$char_traits@D@std@@V?$allocator@D@2@@std@@YAAAV?$basic_istream@DU?$char_traits@D@std@@@0@$$QAV10@AAV?$basic_string@DU?$char_traits@D@std@@V?$allocator@D@2@@0@D@Z$0 1000e350 f i mfdpage.obj
 0001:0000d4b7       __catch$??0?$_Tree@V?$_Tmap_traits@HPAVobject_t@@U?$less@H@std@@V?$allocator@U?$pair@$$CBHPAVobject_t@@@std@@@3@$0A@@std@@@std@@QAE@ABV01@ABV?$allocator@U?$pair@$$CBHPAVobject_t@@@std@@@1@@Z$0 1000e4b7 f i mfdpage.obj
 0001:0000e147       __catch$?_Buyheadnode@?$_Tree_alloc@$0A@U?$_Tree_base_types@U?$pair@$$CBHM@std@@V?$allocator@U?$pair@$$CBHM@std@@@2@@std@@@std@@QAEPAU?$_Tree_node@U?$pair@$$CBHM@std@@PAX@2@XZ$0 1000f147 f i mfdpage.obj
 0001:0000e147       __catch$?_Buyheadnode@?$_Tree_alloc@$0A@U?$_Tree_base_types@U?$pair@$$CBHPAVfms_fp_item_t@@@std@@V?$allocator@U?$pair@$$CBHPAVfms_fp_item_t@@@std@@@2@@std@@@std@@QAEPAU?$_Tree_node@U?$pair@$$CBHPAVfms_fp_item_t@@@std@@PAX@2@XZ$0 1000f147 f i mfdpage.obj
 0001:0000e147       __catch$?_Buyheadnode@?$_Tree_alloc@$0A@U?$_Tree_base_types@U?$pair@$$CBHPAVobject_t@@@std@@V?$allocator@U?$pair@$$CBHPAVobject_t@@@std@@@2@@std@@@std@@QAEPAU?$_Tree_node@U?$pair@$$CBHPAVobject_t@@@std@@PAX@2@XZ$0 1000f147 f i mfdpage.obj
 0001:00010f31       __catch$??$_Buynode@ABUpiecewise_construct_t@std@@V?$tuple@$$QAH@2@V?$tuple@$$$V@2@@?$_Tree_buy@U?$pair@$$CBHPAVobject_t@@@std@@V?$allocator@U?$pair@$$CBHPAVobject_t@@@std@@@2@@std@@QAEPAU?$_Tree_node@U?$pair@$$CBHPAVobject_t@@@std@@PAX@1@ABUpiecewise_construct_t@1@$$QAV?$tuple@$$QAH@1@$$QAV?$tuple@$$$V@1@@Z$0 10011f31 f i mfdpage_fms.obj
 0001:00010f31       __catch$??$_Buynode@ABUpiecewise_construct_t@std@@V?$tuple@ABH@2@V?$tuple@$$$V@2@@?$_Tree_buy@U?$pair@$$CBHPAVfms_fp_item_t@@@std@@V?$allocator@U?$pair@$$CBHPAVfms_fp_item_t@@@std@@@2@@std@@QAEPAU?$_Tree_node@U?$pair@$$CBHPAVfms_fp_item_t@@@std@@PAX@1@ABUpiecewise_construct_t@1@$$QAV?$tuple@ABH@1@$$QAV?$tuple@$$$V@1@@Z$0 10011f31 f i mfdpage_fms.obj
 0001:00010f31       __catch$??$_Buynode@ABUpiecewise_construct_t@std@@V?$tuple@$$QAH@2@V?$tuple@$$$V@2@@?$_Tree_buy@U?$pair@$$CBHPAVfms_fp_item_t@@@std@@V?$allocator@U?$pair@$$CBHPAVfms_fp_item_t@@@std@@@2@@std@@QAEPAU?$_Tree_node@U?$pair@$$CBHPAVfms_fp_item_t@@@std@@PAX@1@ABUpiecewise_construct_t@1@$$QAV?$tuple@$$QAH@1@$$QAV?$tuple@$$$V@1@@Z$0 10011f31 f i mfdpage_fms.obj
 0001:00010f31       __catch$??$_Buynode@ABUpiecewise_construct_t@std@@V?$tuple@ABH@2@V?$tuple@$$$V@2@@?$_Tree_buy@U?$pair@$$CBHPAVobject_t@@@std@@V?$allocator@U?$pair@$$CBHPAVobject_t@@@std@@@2@@std@@QAEPAU?$_Tree_node@U?$pair@$$CBHPAVobject_t@@@std@@PAX@1@ABUpiecewise_construct_t@1@$$QAV?$tuple@ABH@1@$$QAV?$tuple@$$$V@1@@Z$0 10011f31 f i mfdpage_fms.obj
 0001:00011031       __catch$??$_Buynode@ABUpiecewise_construct_t@std@@V?$tuple@$$QAV?$basic_string@DU?$char_traits@D@std@@V?$allocator@D@2@@std@@@2@V?$tuple@$$$V@2@@?$_Tree_buy@U?$pair@$$CBV?$basic_string@DU?$char_traits@D@std@@V?$allocator@D@2@@std@@M@std@@V?$allocator@U?$pair@$$CBV?$basic_string@DU?$char_traits@D@std@@V?$allocator@D@2@@std@@M@std@@@2@@std@@QAEPAU?$_Tree_node@U?$pair@$$CBV?$basic_string@DU?$char_traits@D@std@@V?$allocator@D@2@@std@@M@std@@PAX@1@ABUpiecewise_construct_t@1@$$QAV?$tuple@$$QAV?$basic_string@DU?$char_traits@D@std@@V?$allocator@D@2@@std@@@1@$$QAV?$tuple@$$$V@1@@Z$0 10012031 f i mfdpage_fms.obj
 0001:00011be8       __catch$??$_Insert_hint@AAU?$pair@$$CBHM@std@@PAU?$_Tree_node@U?$pair@$$CBHM@std@@PAX@2@@?$_Tree@V?$_Tmap_traits@HMU?$less@H@std@@V?$allocator@U?$pair@$$CBHM@std@@@2@$0A@@std@@@std@@IAE?AV?$_Tree_iterator@V?$_Tree_val@U?$_Tree_simple_types@U?$pair@$$CBHM@std@@@std@@@std@@@1@V?$_Tree_const_iterator@V?$_Tree_val@U?$_Tree_simple_types@U?$pair@$$CBHM@std@@@std@@@std@@@1@AAU?$pair@$$CBHM@1@PAU?$_Tree_node@U?$pair@$$CBHM@std@@PAX@1@@Z$0 10012be8 f i mfdpage_fms.obj
 0001:00011be8       __catch$??$_Insert_hint@AAU?$pair@$$CBHPAVobject_t@@@std@@PAU?$_Tree_node@U?$pair@$$CBHPAVobject_t@@@std@@PAX@2@@?$_Tree@V?$_Tmap_traits@HPAVobject_t@@U?$less@H@std@@V?$allocator@U?$pair@$$CBHPAVobject_t@@@std@@@3@$0A@@std@@@std@@IAE?AV?$_Tree_iterator@V?$_Tree_val@U?$_Tree_simple_types@U?$pair@$$CBHPAVobject_t@@@std@@@std@@@std@@@1@V?$_Tree_const_iterator@V?$_Tree_val@U?$_Tree_simple_types@U?$pair@$$CBHPAVobject_t@@@std@@@std@@@std@@@1@AAU?$pair@$$CBHPAVobject_t@@@1@PAU?$_Tree_node@U?$pair@$$CBHPAVobject_t@@@std@@PAX@1@@Z$0 10012be8 f i mfdpage_fms.obj
 0001:00011be8       __catch$??$_Insert_hint@AAU?$pair@$$CBHPAVfms_fp_item_t@@@std@@PAU?$_Tree_node@U?$pair@$$CBHPAVfms_fp_item_t@@@std@@PAX@2@@?$_Tree@V?$_Tmap_traits@HPAVfms_fp_item_t@@U?$less@H@std@@V?$allocator@U?$pair@$$CBHPAVfms_fp_item_t@@@std@@@3@$0A@@std@@@std@@IAE?AV?$_Tree_iterator@V?$_Tree_val@U?$_Tree_simple_types@U?$pair@$$CBHPAVfms_fp_item_t@@@std@@@std@@@std@@@1@V?$_Tree_const_iterator@V?$_Tree_val@U?$_Tree_simple_types@U?$pair@$$CBHPAVfms_fp_item_t@@@std@@@std@@@std@@@1@AAU?$pair@$$CBHPAVfms_fp_item_t@@@1@PAU?$_Tree_node@U?$pair@$$CBHPAVfms_fp_item_t@@@std@@PAX@1@@Z$0 10012be8 f i mfdpage_fms.obj
 0001:00012398       __catch$??$_Insert_hint@AAU?$pair@$$CBV?$basic_string@DU?$char_traits@D@std@@V?$allocator@D@2@@std@@D@std@@PAU?$_Tree_node@U?$pair@$$CBV?$basic_string@DU?$char_traits@D@std@@V?$allocator@D@2@@std@@D@std@@PAX@2@@?$_Tree@V?$_Tmap_traits@V?$basic_string@DU?$char_traits@D@std@@V?$allocator@D@2@@std@@DU?$less@V?$basic_string@DU?$char_traits@D@std@@V?$allocator@D@2@@std@@@2@V?$allocator@U?$pair@$$CBV?$basic_string@DU?$char_traits@D@std@@V?$allocator@D@2@@std@@D@std@@@2@$0A@@std@@@std@@IAE?AV?$_Tree_iterator@V?$_Tree_val@U?$_Tree_simple_types@U?$pair@$$CBV?$basic_string@DU?$char_traits@D@std@@V?$allocator@D@2@@std@@D@std@@@std@@@std@@@1@V?$_Tree_const_iterator@V?$_Tree_val@U?$_Tree_simple_types@U?$pair@$$CBV?$basic_string@DU?$char_traits@D@std@@V?$allocator@D@2@@std@@D@std@@@std@@@std@@@1@AAU?$pair@$$CBV?$basic_string@DU?$char_traits@D@std@@V?$allocator@D@2@@std@@D@1@PAU?$_Tree_node@U?$pair@$$CBV?$basic_string@DU?$char_traits@D@std@@V?$allocator@D@2@@std@@D@std@@PAX@1@@Z$0 10013398 f i mfdpage_fms.obj
 0001:00012398       __catch$??$_Insert_hint@AAU?$pair@$$CBV?$basic_string@DU?$char_traits@D@std@@V?$allocator@D@2@@std@@M@std@@PAU?$_Tree_node@U?$pair@$$CBV?$basic_string@DU?$char_traits@D@std@@V?$allocator@D@2@@std@@M@std@@PAX@2@@?$_Tree@V?$_Tmap_traits@V?$basic_string@DU?$char_traits@D@std@@V?$allocator@D@2@@std@@MU?$less@V?$basic_string@DU?$char_traits@D@std@@V?$allocator@D@2@@std@@@2@V?$allocator@U?$pair@$$CBV?$basic_string@DU?$char_traits@D@std@@V?$allocator@D@2@@std@@M@std@@@2@$0A@@std@@@std@@IAE?AV?$_Tree_iterator@V?$_Tree_val@U?$_Tree_simple_types@U?$pair@$$CBV?$basic_string@DU?$char_traits@D@std@@V?$allocator@D@2@@std@@M@std@@@std@@@std@@@1@V?$_Tree_const_iterator@V?$_Tree_val@U?$_Tree_simple_types@U?$pair@$$CBV?$basic_string@DU?$char_traits@D@std@@V?$allocator@D@2@@std@@M@std@@@std@@@std@@@1@AAU?$pair@$$CBV?$basic_string@DU?$char_traits@D@std@@V?$allocator@D@2@@std@@M@1@PAU?$_Tree_node@U?$pair@$$CBV?$basic_string@DU?$char_traits@D@std@@V?$allocator@D@2@@std@@M@std@@PAX@1@@Z$0 10013398 f i mfdpage_fms.obj
 0001:00012398       __catch$??$_Insert_hint@AAU?$pair@$$CBV?$basic_string@DU?$char_traits@D@std@@V?$allocator@D@2@@std@@H@std@@PAU?$_Tree_node@U?$pair@$$CBV?$basic_string@DU?$char_traits@D@std@@V?$allocator@D@2@@std@@H@std@@PAX@2@@?$_Tree@V?$_Tmap_traits@V?$basic_string@DU?$char_traits@D@std@@V?$allocator@D@2@@std@@HU?$less@V?$basic_string@DU?$char_traits@D@std@@V?$allocator@D@2@@std@@@2@V?$allocator@U?$pair@$$CBV?$basic_string@DU?$char_traits@D@std@@V?$allocator@D@2@@std@@H@std@@@2@$0A@@std@@@std@@IAE?AV?$_Tree_iterator@V?$_Tree_val@U?$_Tree_simple_types@U?$pair@$$CBV?$basic_string@DU?$char_traits@D@std@@V?$allocator@D@2@@std@@H@std@@@std@@@std@@@1@V?$_Tree_const_iterator@V?$_Tree_val@U?$_Tree_simple_types@U?$pair@$$CBV?$basic_string@DU?$char_traits@D@std@@V?$allocator@D@2@@std@@H@std@@@std@@@std@@@1@AAU?$pair@$$CBV?$basic_string@DU?$char_traits@D@std@@V?$allocator@D@2@@std@@H@1@PAU?$_Tree_node@U?$pair@$$CBV?$basic_string@DU?$char_traits@D@std@@V?$allocator@D@2@@std@@H@std@@PAX@1@@Z$0 10013398 f i mfdpage_fms.obj
 0001:00012398       __catch$??$_Insert_hint@AAU?$pair@$$CBV?$basic_string@DU?$char_traits@D@std@@V?$allocator@D@2@@std@@PAVfms_fp_item_t@@@std@@PAU?$_Tree_node@U?$pair@$$CBV?$basic_string@DU?$char_traits@D@std@@V?$allocator@D@2@@std@@PAVfms_fp_item_t@@@std@@PAX@2@@?$_Tree@V?$_Tmap_traits@V?$basic_string@DU?$char_traits@D@std@@V?$allocator@D@2@@std@@PAVfms_fp_item_t@@U?$less@V?$basic_string@DU?$char_traits@D@std@@V?$allocator@D@2@@std@@@2@V?$allocator@U?$pair@$$CBV?$basic_string@DU?$char_traits@D@std@@V?$allocator@D@2@@std@@PAVfms_fp_item_t@@@std@@@2@$0A@@std@@@std@@IAE?AV?$_Tree_iterator@V?$_Tree_val@U?$_Tree_simple_types@U?$pair@$$CBV?$basic_string@DU?$char_traits@D@std@@V?$allocator@D@2@@std@@PAVfms_fp_item_t@@@std@@@std@@@std@@@1@V?$_Tree_const_iterator@V?$_Tree_val@U?$_Tree_simple_types@U?$pair@$$CBV?$basic_string@DU?$char_traits@D@std@@V?$allocator@D@2@@std@@PAVfms_fp_item_t@@@std@@@std@@@std@@@1@AAU?$pair@$$CBV?$basic_string@DU?$char_traits@D@std@@V?$allocator@D@2@@std@@PAVfms_fp_item_t@@@1@PAU?$_Tree_node@U?$pair@$$CBV?$basic_string@DU?$char_traits@D@std@@V?$allocator@D@2@@std@@PAVfms_fp_item_t@@@std@@PAX@1@@Z$0 10013398 f i mfdpage_fms.obj
 0001:00012398       __catch$??$_Insert_hint@AAU?$pair@$$CBV?$basic_string@DU?$char_traits@D@std@@V?$allocator@D@2@@std@@PAVfms_config_item_t@@@std@@PAU?$_Tree_node@U?$pair@$$CBV?$basic_string@DU?$char_traits@D@std@@V?$allocator@D@2@@std@@PAVfms_config_item_t@@@std@@PAX@2@@?$_Tree@V?$_Tmap_traits@V?$basic_string@DU?$char_traits@D@std@@V?$allocator@D@2@@std@@PAVfms_config_item_t@@U?$less@V?$basic_string@DU?$char_traits@D@std@@V?$allocator@D@2@@std@@@2@V?$allocator@U?$pair@$$CBV?$basic_string@DU?$char_traits@D@std@@V?$allocator@D@2@@std@@PAVfms_config_item_t@@@std@@@2@$0A@@std@@@std@@IAE?AV?$_Tree_iterator@V?$_Tree_val@U?$_Tree_simple_types@U?$pair@$$CBV?$basic_string@DU?$char_traits@D@std@@V?$allocator@D@2@@std@@PAVfms_config_item_t@@@std@@@std@@@std@@@1@V?$_Tree_const_iterator@V?$_Tree_val@U?$_Tree_simple_types@U?$pair@$$CBV?$basic_string@DU?$char_traits@D@std@@V?$allocator@D@2@@std@@PAVfms_config_item_t@@@std@@@std@@@std@@@1@AAU?$pair@$$CBV?$basic_string@DU?$char_traits@D@std@@V?$allocator@D@2@@std@@PAVfms_config_item_t@@@1@PAU?$_Tree_node@U?$pair@$$CBV?$basic_string@DU?$char_traits@D@std@@V?$allocator@D@2@@std@@PAVfms_config_item_t@@@std@@PAX@1@@Z$0 10013398 f i mfdpage_fms.obj
 0001:00012699       __catch$??$_Insert_nohint@AAU?$pair@$$CBHPAVobject_t@@@std@@PAU?$_Tree_node@U?$pair@$$CBHPAVobject_t@@@std@@PAX@2@@?$_Tree@V?$_Tmap_traits@HPAVobject_t@@U?$less@H@std@@V?$allocator@U?$pair@$$CBHPAVobject_t@@@std@@@3@$0A@@std@@@std@@IAE?AU?$pair@V?$_Tree_iterator@V?$_Tree_val@U?$_Tree_simple_types@U?$pair@$$CBHPAVobject_t@@@std@@@std@@@std@@@std@@_N@1@_NAAU?$pair@$$CBHPAVobject_t@@@1@PAU?$_Tree_node@U?$pair@$$CBHPAVobject_t@@@std@@PAX@1@@Z$0 10013699 f i mfdpage_fms.obj
 0001:00012699       __catch$??$_Insert_nohint@AAU?$pair@$$CBHPAVfms_fp_item_t@@@std@@PAU?$_Tree_node@U?$pair@$$CBHPAVfms_fp_item_t@@@std@@PAX@2@@?$_Tree@V?$_Tmap_traits@HPAVfms_fp_item_t@@U?$less@H@std@@V?$allocator@U?$pair@$$CBHPAVfms_fp_item_t@@@std@@@3@$0A@@std@@@std@@IAE?AU?$pair@V?$_Tree_iterator@V?$_Tree_val@U?$_Tree_simple_types@U?$pair@$$CBHPAVfms_fp_item_t@@@std@@@std@@@std@@@std@@_N@1@_NAAU?$pair@$$CBHPAVfms_fp_item_t@@@1@PAU?$_Tree_node@U?$pair@$$CBHPAVfms_fp_item_t@@@std@@PAX@1@@Z$0 10013699 f i mfdpage_fms.obj
 0001:00012699       __catch$??$_Insert_nohint@AAU?$pair@$$CBHM@std@@PAU?$_Tree_node@U?$pair@$$CBHM@std@@PAX@2@@?$_Tree@V?$_Tmap_traits@HMU?$less@H@std@@V?$allocator@U?$pair@$$CBHM@std@@@2@$0A@@std@@@std@@IAE?AU?$pair@V?$_Tree_iterator@V?$_Tree_val@U?$_Tree_simple_types@U?$pair@$$CBHM@std@@@std@@@std@@@std@@_N@1@_NAAU?$pair@$$CBHM@1@PAU?$_Tree_node@U?$pair@$$CBHM@std@@PAX@1@@Z$0 10013699 f i mfdpage_fms.obj
 0001:00012ed7       __catch$?_Buyheadnode@?$_Tree_alloc@$0A@U?$_Tree_base_types@U?$pair@$$CBV?$basic_string@DU?$char_traits@D@std@@V?$allocator@D@2@@std@@PAVfms_config_item_t@@@std@@V?$allocator@U?$pair@$$CBV?$basic_string@DU?$char_traits@D@std@@V?$allocator@D@2@@std@@PAVfms_config_item_t@@@std@@@2@@std@@@std@@QAEPAU?$_Tree_node@U?$pair@$$CBV?$basic_string@DU?$char_traits@D@std@@V?$allocator@D@2@@std@@PAVfms_config_item_t@@@std@@PAX@2@XZ$0 10013ed7 f i mfdpage_fms.obj
 0001:00012ed7       __catch$?_Buyheadnode@?$_Tree_alloc@$0A@U?$_Tree_base_types@U?$pair@$$CBHV?$basic_string@DU?$char_traits@D@std@@V?$allocator@D@2@@std@@@std@@V?$allocator@U?$pair@$$CBHV?$basic_string@DU?$char_traits@D@std@@V?$allocator@D@2@@std@@@std@@@2@@std@@@std@@QAEPAU?$_Tree_node@U?$pair@$$CBHV?$basic_string@DU?$char_traits@D@std@@V?$allocator@D@2@@std@@@std@@PAX@2@XZ$0 10013ed7 f i mfdpage_fms.obj
 0001:00012ed7       __catch$?_Buyheadnode@?$_Tree_alloc@$0A@U?$_Tree_base_types@U?$pair@$$CBV?$basic_string@DU?$char_traits@D@std@@V?$allocator@D@2@@std@@M@std@@V?$allocator@U?$pair@$$CBV?$basic_string@DU?$char_traits@D@std@@V?$allocator@D@2@@std@@M@std@@@2@@std@@@std@@QAEPAU?$_Tree_node@U?$pair@$$CBV?$basic_string@DU?$char_traits@D@std@@V?$allocator@D@2@@std@@M@std@@PAX@2@XZ$0 10013ed7 f i mfdpage_fms.obj
 0001:00012ed7       __catch$?_Buyheadnode@?$_Tree_alloc@$0A@U?$_Tree_base_types@U?$pair@$$CBV?$basic_string@DU?$char_traits@D@std@@V?$allocator@D@2@@std@@D@std@@V?$allocator@U?$pair@$$CBV?$basic_string@DU?$char_traits@D@std@@V?$allocator@D@2@@std@@D@std@@@2@@std@@@std@@QAEPAU?$_Tree_node@U?$pair@$$CBV?$basic_string@DU?$char_traits@D@std@@V?$allocator@D@2@@std@@D@std@@PAX@2@XZ$0 10013ed7 f i mfdpage_fms.obj
 0001:00012ed7       __catch$?_Buyheadnode@?$_Tree_alloc@$0A@U?$_Tree_base_types@U?$pair@$$CBV?$basic_string@DU?$char_traits@D@std@@V?$allocator@D@2@@std@@H@std@@V?$allocator@U?$pair@$$CBV?$basic_string@DU?$char_traits@D@std@@V?$allocator@D@2@@std@@H@std@@@2@@std@@@std@@QAEPAU?$_Tree_node@U?$pair@$$CBV?$basic_string@DU?$char_traits@D@std@@V?$allocator@D@2@@std@@H@std@@PAX@2@XZ$0 10013ed7 f i mfdpage_fms.obj
 0001:00012ed7       __catch$?_Buyheadnode@?$_Tree_alloc@$0A@U?$_Tree_base_types@U?$pair@$$CBV?$basic_string@DU?$char_traits@D@std@@V?$allocator@D@2@@std@@PAVfms_fp_item_t@@@std@@V?$allocator@U?$pair@$$CBV?$basic_string@DU?$char_traits@D@std@@V?$allocator@D@2@@std@@PAVfms_fp_item_t@@@std@@@2@@std@@@std@@QAEPAU?$_Tree_node@U?$pair@$$CBV?$basic_string@DU?$char_traits@D@std@@V?$allocator@D@2@@std@@PAVfms_fp_item_t@@@std@@PAX@2@XZ$0 10013ed7 f i mfdpage_fms.obj
 0001:00013027       __catch$?_Buynode0@?$_Tree_buy@U?$pair@$$CBHPAVobject_t@@@std@@V?$allocator@U?$pair@$$CBHPAVobject_t@@@std@@@2@@std@@QAEPAU?$_Tree_node@U?$pair@$$CBHPAVobject_t@@@std@@PAX@2@XZ$0 10014027 f i mfdpage_fms.obj
 0001:00013027       __catch$?_Buynode0@?$_Tree_buy@U?$pair@$$CBHPAVfms_fp_item_t@@@std@@V?$allocator@U?$pair@$$CBHPAVfms_fp_item_t@@@std@@@2@@std@@QAEPAU?$_Tree_node@U?$pair@$$CBHPAVfms_fp_item_t@@@std@@PAX@2@XZ$0 10014027 f i mfdpage_fms.obj
 0001:00013027       __catch$?_Buynode0@?$_Tree_buy@U?$pair@$$CBHM@std@@V?$allocator@U?$pair@$$CBHM@std@@@2@@std@@QAEPAU?$_Tree_node@U?$pair@$$CBHM@std@@PAX@2@XZ$0 10014027 f i mfdpage_fms.obj
 0001:00014154       $LN39                      10015154     mfdpage_flight.obj
 0001:00014168       $LN38                      10015168     mfdpage_flight.obj
 0001:00014230       _localtime                 10015230 f   mfdpage_time.obj
 0001:00014250       _time                      10015250 f   mfdpage_time.obj
 0001:0001530c       $LN31                      1001630c     mfdpage_weather.obj
 0001:00015320       $LN30                      10016320     mfdpage_weather.obj
 0001:0001617b       __catch$?do_refresh@mfdpage_led_t@@UAEXPAVobject_t@@@Z$0 1001717b f   mfdpage_led.obj
 0001:00016334       __catch$?do_refresh@mfdpage_led_t@@UAEXPAVobject_t@@@Z$2 10017334 f   mfdpage_led.obj
 0001:0001643d       __catch$?do_refresh@mfdpage_led_t@@UAEXPAVobject_t@@@Z$4 1001743d f   mfdpage_led.obj
 0001:000166b7       __catch$?do_refresh@mfdpage_led_t@@UAEXPAVobject_t@@@Z$6 100176b7 f   mfdpage_led.obj
 0001:00016ac2       __catch$?set_led_by_name@mfdpage_led_t@@AAAXHPBDH0ZZ$0 10017ac2 f   mfdpage_led.obj
 0001:00017074       __catch$??$_Buynode@V?$basic_string@DU?$char_traits@D@std@@V?$allocator@D@2@@std@@V12@@?$_Tree_buy@U?$pair@$$CBV?$basic_string@DU?$char_traits@D@std@@V?$allocator@D@2@@std@@V12@@std@@V?$allocator@U?$pair@$$CBV?$basic_string@DU?$char_traits@D@std@@V?$allocator@D@2@@std@@V12@@std@@@2@@std@@QAEPAU?$_Tree_node@U?$pair@$$CBV?$basic_string@DU?$char_traits@D@std@@V?$allocator@D@2@@std@@V12@@std@@PAX@1@$$QAV?$basic_string@DU?$char_traits@D@std@@V?$allocator@D@2@@1@0@Z$0 10018074 f i mfdpage_led.obj
 0001:00017297       __catch$??$_Copy_nodes@U?$integral_constant@_N$00@std@@@?$_Tree@V?$_Tmap_traits@V?$basic_string@DU?$char_traits@D@std@@V?$allocator@D@2@@std@@V12@U?$less@V?$basic_string@DU?$char_traits@D@std@@V?$allocator@D@2@@std@@@2@V?$allocator@U?$pair@$$CBV?$basic_string@DU?$char_traits@D@std@@V?$allocator@D@2@@std@@V12@@std@@@2@$0A@@std@@@std@@IAEPAU?$_Tree_node@U?$pair@$$CBV?$basic_string@DU?$char_traits@D@std@@V?$allocator@D@2@@std@@V12@@std@@PAX@1@PAU21@0U?$integral_constant@_N$00@1@@Z$0 10018297 f i mfdpage_led.obj
 0001:00017937       __catch$?_Buyheadnode@?$_Tree_alloc@$0A@U?$_Tree_base_types@U?$pair@$$CBV?$basic_string@DU?$char_traits@D@std@@V?$allocator@D@2@@std@@V12@@std@@V?$allocator@U?$pair@$$CBV?$basic_string@DU?$char_traits@D@std@@V?$allocator@D@2@@std@@V12@@std@@@2@@std@@@std@@QAEPAU?$_Tree_node@U?$pair@$$CBV?$basic_string@DU?$char_traits@D@std@@V?$allocator@D@2@@std@@V12@@std@@PAX@2@XZ$0 10018937 f i mfdpage_led.obj
 0001:0001b471       __catch$??$_Buynode@ABUpiecewise_construct_t@std@@V?$tuple@ABH@2@V?$tuple@$$$V@2@@?$_Tree_buy@U?$pair@$$CBHM@std@@V?$allocator@U?$pair@$$CBHM@std@@@2@@std@@QAEPAU?$_Tree_node@U?$pair@$$CBHM@std@@PAX@1@ABUpiecewise_construct_t@1@$$QAV?$tuple@ABH@1@$$QAV?$tuple@$$$V@1@@Z$0 1001c471 f i fms_config.obj
 0001:0001ec01       __catch$??$_Buynode@ABUpiecewise_construct_t@std@@V?$tuple@ABV?$basic_string@DU?$char_traits@D@std@@V?$allocator@D@2@@std@@@2@V?$tuple@$$$V@2@@?$_Tree_buy@U?$pair@$$CBV?$basic_string@DU?$char_traits@D@std@@V?$allocator@D@2@@std@@PAVfms_fp_item_t@@@std@@V?$allocator@U?$pair@$$CBV?$basic_string@DU?$char_traits@D@std@@V?$allocator@D@2@@std@@PAVfms_fp_item_t@@@std@@@2@@std@@QAEPAU?$_Tree_node@U?$pair@$$CBV?$basic_string@DU?$char_traits@D@std@@V?$allocator@D@2@@std@@PAVfms_fp_item_t@@@std@@PAX@1@ABUpiecewise_construct_t@1@$$QAV?$tuple@ABV?$basic_string@DU?$char_traits@D@std@@V?$allocator@D@2@@std@@@1@$$QAV?$tuple@$$$V@1@@Z$0 1001fc01 f i fms_fp.obj
 0001:0001ec01       __catch$??$_Buynode@ABUpiecewise_construct_t@std@@V?$tuple@ABV?$basic_string@DU?$char_traits@D@std@@V?$allocator@D@2@@std@@@2@V?$tuple@$$$V@2@@?$_Tree_buy@U?$pair@$$CBV?$basic_string@DU?$char_traits@D@std@@V?$allocator@D@2@@std@@PAVfms_config_item_t@@@std@@V?$allocator@U?$pair@$$CBV?$basic_string@DU?$char_traits@D@std@@V?$allocator@D@2@@std@@PAVfms_config_item_t@@@std@@@2@@std@@QAEPAU?$_Tree_node@U?$pair@$$CBV?$basic_string@DU?$char_traits@D@std@@V?$allocator@D@2@@std@@PAVfms_config_item_t@@@std@@PAX@1@ABUpiecewise_construct_t@1@$$QAV?$tuple@ABV?$basic_string@DU?$char_traits@D@std@@V?$allocator@D@2@@std@@@1@$$QAV?$tuple@$$$V@1@@Z$0 1001fc01 f i fms_fp.obj
 0001:0001f309       __catch$??$_Insert_nohint@AAU?$pair@$$CBV?$basic_string@DU?$char_traits@D@std@@V?$allocator@D@2@@std@@PAVfms_fp_item_t@@@std@@PAU?$_Tree_node@U?$pair@$$CBV?$basic_string@DU?$char_traits@D@std@@V?$allocator@D@2@@std@@PAVfms_fp_item_t@@@std@@PAX@2@@?$_Tree@V?$_Tmap_traits@V?$basic_string@DU?$char_traits@D@std@@V?$allocator@D@2@@std@@PAVfms_fp_item_t@@U?$less@V?$basic_string@DU?$char_traits@D@std@@V?$allocator@D@2@@std@@@2@V?$allocator@U?$pair@$$CBV?$basic_string@DU?$char_traits@D@std@@V?$allocator@D@2@@std@@PAVfms_fp_item_t@@@std@@@2@$0A@@std@@@std@@IAE?AU?$pair@V?$_Tree_iterator@V?$_Tree_val@U?$_Tree_simple_types@U?$pair@$$CBV?$basic_string@DU?$char_traits@D@std@@V?$allocator@D@2@@std@@PAVfms_fp_item_t@@@std@@@std@@@std@@@std@@_N@1@_NAAU?$pair@$$CBV?$basic_string@DU?$char_traits@D@std@@V?$allocator@D@2@@std@@PAVfms_fp_item_t@@@1@PAU?$_Tree_node@U?$pair@$$CBV?$basic_string@DU?$char_traits@D@std@@V?$allocator@D@2@@std@@PAVfms_fp_item_t@@@std@@PAX@1@@Z$0 10020309 f i fms_fp.obj
 0001:0001f309       __catch$??$_Insert_nohint@AAU?$pair@$$CBV?$basic_string@DU?$char_traits@D@std@@V?$allocator@D@2@@std@@M@std@@PAU?$_Tree_node@U?$pair@$$CBV?$basic_string@DU?$char_traits@D@std@@V?$allocator@D@2@@std@@M@std@@PAX@2@@?$_Tree@V?$_Tmap_traits@V?$basic_string@DU?$char_traits@D@std@@V?$allocator@D@2@@std@@MU?$less@V?$basic_string@DU?$char_traits@D@std@@V?$allocator@D@2@@std@@@2@V?$allocator@U?$pair@$$CBV?$basic_string@DU?$char_traits@D@std@@V?$allocator@D@2@@std@@M@std@@@2@$0A@@std@@@std@@IAE?AU?$pair@V?$_Tree_iterator@V?$_Tree_val@U?$_Tree_simple_types@U?$pair@$$CBV?$basic_string@DU?$char_traits@D@std@@V?$allocator@D@2@@std@@M@std@@@std@@@std@@@std@@_N@1@_NAAU?$pair@$$CBV?$basic_string@DU?$char_traits@D@std@@V?$allocator@D@2@@std@@M@1@PAU?$_Tree_node@U?$pair@$$CBV?$basic_string@DU?$char_traits@D@std@@V?$allocator@D@2@@std@@M@std@@PAX@1@@Z$0 10020309 f i fms_fp.obj
 0001:0001f309       __catch$??$_Insert_nohint@AAU?$pair@$$CBV?$basic_string@DU?$char_traits@D@std@@V?$allocator@D@2@@std@@D@std@@PAU?$_Tree_node@U?$pair@$$CBV?$basic_string@DU?$char_traits@D@std@@V?$allocator@D@2@@std@@D@std@@PAX@2@@?$_Tree@V?$_Tmap_traits@V?$basic_string@DU?$char_traits@D@std@@V?$allocator@D@2@@std@@DU?$less@V?$basic_string@DU?$char_traits@D@std@@V?$allocator@D@2@@std@@@2@V?$allocator@U?$pair@$$CBV?$basic_string@DU?$char_traits@D@std@@V?$allocator@D@2@@std@@D@std@@@2@$0A@@std@@@std@@IAE?AU?$pair@V?$_Tree_iterator@V?$_Tree_val@U?$_Tree_simple_types@U?$pair@$$CBV?$basic_string@DU?$char_traits@D@std@@V?$allocator@D@2@@std@@D@std@@@std@@@std@@@std@@_N@1@_NAAU?$pair@$$CBV?$basic_string@DU?$char_traits@D@std@@V?$allocator@D@2@@std@@D@1@PAU?$_Tree_node@U?$pair@$$CBV?$basic_string@DU?$char_traits@D@std@@V?$allocator@D@2@@std@@D@std@@PAX@1@@Z$0 10020309 f i fms_fp.obj
 0001:0001f309       __catch$??$_Insert_nohint@AAU?$pair@$$CBV?$basic_string@DU?$char_traits@D@std@@V?$allocator@D@2@@std@@PAVfms_config_item_t@@@std@@PAU?$_Tree_node@U?$pair@$$CBV?$basic_string@DU?$char_traits@D@std@@V?$allocator@D@2@@std@@PAVfms_config_item_t@@@std@@PAX@2@@?$_Tree@V?$_Tmap_traits@V?$basic_string@DU?$char_traits@D@std@@V?$allocator@D@2@@std@@PAVfms_config_item_t@@U?$less@V?$basic_string@DU?$char_traits@D@std@@V?$allocator@D@2@@std@@@2@V?$allocator@U?$pair@$$CBV?$basic_string@DU?$char_traits@D@std@@V?$allocator@D@2@@std@@PAVfms_config_item_t@@@std@@@2@$0A@@std@@@std@@IAE?AU?$pair@V?$_Tree_iterator@V?$_Tree_val@U?$_Tree_simple_types@U?$pair@$$CBV?$basic_string@DU?$char_traits@D@std@@V?$allocator@D@2@@std@@PAVfms_config_item_t@@@std@@@std@@@std@@@std@@_N@1@_NAAU?$pair@$$CBV?$basic_string@DU?$char_traits@D@std@@V?$allocator@D@2@@std@@PAVfms_config_item_t@@@1@PAU?$_Tree_node@U?$pair@$$CBV?$basic_string@DU?$char_traits@D@std@@V?$allocator@D@2@@std@@PAVfms_config_item_t@@@std@@PAX@1@@Z$0 10020309 f i fms_fp.obj
 0001:0001f309       __catch$??$_Insert_nohint@AAU?$pair@$$CBV?$basic_string@DU?$char_traits@D@std@@V?$allocator@D@2@@std@@H@std@@PAU?$_Tree_node@U?$pair@$$CBV?$basic_string@DU?$char_traits@D@std@@V?$allocator@D@2@@std@@H@std@@PAX@2@@?$_Tree@V?$_Tmap_traits@V?$basic_string@DU?$char_traits@D@std@@V?$allocator@D@2@@std@@HU?$less@V?$basic_string@DU?$char_traits@D@std@@V?$allocator@D@2@@std@@@2@V?$allocator@U?$pair@$$CBV?$basic_string@DU?$char_traits@D@std@@V?$allocator@D@2@@std@@H@std@@@2@$0A@@std@@@std@@IAE?AU?$pair@V?$_Tree_iterator@V?$_Tree_val@U?$_Tree_simple_types@U?$pair@$$CBV?$basic_string@DU?$char_traits@D@std@@V?$allocator@D@2@@std@@H@std@@@std@@@std@@@std@@_N@1@_NAAU?$pair@$$CBV?$basic_string@DU?$char_traits@D@std@@V?$allocator@D@2@@std@@H@1@PAU?$_Tree_node@U?$pair@$$CBV?$basic_string@DU?$char_traits@D@std@@V?$allocator@D@2@@std@@H@std@@PAX@1@@Z$0 10020309 f i fms_fp.obj
 0001:000203c0       _localtime                 100213c0 f   config.obj
 0001:000203e0       _time                      100213e0 f   config.obj
 0001:00020cf0       $LN14                      10021cf0     config.obj
 0001:00020da7       __catch$??$_Buynode@AAU?$pair@$$CBV?$basic_string@DU?$char_traits@D@std@@V?$allocator@D@2@@std@@V12@@std@@@?$_Tree_buy@U?$pair@$$CBV?$basic_string@DU?$char_traits@D@std@@V?$allocator@D@2@@std@@V12@@std@@V?$allocator@U?$pair@$$CBV?$basic_string@DU?$char_traits@D@std@@V?$allocator@D@2@@std@@V12@@std@@@2@@std@@QAEPAU?$_Tree_node@U?$pair@$$CBV?$basic_string@DU?$char_traits@D@std@@V?$allocator@D@2@@std@@V12@@std@@PAX@1@AAU?$pair@$$CBV?$basic_string@DU?$char_traits@D@std@@V?$allocator@D@2@@std@@V12@@1@@Z$0 10021da7 f i config.obj
 0001:00020fc7       __catch$??$_Copy_nodes@U?$integral_constant@_N$0A@@std@@@?$_Tree@V?$_Tmap_traits@V?$basic_string@DU?$char_traits@D@std@@V?$allocator@D@2@@std@@V12@U?$less@V?$basic_string@DU?$char_traits@D@std@@V?$allocator@D@2@@std@@@2@V?$allocator@U?$pair@$$CBV?$basic_string@DU?$char_traits@D@std@@V?$allocator@D@2@@std@@V12@@std@@@2@$0A@@std@@@std@@IAEPAU?$_Tree_node@U?$pair@$$CBV?$basic_string@DU?$char_traits@D@std@@V?$allocator@D@2@@std@@V12@@std@@PAX@1@PAU21@0U?$integral_constant@_N$0A@@1@@Z$0 10021fc7 f i config.obj
 0001:00021327       __catch$??0?$_Tree@V?$_Tmap_traits@V?$basic_string@DU?$char_traits@D@std@@V?$allocator@D@2@@std@@V12@U?$less@V?$basic_string@DU?$char_traits@D@std@@V?$allocator@D@2@@std@@@2@V?$allocator@U?$pair@$$CBV?$basic_string@DU?$char_traits@D@std@@V?$allocator@D@2@@std@@V12@@std@@@2@$0A@@std@@@std@@QAE@ABV01@ABV?$allocator@U?$pair@$$CBV?$basic_string@DU?$char_traits@D@std@@V?$allocator@D@2@@std@@V12@@std@@@1@@Z$0 10022327 f i config.obj
 0001:00025eb0       $$000000                   10026eb0     MSVCRT:ftol2.obj
 0001:00026180       $$000000                   10027180     MSVCRT:chkstk.obj
 0001:000261d0       _pre_c_init                100271d0 f   MSVCRT:crtdll.obj
 0001:00026436       ___DllMainCRTStartup       10027436 f   MSVCRT:crtdll.obj
 0001:00026580       $$000000                   10027580     MSVCRT:sehprolg4.obj
 0001:00026ac0       __ehhandler$_XPluginStart  10027ac0 f   main.obj
 0001:00026ae0       __ehhandler$?_Copy@?$basic_string@DU?$char_traits@D@std@@V?$allocator@D@2@@std@@QAEXII@Z 10027ae0 f   main.obj
 0001:00026b00       __ehhandler$??$_Buynode@ABUpiecewise_construct_t@std@@V?$tuple@$$QAV?$basic_string@DU?$char_traits@D@std@@V?$allocator@D@2@@std@@@2@V?$tuple@$$$V@2@@?$_Tree_buy@U?$pair@$$CBV?$basic_string@DU?$char_traits@D@std@@V?$allocator@D@2@@std@@V12@@std@@V?$allocator@U?$pair@$$CBV?$basic_string@DU?$char_traits@D@std@@V?$allocator@D@2@@std@@V12@@std@@@2@@std@@QAEPAU?$_Tree_node@U?$pair@$$CBV?$basic_string@DU?$char_traits@D@std@@V?$allocator@D@2@@std@@V12@@std@@PAX@1@ABUpiecewise_construct_t@1@$$QAV?$tuple@$$QAV?$basic_string@DU?$char_traits@D@std@@V?$allocator@D@2@@std@@@1@$$QAV?$tuple@$$$V@1@@Z 10027b00 f   tools.obj
 0001:00026b20       __ehhandler$??$_Insert_hint@AAU?$pair@$$CBV?$basic_string@DU?$char_traits@D@std@@V?$allocator@D@2@@std@@V12@@std@@PAU?$_Tree_node@U?$pair@$$CBV?$basic_string@DU?$char_traits@D@std@@V?$allocator@D@2@@std@@V12@@std@@PAX@2@@?$_Tree@V?$_Tmap_traits@V?$basic_string@DU?$char_traits@D@std@@V?$allocator@D@2@@std@@V12@U?$less@V?$basic_string@DU?$char_traits@D@std@@V?$allocator@D@2@@std@@@2@V?$allocator@U?$pair@$$CBV?$basic_string@DU?$char_traits@D@std@@V?$allocator@D@2@@std@@V12@@std@@@2@$0A@@std@@@std@@IAE?AV?$_Tree_iterator@V?$_Tree_val@U?$_Tree_simple_types@U?$pair@$$CBV?$basic_string@DU?$char_traits@D@std@@V?$allocator@D@2@@std@@V12@@std@@@std@@@std@@@1@V?$_Tree_const_iterator@V?$_Tree_val@U?$_Tree_simple_types@U?$pair@$$CBV?$basic_string@DU?$char_traits@D@std@@V?$allocator@D@2@@std@@V12@@std@@@std@@@std@@@1@AAU?$pair@$$CBV?$basic_string@DU?$char_traits@D@std@@V?$allocator@D@2@@std@@V12@@1@PAU?$_Tree_node@U?$pair@$$CBV?$basic_string@DU?$char_traits@D@std@@V?$allocator@D@2@@std@@V12@@std@@PAX@1@@Z 10027b20 f   tools.obj
 0001:00026b40       __ehhandler$??$_Insert_nohint@AAU?$pair@$$CBV?$basic_string@DU?$char_traits@D@std@@V?$allocator@D@2@@std@@V12@@std@@PAU?$_Tree_node@U?$pair@$$CBV?$basic_string@DU?$char_traits@D@std@@V?$allocator@D@2@@std@@V12@@std@@PAX@2@@?$_Tree@V?$_Tmap_traits@V?$basic_string@DU?$char_traits@D@std@@V?$allocator@D@2@@std@@V12@U?$less@V?$basic_string@DU?$char_traits@D@std@@V?$allocator@D@2@@std@@@2@V?$allocator@U?$pair@$$CBV?$basic_string@DU?$char_traits@D@std@@V?$allocator@D@2@@std@@V12@@std@@@2@$0A@@std@@@std@@IAE?AU?$pair@V?$_Tree_iterator@V?$_Tree_val@U?$_Tree_simple_types@U?$pair@$$CBV?$basic_string@DU?$char_traits@D@std@@V?$allocator@D@2@@std@@V12@@std@@@std@@@std@@@std@@_N@1@_NAAU?$pair@$$CBV?$basic_string@DU?$char_traits@D@std@@V?$allocator@D@2@@std@@V12@@1@PAU?$_Tree_node@U?$pair@$$CBV?$basic_string@DU?$char_traits@D@std@@V?$allocator@D@2@@std@@V12@@std@@PAX@1@@Z 10027b40 f   tools.obj
 0001:00026b60       __ehhandler$?_Buynode0@?$_Tree_buy@U?$pair@$$CBV?$basic_string@DU?$char_traits@D@std@@V?$allocator@D@2@@std@@V12@@std@@V?$allocator@U?$pair@$$CBV?$basic_string@DU?$char_traits@D@std@@V?$allocator@D@2@@std@@V12@@std@@@2@@std@@QAEPAU?$_Tree_node@U?$pair@$$CBV?$basic_string@DU?$char_traits@D@std@@V?$allocator@D@2@@std@@V12@@std@@PAX@2@XZ 10027b60 f   tools.obj
 0001:00026b80       __ehhandler$??$_Buynode@ABQAVmfdpage_t@@@?$_Tree_buy@PAVmfdpage_t@@V?$allocator@PAVmfdpage_t@@@std@@@std@@QAEPAU?$_Tree_node@PAVmfdpage_t@@PAX@1@ABQAVmfdpage_t@@@Z 10027b80 f   data.obj
 0001:00026b80       __ehhandler$??$_Buynode@ABQAVobject_t@@@?$_Tree_buy@PAVobject_t@@V?$allocator@PAVobject_t@@@std@@@std@@QAEPAU?$_Tree_node@PAVobject_t@@PAX@1@ABQAVobject_t@@@Z 10027b80 f   data.obj
 0001:00026b80       __ehhandler$??$_Buynode@ABQAVlistener_t@@@?$_Tree_buy@PAVlistener_t@@V?$allocator@PAVlistener_t@@@std@@@std@@QAEPAU?$_Tree_node@PAVlistener_t@@PAX@1@ABQAVlistener_t@@@Z 10027b80 f   data.obj
 0001:00026ba0       __ehhandler$??$_Insert_nohint@ABQAVmfdpage_t@@U_Nil@std@@@?$_Tree@V?$_Tset_traits@PAVmfdpage_t@@U?$less@PAVmfdpage_t@@@std@@V?$allocator@PAVmfdpage_t@@@3@$0A@@std@@@std@@IAE?AU?$pair@V?$_Tree_const_iterator@V?$_Tree_val@U?$_Tree_simple_types@PAVmfdpage_t@@@std@@@std@@@std@@_N@1@_NABQAVmfdpage_t@@U_Nil@1@@Z 10027ba0 f   data.obj
 0001:00026ba0       __ehhandler$??$_Insert_nohint@ABQAVobject_t@@U_Nil@std@@@?$_Tree@V?$_Tset_traits@PAVobject_t@@U?$less@PAVobject_t@@@std@@V?$allocator@PAVobject_t@@@3@$0A@@std@@@std@@IAE?AU?$pair@V?$_Tree_const_iterator@V?$_Tree_val@U?$_Tree_simple_types@PAVobject_t@@@std@@@std@@@std@@_N@1@_NABQAVobject_t@@U_Nil@1@@Z 10027ba0 f   data.obj
 0001:00026ba0       __ehhandler$??$_Insert_nohint@ABQAVlistener_t@@U_Nil@std@@@?$_Tree@V?$_Tset_traits@PAVlistener_t@@U?$less@PAVlistener_t@@@std@@V?$allocator@PAVlistener_t@@@3@$0A@@std@@@std@@IAE?AU?$pair@V?$_Tree_const_iterator@V?$_Tree_val@U?$_Tree_simple_types@PAVlistener_t@@@std@@@std@@@std@@_N@1@_NABQAVlistener_t@@U_Nil@1@@Z 10027ba0 f   data.obj
 0001:00026bc0       __ehhandler$?_Buyheadnode@?$_Tree_alloc@$0A@U?$_Tree_base_types@PAVlistener_t@@V?$allocator@PAVlistener_t@@@std@@@std@@@std@@QAEPAU?$_Tree_node@PAVlistener_t@@PAX@2@XZ 10027bc0 f   data.obj
 0001:00026bc0       __ehhandler$?_Buyheadnode@?$_Tree_alloc@$0A@U?$_Tree_base_types@PAVmfdpage_t@@V?$allocator@PAVmfdpage_t@@@std@@@std@@@std@@QAEPAU?$_Tree_node@PAVmfdpage_t@@PAX@2@XZ 10027bc0 f   data.obj
 0001:00026bc0       __ehhandler$?_Buyheadnode@?$_Tree_alloc@$0A@U?$_Tree_base_types@PAVobject_t@@V?$allocator@PAVobject_t@@@std@@@std@@@std@@QAEPAU?$_Tree_node@PAVobject_t@@PAX@2@XZ 10027bc0 f   data.obj
 0001:00026be0       __ehhandler$??$_Buynode@ABUpiecewise_construct_t@std@@V?$tuple@ABH@2@V?$tuple@$$$V@2@@?$_Tree_buy@U?$pair@$$CBHV?$basic_string@DU?$char_traits@D@std@@V?$allocator@D@2@@std@@@std@@V?$allocator@U?$pair@$$CBHV?$basic_string@DU?$char_traits@D@std@@V?$allocator@D@2@@std@@@std@@@2@@std@@QAEPAU?$_Tree_node@U?$pair@$$CBHV?$basic_string@DU?$char_traits@D@std@@V?$allocator@D@2@@std@@@std@@PAX@1@ABUpiecewise_construct_t@1@$$QAV?$tuple@ABH@1@$$QAV?$tuple@$$$V@1@@Z 10027be0 f   out_saitek.obj
 0001:00026be0       __ehhandler$??$_Buynode@ABUpiecewise_construct_t@std@@V?$tuple@$$QAH@2@V?$tuple@$$$V@2@@?$_Tree_buy@U?$pair@$$CBHV?$basic_string@DU?$char_traits@D@std@@V?$allocator@D@2@@std@@@std@@V?$allocator@U?$pair@$$CBHV?$basic_string@DU?$char_traits@D@std@@V?$allocator@D@2@@std@@@std@@@2@@std@@QAEPAU?$_Tree_node@U?$pair@$$CBHV?$basic_string@DU?$char_traits@D@std@@V?$allocator@D@2@@std@@@std@@PAX@1@ABUpiecewise_construct_t@1@$$QAV?$tuple@$$QAH@1@$$QAV?$tuple@$$$V@1@@Z 10027be0 f   out_saitek.obj
 0001:00026c00       __ehhandler$??$_Insert_hint@AAU?$pair@$$CBHV?$basic_string@DU?$char_traits@D@std@@V?$allocator@D@2@@std@@@std@@PAU?$_Tree_node@U?$pair@$$CBHV?$basic_string@DU?$char_traits@D@std@@V?$allocator@D@2@@std@@@std@@PAX@2@@?$_Tree@V?$_Tmap_traits@HV?$basic_string@DU?$char_traits@D@std@@V?$allocator@D@2@@std@@U?$less@H@2@V?$allocator@U?$pair@$$CBHV?$basic_string@DU?$char_traits@D@std@@V?$allocator@D@2@@std@@@std@@@2@$0A@@std@@@std@@IAE?AV?$_Tree_iterator@V?$_Tree_val@U?$_Tree_simple_types@U?$pair@$$CBHV?$basic_string@DU?$char_traits@D@std@@V?$allocator@D@2@@std@@@std@@@std@@@std@@@1@V?$_Tree_const_iterator@V?$_Tree_val@U?$_Tree_simple_types@U?$pair@$$CBHV?$basic_string@DU?$char_traits@D@std@@V?$allocator@D@2@@std@@@std@@@std@@@std@@@1@AAU?$pair@$$CBHV?$basic_string@DU?$char_traits@D@std@@V?$allocator@D@2@@std@@@1@PAU?$_Tree_node@U?$pair@$$CBHV?$basic_string@DU?$char_traits@D@std@@V?$allocator@D@2@@std@@@std@@PAX@1@@Z 10027c00 f   out_saitek.obj
 0001:00026c20       __ehhandler$??$_Insert_nohint@AAU?$pair@$$CBHV?$basic_string@DU?$char_traits@D@std@@V?$allocator@D@2@@std@@@std@@PAU?$_Tree_node@U?$pair@$$CBHV?$basic_string@DU?$char_traits@D@std@@V?$allocator@D@2@@std@@@std@@PAX@2@@?$_Tree@V?$_Tmap_traits@HV?$basic_string@DU?$char_traits@D@std@@V?$allocator@D@2@@std@@U?$less@H@2@V?$allocator@U?$pair@$$CBHV?$basic_string@DU?$char_traits@D@std@@V?$allocator@D@2@@std@@@std@@@2@$0A@@std@@@std@@IAE?AU?$pair@V?$_Tree_iterator@V?$_Tree_val@U?$_Tree_simple_types@U?$pair@$$CBHV?$basic_string@DU?$char_traits@D@std@@V?$allocator@D@2@@std@@@std@@@std@@@std@@@std@@_N@1@_NAAU?$pair@$$CBHV?$basic_string@DU?$char_traits@D@std@@V?$allocator@D@2@@std@@@1@PAU?$_Tree_node@U?$pair@$$CBHV?$basic_string@DU?$char_traits@D@std@@V?$allocator@D@2@@std@@@std@@PAX@1@@Z 10027c20 f   out_saitek.obj
 0001:00026c40       __ehhandler$?_Buynode0@?$_Tree_buy@U?$pair@$$CBV?$basic_string@DU?$char_traits@D@std@@V?$allocator@D@2@@std@@H@std@@V?$allocator@U?$pair@$$CBV?$basic_string@DU?$char_traits@D@std@@V?$allocator@D@2@@std@@H@std@@@2@@std@@QAEPAU?$_Tree_node@U?$pair@$$CBV?$basic_string@DU?$char_traits@D@std@@V?$allocator@D@2@@std@@H@std@@PAX@2@XZ 10027c40 f   out_saitek.obj
 0001:00026c40       __ehhandler$?_Buynode0@?$_Tree_buy@U?$pair@$$CBV?$basic_string@DU?$char_traits@D@std@@V?$allocator@D@2@@std@@D@std@@V?$allocator@U?$pair@$$CBV?$basic_string@DU?$char_traits@D@std@@V?$allocator@D@2@@std@@D@std@@@2@@std@@QAEPAU?$_Tree_node@U?$pair@$$CBV?$basic_string@DU?$char_traits@D@std@@V?$allocator@D@2@@std@@D@std@@PAX@2@XZ 10027c40 f   out_saitek.obj
 0001:00026c40       __ehhandler$?_Buynode0@?$_Tree_buy@U?$pair@$$CBV?$basic_string@DU?$char_traits@D@std@@V?$allocator@D@2@@std@@PAVfms_fp_item_t@@@std@@V?$allocator@U?$pair@$$CBV?$basic_string@DU?$char_traits@D@std@@V?$allocator@D@2@@std@@PAVfms_fp_item_t@@@std@@@2@@std@@QAEPAU?$_Tree_node@U?$pair@$$CBV?$basic_string@DU?$char_traits@D@std@@V?$allocator@D@2@@std@@PAVfms_fp_item_t@@@std@@PAX@2@XZ 10027c40 f   out_saitek.obj
 0001:00026c40       __ehhandler$?_Buynode0@?$_Tree_buy@U?$pair@$$CBV?$basic_string@DU?$char_traits@D@std@@V?$allocator@D@2@@std@@M@std@@V?$allocator@U?$pair@$$CBV?$basic_string@DU?$char_traits@D@std@@V?$allocator@D@2@@std@@M@std@@@2@@std@@QAEPAU?$_Tree_node@U?$pair@$$CBV?$basic_string@DU?$char_traits@D@std@@V?$allocator@D@2@@std@@M@std@@PAX@2@XZ 10027c40 f   out_saitek.obj
 0001:00026c40       __ehhandler$?_Buynode0@?$_Tree_buy@U?$pair@$$CBHV?$basic_string@DU?$char_traits@D@std@@V?$allocator@D@2@@std@@@std@@V?$allocator@U?$pair@$$CBHV?$basic_string@DU?$char_traits@D@std@@V?$allocator@D@2@@std@@@std@@@2@@std@@QAEPAU?$_Tree_node@U?$pair@$$CBHV?$basic_string@DU?$char_traits@D@std@@V?$allocator@D@2@@std@@@std@@PAX@2@XZ 10027c40 f   out_saitek.obj
 0001:00026c40       __ehhandler$?_Buynode0@?$_Tree_buy@U?$pair@$$CBV?$basic_string@DU?$char_traits@D@std@@V?$allocator@D@2@@std@@PAVfms_config_item_t@@@std@@V?$allocator@U?$pair@$$CBV?$basic_string@DU?$char_traits@D@std@@V?$allocator@D@2@@std@@PAVfms_config_item_t@@@std@@@2@@std@@QAEPAU?$_Tree_node@U?$pair@$$CBV?$basic_string@DU?$char_traits@D@std@@V?$allocator@D@2@@std@@PAVfms_config_item_t@@@std@@PAX@2@XZ 10027c40 f   out_saitek.obj
 0001:00026c60       __ehhandler$?_Buynode0@?$_Tree_buy@PAVlistener_t@@V?$allocator@PAVlistener_t@@@std@@@std@@QAEPAU?$_Tree_node@PAVlistener_t@@PAX@2@XZ 10027c60 f   in.obj
 0001:00026c60       __ehhandler$?_Buynode0@?$_Tree_buy@PAVmfdpage_t@@V?$allocator@PAVmfdpage_t@@@std@@@std@@QAEPAU?$_Tree_node@PAVmfdpage_t@@PAX@2@XZ 10027c60 f   in.obj
 0001:00026c60       __ehhandler$?_Buynode0@?$_Tree_buy@PAVobject_t@@V?$allocator@PAVobject_t@@@std@@@std@@QAEPAU?$_Tree_node@PAVobject_t@@PAX@2@XZ 10027c60 f   in.obj
 0001:00026c80       __ehhandler$??$_Buynode@AAU?$pair@$$CBHPAVobject_t@@@std@@@?$_Tree_buy@U?$pair@$$CBHPAVobject_t@@@std@@V?$allocator@U?$pair@$$CBHPAVobject_t@@@std@@@2@@std@@QAEPAU?$_Tree_node@U?$pair@$$CBHPAVobject_t@@@std@@PAX@1@AAU?$pair@$$CBHPAVobject_t@@@1@@Z 10027c80 f   mfdpage.obj
 0001:00026ca0       __ehhandler$??$_Buynode@ABUpiecewise_construct_t@std@@V?$tuple@$$QAV?$basic_string@DU?$char_traits@D@std@@V?$allocator@D@2@@std@@@2@V?$tuple@$$$V@2@@?$_Tree_buy@U?$pair@$$CBV?$basic_string@DU?$char_traits@D@std@@V?$allocator@D@2@@std@@D@std@@V?$allocator@U?$pair@$$CBV?$basic_string@DU?$char_traits@D@std@@V?$allocator@D@2@@std@@D@std@@@2@@std@@QAEPAU?$_Tree_node@U?$pair@$$CBV?$basic_string@DU?$char_traits@D@std@@V?$allocator@D@2@@std@@D@std@@PAX@1@ABUpiecewise_construct_t@1@$$QAV?$tuple@$$QAV?$basic_string@DU?$char_traits@D@std@@V?$allocator@D@2@@std@@@1@$$QAV?$tuple@$$$V@1@@Z 10027ca0 f   mfdpage.obj
 0001:00026cc0       __ehhandler$??$_Buynode@ABUpiecewise_construct_t@std@@V?$tuple@$$QAV?$basic_string@DU?$char_traits@D@std@@V?$allocator@D@2@@std@@@2@V?$tuple@$$$V@2@@?$_Tree_buy@U?$pair@$$CBV?$basic_string@DU?$char_traits@D@std@@V?$allocator@D@2@@std@@H@std@@V?$allocator@U?$pair@$$CBV?$basic_string@DU?$char_traits@D@std@@V?$allocator@D@2@@std@@H@std@@@2@@std@@QAEPAU?$_Tree_node@U?$pair@$$CBV?$basic_string@DU?$char_traits@D@std@@V?$allocator@D@2@@std@@H@std@@PAX@1@ABUpiecewise_construct_t@1@$$QAV?$tuple@$$QAV?$basic_string@DU?$char_traits@D@std@@V?$allocator@D@2@@std@@@1@$$QAV?$tuple@$$$V@1@@Z 10027cc0 f   mfdpage.obj
 0001:00026ce0       __ehhandler$??$_Buynode@ABUpiecewise_construct_t@std@@V?$tuple@ABV?$basic_string@DU?$char_traits@D@std@@V?$allocator@D@2@@std@@@2@V?$tuple@$$$V@2@@?$_Tree_buy@U?$pair@$$CBV?$basic_string@DU?$char_traits@D@std@@V?$allocator@D@2@@std@@V12@@std@@V?$allocator@U?$pair@$$CBV?$basic_string@DU?$char_traits@D@std@@V?$allocator@D@2@@std@@V12@@std@@@2@@std@@QAEPAU?$_Tree_node@U?$pair@$$CBV?$basic_string@DU?$char_traits@D@std@@V?$allocator@D@2@@std@@V12@@std@@PAX@1@ABUpiecewise_construct_t@1@$$QAV?$tuple@ABV?$basic_string@DU?$char_traits@D@std@@V?$allocator@D@2@@std@@@1@$$QAV?$tuple@$$$V@1@@Z 10027ce0 f   mfdpage.obj
 0001:00026d00       __ehhandler$??$_Copy_nodes@U?$integral_constant@_N$0A@@std@@@?$_Tree@V?$_Tmap_traits@HPAVobject_t@@U?$less@H@std@@V?$allocator@U?$pair@$$CBHPAVobject_t@@@std@@@3@$0A@@std@@@std@@IAEPAU?$_Tree_node@U?$pair@$$CBHPAVobject_t@@@std@@PAX@1@PAU21@0U?$integral_constant@_N$0A@@1@@Z 10027d00 f   mfdpage.obj
 0001:00026d20       __ehhandler$??$getline@DU?$char_traits@D@std@@V?$allocator@D@2@@std@@YAAAV?$basic_istream@DU?$char_traits@D@std@@@0@$$QAV10@AAV?$basic_string@DU?$char_traits@D@std@@V?$allocator@D@2@@0@D@Z 10027d20 f   mfdpage.obj
 0001:00026d40       __ehhandler$??0?$_Tree@V?$_Tmap_traits@HPAVobject_t@@U?$less@H@std@@V?$allocator@U?$pair@$$CBHPAVobject_t@@@std@@@3@$0A@@std@@@std@@QAE@ABV01@ABV?$allocator@U?$pair@$$CBHPAVobject_t@@@std@@@1@@Z 10027d40 f   mfdpage.obj
 0001:00026d60       __ehhandler$?_Buyheadnode@?$_Tree_alloc@$0A@U?$_Tree_base_types@U?$pair@$$CBHPAVfms_fp_item_t@@@std@@V?$allocator@U?$pair@$$CBHPAVfms_fp_item_t@@@std@@@2@@std@@@std@@QAEPAU?$_Tree_node@U?$pair@$$CBHPAVfms_fp_item_t@@@std@@PAX@2@XZ 10027d60 f   mfdpage.obj
 0001:00026d60       __ehhandler$?_Buyheadnode@?$_Tree_alloc@$0A@U?$_Tree_base_types@U?$pair@$$CBHPAVobject_t@@@std@@V?$allocator@U?$pair@$$CBHPAVobject_t@@@std@@@2@@std@@@std@@QAEPAU?$_Tree_node@U?$pair@$$CBHPAVobject_t@@@std@@PAX@2@XZ 10027d60 f   mfdpage.obj
 0001:00026d60       __ehhandler$?_Buyheadnode@?$_Tree_alloc@$0A@U?$_Tree_base_types@U?$pair@$$CBHM@std@@V?$allocator@U?$pair@$$CBHM@std@@@2@@std@@@std@@QAEPAU?$_Tree_node@U?$pair@$$CBHM@std@@PAX@2@XZ 10027d60 f   mfdpage.obj
 0001:00026d80       __ehhandler$??$_Buynode@ABUpiecewise_construct_t@std@@V?$tuple@$$QAH@2@V?$tuple@$$$V@2@@?$_Tree_buy@U?$pair@$$CBHPAVfms_fp_item_t@@@std@@V?$allocator@U?$pair@$$CBHPAVfms_fp_item_t@@@std@@@2@@std@@QAEPAU?$_Tree_node@U?$pair@$$CBHPAVfms_fp_item_t@@@std@@PAX@1@ABUpiecewise_construct_t@1@$$QAV?$tuple@$$QAH@1@$$QAV?$tuple@$$$V@1@@Z 10027d80 f   mfdpage_fms.obj
 0001:00026d80       __ehhandler$??$_Buynode@ABUpiecewise_construct_t@std@@V?$tuple@ABH@2@V?$tuple@$$$V@2@@?$_Tree_buy@U?$pair@$$CBHPAVfms_fp_item_t@@@std@@V?$allocator@U?$pair@$$CBHPAVfms_fp_item_t@@@std@@@2@@std@@QAEPAU?$_Tree_node@U?$pair@$$CBHPAVfms_fp_item_t@@@std@@PAX@1@ABUpiecewise_construct_t@1@$$QAV?$tuple@ABH@1@$$QAV?$tuple@$$$V@1@@Z 10027d80 f   mfdpage_fms.obj
 0001:00026d80       __ehhandler$??$_Buynode@ABUpiecewise_construct_t@std@@V?$tuple@ABH@2@V?$tuple@$$$V@2@@?$_Tree_buy@U?$pair@$$CBHPAVobject_t@@@std@@V?$allocator@U?$pair@$$CBHPAVobject_t@@@std@@@2@@std@@QAEPAU?$_Tree_node@U?$pair@$$CBHPAVobject_t@@@std@@PAX@1@ABUpiecewise_construct_t@1@$$QAV?$tuple@ABH@1@$$QAV?$tuple@$$$V@1@@Z 10027d80 f   mfdpage_fms.obj
 0001:00026d80       __ehhandler$??$_Buynode@ABUpiecewise_construct_t@std@@V?$tuple@$$QAH@2@V?$tuple@$$$V@2@@?$_Tree_buy@U?$pair@$$CBHPAVobject_t@@@std@@V?$allocator@U?$pair@$$CBHPAVobject_t@@@std@@@2@@std@@QAEPAU?$_Tree_node@U?$pair@$$CBHPAVobject_t@@@std@@PAX@1@ABUpiecewise_construct_t@1@$$QAV?$tuple@$$QAH@1@$$QAV?$tuple@$$$V@1@@Z 10027d80 f   mfdpage_fms.obj
 0001:00026da0       __ehhandler$??$_Buynode@ABUpiecewise_construct_t@std@@V?$tuple@$$QAV?$basic_string@DU?$char_traits@D@std@@V?$allocator@D@2@@std@@@2@V?$tuple@$$$V@2@@?$_Tree_buy@U?$pair@$$CBV?$basic_string@DU?$char_traits@D@std@@V?$allocator@D@2@@std@@M@std@@V?$allocator@U?$pair@$$CBV?$basic_string@DU?$char_traits@D@std@@V?$allocator@D@2@@std@@M@std@@@2@@std@@QAEPAU?$_Tree_node@U?$pair@$$CBV?$basic_string@DU?$char_traits@D@std@@V?$allocator@D@2@@std@@M@std@@PAX@1@ABUpiecewise_construct_t@1@$$QAV?$tuple@$$QAV?$basic_string@DU?$char_traits@D@std@@V?$allocator@D@2@@std@@@1@$$QAV?$tuple@$$$V@1@@Z 10027da0 f   mfdpage_fms.obj
 0001:00026dc0       __ehhandler$??$_Insert_hint@AAU?$pair@$$CBHPAVfms_fp_item_t@@@std@@PAU?$_Tree_node@U?$pair@$$CBHPAVfms_fp_item_t@@@std@@PAX@2@@?$_Tree@V?$_Tmap_traits@HPAVfms_fp_item_t@@U?$less@H@std@@V?$allocator@U?$pair@$$CBHPAVfms_fp_item_t@@@std@@@3@$0A@@std@@@std@@IAE?AV?$_Tree_iterator@V?$_Tree_val@U?$_Tree_simple_types@U?$pair@$$CBHPAVfms_fp_item_t@@@std@@@std@@@std@@@1@V?$_Tree_const_iterator@V?$_Tree_val@U?$_Tree_simple_types@U?$pair@$$CBHPAVfms_fp_item_t@@@std@@@std@@@std@@@1@AAU?$pair@$$CBHPAVfms_fp_item_t@@@1@PAU?$_Tree_node@U?$pair@$$CBHPAVfms_fp_item_t@@@std@@PAX@1@@Z 10027dc0 f   mfdpage_fms.obj
 0001:00026dc0       __ehhandler$??$_Insert_hint@AAU?$pair@$$CBHM@std@@PAU?$_Tree_node@U?$pair@$$CBHM@std@@PAX@2@@?$_Tree@V?$_Tmap_traits@HMU?$less@H@std@@V?$allocator@U?$pair@$$CBHM@std@@@2@$0A@@std@@@std@@IAE?AV?$_Tree_iterator@V?$_Tree_val@U?$_Tree_simple_types@U?$pair@$$CBHM@std@@@std@@@std@@@1@V?$_Tree_const_iterator@V?$_Tree_val@U?$_Tree_simple_types@U?$pair@$$CBHM@std@@@std@@@std@@@1@AAU?$pair@$$CBHM@1@PAU?$_Tree_node@U?$pair@$$CBHM@std@@PAX@1@@Z 10027dc0 f   mfdpage_fms.obj
 0001:00026dc0       __ehhandler$??$_Insert_hint@AAU?$pair@$$CBHPAVobject_t@@@std@@PAU?$_Tree_node@U?$pair@$$CBHPAVobject_t@@@std@@PAX@2@@?$_Tree@V?$_Tmap_traits@HPAVobject_t@@U?$less@H@std@@V?$allocator@U?$pair@$$CBHPAVobject_t@@@std@@@3@$0A@@std@@@std@@IAE?AV?$_Tree_iterator@V?$_Tree_val@U?$_Tree_simple_types@U?$pair@$$CBHPAVobject_t@@@std@@@std@@@std@@@1@V?$_Tree_const_iterator@V?$_Tree_val@U?$_Tree_simple_types@U?$pair@$$CBHPAVobject_t@@@std@@@std@@@std@@@1@AAU?$pair@$$CBHPAVobject_t@@@1@PAU?$_Tree_node@U?$pair@$$CBHPAVobject_t@@@std@@PAX@1@@Z 10027dc0 f   mfdpage_fms.obj
 0001:00026de0       __ehhandler$??$_Insert_hint@AAU?$pair@$$CBV?$basic_string@DU?$char_traits@D@std@@V?$allocator@D@2@@std@@PAVfms_config_item_t@@@std@@PAU?$_Tree_node@U?$pair@$$CBV?$basic_string@DU?$char_traits@D@std@@V?$allocator@D@2@@std@@PAVfms_config_item_t@@@std@@PAX@2@@?$_Tree@V?$_Tmap_traits@V?$basic_string@DU?$char_traits@D@std@@V?$allocator@D@2@@std@@PAVfms_config_item_t@@U?$less@V?$basic_string@DU?$char_traits@D@std@@V?$allocator@D@2@@std@@@2@V?$allocator@U?$pair@$$CBV?$basic_string@DU?$char_traits@D@std@@V?$allocator@D@2@@std@@PAVfms_config_item_t@@@std@@@2@$0A@@std@@@std@@IAE?AV?$_Tree_iterator@V?$_Tree_val@U?$_Tree_simple_types@U?$pair@$$CBV?$basic_string@DU?$char_traits@D@std@@V?$allocator@D@2@@std@@PAVfms_config_item_t@@@std@@@std@@@std@@@1@V?$_Tree_const_iterator@V?$_Tree_val@U?$_Tree_simple_types@U?$pair@$$CBV?$basic_string@DU?$char_traits@D@std@@V?$allocator@D@2@@std@@PAVfms_config_item_t@@@std@@@std@@@std@@@1@AAU?$pair@$$CBV?$basic_string@DU?$char_traits@D@std@@V?$allocator@D@2@@std@@PAVfms_config_item_t@@@1@PAU?$_Tree_node@U?$pair@$$CBV?$basic_string@DU?$char_traits@D@std@@V?$allocator@D@2@@std@@PAVfms_config_item_t@@@std@@PAX@1@@Z 10027de0 f   mfdpage_fms.obj
 0001:00026de0       __ehhandler$??$_Insert_hint@AAU?$pair@$$CBV?$basic_string@DU?$char_traits@D@std@@V?$allocator@D@2@@std@@D@std@@PAU?$_Tree_node@U?$pair@$$CBV?$basic_string@DU?$char_traits@D@std@@V?$allocator@D@2@@std@@D@std@@PAX@2@@?$_Tree@V?$_Tmap_traits@V?$basic_string@DU?$char_traits@D@std@@V?$allocator@D@2@@std@@DU?$less@V?$basic_string@DU?$char_traits@D@std@@V?$allocator@D@2@@std@@@2@V?$allocator@U?$pair@$$CBV?$basic_string@DU?$char_traits@D@std@@V?$allocator@D@2@@std@@D@std@@@2@$0A@@std@@@std@@IAE?AV?$_Tree_iterator@V?$_Tree_val@U?$_Tree_simple_types@U?$pair@$$CBV?$basic_string@DU?$char_traits@D@std@@V?$allocator@D@2@@std@@D@std@@@std@@@std@@@1@V?$_Tree_const_iterator@V?$_Tree_val@U?$_Tree_simple_types@U?$pair@$$CBV?$basic_string@DU?$char_traits@D@std@@V?$allocator@D@2@@std@@D@std@@@std@@@std@@@1@AAU?$pair@$$CBV?$basic_string@DU?$char_traits@D@std@@V?$allocator@D@2@@std@@D@1@PAU?$_Tree_node@U?$pair@$$CBV?$basic_string@DU?$char_traits@D@std@@V?$allocator@D@2@@std@@D@std@@PAX@1@@Z 10027de0 f   mfdpage_fms.obj
 0001:00026de0       __ehhandler$??$_Insert_hint@AAU?$pair@$$CBV?$basic_string@DU?$char_traits@D@std@@V?$allocator@D@2@@std@@H@std@@PAU?$_Tree_node@U?$pair@$$CBV?$basic_string@DU?$char_traits@D@std@@V?$allocator@D@2@@std@@H@std@@PAX@2@@?$_Tree@V?$_Tmap_traits@V?$basic_string@DU?$char_traits@D@std@@V?$allocator@D@2@@std@@HU?$less@V?$basic_string@DU?$char_traits@D@std@@V?$allocator@D@2@@std@@@2@V?$allocator@U?$pair@$$CBV?$basic_string@DU?$char_traits@D@std@@V?$allocator@D@2@@std@@H@std@@@2@$0A@@std@@@std@@IAE?AV?$_Tree_iterator@V?$_Tree_val@U?$_Tree_simple_types@U?$pair@$$CBV?$basic_string@DU?$char_traits@D@std@@V?$allocator@D@2@@std@@H@std@@@std@@@std@@@1@V?$_Tree_const_iterator@V?$_Tree_val@U?$_Tree_simple_types@U?$pair@$$CBV?$basic_string@DU?$char_traits@D@std@@V?$allocator@D@2@@std@@H@std@@@std@@@std@@@1@AAU?$pair@$$CBV?$basic_string@DU?$char_traits@D@std@@V?$allocator@D@2@@std@@H@1@PAU?$_Tree_node@U?$pair@$$CBV?$basic_string@DU?$char_traits@D@std@@V?$allocator@D@2@@std@@H@std@@PAX@1@@Z 10027de0 f   mfdpage_fms.obj
 0001:00026de0       __ehhandler$??$_Insert_hint@AAU?$pair@$$CBV?$basic_string@DU?$char_traits@D@std@@V?$allocator@D@2@@std@@PAVfms_fp_item_t@@@std@@PAU?$_Tree_node@U?$pair@$$CBV?$basic_string@DU?$char_traits@D@std@@V?$allocator@D@2@@std@@PAVfms_fp_item_t@@@std@@PAX@2@@?$_Tree@V?$_Tmap_traits@V?$basic_string@DU?$char_traits@D@std@@V?$allocator@D@2@@std@@PAVfms_fp_item_t@@U?$less@V?$basic_string@DU?$char_traits@D@std@@V?$allocator@D@2@@std@@@2@V?$allocator@U?$pair@$$CBV?$basic_string@DU?$char_traits@D@std@@V?$allocator@D@2@@std@@PAVfms_fp_item_t@@@std@@@2@$0A@@std@@@std@@IAE?AV?$_Tree_iterator@V?$_Tree_val@U?$_Tree_simple_types@U?$pair@$$CBV?$basic_string@DU?$char_traits@D@std@@V?$allocator@D@2@@std@@PAVfms_fp_item_t@@@std@@@std@@@std@@@1@V?$_Tree_const_iterator@V?$_Tree_val@U?$_Tree_simple_types@U?$pair@$$CBV?$basic_string@DU?$char_traits@D@std@@V?$allocator@D@2@@std@@PAVfms_fp_item_t@@@std@@@std@@@std@@@1@AAU?$pair@$$CBV?$basic_string@DU?$char_traits@D@std@@V?$allocator@D@2@@std@@PAVfms_fp_item_t@@@1@PAU?$_Tree_node@U?$pair@$$CBV?$basic_string@DU?$char_traits@D@std@@V?$allocator@D@2@@std@@PAVfms_fp_item_t@@@std@@PAX@1@@Z 10027de0 f   mfdpage_fms.obj
 0001:00026de0       __ehhandler$??$_Insert_hint@AAU?$pair@$$CBV?$basic_string@DU?$char_traits@D@std@@V?$allocator@D@2@@std@@M@std@@PAU?$_Tree_node@U?$pair@$$CBV?$basic_string@DU?$char_traits@D@std@@V?$allocator@D@2@@std@@M@std@@PAX@2@@?$_Tree@V?$_Tmap_traits@V?$basic_string@DU?$char_traits@D@std@@V?$allocator@D@2@@std@@MU?$less@V?$basic_string@DU?$char_traits@D@std@@V?$allocator@D@2@@std@@@2@V?$allocator@U?$pair@$$CBV?$basic_string@DU?$char_traits@D@std@@V?$allocator@D@2@@std@@M@std@@@2@$0A@@std@@@std@@IAE?AV?$_Tree_iterator@V?$_Tree_val@U?$_Tree_simple_types@U?$pair@$$CBV?$basic_string@DU?$char_traits@D@std@@V?$allocator@D@2@@std@@M@std@@@std@@@std@@@1@V?$_Tree_const_iterator@V?$_Tree_val@U?$_Tree_simple_types@U?$pair@$$CBV?$basic_string@DU?$char_traits@D@std@@V?$allocator@D@2@@std@@M@std@@@std@@@std@@@1@AAU?$pair@$$CBV?$basic_string@DU?$char_traits@D@std@@V?$allocator@D@2@@std@@M@1@PAU?$_Tree_node@U?$pair@$$CBV?$basic_string@DU?$char_traits@D@std@@V?$allocator@D@2@@std@@M@std@@PAX@1@@Z 10027de0 f   mfdpage_fms.obj
 0001:00026e00       __ehhandler$??$_Insert_nohint@AAU?$pair@$$CBHPAVobject_t@@@std@@PAU?$_Tree_node@U?$pair@$$CBHPAVobject_t@@@std@@PAX@2@@?$_Tree@V?$_Tmap_traits@HPAVobject_t@@U?$less@H@std@@V?$allocator@U?$pair@$$CBHPAVobject_t@@@std@@@3@$0A@@std@@@std@@IAE?AU?$pair@V?$_Tree_iterator@V?$_Tree_val@U?$_Tree_simple_types@U?$pair@$$CBHPAVobject_t@@@std@@@std@@@std@@@std@@_N@1@_NAAU?$pair@$$CBHPAVobject_t@@@1@PAU?$_Tree_node@U?$pair@$$CBHPAVobject_t@@@std@@PAX@1@@Z 10027e00 f   mfdpage_fms.obj
 0001:00026e00       __ehhandler$??$_Insert_nohint@AAU?$pair@$$CBHPAVfms_fp_item_t@@@std@@PAU?$_Tree_node@U?$pair@$$CBHPAVfms_fp_item_t@@@std@@PAX@2@@?$_Tree@V?$_Tmap_traits@HPAVfms_fp_item_t@@U?$less@H@std@@V?$allocator@U?$pair@$$CBHPAVfms_fp_item_t@@@std@@@3@$0A@@std@@@std@@IAE?AU?$pair@V?$_Tree_iterator@V?$_Tree_val@U?$_Tree_simple_types@U?$pair@$$CBHPAVfms_fp_item_t@@@std@@@std@@@std@@@std@@_N@1@_NAAU?$pair@$$CBHPAVfms_fp_item_t@@@1@PAU?$_Tree_node@U?$pair@$$CBHPAVfms_fp_item_t@@@std@@PAX@1@@Z 10027e00 f   mfdpage_fms.obj
 0001:00026e00       __ehhandler$??$_Insert_nohint@AAU?$pair@$$CBHM@std@@PAU?$_Tree_node@U?$pair@$$CBHM@std@@PAX@2@@?$_Tree@V?$_Tmap_traits@HMU?$less@H@std@@V?$allocator@U?$pair@$$CBHM@std@@@2@$0A@@std@@@std@@IAE?AU?$pair@V?$_Tree_iterator@V?$_Tree_val@U?$_Tree_simple_types@U?$pair@$$CBHM@std@@@std@@@std@@@std@@_N@1@_NAAU?$pair@$$CBHM@1@PAU?$_Tree_node@U?$pair@$$CBHM@std@@PAX@1@@Z 10027e00 f   mfdpage_fms.obj
 0001:00026e20       __ehhandler$?_Buyheadnode@?$_Tree_alloc@$0A@U?$_Tree_base_types@U?$pair@$$CBV?$basic_string@DU?$char_traits@D@std@@V?$allocator@D@2@@std@@PAVfms_config_item_t@@@std@@V?$allocator@U?$pair@$$CBV?$basic_string@DU?$char_traits@D@std@@V?$allocator@D@2@@std@@PAVfms_config_item_t@@@std@@@2@@std@@@std@@QAEPAU?$_Tree_node@U?$pair@$$CBV?$basic_string@DU?$char_traits@D@std@@V?$allocator@D@2@@std@@PAVfms_config_item_t@@@std@@PAX@2@XZ 10027e20 f   mfdpage_fms.obj
 0001:00026e20       __ehhandler$?_Buyheadnode@?$_Tree_alloc@$0A@U?$_Tree_base_types@U?$pair@$$CBV?$basic_string@DU?$char_traits@D@std@@V?$allocator@D@2@@std@@PAVfms_fp_item_t@@@std@@V?$allocator@U?$pair@$$CBV?$basic_string@DU?$char_traits@D@std@@V?$allocator@D@2@@std@@PAVfms_fp_item_t@@@std@@@2@@std@@@std@@QAEPAU?$_Tree_node@U?$pair@$$CBV?$basic_string@DU?$char_traits@D@std@@V?$allocator@D@2@@std@@PAVfms_fp_item_t@@@std@@PAX@2@XZ 10027e20 f   mfdpage_fms.obj
 0001:00026e20       __ehhandler$?_Buyheadnode@?$_Tree_alloc@$0A@U?$_Tree_base_types@U?$pair@$$CBV?$basic_string@DU?$char_traits@D@std@@V?$allocator@D@2@@std@@M@std@@V?$allocator@U?$pair@$$CBV?$basic_string@DU?$char_traits@D@std@@V?$allocator@D@2@@std@@M@std@@@2@@std@@@std@@QAEPAU?$_Tree_node@U?$pair@$$CBV?$basic_string@DU?$char_traits@D@std@@V?$allocator@D@2@@std@@M@std@@PAX@2@XZ 10027e20 f   mfdpage_fms.obj
 0001:00026e20       __ehhandler$?_Buyheadnode@?$_Tree_alloc@$0A@U?$_Tree_base_types@U?$pair@$$CBV?$basic_string@DU?$char_traits@D@std@@V?$allocator@D@2@@std@@H@std@@V?$allocator@U?$pair@$$CBV?$basic_string@DU?$char_traits@D@std@@V?$allocator@D@2@@std@@H@std@@@2@@std@@@std@@QAEPAU?$_Tree_node@U?$pair@$$CBV?$basic_string@DU?$char_traits@D@std@@V?$allocator@D@2@@std@@H@std@@PAX@2@XZ 10027e20 f   mfdpage_fms.obj
 0001:00026e20       __ehhandler$?_Buyheadnode@?$_Tree_alloc@$0A@U?$_Tree_base_types@U?$pair@$$CBHV?$basic_string@DU?$char_traits@D@std@@V?$allocator@D@2@@std@@@std@@V?$allocator@U?$pair@$$CBHV?$basic_string@DU?$char_traits@D@std@@V?$allocator@D@2@@std@@@std@@@2@@std@@@std@@QAEPAU?$_Tree_node@U?$pair@$$CBHV?$basic_string@DU?$char_traits@D@std@@V?$allocator@D@2@@std@@@std@@PAX@2@XZ 10027e20 f   mfdpage_fms.obj
 0001:00026e20       __ehhandler$?_Buyheadnode@?$_Tree_alloc@$0A@U?$_Tree_base_types@U?$pair@$$CBV?$basic_string@DU?$char_traits@D@std@@V?$allocator@D@2@@std@@D@std@@V?$allocator@U?$pair@$$CBV?$basic_string@DU?$char_traits@D@std@@V?$allocator@D@2@@std@@D@std@@@2@@std@@@std@@QAEPAU?$_Tree_node@U?$pair@$$CBV?$basic_string@DU?$char_traits@D@std@@V?$allocator@D@2@@std@@D@std@@PAX@2@XZ 10027e20 f   mfdpage_fms.obj
 0001:00026e40       __ehhandler$?_Buynode0@?$_Tree_buy@U?$pair@$$CBHM@std@@V?$allocator@U?$pair@$$CBHM@std@@@2@@std@@QAEPAU?$_Tree_node@U?$pair@$$CBHM@std@@PAX@2@XZ 10027e40 f   mfdpage_fms.obj
 0001:00026e40       __ehhandler$?_Buynode0@?$_Tree_buy@U?$pair@$$CBHPAVfms_fp_item_t@@@std@@V?$allocator@U?$pair@$$CBHPAVfms_fp_item_t@@@std@@@2@@std@@QAEPAU?$_Tree_node@U?$pair@$$CBHPAVfms_fp_item_t@@@std@@PAX@2@XZ 10027e40 f   mfdpage_fms.obj
 0001:00026e40       __ehhandler$?_Buynode0@?$_Tree_buy@U?$pair@$$CBHPAVobject_t@@@std@@V?$allocator@U?$pair@$$CBHPAVobject_t@@@std@@@2@@std@@QAEPAU?$_Tree_node@U?$pair@$$CBHPAVobject_t@@@std@@PAX@2@XZ 10027e40 f   mfdpage_fms.obj
 0001:00026e60       __ehhandler$?do_refresh@mfdpage_led_t@@UAEXPAVobject_t@@@Z 10027e60 f   mfdpage_led.obj
 0001:00026e88       __ehhandler$?set_led_by_name@mfdpage_led_t@@AAAXHPBDH0ZZ 10027e88 f   mfdpage_led.obj
 0001:00026eb0       __ehhandler$??$_Buynode@V?$basic_string@DU?$char_traits@D@std@@V?$allocator@D@2@@std@@V12@@?$_Tree_buy@U?$pair@$$CBV?$basic_string@DU?$char_traits@D@std@@V?$allocator@D@2@@std@@V12@@std@@V?$allocator@U?$pair@$$CBV?$basic_string@DU?$char_traits@D@std@@V?$allocator@D@2@@std@@V12@@std@@@2@@std@@QAEPAU?$_Tree_node@U?$pair@$$CBV?$basic_string@DU?$char_traits@D@std@@V?$allocator@D@2@@std@@V12@@std@@PAX@1@$$QAV?$basic_string@DU?$char_traits@D@std@@V?$allocator@D@2@@1@0@Z 10027eb0 f   mfdpage_led.obj
 0001:00026ed0       __ehhandler$??$_Copy_nodes@U?$integral_constant@_N$00@std@@@?$_Tree@V?$_Tmap_traits@V?$basic_string@DU?$char_traits@D@std@@V?$allocator@D@2@@std@@V12@U?$less@V?$basic_string@DU?$char_traits@D@std@@V?$allocator@D@2@@std@@@2@V?$allocator@U?$pair@$$CBV?$basic_string@DU?$char_traits@D@std@@V?$allocator@D@2@@std@@V12@@std@@@2@$0A@@std@@@std@@IAEPAU?$_Tree_node@U?$pair@$$CBV?$basic_string@DU?$char_traits@D@std@@V?$allocator@D@2@@std@@V12@@std@@PAX@1@PAU21@0U?$integral_constant@_N$00@1@@Z 10027ed0 f   mfdpage_led.obj
 0001:00026ef0       __ehhandler$?_Buyheadnode@?$_Tree_alloc@$0A@U?$_Tree_base_types@U?$pair@$$CBV?$basic_string@DU?$char_traits@D@std@@V?$allocator@D@2@@std@@V12@@std@@V?$allocator@U?$pair@$$CBV?$basic_string@DU?$char_traits@D@std@@V?$allocator@D@2@@std@@V12@@std@@@2@@std@@@std@@QAEPAU?$_Tree_node@U?$pair@$$CBV?$basic_string@DU?$char_traits@D@std@@V?$allocator@D@2@@std@@V12@@std@@PAX@2@XZ 10027ef0 f   mfdpage_led.obj
 0001:00026f10       __ehhandler$??$_Buynode@ABUpiecewise_construct_t@std@@V?$tuple@ABH@2@V?$tuple@$$$V@2@@?$_Tree_buy@U?$pair@$$CBHM@std@@V?$allocator@U?$pair@$$CBHM@std@@@2@@std@@QAEPAU?$_Tree_node@U?$pair@$$CBHM@std@@PAX@1@ABUpiecewise_construct_t@1@$$QAV?$tuple@ABH@1@$$QAV?$tuple@$$$V@1@@Z 10027f10 f   fms_config.obj
 0001:00026f30       __ehhandler$??$_Buynode@ABUpiecewise_construct_t@std@@V?$tuple@ABV?$basic_string@DU?$char_traits@D@std@@V?$allocator@D@2@@std@@@2@V?$tuple@$$$V@2@@?$_Tree_buy@U?$pair@$$CBV?$basic_string@DU?$char_traits@D@std@@V?$allocator@D@2@@std@@PAVfms_config_item_t@@@std@@V?$allocator@U?$pair@$$CBV?$basic_string@DU?$char_traits@D@std@@V?$allocator@D@2@@std@@PAVfms_config_item_t@@@std@@@2@@std@@QAEPAU?$_Tree_node@U?$pair@$$CBV?$basic_string@DU?$char_traits@D@std@@V?$allocator@D@2@@std@@PAVfms_config_item_t@@@std@@PAX@1@ABUpiecewise_construct_t@1@$$QAV?$tuple@ABV?$basic_string@DU?$char_traits@D@std@@V?$allocator@D@2@@std@@@1@$$QAV?$tuple@$$$V@1@@Z 10027f30 f   fms_fp.obj
 0001:00026f30       __ehhandler$??$_Buynode@ABUpiecewise_construct_t@std@@V?$tuple@ABV?$basic_string@DU?$char_traits@D@std@@V?$allocator@D@2@@std@@@2@V?$tuple@$$$V@2@@?$_Tree_buy@U?$pair@$$CBV?$basic_string@DU?$char_traits@D@std@@V?$allocator@D@2@@std@@PAVfms_fp_item_t@@@std@@V?$allocator@U?$pair@$$CBV?$basic_string@DU?$char_traits@D@std@@V?$allocator@D@2@@std@@PAVfms_fp_item_t@@@std@@@2@@std@@QAEPAU?$_Tree_node@U?$pair@$$CBV?$basic_string@DU?$char_traits@D@std@@V?$allocator@D@2@@std@@PAVfms_fp_item_t@@@std@@PAX@1@ABUpiecewise_construct_t@1@$$QAV?$tuple@ABV?$basic_string@DU?$char_traits@D@std@@V?$allocator@D@2@@std@@@1@$$QAV?$tuple@$$$V@1@@Z 10027f30 f   fms_fp.obj
 0001:00026f50       __ehhandler$??$_Insert_nohint@AAU?$pair@$$CBV?$basic_string@DU?$char_traits@D@std@@V?$allocator@D@2@@std@@M@std@@PAU?$_Tree_node@U?$pair@$$CBV?$basic_string@DU?$char_traits@D@std@@V?$allocator@D@2@@std@@M@std@@PAX@2@@?$_Tree@V?$_Tmap_traits@V?$basic_string@DU?$char_traits@D@std@@V?$allocator@D@2@@std@@MU?$less@V?$basic_string@DU?$char_traits@D@std@@V?$allocator@D@2@@std@@@2@V?$allocator@U?$pair@$$CBV?$basic_string@DU?$char_traits@D@std@@V?$allocator@D@2@@std@@M@std@@@2@$0A@@std@@@std@@IAE?AU?$pair@V?$_Tree_iterator@V?$_Tree_val@U?$_Tree_simple_types@U?$pair@$$CBV?$basic_string@DU?$char_traits@D@std@@V?$allocator@D@2@@std@@M@std@@@std@@@std@@@std@@_N@1@_NAAU?$pair@$$CBV?$basic_string@DU?$char_traits@D@std@@V?$allocator@D@2@@std@@M@1@PAU?$_Tree_node@U?$pair@$$CBV?$basic_string@DU?$char_traits@D@std@@V?$allocator@D@2@@std@@M@std@@PAX@1@@Z 10027f50 f   fms_fp.obj
 0001:00026f50       __ehhandler$??$_Insert_nohint@AAU?$pair@$$CBV?$basic_string@DU?$char_traits@D@std@@V?$allocator@D@2@@std@@PAVfms_fp_item_t@@@std@@PAU?$_Tree_node@U?$pair@$$CBV?$basic_string@DU?$char_traits@D@std@@V?$allocator@D@2@@std@@PAVfms_fp_item_t@@@std@@PAX@2@@?$_Tree@V?$_Tmap_traits@V?$basic_string@DU?$char_traits@D@std@@V?$allocator@D@2@@std@@PAVfms_fp_item_t@@U?$less@V?$basic_string@DU?$char_traits@D@std@@V?$allocator@D@2@@std@@@2@V?$allocator@U?$pair@$$CBV?$basic_string@DU?$char_traits@D@std@@V?$allocator@D@2@@std@@PAVfms_fp_item_t@@@std@@@2@$0A@@std@@@std@@IAE?AU?$pair@V?$_Tree_iterator@V?$_Tree_val@U?$_Tree_simple_types@U?$pair@$$CBV?$basic_string@DU?$char_traits@D@std@@V?$allocator@D@2@@std@@PAVfms_fp_item_t@@@std@@@std@@@std@@@std@@_N@1@_NAAU?$pair@$$CBV?$basic_string@DU?$char_traits@D@std@@V?$allocator@D@2@@std@@PAVfms_fp_item_t@@@1@PAU?$_Tree_node@U?$pair@$$CBV?$basic_string@DU?$char_traits@D@std@@V?$allocator@D@2@@std@@PAVfms_fp_item_t@@@std@@PAX@1@@Z 10027f50 f   fms_fp.obj
 0001:00026f50       __ehhandler$??$_Insert_nohint@AAU?$pair@$$CBV?$basic_string@DU?$char_traits@D@std@@V?$allocator@D@2@@std@@D@std@@PAU?$_Tree_node@U?$pair@$$CBV?$basic_string@DU?$char_traits@D@std@@V?$allocator@D@2@@std@@D@std@@PAX@2@@?$_Tree@V?$_Tmap_traits@V?$basic_string@DU?$char_traits@D@std@@V?$allocator@D@2@@std@@DU?$less@V?$basic_string@DU?$char_traits@D@std@@V?$allocator@D@2@@std@@@2@V?$allocator@U?$pair@$$CBV?$basic_string@DU?$char_traits@D@std@@V?$allocator@D@2@@std@@D@std@@@2@$0A@@std@@@std@@IAE?AU?$pair@V?$_Tree_iterator@V?$_Tree_val@U?$_Tree_simple_types@U?$pair@$$CBV?$basic_string@DU?$char_traits@D@std@@V?$allocator@D@2@@std@@D@std@@@std@@@std@@@std@@_N@1@_NAAU?$pair@$$CBV?$basic_string@DU?$char_traits@D@std@@V?$allocator@D@2@@std@@D@1@PAU?$_Tree_node@U?$pair@$$CBV?$basic_string@DU?$char_traits@D@std@@V?$allocator@D@2@@std@@D@std@@PAX@1@@Z 10027f50 f   fms_fp.obj
 0001:00026f50       __ehhandler$??$_Insert_nohint@AAU?$pair@$$CBV?$basic_string@DU?$char_traits@D@std@@V?$allocator@D@2@@std@@PAVfms_config_item_t@@@std@@PAU?$_Tree_node@U?$pair@$$CBV?$basic_string@DU?$char_traits@D@std@@V?$allocator@D@2@@std@@PAVfms_config_item_t@@@std@@PAX@2@@?$_Tree@V?$_Tmap_traits@V?$basic_string@DU?$char_traits@D@std@@V?$allocator@D@2@@std@@PAVfms_config_item_t@@U?$less@V?$basic_string@DU?$char_traits@D@std@@V?$allocator@D@2@@std@@@2@V?$allocator@U?$pair@$$CBV?$basic_string@DU?$char_traits@D@std@@V?$allocator@D@2@@std@@PAVfms_config_item_t@@@std@@@2@$0A@@std@@@std@@IAE?AU?$pair@V?$_Tree_iterator@V?$_Tree_val@U?$_Tree_simple_types@U?$pair@$$CBV?$basic_string@DU?$char_traits@D@std@@V?$allocator@D@2@@std@@PAVfms_config_item_t@@@std@@@std@@@std@@@std@@_N@1@_NAAU?$pair@$$CBV?$basic_string@DU?$char_traits@D@std@@V?$allocator@D@2@@std@@PAVfms_config_item_t@@@1@PAU?$_Tree_node@U?$pair@$$CBV?$basic_string@DU?$char_traits@D@std@@V?$allocator@D@2@@std@@PAVfms_config_item_t@@@std@@PAX@1@@Z 10027f50 f   fms_fp.obj
 0001:00026f50       __ehhandler$??$_Insert_nohint@AAU?$pair@$$CBV?$basic_string@DU?$char_traits@D@std@@V?$allocator@D@2@@std@@H@std@@PAU?$_Tree_node@U?$pair@$$CBV?$basic_string@DU?$char_traits@D@std@@V?$allocator@D@2@@std@@H@std@@PAX@2@@?$_Tree@V?$_Tmap_traits@V?$basic_string@DU?$char_traits@D@std@@V?$allocator@D@2@@std@@HU?$less@V?$basic_string@DU?$char_traits@D@std@@V?$allocator@D@2@@std@@@2@V?$allocator@U?$pair@$$CBV?$basic_string@DU?$char_traits@D@std@@V?$allocator@D@2@@std@@H@std@@@2@$0A@@std@@@std@@IAE?AU?$pair@V?$_Tree_iterator@V?$_Tree_val@U?$_Tree_simple_types@U?$pair@$$CBV?$basic_string@DU?$char_traits@D@std@@V?$allocator@D@2@@std@@H@std@@@std@@@std@@@std@@_N@1@_NAAU?$pair@$$CBV?$basic_string@DU?$char_traits@D@std@@V?$allocator@D@2@@std@@H@1@PAU?$_Tree_node@U?$pair@$$CBV?$basic_string@DU?$char_traits@D@std@@V?$allocator@D@2@@std@@H@std@@PAX@1@@Z 10027f50 f   fms_fp.obj
 0001:00026f70       __ehhandler$??$_Buynode@AAU?$pair@$$CBV?$basic_string@DU?$char_traits@D@std@@V?$allocator@D@2@@std@@V12@@std@@@?$_Tree_buy@U?$pair@$$CBV?$basic_string@DU?$char_traits@D@std@@V?$allocator@D@2@@std@@V12@@std@@V?$allocator@U?$pair@$$CBV?$basic_string@DU?$char_traits@D@std@@V?$allocator@D@2@@std@@V12@@std@@@2@@std@@QAEPAU?$_Tree_node@U?$pair@$$CBV?$basic_string@DU?$char_traits@D@std@@V?$allocator@D@2@@std@@V12@@std@@PAX@1@AAU?$pair@$$CBV?$basic_string@DU?$char_traits@D@std@@V?$allocator@D@2@@std@@V12@@1@@Z 10027f70 f   config.obj
 0001:00026f90       __ehhandler$??$_Copy_nodes@U?$integral_constant@_N$0A@@std@@@?$_Tree@V?$_Tmap_traits@V?$basic_string@DU?$char_traits@D@std@@V?$allocator@D@2@@std@@V12@U?$less@V?$basic_string@DU?$char_traits@D@std@@V?$allocator@D@2@@std@@@2@V?$allocator@U?$pair@$$CBV?$basic_string@DU?$char_traits@D@std@@V?$allocator@D@2@@std@@V12@@std@@@2@$0A@@std@@@std@@IAEPAU?$_Tree_node@U?$pair@$$CBV?$basic_string@DU?$char_traits@D@std@@V?$allocator@D@2@@std@@V12@@std@@PAX@1@PAU21@0U?$integral_constant@_N$0A@@1@@Z 10027f90 f   config.obj
 0001:00026fb0       __ehhandler$??0?$_Tree@V?$_Tmap_traits@V?$basic_string@DU?$char_traits@D@std@@V?$allocator@D@2@@std@@V12@U?$less@V?$basic_string@DU?$char_traits@D@std@@V?$allocator@D@2@@std@@@2@V?$allocator@U?$pair@$$CBV?$basic_string@DU?$char_traits@D@std@@V?$allocator@D@2@@std@@V12@@std@@@2@$0A@@std@@@std@@QAE@ABV01@ABV?$allocator@U?$pair@$$CBV?$basic_string@DU?$char_traits@D@std@@V?$allocator@D@2@@std@@V12@@std@@@1@@Z 10027fb0 f   config.obj
 0001:00026fd0       ??__F?_Generic_object@?$_Error_objects@H@std@@2V_Generic_error_category@2@A@@YAXXZ 10027fd0 f   main.obj
 0001:00026fe0       ??__F?_Iostream_object@?$_Error_objects@H@std@@2V_Iostream_error_category@2@A@@YAXXZ 10027fe0 f   main.obj
 0001:00026ff0       ??__F?_System_object@?$_Error_objects@H@std@@2V_System_error_category@2@A@@YAXXZ 10027ff0 f   main.obj
 0001:00026fff       ??__F_Fac_tidy_reg@std@@YAXXZ 10027fff f   msvcprt:locale0_implib.obj
 0002:00000308       __Fac_tidy_reg$initializer$ 10029308     msvcprt:locale0_implib.obj
 0002:0000030c       _piecewise_construct$initializer$ 1002930c     main.obj
 0002:00000310       _allocator_arg$initializer$ 10029310     main.obj
 0002:00000314       _ignore$initializer$       10029314     main.obj
 0002:00000318       __Tuple_alloc$initializer$ 10029318     main.obj
 0002:0000031c       ?_Generic_object$initializer$@?$_Error_objects@H@std@@2P6AXXZA 1002931c     main.obj
 0002:00000320       ?_Iostream_object$initializer$@?$_Error_objects@H@std@@2P6AXXZA 10029320     main.obj
 0002:00000324       ?_System_object$initializer$@?$_Error_objects@H@std@@2P6AXXZA 10029324     main.obj
 0002:00000328       ?id$initializer$@?$num_put@DV?$back_insert_iterator@V?$basic_string@DU?$char_traits@D@std@@V?$allocator@D@2@@std@@@std@@@std@@2P6AXXZA 10029328     main.obj
 0002:0000032c       ?id$initializer$@?$num_put@_WV?$back_insert_iterator@V?$basic_string@_WU?$char_traits@_W@std@@V?$allocator@_W@2@@std@@@std@@@std@@2P6AXXZA 1002932c     main.obj
 0002:00000330       _piecewise_construct$initializer$ 10029330     session.obj
 0002:00000334       _allocator_arg$initializer$ 10029334     session.obj
 0002:00000338       _ignore$initializer$       10029338     session.obj
 0002:0000033c       __Tuple_alloc$initializer$ 1002933c     session.obj
 0002:00000340       _piecewise_construct$initializer$ 10029340     tools.obj
 0002:00000344       _allocator_arg$initializer$ 10029344     tools.obj
 0002:00000348       _ignore$initializer$       10029348     tools.obj
 0002:0000034c       __Tuple_alloc$initializer$ 1002934c     tools.obj
 0002:00000350       _piecewise_construct$initializer$ 10029350     data.obj
 0002:00000354       _allocator_arg$initializer$ 10029354     data.obj
 0002:00000358       _ignore$initializer$       10029358     data.obj
 0002:0000035c       __Tuple_alloc$initializer$ 1002935c     data.obj
 0002:00000360       _piecewise_construct$initializer$ 10029360     out.obj
 0002:00000364       _allocator_arg$initializer$ 10029364     out.obj
 0002:00000368       _ignore$initializer$       10029368     out.obj
 0002:0000036c       __Tuple_alloc$initializer$ 1002936c     out.obj
 0002:00000370       _piecewise_construct$initializer$ 10029370     out_saitek.obj
 0002:00000374       _allocator_arg$initializer$ 10029374     out_saitek.obj
 0002:00000378       _ignore$initializer$       10029378     out_saitek.obj
 0002:0000037c       __Tuple_alloc$initializer$ 1002937c     out_saitek.obj
 0002:00000380       _piecewise_construct$initializer$ 10029380     in.obj
 0002:00000384       _allocator_arg$initializer$ 10029384     in.obj
 0002:00000388       _ignore$initializer$       10029388     in.obj
 0002:0000038c       __Tuple_alloc$initializer$ 1002938c     in.obj
 0002:00000390       _piecewise_construct$initializer$ 10029390     mfdpage.obj
 0002:00000394       _allocator_arg$initializer$ 10029394     mfdpage.obj
 0002:00000398       _ignore$initializer$       10029398     mfdpage.obj
 0002:0000039c       __Tuple_alloc$initializer$ 1002939c     mfdpage.obj
 0002:000003a0       _piecewise_construct$initializer$ 100293a0     mfdpage_fms.obj
 0002:000003a4       _allocator_arg$initializer$ 100293a4     mfdpage_fms.obj
 0002:000003a8       _ignore$initializer$       100293a8     mfdpage_fms.obj
 0002:000003ac       __Tuple_alloc$initializer$ 100293ac     mfdpage_fms.obj
 0002:000003b0       _piecewise_construct$initializer$ 100293b0     mfdpage_flight.obj
 0002:000003b4       _allocator_arg$initializer$ 100293b4     mfdpage_flight.obj
 0002:000003b8       _ignore$initializer$       100293b8     mfdpage_flight.obj
 0002:000003bc       __Tuple_alloc$initializer$ 100293bc     mfdpage_flight.obj
 0002:000003c0       _piecewise_construct$initializer$ 100293c0     mfdpage_time.obj
 0002:000003c4       _allocator_arg$initializer$ 100293c4     mfdpage_time.obj
 0002:000003c8       _ignore$initializer$       100293c8     mfdpage_time.obj
 0002:000003cc       __Tuple_alloc$initializer$ 100293cc     mfdpage_time.obj
 0002:000003d0       _piecewise_construct$initializer$ 100293d0     mfdpage_weather.obj
 0002:000003d4       _allocator_arg$initializer$ 100293d4     mfdpage_weather.obj
 0002:000003d8       _ignore$initializer$       100293d8     mfdpage_weather.obj
 0002:000003dc       __Tuple_alloc$initializer$ 100293dc     mfdpage_weather.obj
 0002:000003e0       _piecewise_construct$initializer$ 100293e0     mfdpage_std.obj
 0002:000003e4       _allocator_arg$initializer$ 100293e4     mfdpage_std.obj
 0002:000003e8       _ignore$initializer$       100293e8     mfdpage_std.obj
 0002:000003ec       __Tuple_alloc$initializer$ 100293ec     mfdpage_std.obj
 0002:000003f0       _piecewise_construct$initializer$ 100293f0     mfdpage_led.obj
 0002:000003f4       _allocator_arg$initializer$ 100293f4     mfdpage_led.obj
 0002:000003f8       _ignore$initializer$       100293f8     mfdpage_led.obj
 0002:000003fc       __Tuple_alloc$initializer$ 100293fc     mfdpage_led.obj
 0002:00000400       _piecewise_construct$initializer$ 10029400     fms.obj
 0002:00000404       _allocator_arg$initializer$ 10029404     fms.obj
 0002:00000408       _ignore$initializer$       10029408     fms.obj
 0002:0000040c       __Tuple_alloc$initializer$ 1002940c     fms.obj
 0002:00000410       _piecewise_construct$initializer$ 10029410     fms_config.obj
 0002:00000414       _allocator_arg$initializer$ 10029414     fms_config.obj
 0002:00000418       _ignore$initializer$       10029418     fms_config.obj
 0002:0000041c       __Tuple_alloc$initializer$ 1002941c     fms_config.obj
 0002:00000420       _piecewise_construct$initializer$ 10029420     fms_fuel.obj
 0002:00000424       _allocator_arg$initializer$ 10029424     fms_fuel.obj
 0002:00000428       _ignore$initializer$       10029428     fms_fuel.obj
 0002:0000042c       __Tuple_alloc$initializer$ 1002942c     fms_fuel.obj
 0002:00000430       _piecewise_construct$initializer$ 10029430     fms_fp.obj
 0002:00000434       _allocator_arg$initializer$ 10029434     fms_fp.obj
 0002:00000438       _ignore$initializer$       10029438     fms_fp.obj
 0002:0000043c       __Tuple_alloc$initializer$ 1002943c     fms_fp.obj
 0002:00000440       _piecewise_construct$initializer$ 10029440     fms_utils.obj
 0002:00000444       _allocator_arg$initializer$ 10029444     fms_utils.obj
 0002:00000448       _ignore$initializer$       10029448     fms_utils.obj
 0002:0000044c       __Tuple_alloc$initializer$ 1002944c     fms_utils.obj
 0002:00000450       _piecewise_construct$initializer$ 10029450     config.obj
 0002:00000454       _allocator_arg$initializer$ 10029454     config.obj
 0002:00000458       _ignore$initializer$       10029458     config.obj
 0002:0000045c       __Tuple_alloc$initializer$ 1002945c     config.obj
 0002:00000460       _piecewise_construct$initializer$ 10029460     gui.obj
 0002:00000464       _allocator_arg$initializer$ 10029464     gui.obj
 0002:00000468       _ignore$initializer$       10029468     gui.obj
 0002:0000046c       __Tuple_alloc$initializer$ 1002946c     gui.obj
 0002:00000470       _piecewise_construct$initializer$ 10029470     gui_mfd.obj
 0002:00000474       _allocator_arg$initializer$ 10029474     gui_mfd.obj
 0002:00000478       _ignore$initializer$       10029478     gui_mfd.obj
 0002:0000047c       __Tuple_alloc$initializer$ 1002947c     gui_mfd.obj
 0002:00000480       _piecewise_construct$initializer$ 10029480     gui_fms_option.obj
 0002:00000484       _allocator_arg$initializer$ 10029484     gui_fms_option.obj
 0002:00000488       _ignore$initializer$       10029488     gui_fms_option.obj
 0002:0000048c       __Tuple_alloc$initializer$ 1002948c     gui_fms_option.obj
 0002:00000490       _piecewise_construct$initializer$ 10029490     gui_fms_status.obj
 0002:00000494       _allocator_arg$initializer$ 10029494     gui_fms_status.obj
 0002:00000498       _ignore$initializer$       10029498     gui_fms_status.obj
 0002:0000049c       __Tuple_alloc$initializer$ 1002949c     gui_fms_status.obj
 0002:000004a8       _pcinit                    100294a8     MSVCRT:crtdll.obj
 0002:000004ac       _pinit                     100294ac     MSVCRT:atonexit.obj
 0002:000004b0       _pinit                     100294b0     MSVCRT:cpu_disp.obj
 0002:000004b8       $SG102749                  100294b8     main.obj
 0002:000004c0       $SG102780                  100294c0     main.obj
 0002:000004cc       $SG102781                  100294cc     main.obj
 0002:000004d0       $SG102782                  100294d0     main.obj
 0002:000004e8       $SG102783                  100294e8     main.obj
 0002:0000052c       $SG102784                  1002952c     main.obj
 0002:00000538       $SG102792                  10029538     main.obj
 0002:00000628       $SG121305                  10029628     session.obj
 0002:00000658       $SG121306                  10029658     session.obj
 0002:0000068c       $SG121310                  1002968c     session.obj
 0002:000006b4       $SG121314                  100296b4     session.obj
 0002:000006dc       $SG121318                  100296dc     session.obj
 0002:000006fc       $SG121322                  100296fc     session.obj
 0002:00000718       $SG121333                  10029718     session.obj
 0002:00000734       $SG121346                  10029734     session.obj
 0002:00000748       $SG38456                   10029748     tools.obj
 0002:00000750       $SG38509                   10029750     tools.obj
 0002:00000754       $SG38510                   10029754     tools.obj
 0002:00000778       $SG38519                   10029778     tools.obj
 0002:0000078c       $SG38520                   1002978c     tools.obj
 0002:00000794       $SG38526                   10029794     tools.obj
 0002:0000079c       $SG38528                   1002979c     tools.obj
 0002:000007a8       $SG38530                   100297a8     tools.obj
 0002:000007b4       $SG38532                   100297b4     tools.obj
 0002:000007c0       $SG38534                   100297c0     tools.obj
 0002:000007cc       $SG38536                   100297cc     tools.obj
 0002:000007d4       $SG38537                   100297d4     tools.obj
 0002:000007d8       $SG38548                   100297d8     tools.obj
 0002:000007dc       $SG38549                   100297dc     tools.obj
 0002:00000800       $SG38550                   10029800     tools.obj
 0002:0000080c       $SG38551                   1002980c     tools.obj
 0002:00000824       $SG120035                  10029824     data.obj
 0002:00000850       $SG120044                  10029850     data.obj
 0002:0000087c       $SG120048                  1002987c     data.obj
 0002:000008b8       $SG121151                  100298b8     data.obj
 0002:000008d0       $SG121152                  100298d0     data.obj
 0002:000008e8       $SG120239                  100298e8     data.obj
 0002:00000910       $SG120246                  10029910     data.obj
 0002:00000938       $SG120337                  10029938     data.obj
 0002:0000095c       $SG120422                  1002995c     data.obj
 0002:00000984       $SG120429                  10029984     data.obj
 0002:000009b0       $SG120562                  100299b0     data.obj
 0002:000009dc       $SG120684                  100299dc     data.obj
 0002:000009f4       $SG120687                  100299f4     data.obj
 0002:00000a10       $SG120698                  10029a10     data.obj
 0002:00000b18       $SG105656                  10029b18     out_saitek.obj
 0002:00000b50       $SG105660                  10029b50     out_saitek.obj
 0002:00000b8c       $SG105661                  10029b8c     out_saitek.obj
 0002:00000bbc       $SG105675                  10029bbc     out_saitek.obj
 0002:00000bdc       $SG105676                  10029bdc     out_saitek.obj
 0002:00000c0c       $SG105679                  10029c0c     out_saitek.obj
 0002:00000c3c       $SG105723                  10029c3c     out_saitek.obj
 0002:00000c6c       $SG105736                  10029c6c     out_saitek.obj
 0002:00000c90       $SG105725                  10029c90     out_saitek.obj
 0002:00000cdc       $SG105730                  10029cdc     out_saitek.obj
 0002:00000d0c       $SG105742                  10029d0c     out_saitek.obj
 0002:00000d38       $SG105743                  10029d38     out_saitek.obj
 0002:00000d64       $SG105746                  10029d64     out_saitek.obj
 0002:00000d98       $SG105747                  10029d98     out_saitek.obj
 0002:00000dc4       $SG105756                  10029dc4     out_saitek.obj
 0002:00000e04       $SG105765                  10029e04     out_saitek.obj
 0002:00000e40       $SG105786                  10029e40     out_saitek.obj
 0002:00000e68       $SG105797                  10029e68     out_saitek.obj
 0002:00000e94       $SG105826                  10029e94     out_saitek.obj
 0002:00000ecc       $SG105828                  10029ecc     out_saitek.obj
 0002:00000ef4       $SG105861                  10029ef4     out_saitek.obj
 0002:00000ef8       $SG105869                  10029ef8     out_saitek.obj
 0002:00000efc       $SG105878                  10029efc     out_saitek.obj
 0002:00000f20       $SG105888                  10029f20     out_saitek.obj
 0002:00000f54       $SG105896                  10029f54     out_saitek.obj
 0002:00000f80       $SG105905                  10029f80     out_saitek.obj
 0002:00001030       $SG117033                  1002a030     in.obj
 0002:00001064       $SG117034                  1002a064     in.obj
 0002:00001090       $SG117036                  1002a090     in.obj
 0002:000010dc       $SG117037                  1002a0dc     in.obj
 0002:00001110       $SG117038                  1002a110     in.obj
 0002:00001138       $SG117040                  1002a138     in.obj
 0002:00001184       $SG117041                  1002a184     in.obj
 0002:000011b8       $SG117042                  1002a1b8     in.obj
 0002:000011e0       $SG117044                  1002a1e0     in.obj
 0002:0000122c       $SG117045                  1002a22c     in.obj
 0002:00001260       $SG117046                  1002a260     in.obj
 0002:00001288       $SG117048                  1002a288     in.obj
 0002:000012d4       $SG117218                  1002a2d4     in.obj
 0002:000012fc       $SG117307                  1002a2fc     in.obj
 0002:0000132c       $SG117360                  1002a32c     in.obj
 0002:00001354       $SG117379                  1002a354     in.obj
 0002:00001374       $SG117380                  1002a374     in.obj
 0002:000013a0       $SG117458                  1002a3a0     in.obj
 0002:000013e0       $SG117479                  1002a3e0     in.obj
 0002:00001434       $SG117481                  1002a434     in.obj
 0002:00001460       $SG120959                  1002a460     mfdpage.obj
 0002:00001468       $SG120964                  1002a468     mfdpage.obj
 0002:0000146c       $SG120967                  1002a46c     mfdpage.obj
 0002:00001474       $SG120972                  1002a474     mfdpage.obj
 0002:0000147c       $SG120975                  1002a47c     mfdpage.obj
 0002:00001488       $SG120980                  1002a488     mfdpage.obj
 0002:00001490       $SG120983                  1002a490     mfdpage.obj
 0002:00001498       $SG120988                  1002a498     mfdpage.obj
 0002:0000149c       $SG120990                  1002a49c     mfdpage.obj
 0002:000014c4       $SG120996                  1002a4c4     mfdpage.obj
 0002:000014cc       $SG120997                  1002a4cc     mfdpage.obj
 0002:000014d4       $SG121003                  1002a4d4     mfdpage.obj
 0002:000014d8       $SG121004                  1002a4d8     mfdpage.obj
 0002:000014dc       $SG121010                  1002a4dc     mfdpage.obj
 0002:000014e0       $SG121011                  1002a4e0     mfdpage.obj
 0002:000014ec       $SG121017                  1002a4ec     mfdpage.obj
 0002:000014f0       $SG121018                  1002a4f0     mfdpage.obj
 0002:000014f8       $SG121034                  1002a4f8     mfdpage.obj
 0002:0000150c       $SG123215                  1002a50c     mfdpage.obj
 0002:00001540       $SG123250                  1002a540     mfdpage.obj
 0002:00001548       $SG123251                  1002a548     mfdpage.obj
 0002:0000154c       $SG123258                  1002a54c     mfdpage.obj
 0002:00001578       $SG123261                  1002a578     mfdpage.obj
 0002:000015a4       $SG123304                  1002a5a4     mfdpage.obj
 0002:000015ac       $SG123310                  1002a5ac     mfdpage.obj
 0002:000015b0       $SG123311                  1002a5b0     mfdpage.obj
 0002:000015b8       $SG123312                  1002a5b8     mfdpage.obj
 0002:000015c0       $SG123313                  1002a5c0     mfdpage.obj
 0002:000015c8       $SG123314                  1002a5c8     mfdpage.obj
 0002:000015d0       $SG123315                  1002a5d0     mfdpage.obj
 0002:000015fc       $SG123318                  1002a5fc     mfdpage.obj
 0002:00001604       $SG123319                  1002a604     mfdpage.obj
 0002:0000160c       $SG123323                  1002a60c     mfdpage.obj
 0002:00001610       $SG123324                  1002a610     mfdpage.obj
 0002:00001618       $SG123325                  1002a618     mfdpage.obj
 0002:00001620       $SG122373                  1002a620     mfdpage.obj
 0002:00001624       $SG122395                  1002a624     mfdpage.obj
 0002:0000162c       $SG122417                  1002a62c     mfdpage.obj
 0002:00001634       $SG122439                  1002a634     mfdpage.obj
 0002:00001638       $SG122461                  1002a638     mfdpage.obj
 0002:00001640       $SG122483                  1002a640     mfdpage.obj
 0002:00001644       $SG122506                  1002a644     mfdpage.obj
 0002:00001670       $SG122491                  1002a670     mfdpage.obj
 0002:000016b8       $SG120448                  1002a6b8     mfdpage.obj
 0002:000016e0       $SG120505                  1002a6e0     mfdpage.obj
 0002:000016f4       $SG120507                  1002a6f4     mfdpage.obj
 0002:00001708       $SG120509                  1002a708     mfdpage.obj
 0002:0000171c       $SG120511                  1002a71c     mfdpage.obj
 0002:00001778       $SG117051                  1002a778     mfdpage_fms.obj
 0002:00001783       $SG118398                  1002a783     mfdpage_fms.obj
 0002:00001784       $SG118333                  1002a784     mfdpage_fms.obj
 0002:0000179c       $SG118351                  1002a79c     mfdpage_fms.obj
 0002:000017a8       $SG118353                  1002a7a8     mfdpage_fms.obj
 0002:000017c0       $SG118371                  1002a7c0     mfdpage_fms.obj
 0002:000017d0       $SG118373                  1002a7d0     mfdpage_fms.obj
 0002:000017e8       $SG118391                  1002a7e8     mfdpage_fms.obj
 0002:000017f4       $SG118393                  1002a7f4     mfdpage_fms.obj
 0002:0000180c       $SG118395                  1002a80c     mfdpage_fms.obj
 0002:00001834       $SG118397                  1002a834     mfdpage_fms.obj
 0002:00001850       $SG118420                  1002a850     mfdpage_fms.obj
 0002:0000185c       $SG118439                  1002a85c     mfdpage_fms.obj
 0002:00001874       $SG118459                  1002a874     mfdpage_fms.obj
 0002:0000189c       $SG118481                  1002a89c     mfdpage_fms.obj
 0002:000018b8       $SG118526                  1002a8b8     mfdpage_fms.obj
 0002:000018c4       $SG118538                  1002a8c4     mfdpage_fms.obj
 0002:000018f4       $SG118546                  1002a8f4     mfdpage_fms.obj
 0002:00001914       $SG118549                  1002a914     mfdpage_fms.obj
 0002:00001940       $SG118568                  1002a940     mfdpage_fms.obj
 0002:0000194c       $SG118572                  1002a94c     mfdpage_fms.obj
 0002:00001974       $SG118575                  1002a974     mfdpage_fms.obj
 0002:000019a0       $SG118594                  1002a9a0     mfdpage_fms.obj
 0002:000019b0       $SG118604                  1002a9b0     mfdpage_fms.obj
 0002:000019c4       $SG118605                  1002a9c4     mfdpage_fms.obj
 0002:000019f0       $SG118608                  1002a9f0     mfdpage_fms.obj
 0002:00001a48       $SG118833                  1002aa48     mfdpage_flight.obj
 0002:00001a6c       $SG118835                  1002aa6c     mfdpage_flight.obj
 0002:00001a6e       $SG118425                  1002aa6e     mfdpage_flight.obj
 0002:00001a70       $SG118837                  1002aa70     mfdpage_flight.obj
 0002:00001a74       $SG118839                  1002aa74     mfdpage_flight.obj
 0002:00001a78       $SG118857                  1002aa78     mfdpage_flight.obj
 0002:00001aa0       $SG118861                  1002aaa0     mfdpage_flight.obj
 0002:00001aa4       $SG118863                  1002aaa4     mfdpage_flight.obj
 0002:00001aa8       $SG118883                  1002aaa8     mfdpage_flight.obj
 0002:00001ac4       $SG118885                  1002aac4     mfdpage_flight.obj
 0002:00001ac8       $SG118887                  1002aac8     mfdpage_flight.obj
 0002:00001acc       $SG118889                  1002aacc     mfdpage_flight.obj
 0002:00001ad0       $SG118907                  1002aad0     mfdpage_flight.obj
 0002:00001af4       $SG118925                  1002aaf4     mfdpage_flight.obj
 0002:00001b10       $SG118943                  1002ab10     mfdpage_flight.obj
 0002:00001b38       $SG118961                  1002ab38     mfdpage_flight.obj
 0002:00001b5c       $SG118979                  1002ab5c     mfdpage_flight.obj
 0002:00001b80       $SG118997                  1002ab80     mfdpage_flight.obj
 0002:00001bb0       $SG119033                  1002abb0     mfdpage_flight.obj
 0002:00001bd8       $SG119034                  1002abd8     mfdpage_flight.obj
 0002:00001c00       $SG119052                  1002ac00     mfdpage_flight.obj
 0002:00001c1c       $SG119054                  1002ac1c     mfdpage_flight.obj
 0002:00001c44       $SG119064                  1002ac44     mfdpage_flight.obj
 0002:00001c48       $SG117043                  1002ac48     mfdpage_flight.obj
 0002:00001c58       $SG118325                  1002ac58     mfdpage_flight.obj
 0002:00001c88       $SG118327                  1002ac88     mfdpage_flight.obj
 0002:00001ca4       $SG118329                  1002aca4     mfdpage_flight.obj
 0002:00001cc8       $SG118331                  1002acc8     mfdpage_flight.obj
 0002:00001ce4       $SG118333                  1002ace4     mfdpage_flight.obj
 0002:00001d0c       $SG118335                  1002ad0c     mfdpage_flight.obj
 0002:00001d34       $SG118337                  1002ad34     mfdpage_flight.obj
 0002:00001d60       $SG118339                  1002ad60     mfdpage_flight.obj
 0002:00001d84       $SG118341                  1002ad84     mfdpage_flight.obj
 0002:00001dac       $SG118360                  1002adac     mfdpage_flight.obj
 0002:00001db8       $SG118342                  1002adb8     mfdpage_flight.obj
 0002:00001e08       $SG118362                  1002ae08     mfdpage_flight.obj
 0002:00001e38       $SG118364                  1002ae38     mfdpage_flight.obj
 0002:00001e60       $SG118366                  1002ae60     mfdpage_flight.obj
 0002:00001e88       $SG118368                  1002ae88     mfdpage_flight.obj
 0002:00001ea4       $SG118370                  1002aea4     mfdpage_flight.obj
 0002:00001ec0       $SG118372                  1002aec0     mfdpage_flight.obj
 0002:00001ee4       $SG118374                  1002aee4     mfdpage_flight.obj
 0002:00001f14       $SG118376                  1002af14     mfdpage_flight.obj
 0002:00001f40       $SG118378                  1002af40     mfdpage_flight.obj
 0002:00001f74       $SG118380                  1002af74     mfdpage_flight.obj
 0002:00001fa4       $SG118399                  1002afa4     mfdpage_flight.obj
 0002:00001fb0       $SG118381                  1002afb0     mfdpage_flight.obj
 0002:00002004       $SG118401                  1002b004     mfdpage_flight.obj
 0002:00002034       $SG118403                  1002b034     mfdpage_flight.obj
 0002:00002050       $SG118405                  1002b050     mfdpage_flight.obj
 0002:0000206c       $SG118407                  1002b06c     mfdpage_flight.obj
 0002:00002090       $SG118409                  1002b090     mfdpage_flight.obj
 0002:000020b4       $SG118411                  1002b0b4     mfdpage_flight.obj
 0002:000020d0       $SG118413                  1002b0d0     mfdpage_flight.obj
 0002:000020f8       $SG118415                  1002b0f8     mfdpage_flight.obj
 0002:00002120       $SG118417                  1002b120     mfdpage_flight.obj
 0002:0000214c       $SG118419                  1002b14c     mfdpage_flight.obj
 0002:00002170       $SG118421                  1002b170     mfdpage_flight.obj
 0002:00002194       $SG118423                  1002b194     mfdpage_flight.obj
 0002:000021b8       $SG118424                  1002b1b8     mfdpage_flight.obj
 0002:00002244       $SG118284                  1002b244     mfdpage_time.obj
 0002:0000225b       $SG118285                  1002b25b     mfdpage_time.obj
 0002:0000225c       $SG118333                  1002b25c     mfdpage_time.obj
 0002:00002273       $SG118372                  1002b273     mfdpage_time.obj
 0002:00002274       $SG118363                  1002b274     mfdpage_time.obj
 0002:0000227c       $SG118365                  1002b27c     mfdpage_time.obj
 0002:00002284       $SG118367                  1002b284     mfdpage_time.obj
 0002:0000228c       $SG118369                  1002b28c     mfdpage_time.obj
 0002:00002294       $SG118371                  1002b294     mfdpage_time.obj
 0002:000022b0       $SG118816                  1002b2b0     mfdpage_weather.obj
 0002:000022c7       $SG118424                  1002b2c7     mfdpage_weather.obj
 0002:000022c8       $SG118818                  1002b2c8     mfdpage_weather.obj
 0002:000022d0       $SG118820                  1002b2d0     mfdpage_weather.obj
 0002:000022d8       $SG118822                  1002b2d8     mfdpage_weather.obj
 0002:000022e0       $SG118824                  1002b2e0     mfdpage_weather.obj
 0002:000022e8       $SG118826                  1002b2e8     mfdpage_weather.obj
 0002:000022f0       $SG118828                  1002b2f0     mfdpage_weather.obj
 0002:000022f8       $SG118848                  1002b2f8     mfdpage_weather.obj
 0002:0000231c       $SG118866                  1002b31c     mfdpage_weather.obj
 0002:00002338       $SG118868                  1002b338     mfdpage_weather.obj
 0002:0000233c       $SG118870                  1002b33c     mfdpage_weather.obj
 0002:00002340       $SG118872                  1002b340     mfdpage_weather.obj
 0002:00002344       $SG118890                  1002b344     mfdpage_weather.obj
 0002:00002360       $SG118893                  1002b360     mfdpage_weather.obj
 0002:00002380       $SG118894                  1002b380     mfdpage_weather.obj
 0002:000023a0       $SG118895                  1002b3a0     mfdpage_weather.obj
 0002:000023c0       $SG118903                  1002b3c0     mfdpage_weather.obj
 0002:000023c4       $SG117042                  1002b3c4     mfdpage_weather.obj
 0002:000023d4       $SG118324                  1002b3d4     mfdpage_weather.obj
 0002:000023f8       $SG118326                  1002b3f8     mfdpage_weather.obj
 0002:0000241c       $SG118328                  1002b41c     mfdpage_weather.obj
 0002:0000243c       $SG118330                  1002b43c     mfdpage_weather.obj
 0002:00002458       $SG118332                  1002b458     mfdpage_weather.obj
 0002:0000247c       $SG118334                  1002b47c     mfdpage_weather.obj
 0002:000024a0       $SG118336                  1002b4a0     mfdpage_weather.obj
 0002:000024c0       $SG118338                  1002b4c0     mfdpage_weather.obj
 0002:000024dc       $SG118340                  1002b4dc     mfdpage_weather.obj
 0002:00002500       $SG118342                  1002b500     mfdpage_weather.obj
 0002:00002524       $SG118344                  1002b524     mfdpage_weather.obj
 0002:00002544       $SG118346                  1002b544     mfdpage_weather.obj
 0002:00002560       $SG118347                  1002b560     mfdpage_weather.obj
 0002:000025cc       $SG118365                  1002b5cc     mfdpage_weather.obj
 0002:000025dc       $SG118367                  1002b5dc     mfdpage_weather.obj
 0002:000025fc       $SG118369                  1002b5fc     mfdpage_weather.obj
 0002:0000261c       $SG118371                  1002b61c     mfdpage_weather.obj
 0002:00002638       $SG118373                  1002b638     mfdpage_weather.obj
 0002:00002658       $SG118375                  1002b658     mfdpage_weather.obj
 0002:00002678       $SG118377                  1002b678     mfdpage_weather.obj
 0002:00002694       $SG118379                  1002b694     mfdpage_weather.obj
 0002:000026b4       $SG118381                  1002b6b4     mfdpage_weather.obj
 0002:000026d4       $SG118383                  1002b6d4     mfdpage_weather.obj
 0002:000026f0       $SG118384                  1002b6f0     mfdpage_weather.obj
 0002:00002738       $SG118402                  1002b738     mfdpage_weather.obj
 0002:0000274c       $SG118404                  1002b74c     mfdpage_weather.obj
 0002:00002770       $SG118406                  1002b770     mfdpage_weather.obj
 0002:00002790       $SG118408                  1002b790     mfdpage_weather.obj
 0002:000027b4       $SG118410                  1002b7b4     mfdpage_weather.obj
 0002:000027d8       $SG118412                  1002b7d8     mfdpage_weather.obj
 0002:000027f8       $SG118414                  1002b7f8     mfdpage_weather.obj
 0002:0000282c       $SG118416                  1002b82c     mfdpage_weather.obj
 0002:0000285c       $SG118418                  1002b85c     mfdpage_weather.obj
 0002:00002880       $SG118420                  1002b880     mfdpage_weather.obj
 0002:0000289c       $SG118422                  1002b89c     mfdpage_weather.obj
 0002:000028b8       $SG118423                  1002b8b8     mfdpage_weather.obj
 0002:0000294c       $SG118808                  1002b94c     mfdpage_std.obj
 0002:0000295b       $SG118434                  1002b95b     mfdpage_std.obj
 0002:0000295c       $SG118891                  1002b95c     mfdpage_std.obj
 0002:0000296c       $SG118898                  1002b96c     mfdpage_std.obj
 0002:00002970       $SG117042                  1002b970     mfdpage_std.obj
 0002:00002980       $SG118324                  1002b980     mfdpage_std.obj
 0002:000029a0       $SG118326                  1002b9a0     mfdpage_std.obj
 0002:000029c0       $SG118328                  1002b9c0     mfdpage_std.obj
 0002:000029e8       $SG118330                  1002b9e8     mfdpage_std.obj
 0002:00002a10       $SG118331                  1002ba10     mfdpage_std.obj
 0002:00002a48       $SG118349                  1002ba48     mfdpage_std.obj
 0002:00002a58       $SG118351                  1002ba58     mfdpage_std.obj
 0002:00002a78       $SG118353                  1002ba78     mfdpage_std.obj
 0002:00002a98       $SG118355                  1002ba98     mfdpage_std.obj
 0002:00002ac0       $SG118357                  1002bac0     mfdpage_std.obj
 0002:00002ae8       $SG118358                  1002bae8     mfdpage_std.obj
 0002:00002b20       $SG118376                  1002bb20     mfdpage_std.obj
 0002:00002b30       $SG118378                  1002bb30     mfdpage_std.obj
 0002:00002b50       $SG118380                  1002bb50     mfdpage_std.obj
 0002:00002b70       $SG118382                  1002bb70     mfdpage_std.obj
 0002:00002b98       $SG118384                  1002bb98     mfdpage_std.obj
 0002:00002bc0       $SG118385                  1002bbc0     mfdpage_std.obj
 0002:00002bfc       $SG118403                  1002bbfc     mfdpage_std.obj
 0002:00002c0c       $SG118405                  1002bc0c     mfdpage_std.obj
 0002:00002c2c       $SG118407                  1002bc2c     mfdpage_std.obj
 0002:00002c5c       $SG118409                  1002bc5c     mfdpage_std.obj
 0002:00002c78       $SG118411                  1002bc78     mfdpage_std.obj
 0002:00002ca0       $SG118412                  1002bca0     mfdpage_std.obj
 0002:00002ccc       $SG118430                  1002bccc     mfdpage_std.obj
 0002:00002cd4       $SG118432                  1002bcd4     mfdpage_std.obj
 0002:00002cec       $SG118433                  1002bcec     mfdpage_std.obj
 0002:00002d20       $SG118460                  1002bd20     mfdpage_std.obj
 0002:00002d28       $SG118479                  1002bd28     mfdpage_std.obj
 0002:00002d50       $SG120832                  1002bd50     mfdpage_led.obj
 0002:00002d53       $SG120081                  1002bd53     mfdpage_led.obj
 0002:00002d54       $SG120851                  1002bd54     mfdpage_led.obj
 0002:00002d58       $SG120853                  1002bd58     mfdpage_led.obj
 0002:00002d76       $SG120301                  1002bd76     mfdpage_led.obj
 0002:00002d78       $SG119850                  1002bd78     mfdpage_led.obj
 0002:00002d98       $SG119852                  1002bd98     mfdpage_led.obj
 0002:00002dc0       $SG119896                  1002bdc0     mfdpage_led.obj
 0002:00002dd0       $SG119915                  1002bdd0     mfdpage_led.obj
 0002:00002de0       $SG119934                  1002bde0     mfdpage_led.obj
 0002:00002de8       $SG119953                  1002bde8     mfdpage_led.obj
 0002:00002df0       $SG119955                  1002bdf0     mfdpage_led.obj
 0002:00002e18       $SG119957                  1002be18     mfdpage_led.obj
 0002:00002e48       $SG119976                  1002be48     mfdpage_led.obj
 0002:00002e54       $SG119978                  1002be54     mfdpage_led.obj
 0002:00002e7c       $SG119980                  1002be7c     mfdpage_led.obj
 0002:00002eb4       $SG119999                  1002beb4     mfdpage_led.obj
 0002:00002ebc       $SG120001                  1002bebc     mfdpage_led.obj
 0002:00002edc       $SG120003                  1002bedc     mfdpage_led.obj
 0002:00002f00       $SG120005                  1002bf00     mfdpage_led.obj
 0002:00002f24       $SG120007                  1002bf24     mfdpage_led.obj
 0002:00002f44       $SG120075                  1002bf44     mfdpage_led.obj
 0002:00002f58       $SG120076                  1002bf58     mfdpage_led.obj
 0002:00002f6c       $SG120077                  1002bf6c     mfdpage_led.obj
 0002:00002f80       $SG120078                  1002bf80     mfdpage_led.obj
 0002:00002f94       $SG120104                  1002bf94     mfdpage_led.obj
 0002:00002fbc       $SG120161                  1002bfbc     mfdpage_led.obj
 0002:00002fc8       $SG120080                  1002bfc8     mfdpage_led.obj
 0002:0000300c       $SG120124                  1002c00c     mfdpage_led.obj
 0002:0000303c       $SG120127                  1002c03c     mfdpage_led.obj
 0002:00003044       $SG120132                  1002c044     mfdpage_led.obj
 0002:0000304c       $SG120135                  1002c04c     mfdpage_led.obj
 0002:00003054       $SG120137                  1002c054     mfdpage_led.obj
 0002:0000305c       $SG120156                  1002c05c     mfdpage_led.obj
 0002:00003084       $SG120163                  1002c084     mfdpage_led.obj
 0002:00003098       $SG120182                  1002c098     mfdpage_led.obj
 0002:000030d0       $SG120187                  1002c0d0     mfdpage_led.obj
 0002:000030dc       $SG120190                  1002c0dc     mfdpage_led.obj
 0002:000030e4       $SG120192                  1002c0e4     mfdpage_led.obj
 0002:000030f8       $SG120260                  1002c0f8     mfdpage_led.obj
 0002:00003118       $SG120261                  1002c118     mfdpage_led.obj
 0002:0000313c       $SG120262                  1002c13c     mfdpage_led.obj
 0002:00003160       $SG120263                  1002c160     mfdpage_led.obj
 0002:00003180       $SG120267                  1002c180     mfdpage_led.obj
 0002:00003188       $SG120268                  1002c188     mfdpage_led.obj
 0002:00003190       $SG120275                  1002c190     mfdpage_led.obj
 0002:000031bc       $SG120451                  1002c1bc     mfdpage_led.obj
 0002:000031c0       $SG120453                  1002c1c0     mfdpage_led.obj
 0002:000031f4       $SG120459                  1002c1f4     mfdpage_led.obj
 0002:00003230       $SG120475                  1002c230     mfdpage_led.obj
 0002:00003234       $SG120482                  1002c234     mfdpage_led.obj
 0002:00003238       $SG120488                  1002c238     mfdpage_led.obj
 0002:00003280       $SG120493                  1002c280     mfdpage_led.obj
 0002:000032ac       $SG120512                  1002c2ac     mfdpage_led.obj
 0002:000032b0       $SG120531                  1002c2b0     mfdpage_led.obj
 0002:000032b4       $SG120550                  1002c2b4     mfdpage_led.obj
 0002:000032b8       $SG120569                  1002c2b8     mfdpage_led.obj
 0002:000032bc       $SG120605                  1002c2bc     mfdpage_led.obj
 0002:000032c0       $SG120606                  1002c2c0     mfdpage_led.obj
 0002:000032c4       $SG118565                  1002c2c4     mfdpage_led.obj
 0002:000032f0       $SG118567                  1002c2f0     mfdpage_led.obj
 0002:000032f8       $SG120642                  1002c2f8     mfdpage_led.obj
 0002:000032fc       $SG120643                  1002c2fc     mfdpage_led.obj
 0002:00003300       $SG120679                  1002c300     mfdpage_led.obj
 0002:00003304       $SG120680                  1002c304     mfdpage_led.obj
 0002:00003308       $SG120699                  1002c308     mfdpage_led.obj
 0002:0000330c       $SG120718                  1002c30c     mfdpage_led.obj
 0002:00003310       $SG120737                  1002c310     mfdpage_led.obj
 0002:00003314       $SG120756                  1002c314     mfdpage_led.obj
 0002:00003318       $SG120758                  1002c318     mfdpage_led.obj
 0002:00003334       $SG120776                  1002c334     mfdpage_led.obj
 0002:00003338       $SG120795                  1002c338     mfdpage_led.obj
 0002:00003340       $SG120831                  1002c340     mfdpage_led.obj
 0002:00003360       $SG111727                  1002c360     fms.obj
 0002:00003377       $SG111751                  1002c377     fms.obj
 0002:00003378       $SG111737                  1002c378     fms.obj
 0002:00003382       $SG111954                  1002c382     fms.obj
 0002:00003383       $SG112002                  1002c383     fms.obj
 0002:00003384       $SG111741                  1002c384     fms.obj
 0002:00003399       $SG112043                  1002c399     fms.obj
 0002:0000339a       $SG112080                  1002c39a     fms.obj
 0002:0000339b       $SG112121                  1002c39b     fms.obj
 0002:0000339c       $SG111749                  1002c39c     fms.obj
 0002:000033c0       $SG111753                  1002c3c0     fms.obj
 0002:000033d8       $SG111757                  1002c3d8     fms.obj
 0002:000033de       $SG112137                  1002c3de     fms.obj
 0002:000033df       $SG112139                  1002c3df     fms.obj
 0002:000033e0       $SG111764                  1002c3e0     fms.obj
 0002:0000340c       $SG111770                  1002c40c     fms.obj
 0002:00003434       $SG111776                  1002c434     fms.obj
 0002:0000345c       $SG111782                  1002c45c     fms.obj
 0002:00003480       $SG111788                  1002c480     fms.obj
 0002:000034b4       $SG111790                  1002c4b4     fms.obj
 0002:000034f4       $SG111796                  1002c4f4     fms.obj
 0002:00003528       $SG111798                  1002c528     fms.obj
 0002:00003568       $SG111807                  1002c568     fms.obj
 0002:000035b8       $SG111817                  1002c5b8     fms.obj
 0002:000035f0       $SG111818                  1002c5f0     fms.obj
 0002:00003610       $SG111870                  1002c610     fms.obj
 0002:0000361c       $SG111873                  1002c61c     fms.obj
 0002:00003650       $SG111874                  1002c650     fms.obj
 0002:0000366c       $SG111880                  1002c66c     fms.obj
 0002:00003698       $SG111896                  1002c698     fms.obj
 0002:000036b4       $SG111913                  1002c6b4     fms.obj
 0002:000036d4       $SG111946                  1002c6d4     fms.obj
 0002:000036e0       $SG111952                  1002c6e0     fms.obj
 0002:00003700       $SG111962                  1002c700     fms.obj
 0002:000037b4       $SG111966                  1002c7b4     fms.obj
 0002:000037bc       $SG111991                  1002c7bc     fms.obj
 0002:000037c8       $SG111997                  1002c7c8     fms.obj
 0002:000037d0       $SG112000                  1002c7d0     fms.obj
 0002:0000380c       $SG112012                  1002c80c     fms.obj
 0002:00003818       $SG112008                  1002c818     fms.obj
 0002:0000385c       $SG112036                  1002c85c     fms.obj
 0002:00003864       $SG112039                  1002c864     fms.obj
 0002:0000386c       $SG112041                  1002c86c     fms.obj
 0002:000038a8       $SG112048                  1002c8a8     fms.obj
 0002:000038f4       $SG112052                  1002c8f4     fms.obj
 0002:000038fc       $SG112075                  1002c8fc     fms.obj
 0002:00003904       $SG112078                  1002c904     fms.obj
 0002:00003924       $SG112082                  1002c924     fms.obj
 0002:0000393c       $SG112086                  1002c93c     fms.obj
 0002:00003944       $SG112108                  1002c944     fms.obj
 0002:0000394c       $SG112119                  1002c94c     fms.obj
 0002:00003968       $SG112123                  1002c968     fms.obj
 0002:00003988       $SG112127                  1002c988     fms.obj
 0002:00003990       $SG112135                  1002c990     fms.obj
 0002:000039fc       $SG112143                  1002c9fc     fms.obj
 0002:00003a28       $SG112151                  1002ca28     fms.obj
 0002:00003ab4       $SG112156                  1002cab4     fms.obj
 0002:00003abc       $SG112161                  1002cabc     fms.obj
 0002:00003ae0       $SG42053                   1002cae0     fms_config.obj
 0002:00003aec       $SG42054                   1002caec     fms_config.obj
 0002:00003af8       $SG42057                   1002caf8     fms_config.obj
 0002:00003b04       $SG42058                   1002cb04     fms_config.obj
 0002:00003b10       $SG42061                   1002cb10     fms_config.obj
 0002:00003b1c       $SG42062                   1002cb1c     fms_config.obj
 0002:00003b28       $SG42065                   1002cb28     fms_config.obj
 0002:00003b38       $SG42066                   1002cb38     fms_config.obj
 0002:00003b48       $SG42069                   1002cb48     fms_config.obj
 0002:00003b5c       $SG42070                   1002cb5c     fms_config.obj
 0002:00003b70       $SG42073                   1002cb70     fms_config.obj
 0002:00003b84       $SG42074                   1002cb84     fms_config.obj
 0002:00003b98       $SG42077                   1002cb98     fms_config.obj
 0002:00003ba0       $SG42078                   1002cba0     fms_config.obj
 0002:00003ba8       $SG42082                   1002cba8     fms_config.obj
 0002:00003bbc       $SG42083                   1002cbbc     fms_config.obj
 0002:00003bd0       $SG42086                   1002cbd0     fms_config.obj
 0002:00003be0       $SG42087                   1002cbe0     fms_config.obj
 0002:00003bf0       $SG42092                   1002cbf0     fms_config.obj
 0002:00003c04       $SG42093                   1002cc04     fms_config.obj
 0002:00003c10       $SG42094                   1002cc10     fms_config.obj
 0002:00003c20       $SG42095                   1002cc20     fms_config.obj
 0002:00003c7c       $SG42102                   1002cc7c     fms_config.obj
 0002:00003c8c       $SG42104                   1002cc8c     fms_config.obj
 0002:00003ca0       $SG42106                   1002cca0     fms_config.obj
 0002:00003cb0       $SG42108                   1002ccb0     fms_config.obj
 0002:00003cc4       $SG42111                   1002ccc4     fms_config.obj
 0002:00003cd8       $SG42112                   1002ccd8     fms_config.obj
 0002:00003cec       $SG42115                   1002ccec     fms_config.obj
 0002:00003d00       $SG42116                   1002cd00     fms_config.obj
 0002:00003d14       $SG42120                   1002cd14     fms_config.obj
 0002:00003d28       $SG42121                   1002cd28     fms_config.obj
 0002:00003d38       $SG42122                   1002cd38     fms_config.obj
 0002:00003d4c       $SG42126                   1002cd4c     fms_config.obj
 0002:00003d60       $SG42127                   1002cd60     fms_config.obj
 0002:00003d70       $SG42128                   1002cd70     fms_config.obj
 0002:00003d84       $SG42133                   1002cd84     fms_config.obj
 0002:00003da4       $SG42135                   1002cda4     fms_config.obj
 0002:00003dcc       $SG42318                   1002cdcc     fms_config.obj
 0002:00003dfc       $SG42326                   1002cdfc     fms_config.obj
 0002:00003e28       $SG42595                   1002ce28     fms_config.obj
 0002:00003e58       $SG42602                   1002ce58     fms_config.obj
 0002:00003ea8       $SG42660                   1002cea8     fms_config.obj
 0002:00003edc       $SG42667                   1002cedc     fms_config.obj
 0002:00003ee8       $SG42670                   1002cee8     fms_config.obj
 0002:00003ef4       $SG42671                   1002cef4     fms_config.obj
 0002:00003f04       $SG42674                   1002cf04     fms_config.obj
 0002:00003f14       $SG42675                   1002cf14     fms_config.obj
 0002:00003f28       $SG42678                   1002cf28     fms_config.obj
 0002:00003f34       $SG42679                   1002cf34     fms_config.obj
 0002:00003f44       $SG42682                   1002cf44     fms_config.obj
 0002:00003f54       $SG42683                   1002cf54     fms_config.obj
 0002:00003f68       $SG42686                   1002cf68     fms_config.obj
 0002:00003f78       $SG42687                   1002cf78     fms_config.obj
 0002:00003f84       $SG42688                   1002cf84     fms_config.obj
 0002:00003fc0       $SG42691                   1002cfc0     fms_config.obj
 0002:00003fd0       $SG42692                   1002cfd0     fms_config.obj
 0002:00003fdc       $SG42693                   1002cfdc     fms_config.obj
 0002:00004018       $SG42702                   1002d018     fms_config.obj
 0002:00004050       $SG42756                   1002d050     fms_config.obj
 0002:00004080       $SG42759                   1002d080     fms_config.obj
 0002:000040e8       $SG42760                   1002d0e8     fms_config.obj
 0002:00004118       $SG108280                  1002d118     fms_fuel.obj
 0002:0000413c       $SG108282                  1002d13c     fms_fuel.obj
 0002:00004168       $SG108288                  1002d168     fms_fuel.obj
 0002:00004188       $SG108290                  1002d188     fms_fuel.obj
 0002:000041bc       $SG108296                  1002d1bc     fms_fuel.obj
 0002:000041e0       $SG108298                  1002d1e0     fms_fuel.obj
 0002:00004208       $SG108311                  1002d208     fms_fuel.obj
 0002:00004250       $SG108321                  1002d250     fms_fuel.obj
 0002:00004260       $SG108322                  1002d260     fms_fuel.obj
 0002:00004274       $SG108326                  1002d274     fms_fuel.obj
 0002:00004280       $SG108327                  1002d280     fms_fuel.obj
 0002:00004290       $SG108328                  1002d290     fms_fuel.obj
 0002:000042a4       $SG108332                  1002d2a4     fms_fuel.obj
 0002:000042b8       $SG108333                  1002d2b8     fms_fuel.obj
 0002:000042c8       $SG108334                  1002d2c8     fms_fuel.obj
 0002:000042d8       $SG108335                  1002d2d8     fms_fuel.obj
 0002:00004330       $SG112656                  1002d330     fms_fp.obj
 0002:0000433d       $SG111494                  1002d33d     fms_fp.obj
 0002:00004340       $SG112743                  1002d340     fms_fp.obj
 0002:00004348       $SG112752                  1002d348     fms_fp.obj
 0002:00004350       $SG112754                  1002d350     fms_fp.obj
 0002:00004358       $SG112756                  1002d358     fms_fp.obj
 0002:00004360       $SG112758                  1002d360     fms_fp.obj
 0002:00004368       $SG112760                  1002d368     fms_fp.obj
 0002:00004370       $SG112762                  1002d370     fms_fp.obj
 0002:00004378       $SG112764                  1002d378     fms_fp.obj
 0002:00004384       $SG112766                  1002d384     fms_fp.obj
 0002:0000438c       $SG112768                  1002d38c     fms_fp.obj
 0002:00004398       $SG112770                  1002d398     fms_fp.obj
 0002:000043a0       $SG112772                  1002d3a0     fms_fp.obj
 0002:000043ac       $SG112773                  1002d3ac     fms_fp.obj
 0002:000043b4       $SG112783                  1002d3b4     fms_fp.obj
 0002:000043e0       $SG111817                  1002d3e0     fms_fp.obj
 0002:00004438       $SG111835                  1002d438     fms_fp.obj
 0002:00004444       $SG111838                  1002d444     fms_fp.obj
 0002:00004458       $SG111841                  1002d458     fms_fp.obj
 0002:0000446c       $SG111842                  1002d46c     fms_fp.obj
 0002:00004478       $SG111845                  1002d478     fms_fp.obj
 0002:0000448c       $SG111846                  1002d48c     fms_fp.obj
 0002:00004498       $SG111849                  1002d498     fms_fp.obj
 0002:000044a8       $SG111850                  1002d4a8     fms_fp.obj
 0002:000044d4       $SG111856                  1002d4d4     fms_fp.obj
 0002:000044e8       $SG111857                  1002d4e8     fms_fp.obj
 0002:00004558       $SG111859                  1002d558     fms_fp.obj
 0002:00004568       $SG111869                  1002d568     fms_fp.obj
 0002:00004590       $SG111879                  1002d590     fms_fp.obj
 0002:000045dc       $SG111903                  1002d5dc     fms_fp.obj
 0002:000045e0       $SG111922                  1002d5e0     fms_fp.obj
 0002:000045e4       $SG111941                  1002d5e4     fms_fp.obj
 0002:000045e8       $SG111960                  1002d5e8     fms_fp.obj
 0002:000045ec       $SG111979                  1002d5ec     fms_fp.obj
 0002:000045f0       $SG111998                  1002d5f0     fms_fp.obj
 0002:000045f4       $SG112017                  1002d5f4     fms_fp.obj
 0002:000045f8       $SG112036                  1002d5f8     fms_fp.obj
 0002:000045fc       $SG112055                  1002d5fc     fms_fp.obj
 0002:00004600       $SG112057                  1002d600     fms_fp.obj
 0002:00004604       $SG112109                  1002d604     fms_fp.obj
 0002:00004618       $SG112065                  1002d618     fms_fp.obj
 0002:00004670       $SG112073                  1002d670     fms_fp.obj
 0002:00004680       $SG112074                  1002d680     fms_fp.obj
 0002:00004688       $SG112079                  1002d688     fms_fp.obj
 0002:00004698       $SG112080                  1002d698     fms_fp.obj
 0002:000046a0       $SG112082                  1002d6a0     fms_fp.obj
 0002:000046a8       $SG112083                  1002d6a8     fms_fp.obj
 0002:000046d8       $SG112107                  1002d6d8     fms_fp.obj
 0002:000046e0       $SG112111                  1002d6e0     fms_fp.obj
 0002:000046f4       $SG112130                  1002d6f4     fms_fp.obj
 0002:000046fc       $SG112132                  1002d6fc     fms_fp.obj
 0002:00004708       $SG112150                  1002d708     fms_fp.obj
 0002:00004710       $SG112153                  1002d710     fms_fp.obj
 0002:0000471c       $SG112157                  1002d71c     fms_fp.obj
 0002:0000472c       $SG112158                  1002d72c     fms_fp.obj
 0002:00004738       $SG112159                  1002d738     fms_fp.obj
 0002:00004774       $SG112162                  1002d774     fms_fp.obj
 0002:00004780       $SG112181                  1002d780     fms_fp.obj
 0002:00004788       $SG112199                  1002d788     fms_fp.obj
 0002:00004790       $SG112201                  1002d790     fms_fp.obj
 0002:000047a4       $SG112205                  1002d7a4     fms_fp.obj
 0002:000047b4       $SG112207                  1002d7b4     fms_fp.obj
 0002:000047c4       $SG112208                  1002d7c4     fms_fp.obj
 0002:000047d8       $SG112226                  1002d7d8     fms_fp.obj
 0002:000047e0       $SG112230                  1002d7e0     fms_fp.obj
 0002:000047f0       $SG112231                  1002d7f0     fms_fp.obj
 0002:000047fc       $SG112235                  1002d7fc     fms_fp.obj
 0002:00004808       $SG112236                  1002d808     fms_fp.obj
 0002:0000481c       $SG112237                  1002d81c     fms_fp.obj
 0002:00004858       $SG112256                  1002d858     fms_fp.obj
 0002:00004860       $SG112259                  1002d860     fms_fp.obj
 0002:0000486c       $SG112263                  1002d86c     fms_fp.obj
 0002:00004878       $SG112264                  1002d878     fms_fp.obj
 0002:0000488c       $SG112269                  1002d88c     fms_fp.obj
 0002:0000489c       $SG112270                  1002d89c     fms_fp.obj
 0002:000048ac       $SG112271                  1002d8ac     fms_fp.obj
 0002:000048b8       $SG112272                  1002d8b8     fms_fp.obj
 0002:00004914       $SG112274                  1002d914     fms_fp.obj
 0002:00004928       $SG112276                  1002d928     fms_fp.obj
 0002:0000493c       $SG112279                  1002d93c     fms_fp.obj
 0002:00004950       $SG112277                  1002d950     fms_fp.obj
 0002:000049b0       $SG112281                  1002d9b0     fms_fp.obj
 0002:000049d8       $SG112283                  1002d9d8     fms_fp.obj
 0002:00004a00       $SG112289                  1002da00     fms_fp.obj
 0002:00004a04       $SG112290                  1002da04     fms_fp.obj
 0002:00004a24       $SG112291                  1002da24     fms_fp.obj
 0002:00004a64       $SG112293                  1002da64     fms_fp.obj
 0002:00004a8c       $SG112294                  1002da8c     fms_fp.obj
 0002:00004aa0       $SG112296                  1002daa0     fms_fp.obj
 0002:00004aa8       $SG111424                  1002daa8     fms_fp.obj
 0002:00004ab4       $SG111425                  1002dab4     fms_fp.obj
 0002:00004ac0       $SG111427                  1002dac0     fms_fp.obj
 0002:00004ad0       $SG111428                  1002dad0     fms_fp.obj
 0002:00004af8       $SG111432                  1002daf8     fms_fp.obj
 0002:00004b04       $SG112457                  1002db04     fms_fp.obj
 0002:00004b10       $SG111434                  1002db10     fms_fp.obj
 0002:00004b20       $SG112459                  1002db20     fms_fp.obj
 0002:00004b2c       $SG111435                  1002db2c     fms_fp.obj
 0002:00004b54       $SG112462                  1002db54     fms_fp.obj
 0002:00004b60       $SG111438                  1002db60     fms_fp.obj
 0002:00004b94       $SG112464                  1002db94     fms_fp.obj
 0002:00004ba0       $SG112466                  1002dba0     fms_fp.obj
 0002:00004ba8       $SG112469                  1002dba8     fms_fp.obj
 0002:00004bc4       $SG112474                  1002dbc4     fms_fp.obj
 0002:00004be8       $SG112517                  1002dbe8     fms_fp.obj
 0002:00004c24       $SG111495                  1002dc24     fms_fp.obj
 0002:00004c40       $SG111497                  1002dc40     fms_fp.obj
 0002:00004c50       $SG112599                  1002dc50     fms_fp.obj
 0002:00004c84       $SG36729                   1002dc84     fms_utils.obj
 0002:00004c8c       $SG36739                   1002dc8c     fms_utils.obj
 0002:00004c94       $SG36746                   1002dc94     fms_utils.obj
 0002:00004ca0       $SG36791                   1002dca0     fms_utils.obj
 0002:00004ca4       $SG36793                   1002dca4     fms_utils.obj
 0002:00004cb0       $SG36795                   1002dcb0     fms_utils.obj
 0002:00004cbc       $SG36839                   1002dcbc     fms_utils.obj
 0002:00004cc0       $SG36840                   1002dcc0     fms_utils.obj
 0002:00004cc4       $SG36850                   1002dcc4     fms_utils.obj
 0002:00004cc8       $SG36852                   1002dcc8     fms_utils.obj
 0002:00004cd0       $SG36855                   1002dcd0     fms_utils.obj
 0002:00004cd8       $SG36857                   1002dcd8     fms_utils.obj
 0002:00004d10       $SG105473                  1002dd10     config.obj
 0002:00004d1a       $SG105315                  1002dd1a     config.obj
 0002:00004d1c       $SG105475                  1002dd1c     config.obj
 0002:00004d28       $SG105477                  1002dd28     config.obj
 0002:00004d34       $SG105479                  1002dd34     config.obj
 0002:00004d3c       $SG105480                  1002dd3c     config.obj
 0002:00004d40       $SG104942                  1002dd40     config.obj
 0002:00004d68       $SG104955                  1002dd68     config.obj
 0002:00004d8c       $SG105051                  1002dd8c     config.obj
 0002:00004d94       $SG105052                  1002dd94     config.obj
 0002:00004dd4       $SG105054                  1002ddd4     config.obj
 0002:00004df4       $SG105073                  1002ddf4     config.obj
 0002:00004e1c       $SG105308                  1002de1c     config.obj
 0002:00004e20       $SG105311                  1002de20     config.obj
 0002:00004e24       $SG105316                  1002de24     config.obj
 0002:00004e28       $SG105317                  1002de28     config.obj
 0002:00004e2c       $SG105324                  1002de2c     config.obj
 0002:00004e6c       $SG105326                  1002de6c     config.obj
 0002:00004e98       $SG105371                  1002de98     config.obj
 0002:00004ed8       $SG105373                  1002ded8     config.obj
 0002:00004ee4       $SG105375                  1002dee4     config.obj
 0002:00004ef0       $SG105377                  1002def0     config.obj
 0002:00004f04       $SG105399                  1002df04     config.obj
 0002:00004f0c       $SG105452                  1002df0c     config.obj
 0002:00004f10       $SG105453                  1002df10     config.obj
 0002:00004f34       $SG105462                  1002df34     config.obj
 0002:00004f48       $SG105463                  1002df48     config.obj
 0002:00004f50       $SG105469                  1002df50     config.obj
 0002:00004f58       $SG105471                  1002df58     config.obj
 0002:00004fc0       $SG118094                  1002dfc0     gui.obj
 0002:00004fd4       $SG118095                  1002dfd4     gui.obj
 0002:00004fe8       $SG118097                  1002dfe8     gui.obj
 0002:00004ff8       $SG118099                  1002dff8     gui.obj
 0002:00005018       $SG118101                  1002e018     gui.obj
 0002:00005038       $SG118103                  1002e038     gui.obj
 0002:0000504c       $SG105300                  1002e04c     gui_mfd.obj
 0002:00005061       $SG105319                  1002e061     gui_mfd.obj
 0002:00005064       $SG105318                  1002e064     gui_mfd.obj
 0002:00005070       $SG105323                  1002e070     gui_mfd.obj
 0002:00005078       $SG112245                  1002e078     gui_fms_option.obj
 0002:00005082       $SG112254                  1002e082     gui_fms_option.obj
 0002:00005084       $SG112246                  1002e084     gui_fms_option.obj
 0002:00005088       $SG112248                  1002e088     gui_fms_option.obj
 0002:00005094       $SG112249                  1002e094     gui_fms_option.obj
 0002:00005098       $SG112251                  1002e098     gui_fms_option.obj
 0002:000050ac       $SG112252                  1002e0ac     gui_fms_option.obj
 0002:000050b0       $SG112253                  1002e0b0     gui_fms_option.obj
 0002:000050bc       $SG112255                  1002e0bc     gui_fms_option.obj
 0002:000050d8       $SG112256                  1002e0d8     gui_fms_option.obj
 0002:000050f8       $SG112257                  1002e0f8     gui_fms_option.obj
 0002:0000511c       $SG112258                  1002e11c     gui_fms_option.obj
 0002:00005128       $SG112142                  1002e128     gui_fms_status.obj
 0002:0000513c       $SG112167                  1002e13c     gui_fms_status.obj
 0002:00005147       $SG112168                  1002e147     gui_fms_status.obj
 0002:00005148       $SG112169                  1002e148     gui_fms_status.obj
 0002:00005150       $SG112170                  1002e150     gui_fms_status.obj
 0002:00005158       $SG112171                  1002e158     gui_fms_status.obj
 0002:00005160       $SG112177                  1002e160     gui_fms_status.obj
 0002:0000517b       $SG112291                  1002e17b     gui_fms_status.obj
 0002:0000517c       $SG112179                  1002e17c     gui_fms_status.obj
 0002:000051a6       $SG112293                  1002e1a6     gui_fms_status.obj
 0002:000051a7       $SG112294                  1002e1a7     gui_fms_status.obj
 0002:000051a8       $SG112182                  1002e1a8     gui_fms_status.obj
 0002:000051c3       $SG112298                  1002e1c3     gui_fms_status.obj
 0002:000051c4       $SG112184                  1002e1c4     gui_fms_status.obj
 0002:000051df       $SG112299                  1002e1df     gui_fms_status.obj
 0002:000051e0       $SG112187                  1002e1e0     gui_fms_status.obj
 0002:000051e5       $SG112303                  1002e1e5     gui_fms_status.obj
 0002:000051e6       $SG112304                  1002e1e6     gui_fms_status.obj
 0002:000051e7       $SG112306                  1002e1e7     gui_fms_status.obj
 0002:000051e8       $SG112189                  1002e1e8     gui_fms_status.obj
 0002:000051ed       $SG112307                  1002e1ed     gui_fms_status.obj
 0002:000051ee       $SG112308                  1002e1ee     gui_fms_status.obj
 0002:000051ef       $SG112309                  1002e1ef     gui_fms_status.obj
 0002:000051f0       $SG112191                  1002e1f0     gui_fms_status.obj
 0002:000051f7       $SG112310                  1002e1f7     gui_fms_status.obj
 0002:000051f8       $SG112193                  1002e1f8     gui_fms_status.obj
 0002:00005201       $SG112346                  1002e201     gui_fms_status.obj
 0002:00005202       $SG112348                  1002e202     gui_fms_status.obj
 0002:00005203       $SG112349                  1002e203     gui_fms_status.obj
 0002:00005204       $SG112195                  1002e204     gui_fms_status.obj
 0002:0000520d       $SG112350                  1002e20d     gui_fms_status.obj
 0002:0000520e       $SG112354                  1002e20e     gui_fms_status.obj
 0002:0000520f       $SG112355                  1002e20f     gui_fms_status.obj
 0002:00005210       $SG112197                  1002e210     gui_fms_status.obj
 0002:00005219       $SG112359                  1002e219     gui_fms_status.obj
 0002:0000521a       $SG112361                  1002e21a     gui_fms_status.obj
 0002:0000521b       $SG112362                  1002e21b     gui_fms_status.obj
 0002:0000521c       $SG112199                  1002e21c     gui_fms_status.obj
 0002:00005225       $SG112363                  1002e225     gui_fms_status.obj
 0002:00005226       $SG112364                  1002e226     gui_fms_status.obj
 0002:00005227       $SG112365                  1002e227     gui_fms_status.obj
 0002:00005228       $SG112201                  1002e228     gui_fms_status.obj
 0002:00005231       $SG112369                  1002e231     gui_fms_status.obj
 0002:00005234       $SG112203                  1002e234     gui_fms_status.obj
 0002:00005240       $SG112205                  1002e240     gui_fms_status.obj
 0002:00005248       $SG112207                  1002e248     gui_fms_status.obj
 0002:00005250       $SG112209                  1002e250     gui_fms_status.obj
 0002:00005258       $SG112211                  1002e258     gui_fms_status.obj
 0002:00005260       $SG112213                  1002e260     gui_fms_status.obj
 0002:00005268       $SG112215                  1002e268     gui_fms_status.obj
 0002:00005270       $SG112217                  1002e270     gui_fms_status.obj
 0002:00005278       $SG112289                  1002e278     gui_fms_status.obj
 0002:00005280       $SG112290                  1002e280     gui_fms_status.obj
 0002:00005288       $SG112292                  1002e288     gui_fms_status.obj
 0002:00005298       $SG112296                  1002e298     gui_fms_status.obj
 0002:000052a8       $SG112297                  1002e2a8     gui_fms_status.obj
 0002:000052b0       $SG112302                  1002e2b0     gui_fms_status.obj
 0002:000052bc       $SG112344                  1002e2bc     gui_fms_status.obj
 0002:000052c4       $SG112345                  1002e2c4     gui_fms_status.obj
 0002:000052cc       $SG112347                  1002e2cc     gui_fms_status.obj
 0002:000052d8       $SG112352                  1002e2d8     gui_fms_status.obj
 0002:000052e8       $SG112353                  1002e2e8     gui_fms_status.obj
 0002:000052f0       $SG112358                  1002e2f0     gui_fms_status.obj
 0002:000052fc       $SG112367                  1002e2fc     gui_fms_status.obj
 0002:00005300       $SG112370                  1002e300     gui_fms_status.obj
 0002:00005308       $SG112371                  1002e308     gui_fms_status.obj
 0002:00005310       $SG112372                  1002e310     gui_fms_status.obj
 0002:00005318       $SG112385                  1002e318     gui_fms_status.obj
 0002:0000533c       _GS_ExceptionPointers      1002e33c     MSVCRT:gs_report.obj
 0002:00005f08       __catchsym$?_Copy@?$basic_string@DU?$char_traits@D@std@@V?$allocator@D@2@@std@@QAEXII@Z$5 1002ef08     main.obj
 0002:00005f18       __catchsym$?_Copy@?$basic_string@DU?$char_traits@D@std@@V?$allocator@D@2@@std@@QAEXII@Z$4 1002ef18     main.obj
 0002:00005f28       __unwindtable$?_Copy@?$basic_string@DU?$char_traits@D@std@@V?$allocator@D@2@@std@@QAEXII@Z 1002ef28     main.obj
 0002:00005f48       __ehfuncinfo$?_Copy@?$basic_string@DU?$char_traits@D@std@@V?$allocator@D@2@@std@@QAEXII@Z 1002ef48     main.obj
 0002:00005f6c       __tryblocktable$?_Copy@?$basic_string@DU?$char_traits@D@std@@V?$allocator@D@2@@std@@QAEXII@Z 1002ef6c     main.obj
 0002:00005f94       __catchsym$_XPluginStart$2 1002ef94     main.obj
 0002:00005fa4       __unwindtable$_XPluginStart 1002efa4     main.obj
 0002:00005fb4       __tryblocktable$_XPluginStart 1002efb4     main.obj
 0002:00005fc8       __ehfuncinfo$_XPluginStart 1002efc8     main.obj
 0002:00005fec       __catchsym$?_Buynode0@?$_Tree_buy@U?$pair@$$CBV?$basic_string@DU?$char_traits@D@std@@V?$allocator@D@2@@std@@V12@@std@@V?$allocator@U?$pair@$$CBV?$basic_string@DU?$char_traits@D@std@@V?$allocator@D@2@@std@@V12@@std@@@2@@std@@QAEPAU?$_Tree_node@U?$pair@$$CBV?$basic_string@DU?$char_traits@D@std@@V?$allocator@D@2@@std@@V12@@std@@PAX@2@XZ$2 1002efec     tools.obj
 0002:00005ffc       __unwindtable$?_Buynode0@?$_Tree_buy@U?$pair@$$CBV?$basic_string@DU?$char_traits@D@std@@V?$allocator@D@2@@std@@V12@@std@@V?$allocator@U?$pair@$$CBV?$basic_string@DU?$char_traits@D@std@@V?$allocator@D@2@@std@@V12@@std@@@2@@std@@QAEPAU?$_Tree_node@U?$pair@$$CBV?$basic_string@DU?$char_traits@D@std@@V?$allocator@D@2@@std@@V12@@std@@PAX@2@XZ 1002effc     tools.obj
 0002:0000600c       __tryblocktable$?_Buynode0@?$_Tree_buy@U?$pair@$$CBV?$basic_string@DU?$char_traits@D@std@@V?$allocator@D@2@@std@@V12@@std@@V?$allocator@U?$pair@$$CBV?$basic_string@DU?$char_traits@D@std@@V?$allocator@D@2@@std@@V12@@std@@@2@@std@@QAEPAU?$_Tree_node@U?$pair@$$CBV?$basic_string@DU?$char_traits@D@std@@V?$allocator@D@2@@std@@V12@@std@@PAX@2@XZ 1002f00c     tools.obj
 0002:00006020       __ehfuncinfo$?_Buynode0@?$_Tree_buy@U?$pair@$$CBV?$basic_string@DU?$char_traits@D@std@@V?$allocator@D@2@@std@@V12@@std@@V?$allocator@U?$pair@$$CBV?$basic_string@DU?$char_traits@D@std@@V?$allocator@D@2@@std@@V12@@std@@@2@@std@@QAEPAU?$_Tree_node@U?$pair@$$CBV?$basic_string@DU?$char_traits@D@std@@V?$allocator@D@2@@std@@V12@@std@@PAX@2@XZ 1002f020     tools.obj
 0002:00006044       __catchsym$??$_Buynode@ABUpiecewise_construct_t@std@@V?$tuple@$$QAV?$basic_string@DU?$char_traits@D@std@@V?$allocator@D@2@@std@@@2@V?$tuple@$$$V@2@@?$_Tree_buy@U?$pair@$$CBV?$basic_string@DU?$char_traits@D@std@@V?$allocator@D@2@@std@@V12@@std@@V?$allocator@U?$pair@$$CBV?$basic_string@DU?$char_traits@D@std@@V?$allocator@D@2@@std@@V12@@std@@@2@@std@@QAEPAU?$_Tree_node@U?$pair@$$CBV?$basic_string@DU?$char_traits@D@std@@V?$allocator@D@2@@std@@V12@@std@@PAX@1@ABUpiecewise_construct_t@1@$$QAV?$tuple@$$QAV?$basic_string@DU?$char_traits@D@std@@V?$allocator@D@2@@std@@@1@$$QAV?$tuple@$$$V@1@@Z$2 1002f044     tools.obj
 0002:00006054       __unwindtable$??$_Buynode@ABUpiecewise_construct_t@std@@V?$tuple@$$QAV?$basic_string@DU?$char_traits@D@std@@V?$allocator@D@2@@std@@@2@V?$tuple@$$$V@2@@?$_Tree_buy@U?$pair@$$CBV?$basic_string@DU?$char_traits@D@std@@V?$allocator@D@2@@std@@V12@@std@@V?$allocator@U?$pair@$$CBV?$basic_string@DU?$char_traits@D@std@@V?$allocator@D@2@@std@@V12@@std@@@2@@std@@QAEPAU?$_Tree_node@U?$pair@$$CBV?$basic_string@DU?$char_traits@D@std@@V?$allocator@D@2@@std@@V12@@std@@PAX@1@ABUpiecewise_construct_t@1@$$QAV?$tuple@$$QAV?$basic_string@DU?$char_traits@D@std@@V?$allocator@D@2@@std@@@1@$$QAV?$tuple@$$$V@1@@Z 1002f054     tools.obj
 0002:00006064       __tryblocktable$??$_Buynode@ABUpiecewise_construct_t@std@@V?$tuple@$$QAV?$basic_string@DU?$char_traits@D@std@@V?$allocator@D@2@@std@@@2@V?$tuple@$$$V@2@@?$_Tree_buy@U?$pair@$$CBV?$basic_string@DU?$char_traits@D@std@@V?$allocator@D@2@@std@@V12@@std@@V?$allocator@U?$pair@$$CBV?$basic_string@DU?$char_traits@D@std@@V?$allocator@D@2@@std@@V12@@std@@@2@@std@@QAEPAU?$_Tree_node@U?$pair@$$CBV?$basic_string@DU?$char_traits@D@std@@V?$allocator@D@2@@std@@V12@@std@@PAX@1@ABUpiecewise_construct_t@1@$$QAV?$tuple@$$QAV?$basic_string@DU?$char_traits@D@std@@V?$allocator@D@2@@std@@@1@$$QAV?$tuple@$$$V@1@@Z 1002f064     tools.obj
 0002:00006078       __ehfuncinfo$??$_Buynode@ABUpiecewise_construct_t@std@@V?$tuple@$$QAV?$basic_string@DU?$char_traits@D@std@@V?$allocator@D@2@@std@@@2@V?$tuple@$$$V@2@@?$_Tree_buy@U?$pair@$$CBV?$basic_string@DU?$char_traits@D@std@@V?$allocator@D@2@@std@@V12@@std@@V?$allocator@U?$pair@$$CBV?$basic_string@DU?$char_traits@D@std@@V?$allocator@D@2@@std@@V12@@std@@@2@@std@@QAEPAU?$_Tree_node@U?$pair@$$CBV?$basic_string@DU?$char_traits@D@std@@V?$allocator@D@2@@std@@V12@@std@@PAX@1@ABUpiecewise_construct_t@1@$$QAV?$tuple@$$QAV?$basic_string@DU?$char_traits@D@std@@V?$allocator@D@2@@std@@@1@$$QAV?$tuple@$$$V@1@@Z 1002f078     tools.obj
 0002:0000609c       __catchsym$??$_Insert_hint@AAU?$pair@$$CBV?$basic_string@DU?$char_traits@D@std@@V?$allocator@D@2@@std@@V12@@std@@PAU?$_Tree_node@U?$pair@$$CBV?$basic_string@DU?$char_traits@D@std@@V?$allocator@D@2@@std@@V12@@std@@PAX@2@@?$_Tree@V?$_Tmap_traits@V?$basic_string@DU?$char_traits@D@std@@V?$allocator@D@2@@std@@V12@U?$less@V?$basic_string@DU?$char_traits@D@std@@V?$allocator@D@2@@std@@@2@V?$allocator@U?$pair@$$CBV?$basic_string@DU?$char_traits@D@std@@V?$allocator@D@2@@std@@V12@@std@@@2@$0A@@std@@@std@@IAE?AV?$_Tree_iterator@V?$_Tree_val@U?$_Tree_simple_types@U?$pair@$$CBV?$basic_string@DU?$char_traits@D@std@@V?$allocator@D@2@@std@@V12@@std@@@std@@@std@@@1@V?$_Tree_const_iterator@V?$_Tree_val@U?$_Tree_simple_types@U?$pair@$$CBV?$basic_string@DU?$char_traits@D@std@@V?$allocator@D@2@@std@@V12@@std@@@std@@@std@@@1@AAU?$pair@$$CBV?$basic_string@DU?$char_traits@D@std@@V?$allocator@D@2@@std@@V12@@1@PAU?$_Tree_node@U?$pair@$$CBV?$basic_string@DU?$char_traits@D@std@@V?$allocator@D@2@@std@@V12@@std@@PAX@1@@Z$2 1002f09c     tools.obj
 0002:000060ac       __unwindtable$??$_Insert_hint@AAU?$pair@$$CBV?$basic_string@DU?$char_traits@D@std@@V?$allocator@D@2@@std@@V12@@std@@PAU?$_Tree_node@U?$pair@$$CBV?$basic_string@DU?$char_traits@D@std@@V?$allocator@D@2@@std@@V12@@std@@PAX@2@@?$_Tree@V?$_Tmap_traits@V?$basic_string@DU?$char_traits@D@std@@V?$allocator@D@2@@std@@V12@U?$less@V?$basic_string@DU?$char_traits@D@std@@V?$allocator@D@2@@std@@@2@V?$allocator@U?$pair@$$CBV?$basic_string@DU?$char_traits@D@std@@V?$allocator@D@2@@std@@V12@@std@@@2@$0A@@std@@@std@@IAE?AV?$_Tree_iterator@V?$_Tree_val@U?$_Tree_simple_types@U?$pair@$$CBV?$basic_string@DU?$char_traits@D@std@@V?$allocator@D@2@@std@@V12@@std@@@std@@@std@@@1@V?$_Tree_const_iterator@V?$_Tree_val@U?$_Tree_simple_types@U?$pair@$$CBV?$basic_string@DU?$char_traits@D@std@@V?$allocator@D@2@@std@@V12@@std@@@std@@@std@@@1@AAU?$pair@$$CBV?$basic_string@DU?$char_traits@D@std@@V?$allocator@D@2@@std@@V12@@1@PAU?$_Tree_node@U?$pair@$$CBV?$basic_string@DU?$char_traits@D@std@@V?$allocator@D@2@@std@@V12@@std@@PAX@1@@Z 1002f0ac     tools.obj
 0002:000060bc       __tryblocktable$??$_Insert_hint@AAU?$pair@$$CBV?$basic_string@DU?$char_traits@D@std@@V?$allocator@D@2@@std@@V12@@std@@PAU?$_Tree_node@U?$pair@$$CBV?$basic_string@DU?$char_traits@D@std@@V?$allocator@D@2@@std@@V12@@std@@PAX@2@@?$_Tree@V?$_Tmap_traits@V?$basic_string@DU?$char_traits@D@std@@V?$allocator@D@2@@std@@V12@U?$less@V?$basic_string@DU?$char_traits@D@std@@V?$allocator@D@2@@std@@@2@V?$allocator@U?$pair@$$CBV?$basic_string@DU?$char_traits@D@std@@V?$allocator@D@2@@std@@V12@@std@@@2@$0A@@std@@@std@@IAE?AV?$_Tree_iterator@V?$_Tree_val@U?$_Tree_simple_types@U?$pair@$$CBV?$basic_string@DU?$char_traits@D@std@@V?$allocator@D@2@@std@@V12@@std@@@std@@@std@@@1@V?$_Tree_const_iterator@V?$_Tree_val@U?$_Tree_simple_types@U?$pair@$$CBV?$basic_string@DU?$char_traits@D@std@@V?$allocator@D@2@@std@@V12@@std@@@std@@@std@@@1@AAU?$pair@$$CBV?$basic_string@DU?$char_traits@D@std@@V?$allocator@D@2@@std@@V12@@1@PAU?$_Tree_node@U?$pair@$$CBV?$basic_string@DU?$char_traits@D@std@@V?$allocator@D@2@@std@@V12@@std@@PAX@1@@Z 1002f0bc     tools.obj
 0002:000060d0       __ehfuncinfo$??$_Insert_hint@AAU?$pair@$$CBV?$basic_string@DU?$char_traits@D@std@@V?$allocator@D@2@@std@@V12@@std@@PAU?$_Tree_node@U?$pair@$$CBV?$basic_string@DU?$char_traits@D@std@@V?$allocator@D@2@@std@@V12@@std@@PAX@2@@?$_Tree@V?$_Tmap_traits@V?$basic_string@DU?$char_traits@D@std@@V?$allocator@D@2@@std@@V12@U?$less@V?$basic_string@DU?$char_traits@D@std@@V?$allocator@D@2@@std@@@2@V?$allocator@U?$pair@$$CBV?$basic_string@DU?$char_traits@D@std@@V?$allocator@D@2@@std@@V12@@std@@@2@$0A@@std@@@std@@IAE?AV?$_Tree_iterator@V?$_Tree_val@U?$_Tree_simple_types@U?$pair@$$CBV?$basic_string@DU?$char_traits@D@std@@V?$allocator@D@2@@std@@V12@@std@@@std@@@std@@@1@V?$_Tree_const_iterator@V?$_Tree_val@U?$_Tree_simple_types@U?$pair@$$CBV?$basic_string@DU?$char_traits@D@std@@V?$allocator@D@2@@std@@V12@@std@@@std@@@std@@@1@AAU?$pair@$$CBV?$basic_string@DU?$char_traits@D@std@@V?$allocator@D@2@@std@@V12@@1@PAU?$_Tree_node@U?$pair@$$CBV?$basic_string@DU?$char_traits@D@std@@V?$allocator@D@2@@std@@V12@@std@@PAX@1@@Z 1002f0d0     tools.obj
 0002:000060f4       __catchsym$??$_Insert_nohint@AAU?$pair@$$CBV?$basic_string@DU?$char_traits@D@std@@V?$allocator@D@2@@std@@V12@@std@@PAU?$_Tree_node@U?$pair@$$CBV?$basic_string@DU?$char_traits@D@std@@V?$allocator@D@2@@std@@V12@@std@@PAX@2@@?$_Tree@V?$_Tmap_traits@V?$basic_string@DU?$char_traits@D@std@@V?$allocator@D@2@@std@@V12@U?$less@V?$basic_string@DU?$char_traits@D@std@@V?$allocator@D@2@@std@@@2@V?$allocator@U?$pair@$$CBV?$basic_string@DU?$char_traits@D@std@@V?$allocator@D@2@@std@@V12@@std@@@2@$0A@@std@@@std@@IAE?AU?$pair@V?$_Tree_iterator@V?$_Tree_val@U?$_Tree_simple_types@U?$pair@$$CBV?$basic_string@DU?$char_traits@D@std@@V?$allocator@D@2@@std@@V12@@std@@@std@@@std@@@std@@_N@1@_NAAU?$pair@$$CBV?$basic_string@DU?$char_traits@D@std@@V?$allocator@D@2@@std@@V12@@1@PAU?$_Tree_node@U?$pair@$$CBV?$basic_string@DU?$char_traits@D@std@@V?$allocator@D@2@@std@@V12@@std@@PAX@1@@Z$2 1002f0f4     tools.obj
 0002:00006104       __unwindtable$??$_Insert_nohint@AAU?$pair@$$CBV?$basic_string@DU?$char_traits@D@std@@V?$allocator@D@2@@std@@V12@@std@@PAU?$_Tree_node@U?$pair@$$CBV?$basic_string@DU?$char_traits@D@std@@V?$allocator@D@2@@std@@V12@@std@@PAX@2@@?$_Tree@V?$_Tmap_traits@V?$basic_string@DU?$char_traits@D@std@@V?$allocator@D@2@@std@@V12@U?$less@V?$basic_string@DU?$char_traits@D@std@@V?$allocator@D@2@@std@@@2@V?$allocator@U?$pair@$$CBV?$basic_string@DU?$char_traits@D@std@@V?$allocator@D@2@@std@@V12@@std@@@2@$0A@@std@@@std@@IAE?AU?$pair@V?$_Tree_iterator@V?$_Tree_val@U?$_Tree_simple_types@U?$pair@$$CBV?$basic_string@DU?$char_traits@D@std@@V?$allocator@D@2@@std@@V12@@std@@@std@@@std@@@std@@_N@1@_NAAU?$pair@$$CBV?$basic_string@DU?$char_traits@D@std@@V?$allocator@D@2@@std@@V12@@1@PAU?$_Tree_node@U?$pair@$$CBV?$basic_string@DU?$char_traits@D@std@@V?$allocator@D@2@@std@@V12@@std@@PAX@1@@Z 1002f104     tools.obj
 0002:00006114       __tryblocktable$??$_Insert_nohint@AAU?$pair@$$CBV?$basic_string@DU?$char_traits@D@std@@V?$allocator@D@2@@std@@V12@@std@@PAU?$_Tree_node@U?$pair@$$CBV?$basic_string@DU?$char_traits@D@std@@V?$allocator@D@2@@std@@V12@@std@@PAX@2@@?$_Tree@V?$_Tmap_traits@V?$basic_string@DU?$char_traits@D@std@@V?$allocator@D@2@@std@@V12@U?$less@V?$basic_string@DU?$char_traits@D@std@@V?$allocator@D@2@@std@@@2@V?$allocator@U?$pair@$$CBV?$basic_string@DU?$char_traits@D@std@@V?$allocator@D@2@@std@@V12@@std@@@2@$0A@@std@@@std@@IAE?AU?$pair@V?$_Tree_iterator@V?$_Tree_val@U?$_Tree_simple_types@U?$pair@$$CBV?$basic_string@DU?$char_traits@D@std@@V?$allocator@D@2@@std@@V12@@std@@@std@@@std@@@std@@_N@1@_NAAU?$pair@$$CBV?$basic_string@DU?$char_traits@D@std@@V?$allocator@D@2@@std@@V12@@1@PAU?$_Tree_node@U?$pair@$$CBV?$basic_string@DU?$char_traits@D@std@@V?$allocator@D@2@@std@@V12@@std@@PAX@1@@Z 1002f114     tools.obj
 0002:00006128       __ehfuncinfo$??$_Insert_nohint@AAU?$pair@$$CBV?$basic_string@DU?$char_traits@D@std@@V?$allocator@D@2@@std@@V12@@std@@PAU?$_Tree_node@U?$pair@$$CBV?$basic_string@DU?$char_traits@D@std@@V?$allocator@D@2@@std@@V12@@std@@PAX@2@@?$_Tree@V?$_Tmap_traits@V?$basic_string@DU?$char_traits@D@std@@V?$allocator@D@2@@std@@V12@U?$less@V?$basic_string@DU?$char_traits@D@std@@V?$allocator@D@2@@std@@@2@V?$allocator@U?$pair@$$CBV?$basic_string@DU?$char_traits@D@std@@V?$allocator@D@2@@std@@V12@@std@@@2@$0A@@std@@@std@@IAE?AU?$pair@V?$_Tree_iterator@V?$_Tree_val@U?$_Tree_simple_types@U?$pair@$$CBV?$basic_string@DU?$char_traits@D@std@@V?$allocator@D@2@@std@@V12@@std@@@std@@@std@@@std@@_N@1@_NAAU?$pair@$$CBV?$basic_string@DU?$char_traits@D@std@@V?$allocator@D@2@@std@@V12@@1@PAU?$_Tree_node@U?$pair@$$CBV?$basic_string@DU?$char_traits@D@std@@V?$allocator@D@2@@std@@V12@@std@@PAX@1@@Z 1002f128     tools.obj
 0002:0000614c       __catchsym$?_Buyheadnode@?$_Tree_alloc@$0A@U?$_Tree_base_types@PAVlistener_t@@V?$allocator@PAVlistener_t@@@std@@@std@@@std@@QAEPAU?$_Tree_node@PAVlistener_t@@PAX@2@XZ$2 1002f14c     data.obj
 0002:0000614c       __catchsym$?_Buyheadnode@?$_Tree_alloc@$0A@U?$_Tree_base_types@PAVobject_t@@V?$allocator@PAVobject_t@@@std@@@std@@@std@@QAEPAU?$_Tree_node@PAVobject_t@@PAX@2@XZ$2 1002f14c     data.obj
 0002:0000614c       __catchsym$?_Buyheadnode@?$_Tree_alloc@$0A@U?$_Tree_base_types@PAVmfdpage_t@@V?$allocator@PAVmfdpage_t@@@std@@@std@@@std@@QAEPAU?$_Tree_node@PAVmfdpage_t@@PAX@2@XZ$2 1002f14c     data.obj
 0002:0000615c       __unwindtable$?_Buyheadnode@?$_Tree_alloc@$0A@U?$_Tree_base_types@PAVobject_t@@V?$allocator@PAVobject_t@@@std@@@std@@@std@@QAEPAU?$_Tree_node@PAVobject_t@@PAX@2@XZ 1002f15c     data.obj
 0002:0000615c       __unwindtable$?_Buyheadnode@?$_Tree_alloc@$0A@U?$_Tree_base_types@PAVlistener_t@@V?$allocator@PAVlistener_t@@@std@@@std@@@std@@QAEPAU?$_Tree_node@PAVlistener_t@@PAX@2@XZ 1002f15c     data.obj
 0002:0000615c       __unwindtable$?_Buyheadnode@?$_Tree_alloc@$0A@U?$_Tree_base_types@PAVmfdpage_t@@V?$allocator@PAVmfdpage_t@@@std@@@std@@@std@@QAEPAU?$_Tree_node@PAVmfdpage_t@@PAX@2@XZ 1002f15c     data.obj
 0002:0000616c       __tryblocktable$?_Buyheadnode@?$_Tree_alloc@$0A@U?$_Tree_base_types@PAVmfdpage_t@@V?$allocator@PAVmfdpage_t@@@std@@@std@@@std@@QAEPAU?$_Tree_node@PAVmfdpage_t@@PAX@2@XZ 1002f16c     data.obj
 0002:0000616c       __tryblocktable$?_Buyheadnode@?$_Tree_alloc@$0A@U?$_Tree_base_types@PAVlistener_t@@V?$allocator@PAVlistener_t@@@std@@@std@@@std@@QAEPAU?$_Tree_node@PAVlistener_t@@PAX@2@XZ 1002f16c     data.obj
 0002:0000616c       __tryblocktable$?_Buyheadnode@?$_Tree_alloc@$0A@U?$_Tree_base_types@PAVobject_t@@V?$allocator@PAVobject_t@@@std@@@std@@@std@@QAEPAU?$_Tree_node@PAVobject_t@@PAX@2@XZ 1002f16c     data.obj
 0002:00006180       __ehfuncinfo$?_Buyheadnode@?$_Tree_alloc@$0A@U?$_Tree_base_types@PAVmfdpage_t@@V?$allocator@PAVmfdpage_t@@@std@@@std@@@std@@QAEPAU?$_Tree_node@PAVmfdpage_t@@PAX@2@XZ 1002f180     data.obj
 0002:00006180       __ehfuncinfo$?_Buyheadnode@?$_Tree_alloc@$0A@U?$_Tree_base_types@PAVlistener_t@@V?$allocator@PAVlistener_t@@@std@@@std@@@std@@QAEPAU?$_Tree_node@PAVlistener_t@@PAX@2@XZ 1002f180     data.obj
 0002:00006180       __ehfuncinfo$?_Buyheadnode@?$_Tree_alloc@$0A@U?$_Tree_base_types@PAVobject_t@@V?$allocator@PAVobject_t@@@std@@@std@@@std@@QAEPAU?$_Tree_node@PAVobject_t@@PAX@2@XZ 1002f180     data.obj
 0002:000061a4       __catchsym$??$_Insert_nohint@ABQAVobject_t@@U_Nil@std@@@?$_Tree@V?$_Tset_traits@PAVobject_t@@U?$less@PAVobject_t@@@std@@V?$allocator@PAVobject_t@@@3@$0A@@std@@@std@@IAE?AU?$pair@V?$_Tree_const_iterator@V?$_Tree_val@U?$_Tree_simple_types@PAVobject_t@@@std@@@std@@@std@@_N@1@_NABQAVobject_t@@U_Nil@1@@Z$2 1002f1a4     data.obj
 0002:000061a4       __catchsym$??$_Insert_nohint@ABQAVlistener_t@@U_Nil@std@@@?$_Tree@V?$_Tset_traits@PAVlistener_t@@U?$less@PAVlistener_t@@@std@@V?$allocator@PAVlistener_t@@@3@$0A@@std@@@std@@IAE?AU?$pair@V?$_Tree_const_iterator@V?$_Tree_val@U?$_Tree_simple_types@PAVlistener_t@@@std@@@std@@@std@@_N@1@_NABQAVlistener_t@@U_Nil@1@@Z$2 1002f1a4     data.obj
 0002:000061a4       __catchsym$??$_Insert_nohint@ABQAVmfdpage_t@@U_Nil@std@@@?$_Tree@V?$_Tset_traits@PAVmfdpage_t@@U?$less@PAVmfdpage_t@@@std@@V?$allocator@PAVmfdpage_t@@@3@$0A@@std@@@std@@IAE?AU?$pair@V?$_Tree_const_iterator@V?$_Tree_val@U?$_Tree_simple_types@PAVmfdpage_t@@@std@@@std@@@std@@_N@1@_NABQAVmfdpage_t@@U_Nil@1@@Z$2 1002f1a4     data.obj
 0002:000061b4       __unwindtable$??$_Insert_nohint@ABQAVobject_t@@U_Nil@std@@@?$_Tree@V?$_Tset_traits@PAVobject_t@@U?$less@PAVobject_t@@@std@@V?$allocator@PAVobject_t@@@3@$0A@@std@@@std@@IAE?AU?$pair@V?$_Tree_const_iterator@V?$_Tree_val@U?$_Tree_simple_types@PAVobject_t@@@std@@@std@@@std@@_N@1@_NABQAVobject_t@@U_Nil@1@@Z 1002f1b4     data.obj
 0002:000061b4       __unwindtable$??$_Insert_nohint@ABQAVlistener_t@@U_Nil@std@@@?$_Tree@V?$_Tset_traits@PAVlistener_t@@U?$less@PAVlistener_t@@@std@@V?$allocator@PAVlistener_t@@@3@$0A@@std@@@std@@IAE?AU?$pair@V?$_Tree_const_iterator@V?$_Tree_val@U?$_Tree_simple_types@PAVlistener_t@@@std@@@std@@@std@@_N@1@_NABQAVlistener_t@@U_Nil@1@@Z 1002f1b4     data.obj
 0002:000061b4       __unwindtable$??$_Insert_nohint@ABQAVmfdpage_t@@U_Nil@std@@@?$_Tree@V?$_Tset_traits@PAVmfdpage_t@@U?$less@PAVmfdpage_t@@@std@@V?$allocator@PAVmfdpage_t@@@3@$0A@@std@@@std@@IAE?AU?$pair@V?$_Tree_const_iterator@V?$_Tree_val@U?$_Tree_simple_types@PAVmfdpage_t@@@std@@@std@@@std@@_N@1@_NABQAVmfdpage_t@@U_Nil@1@@Z 1002f1b4     data.obj
 0002:000061c4       __tryblocktable$??$_Insert_nohint@ABQAVmfdpage_t@@U_Nil@std@@@?$_Tree@V?$_Tset_traits@PAVmfdpage_t@@U?$less@PAVmfdpage_t@@@std@@V?$allocator@PAVmfdpage_t@@@3@$0A@@std@@@std@@IAE?AU?$pair@V?$_Tree_const_iterator@V?$_Tree_val@U?$_Tree_simple_types@PAVmfdpage_t@@@std@@@std@@@std@@_N@1@_NABQAVmfdpage_t@@U_Nil@1@@Z 1002f1c4     data.obj
 0002:000061c4       __tryblocktable$??$_Insert_nohint@ABQAVobject_t@@U_Nil@std@@@?$_Tree@V?$_Tset_traits@PAVobject_t@@U?$less@PAVobject_t@@@std@@V?$allocator@PAVobject_t@@@3@$0A@@std@@@std@@IAE?AU?$pair@V?$_Tree_const_iterator@V?$_Tree_val@U?$_Tree_simple_types@PAVobject_t@@@std@@@std@@@std@@_N@1@_NABQAVobject_t@@U_Nil@1@@Z 1002f1c4     data.obj
 0002:000061c4       __tryblocktable$??$_Insert_nohint@ABQAVlistener_t@@U_Nil@std@@@?$_Tree@V?$_Tset_traits@PAVlistener_t@@U?$less@PAVlistener_t@@@std@@V?$allocator@PAVlistener_t@@@3@$0A@@std@@@std@@IAE?AU?$pair@V?$_Tree_const_iterator@V?$_Tree_val@U?$_Tree_simple_types@PAVlistener_t@@@std@@@std@@@std@@_N@1@_NABQAVlistener_t@@U_Nil@1@@Z 1002f1c4     data.obj
 0002:000061d8       __ehfuncinfo$??$_Insert_nohint@ABQAVlistener_t@@U_Nil@std@@@?$_Tree@V?$_Tset_traits@PAVlistener_t@@U?$less@PAVlistener_t@@@std@@V?$allocator@PAVlistener_t@@@3@$0A@@std@@@std@@IAE?AU?$pair@V?$_Tree_const_iterator@V?$_Tree_val@U?$_Tree_simple_types@PAVlistener_t@@@std@@@std@@@std@@_N@1@_NABQAVlistener_t@@U_Nil@1@@Z 1002f1d8     data.obj
 0002:000061d8       __ehfuncinfo$??$_Insert_nohint@ABQAVmfdpage_t@@U_Nil@std@@@?$_Tree@V?$_Tset_traits@PAVmfdpage_t@@U?$less@PAVmfdpage_t@@@std@@V?$allocator@PAVmfdpage_t@@@3@$0A@@std@@@std@@IAE?AU?$pair@V?$_Tree_const_iterator@V?$_Tree_val@U?$_Tree_simple_types@PAVmfdpage_t@@@std@@@std@@@std@@_N@1@_NABQAVmfdpage_t@@U_Nil@1@@Z 1002f1d8     data.obj
 0002:000061d8       __ehfuncinfo$??$_Insert_nohint@ABQAVobject_t@@U_Nil@std@@@?$_Tree@V?$_Tset_traits@PAVobject_t@@U?$less@PAVobject_t@@@std@@V?$allocator@PAVobject_t@@@3@$0A@@std@@@std@@IAE?AU?$pair@V?$_Tree_const_iterator@V?$_Tree_val@U?$_Tree_simple_types@PAVobject_t@@@std@@@std@@@std@@_N@1@_NABQAVobject_t@@U_Nil@1@@Z 1002f1d8     data.obj
 0002:000061fc       __catchsym$??$_Buynode@ABQAVlistener_t@@@?$_Tree_buy@PAVlistener_t@@V?$allocator@PAVlistener_t@@@std@@@std@@QAEPAU?$_Tree_node@PAVlistener_t@@PAX@1@ABQAVlistener_t@@@Z$2 1002f1fc     data.obj
 0002:000061fc       __catchsym$??$_Buynode@ABQAVobject_t@@@?$_Tree_buy@PAVobject_t@@V?$allocator@PAVobject_t@@@std@@@std@@QAEPAU?$_Tree_node@PAVobject_t@@PAX@1@ABQAVobject_t@@@Z$2 1002f1fc     data.obj
 0002:000061fc       __catchsym$??$_Buynode@ABQAVmfdpage_t@@@?$_Tree_buy@PAVmfdpage_t@@V?$allocator@PAVmfdpage_t@@@std@@@std@@QAEPAU?$_Tree_node@PAVmfdpage_t@@PAX@1@ABQAVmfdpage_t@@@Z$2 1002f1fc     data.obj
 0002:0000620c       __unwindtable$??$_Buynode@ABQAVmfdpage_t@@@?$_Tree_buy@PAVmfdpage_t@@V?$allocator@PAVmfdpage_t@@@std@@@std@@QAEPAU?$_Tree_node@PAVmfdpage_t@@PAX@1@ABQAVmfdpage_t@@@Z 1002f20c     data.obj
 0002:0000620c       __unwindtable$??$_Buynode@ABQAVobject_t@@@?$_Tree_buy@PAVobject_t@@V?$allocator@PAVobject_t@@@std@@@std@@QAEPAU?$_Tree_node@PAVobject_t@@PAX@1@ABQAVobject_t@@@Z 1002f20c     data.obj
 0002:0000620c       __unwindtable$??$_Buynode@ABQAVlistener_t@@@?$_Tree_buy@PAVlistener_t@@V?$allocator@PAVlistener_t@@@std@@@std@@QAEPAU?$_Tree_node@PAVlistener_t@@PAX@1@ABQAVlistener_t@@@Z 1002f20c     data.obj
 0002:0000621c       __tryblocktable$??$_Buynode@ABQAVmfdpage_t@@@?$_Tree_buy@PAVmfdpage_t@@V?$allocator@PAVmfdpage_t@@@std@@@std@@QAEPAU?$_Tree_node@PAVmfdpage_t@@PAX@1@ABQAVmfdpage_t@@@Z 1002f21c     data.obj
 0002:0000621c       __tryblocktable$??$_Buynode@ABQAVobject_t@@@?$_Tree_buy@PAVobject_t@@V?$allocator@PAVobject_t@@@std@@@std@@QAEPAU?$_Tree_node@PAVobject_t@@PAX@1@ABQAVobject_t@@@Z 1002f21c     data.obj
 0002:0000621c       __tryblocktable$??$_Buynode@ABQAVlistener_t@@@?$_Tree_buy@PAVlistener_t@@V?$allocator@PAVlistener_t@@@std@@@std@@QAEPAU?$_Tree_node@PAVlistener_t@@PAX@1@ABQAVlistener_t@@@Z 1002f21c     data.obj
 0002:00006230       __ehfuncinfo$??$_Buynode@ABQAVobject_t@@@?$_Tree_buy@PAVobject_t@@V?$allocator@PAVobject_t@@@std@@@std@@QAEPAU?$_Tree_node@PAVobject_t@@PAX@1@ABQAVobject_t@@@Z 1002f230     data.obj
 0002:00006230       __ehfuncinfo$??$_Buynode@ABQAVlistener_t@@@?$_Tree_buy@PAVlistener_t@@V?$allocator@PAVlistener_t@@@std@@@std@@QAEPAU?$_Tree_node@PAVlistener_t@@PAX@1@ABQAVlistener_t@@@Z 1002f230     data.obj
 0002:00006230       __ehfuncinfo$??$_Buynode@ABQAVmfdpage_t@@@?$_Tree_buy@PAVmfdpage_t@@V?$allocator@PAVmfdpage_t@@@std@@@std@@QAEPAU?$_Tree_node@PAVmfdpage_t@@PAX@1@ABQAVmfdpage_t@@@Z 1002f230     data.obj
 0002:000062a8       __catchsym$?_Buynode0@?$_Tree_buy@U?$pair@$$CBHV?$basic_string@DU?$char_traits@D@std@@V?$allocator@D@2@@std@@@std@@V?$allocator@U?$pair@$$CBHV?$basic_string@DU?$char_traits@D@std@@V?$allocator@D@2@@std@@@std@@@2@@std@@QAEPAU?$_Tree_node@U?$pair@$$CBHV?$basic_string@DU?$char_traits@D@std@@V?$allocator@D@2@@std@@@std@@PAX@2@XZ$2 1002f2a8     out_saitek.obj
 0002:000062a8       __catchsym$?_Buynode0@?$_Tree_buy@U?$pair@$$CBV?$basic_string@DU?$char_traits@D@std@@V?$allocator@D@2@@std@@M@std@@V?$allocator@U?$pair@$$CBV?$basic_string@DU?$char_traits@D@std@@V?$allocator@D@2@@std@@M@std@@@2@@std@@QAEPAU?$_Tree_node@U?$pair@$$CBV?$basic_string@DU?$char_traits@D@std@@V?$allocator@D@2@@std@@M@std@@PAX@2@XZ$2 1002f2a8     out_saitek.obj
 0002:000062a8       __catchsym$?_Buynode0@?$_Tree_buy@U?$pair@$$CBV?$basic_string@DU?$char_traits@D@std@@V?$allocator@D@2@@std@@H@std@@V?$allocator@U?$pair@$$CBV?$basic_string@DU?$char_traits@D@std@@V?$allocator@D@2@@std@@H@std@@@2@@std@@QAEPAU?$_Tree_node@U?$pair@$$CBV?$basic_string@DU?$char_traits@D@std@@V?$allocator@D@2@@std@@H@std@@PAX@2@XZ$2 1002f2a8     out_saitek.obj
 0002:000062a8       __catchsym$?_Buynode0@?$_Tree_buy@U?$pair@$$CBV?$basic_string@DU?$char_traits@D@std@@V?$allocator@D@2@@std@@PAVfms_config_item_t@@@std@@V?$allocator@U?$pair@$$CBV?$basic_string@DU?$char_traits@D@std@@V?$allocator@D@2@@std@@PAVfms_config_item_t@@@std@@@2@@std@@QAEPAU?$_Tree_node@U?$pair@$$CBV?$basic_string@DU?$char_traits@D@std@@V?$allocator@D@2@@std@@PAVfms_config_item_t@@@std@@PAX@2@XZ$2 1002f2a8     out_saitek.obj
 0002:000062a8       __catchsym$?_Buynode0@?$_Tree_buy@U?$pair@$$CBV?$basic_string@DU?$char_traits@D@std@@V?$allocator@D@2@@std@@D@std@@V?$allocator@U?$pair@$$CBV?$basic_string@DU?$char_traits@D@std@@V?$allocator@D@2@@std@@D@std@@@2@@std@@QAEPAU?$_Tree_node@U?$pair@$$CBV?$basic_string@DU?$char_traits@D@std@@V?$allocator@D@2@@std@@D@std@@PAX@2@XZ$2 1002f2a8     out_saitek.obj
 0002:000062a8       __catchsym$?_Buynode0@?$_Tree_buy@U?$pair@$$CBV?$basic_string@DU?$char_traits@D@std@@V?$allocator@D@2@@std@@PAVfms_fp_item_t@@@std@@V?$allocator@U?$pair@$$CBV?$basic_string@DU?$char_traits@D@std@@V?$allocator@D@2@@std@@PAVfms_fp_item_t@@@std@@@2@@std@@QAEPAU?$_Tree_node@U?$pair@$$CBV?$basic_string@DU?$char_traits@D@std@@V?$allocator@D@2@@std@@PAVfms_fp_item_t@@@std@@PAX@2@XZ$2 1002f2a8     out_saitek.obj
 0002:000062b8       __unwindtable$?_Buynode0@?$_Tree_buy@U?$pair@$$CBV?$basic_string@DU?$char_traits@D@std@@V?$allocator@D@2@@std@@H@std@@V?$allocator@U?$pair@$$CBV?$basic_string@DU?$char_traits@D@std@@V?$allocator@D@2@@std@@H@std@@@2@@std@@QAEPAU?$_Tree_node@U?$pair@$$CBV?$basic_string@DU?$char_traits@D@std@@V?$allocator@D@2@@std@@H@std@@PAX@2@XZ 1002f2b8     out_saitek.obj
 0002:000062b8       __unwindtable$?_Buynode0@?$_Tree_buy@U?$pair@$$CBV?$basic_string@DU?$char_traits@D@std@@V?$allocator@D@2@@std@@M@std@@V?$allocator@U?$pair@$$CBV?$basic_string@DU?$char_traits@D@std@@V?$allocator@D@2@@std@@M@std@@@2@@std@@QAEPAU?$_Tree_node@U?$pair@$$CBV?$basic_string@DU?$char_traits@D@std@@V?$allocator@D@2@@std@@M@std@@PAX@2@XZ 1002f2b8     out_saitek.obj
 0002:000062b8       __unwindtable$?_Buynode0@?$_Tree_buy@U?$pair@$$CBV?$basic_string@DU?$char_traits@D@std@@V?$allocator@D@2@@std@@D@std@@V?$allocator@U?$pair@$$CBV?$basic_string@DU?$char_traits@D@std@@V?$allocator@D@2@@std@@D@std@@@2@@std@@QAEPAU?$_Tree_node@U?$pair@$$CBV?$basic_string@DU?$char_traits@D@std@@V?$allocator@D@2@@std@@D@std@@PAX@2@XZ 1002f2b8     out_saitek.obj
 0002:000062b8       __unwindtable$?_Buynode0@?$_Tree_buy@U?$pair@$$CBV?$basic_string@DU?$char_traits@D@std@@V?$allocator@D@2@@std@@PAVfms_fp_item_t@@@std@@V?$allocator@U?$pair@$$CBV?$basic_string@DU?$char_traits@D@std@@V?$allocator@D@2@@std@@PAVfms_fp_item_t@@@std@@@2@@std@@QAEPAU?$_Tree_node@U?$pair@$$CBV?$basic_string@DU?$char_traits@D@std@@V?$allocator@D@2@@std@@PAVfms_fp_item_t@@@std@@PAX@2@XZ 1002f2b8     out_saitek.obj
 0002:000062b8       __unwindtable$?_Buynode0@?$_Tree_buy@U?$pair@$$CBHV?$basic_string@DU?$char_traits@D@std@@V?$allocator@D@2@@std@@@std@@V?$allocator@U?$pair@$$CBHV?$basic_string@DU?$char_traits@D@std@@V?$allocator@D@2@@std@@@std@@@2@@std@@QAEPAU?$_Tree_node@U?$pair@$$CBHV?$basic_string@DU?$char_traits@D@std@@V?$allocator@D@2@@std@@@std@@PAX@2@XZ 1002f2b8     out_saitek.obj
 0002:000062b8       __unwindtable$?_Buynode0@?$_Tree_buy@U?$pair@$$CBV?$basic_string@DU?$char_traits@D@std@@V?$allocator@D@2@@std@@PAVfms_config_item_t@@@std@@V?$allocator@U?$pair@$$CBV?$basic_string@DU?$char_traits@D@std@@V?$allocator@D@2@@std@@PAVfms_config_item_t@@@std@@@2@@std@@QAEPAU?$_Tree_node@U?$pair@$$CBV?$basic_string@DU?$char_traits@D@std@@V?$allocator@D@2@@std@@PAVfms_config_item_t@@@std@@PAX@2@XZ 1002f2b8     out_saitek.obj
 0002:000062c8       __tryblocktable$?_Buynode0@?$_Tree_buy@U?$pair@$$CBV?$basic_string@DU?$char_traits@D@std@@V?$allocator@D@2@@std@@M@std@@V?$allocator@U?$pair@$$CBV?$basic_string@DU?$char_traits@D@std@@V?$allocator@D@2@@std@@M@std@@@2@@std@@QAEPAU?$_Tree_node@U?$pair@$$CBV?$basic_string@DU?$char_traits@D@std@@V?$allocator@D@2@@std@@M@std@@PAX@2@XZ 1002f2c8     out_saitek.obj
 0002:000062c8       __tryblocktable$?_Buynode0@?$_Tree_buy@U?$pair@$$CBV?$basic_string@DU?$char_traits@D@std@@V?$allocator@D@2@@std@@D@std@@V?$allocator@U?$pair@$$CBV?$basic_string@DU?$char_traits@D@std@@V?$allocator@D@2@@std@@D@std@@@2@@std@@QAEPAU?$_Tree_node@U?$pair@$$CBV?$basic_string@DU?$char_traits@D@std@@V?$allocator@D@2@@std@@D@std@@PAX@2@XZ 1002f2c8     out_saitek.obj
 0002:000062c8       __tryblocktable$?_Buynode0@?$_Tree_buy@U?$pair@$$CBV?$basic_string@DU?$char_traits@D@std@@V?$allocator@D@2@@std@@PAVfms_fp_item_t@@@std@@V?$allocator@U?$pair@$$CBV?$basic_string@DU?$char_traits@D@std@@V?$allocator@D@2@@std@@PAVfms_fp_item_t@@@std@@@2@@std@@QAEPAU?$_Tree_node@U?$pair@$$CBV?$basic_string@DU?$char_traits@D@std@@V?$allocator@D@2@@std@@PAVfms_fp_item_t@@@std@@PAX@2@XZ 1002f2c8     out_saitek.obj
 0002:000062c8       __tryblocktable$?_Buynode0@?$_Tree_buy@U?$pair@$$CBV?$basic_string@DU?$char_traits@D@std@@V?$allocator@D@2@@std@@PAVfms_config_item_t@@@std@@V?$allocator@U?$pair@$$CBV?$basic_string@DU?$char_traits@D@std@@V?$allocator@D@2@@std@@PAVfms_config_item_t@@@std@@@2@@std@@QAEPAU?$_Tree_node@U?$pair@$$CBV?$basic_string@DU?$char_traits@D@std@@V?$allocator@D@2@@std@@PAVfms_config_item_t@@@std@@PAX@2@XZ 1002f2c8     out_saitek.obj
 0002:000062c8       __tryblocktable$?_Buynode0@?$_Tree_buy@U?$pair@$$CBHV?$basic_string@DU?$char_traits@D@std@@V?$allocator@D@2@@std@@@std@@V?$allocator@U?$pair@$$CBHV?$basic_string@DU?$char_traits@D@std@@V?$allocator@D@2@@std@@@std@@@2@@std@@QAEPAU?$_Tree_node@U?$pair@$$CBHV?$basic_string@DU?$char_traits@D@std@@V?$allocator@D@2@@std@@@std@@PAX@2@XZ 1002f2c8     out_saitek.obj
 0002:000062c8       __tryblocktable$?_Buynode0@?$_Tree_buy@U?$pair@$$CBV?$basic_string@DU?$char_traits@D@std@@V?$allocator@D@2@@std@@H@std@@V?$allocator@U?$pair@$$CBV?$basic_string@DU?$char_traits@D@std@@V?$allocator@D@2@@std@@H@std@@@2@@std@@QAEPAU?$_Tree_node@U?$pair@$$CBV?$basic_string@DU?$char_traits@D@std@@V?$allocator@D@2@@std@@H@std@@PAX@2@XZ 1002f2c8     out_saitek.obj
 0002:000062dc       __ehfuncinfo$?_Buynode0@?$_Tree_buy@U?$pair@$$CBV?$basic_string@DU?$char_traits@D@std@@V?$allocator@D@2@@std@@PAVfms_config_item_t@@@std@@V?$allocator@U?$pair@$$CBV?$basic_string@DU?$char_traits@D@std@@V?$allocator@D@2@@std@@PAVfms_config_item_t@@@std@@@2@@std@@QAEPAU?$_Tree_node@U?$pair@$$CBV?$basic_string@DU?$char_traits@D@std@@V?$allocator@D@2@@std@@PAVfms_config_item_t@@@std@@PAX@2@XZ 1002f2dc     out_saitek.obj
 0002:000062dc       __ehfuncinfo$?_Buynode0@?$_Tree_buy@U?$pair@$$CBV?$basic_string@DU?$char_traits@D@std@@V?$allocator@D@2@@std@@M@std@@V?$allocator@U?$pair@$$CBV?$basic_string@DU?$char_traits@D@std@@V?$allocator@D@2@@std@@M@std@@@2@@std@@QAEPAU?$_Tree_node@U?$pair@$$CBV?$basic_string@DU?$char_traits@D@std@@V?$allocator@D@2@@std@@M@std@@PAX@2@XZ 1002f2dc     out_saitek.obj
 0002:000062dc       __ehfuncinfo$?_Buynode0@?$_Tree_buy@U?$pair@$$CBV?$basic_string@DU?$char_traits@D@std@@V?$allocator@D@2@@std@@H@std@@V?$allocator@U?$pair@$$CBV?$basic_string@DU?$char_traits@D@std@@V?$allocator@D@2@@std@@H@std@@@2@@std@@QAEPAU?$_Tree_node@U?$pair@$$CBV?$basic_string@DU?$char_traits@D@std@@V?$allocator@D@2@@std@@H@std@@PAX@2@XZ 1002f2dc     out_saitek.obj
 0002:000062dc       __ehfuncinfo$?_Buynode0@?$_Tree_buy@U?$pair@$$CBHV?$basic_string@DU?$char_traits@D@std@@V?$allocator@D@2@@std@@@std@@V?$allocator@U?$pair@$$CBHV?$basic_string@DU?$char_traits@D@std@@V?$allocator@D@2@@std@@@std@@@2@@std@@QAEPAU?$_Tree_node@U?$pair@$$CBHV?$basic_string@DU?$char_traits@D@std@@V?$allocator@D@2@@std@@@std@@PAX@2@XZ 1002f2dc     out_saitek.obj
 0002:000062dc       __ehfuncinfo$?_Buynode0@?$_Tree_buy@U?$pair@$$CBV?$basic_string@DU?$char_traits@D@std@@V?$allocator@D@2@@std@@D@std@@V?$allocator@U?$pair@$$CBV?$basic_string@DU?$char_traits@D@std@@V?$allocator@D@2@@std@@D@std@@@2@@std@@QAEPAU?$_Tree_node@U?$pair@$$CBV?$basic_string@DU?$char_traits@D@std@@V?$allocator@D@2@@std@@D@std@@PAX@2@XZ 1002f2dc     out_saitek.obj
 0002:000062dc       __ehfuncinfo$?_Buynode0@?$_Tree_buy@U?$pair@$$CBV?$basic_string@DU?$char_traits@D@std@@V?$allocator@D@2@@std@@PAVfms_fp_item_t@@@std@@V?$allocator@U?$pair@$$CBV?$basic_string@DU?$char_traits@D@std@@V?$allocator@D@2@@std@@PAVfms_fp_item_t@@@std@@@2@@std@@QAEPAU?$_Tree_node@U?$pair@$$CBV?$basic_string@DU?$char_traits@D@std@@V?$allocator@D@2@@std@@PAVfms_fp_item_t@@@std@@PAX@2@XZ 1002f2dc     out_saitek.obj
 0002:00006300       __catchsym$??$_Buynode@ABUpiecewise_construct_t@std@@V?$tuple@$$QAH@2@V?$tuple@$$$V@2@@?$_Tree_buy@U?$pair@$$CBHV?$basic_string@DU?$char_traits@D@std@@V?$allocator@D@2@@std@@@std@@V?$allocator@U?$pair@$$CBHV?$basic_string@DU?$char_traits@D@std@@V?$allocator@D@2@@std@@@std@@@2@@std@@QAEPAU?$_Tree_node@U?$pair@$$CBHV?$basic_string@DU?$char_traits@D@std@@V?$allocator@D@2@@std@@@std@@PAX@1@ABUpiecewise_construct_t@1@$$QAV?$tuple@$$QAH@1@$$QAV?$tuple@$$$V@1@@Z$2 1002f300     out_saitek.obj
 0002:00006300       __catchsym$??$_Buynode@ABUpiecewise_construct_t@std@@V?$tuple@ABH@2@V?$tuple@$$$V@2@@?$_Tree_buy@U?$pair@$$CBHV?$basic_string@DU?$char_traits@D@std@@V?$allocator@D@2@@std@@@std@@V?$allocator@U?$pair@$$CBHV?$basic_string@DU?$char_traits@D@std@@V?$allocator@D@2@@std@@@std@@@2@@std@@QAEPAU?$_Tree_node@U?$pair@$$CBHV?$basic_string@DU?$char_traits@D@std@@V?$allocator@D@2@@std@@@std@@PAX@1@ABUpiecewise_construct_t@1@$$QAV?$tuple@ABH@1@$$QAV?$tuple@$$$V@1@@Z$2 1002f300     out_saitek.obj
 0002:00006310       __unwindtable$??$_Buynode@ABUpiecewise_construct_t@std@@V?$tuple@ABH@2@V?$tuple@$$$V@2@@?$_Tree_buy@U?$pair@$$CBHV?$basic_string@DU?$char_traits@D@std@@V?$allocator@D@2@@std@@@std@@V?$allocator@U?$pair@$$CBHV?$basic_string@DU?$char_traits@D@std@@V?$allocator@D@2@@std@@@std@@@2@@std@@QAEPAU?$_Tree_node@U?$pair@$$CBHV?$basic_string@DU?$char_traits@D@std@@V?$allocator@D@2@@std@@@std@@PAX@1@ABUpiecewise_construct_t@1@$$QAV?$tuple@ABH@1@$$QAV?$tuple@$$$V@1@@Z 1002f310     out_saitek.obj
 0002:00006310       __unwindtable$??$_Buynode@ABUpiecewise_construct_t@std@@V?$tuple@$$QAH@2@V?$tuple@$$$V@2@@?$_Tree_buy@U?$pair@$$CBHV?$basic_string@DU?$char_traits@D@std@@V?$allocator@D@2@@std@@@std@@V?$allocator@U?$pair@$$CBHV?$basic_string@DU?$char_traits@D@std@@V?$allocator@D@2@@std@@@std@@@2@@std@@QAEPAU?$_Tree_node@U?$pair@$$CBHV?$basic_string@DU?$char_traits@D@std@@V?$allocator@D@2@@std@@@std@@PAX@1@ABUpiecewise_construct_t@1@$$QAV?$tuple@$$QAH@1@$$QAV?$tuple@$$$V@1@@Z 1002f310     out_saitek.obj
 0002:00006320       __tryblocktable$??$_Buynode@ABUpiecewise_construct_t@std@@V?$tuple@ABH@2@V?$tuple@$$$V@2@@?$_Tree_buy@U?$pair@$$CBHV?$basic_string@DU?$char_traits@D@std@@V?$allocator@D@2@@std@@@std@@V?$allocator@U?$pair@$$CBHV?$basic_string@DU?$char_traits@D@std@@V?$allocator@D@2@@std@@@std@@@2@@std@@QAEPAU?$_Tree_node@U?$pair@$$CBHV?$basic_string@DU?$char_traits@D@std@@V?$allocator@D@2@@std@@@std@@PAX@1@ABUpiecewise_construct_t@1@$$QAV?$tuple@ABH@1@$$QAV?$tuple@$$$V@1@@Z 1002f320     out_saitek.obj
 0002:00006320       __tryblocktable$??$_Buynode@ABUpiecewise_construct_t@std@@V?$tuple@$$QAH@2@V?$tuple@$$$V@2@@?$_Tree_buy@U?$pair@$$CBHV?$basic_string@DU?$char_traits@D@std@@V?$allocator@D@2@@std@@@std@@V?$allocator@U?$pair@$$CBHV?$basic_string@DU?$char_traits@D@std@@V?$allocator@D@2@@std@@@std@@@2@@std@@QAEPAU?$_Tree_node@U?$pair@$$CBHV?$basic_string@DU?$char_traits@D@std@@V?$allocator@D@2@@std@@@std@@PAX@1@ABUpiecewise_construct_t@1@$$QAV?$tuple@$$QAH@1@$$QAV?$tuple@$$$V@1@@Z 1002f320     out_saitek.obj
 0002:00006334       __ehfuncinfo$??$_Buynode@ABUpiecewise_construct_t@std@@V?$tuple@$$QAH@2@V?$tuple@$$$V@2@@?$_Tree_buy@U?$pair@$$CBHV?$basic_string@DU?$char_traits@D@std@@V?$allocator@D@2@@std@@@std@@V?$allocator@U?$pair@$$CBHV?$basic_string@DU?$char_traits@D@std@@V?$allocator@D@2@@std@@@std@@@2@@std@@QAEPAU?$_Tree_node@U?$pair@$$CBHV?$basic_string@DU?$char_traits@D@std@@V?$allocator@D@2@@std@@@std@@PAX@1@ABUpiecewise_construct_t@1@$$QAV?$tuple@$$QAH@1@$$QAV?$tuple@$$$V@1@@Z 1002f334     out_saitek.obj
 0002:00006334       __ehfuncinfo$??$_Buynode@ABUpiecewise_construct_t@std@@V?$tuple@ABH@2@V?$tuple@$$$V@2@@?$_Tree_buy@U?$pair@$$CBHV?$basic_string@DU?$char_traits@D@std@@V?$allocator@D@2@@std@@@std@@V?$allocator@U?$pair@$$CBHV?$basic_string@DU?$char_traits@D@std@@V?$allocator@D@2@@std@@@std@@@2@@std@@QAEPAU?$_Tree_node@U?$pair@$$CBHV?$basic_string@DU?$char_traits@D@std@@V?$allocator@D@2@@std@@@std@@PAX@1@ABUpiecewise_construct_t@1@$$QAV?$tuple@ABH@1@$$QAV?$tuple@$$$V@1@@Z 1002f334     out_saitek.obj
 0002:00006358       __catchsym$??$_Insert_hint@AAU?$pair@$$CBHV?$basic_string@DU?$char_traits@D@std@@V?$allocator@D@2@@std@@@std@@PAU?$_Tree_node@U?$pair@$$CBHV?$basic_string@DU?$char_traits@D@std@@V?$allocator@D@2@@std@@@std@@PAX@2@@?$_Tree@V?$_Tmap_traits@HV?$basic_string@DU?$char_traits@D@std@@V?$allocator@D@2@@std@@U?$less@H@2@V?$allocator@U?$pair@$$CBHV?$basic_string@DU?$char_traits@D@std@@V?$allocator@D@2@@std@@@std@@@2@$0A@@std@@@std@@IAE?AV?$_Tree_iterator@V?$_Tree_val@U?$_Tree_simple_types@U?$pair@$$CBHV?$basic_string@DU?$char_traits@D@std@@V?$allocator@D@2@@std@@@std@@@std@@@std@@@1@V?$_Tree_const_iterator@V?$_Tree_val@U?$_Tree_simple_types@U?$pair@$$CBHV?$basic_string@DU?$char_traits@D@std@@V?$allocator@D@2@@std@@@std@@@std@@@std@@@1@AAU?$pair@$$CBHV?$basic_string@DU?$char_traits@D@std@@V?$allocator@D@2@@std@@@1@PAU?$_Tree_node@U?$pair@$$CBHV?$basic_string@DU?$char_traits@D@std@@V?$allocator@D@2@@std@@@std@@PAX@1@@Z$2 1002f358     out_saitek.obj
 0002:00006368       __unwindtable$??$_Insert_hint@AAU?$pair@$$CBHV?$basic_string@DU?$char_traits@D@std@@V?$allocator@D@2@@std@@@std@@PAU?$_Tree_node@U?$pair@$$CBHV?$basic_string@DU?$char_traits@D@std@@V?$allocator@D@2@@std@@@std@@PAX@2@@?$_Tree@V?$_Tmap_traits@HV?$basic_string@DU?$char_traits@D@std@@V?$allocator@D@2@@std@@U?$less@H@2@V?$allocator@U?$pair@$$CBHV?$basic_string@DU?$char_traits@D@std@@V?$allocator@D@2@@std@@@std@@@2@$0A@@std@@@std@@IAE?AV?$_Tree_iterator@V?$_Tree_val@U?$_Tree_simple_types@U?$pair@$$CBHV?$basic_string@DU?$char_traits@D@std@@V?$allocator@D@2@@std@@@std@@@std@@@std@@@1@V?$_Tree_const_iterator@V?$_Tree_val@U?$_Tree_simple_types@U?$pair@$$CBHV?$basic_string@DU?$char_traits@D@std@@V?$allocator@D@2@@std@@@std@@@std@@@std@@@1@AAU?$pair@$$CBHV?$basic_string@DU?$char_traits@D@std@@V?$allocator@D@2@@std@@@1@PAU?$_Tree_node@U?$pair@$$CBHV?$basic_string@DU?$char_traits@D@std@@V?$allocator@D@2@@std@@@std@@PAX@1@@Z 1002f368     out_saitek.obj
 0002:00006378       __tryblocktable$??$_Insert_hint@AAU?$pair@$$CBHV?$basic_string@DU?$char_traits@D@std@@V?$allocator@D@2@@std@@@std@@PAU?$_Tree_node@U?$pair@$$CBHV?$basic_string@DU?$char_traits@D@std@@V?$allocator@D@2@@std@@@std@@PAX@2@@?$_Tree@V?$_Tmap_traits@HV?$basic_string@DU?$char_traits@D@std@@V?$allocator@D@2@@std@@U?$less@H@2@V?$allocator@U?$pair@$$CBHV?$basic_string@DU?$char_traits@D@std@@V?$allocator@D@2@@std@@@std@@@2@$0A@@std@@@std@@IAE?AV?$_Tree_iterator@V?$_Tree_val@U?$_Tree_simple_types@U?$pair@$$CBHV?$basic_string@DU?$char_traits@D@std@@V?$allocator@D@2@@std@@@std@@@std@@@std@@@1@V?$_Tree_const_iterator@V?$_Tree_val@U?$_Tree_simple_types@U?$pair@$$CBHV?$basic_string@DU?$char_traits@D@std@@V?$allocator@D@2@@std@@@std@@@std@@@std@@@1@AAU?$pair@$$CBHV?$basic_string@DU?$char_traits@D@std@@V?$allocator@D@2@@std@@@1@PAU?$_Tree_node@U?$pair@$$CBHV?$basic_string@DU?$char_traits@D@std@@V?$allocator@D@2@@std@@@std@@PAX@1@@Z 1002f378     out_saitek.obj
 0002:0000638c       __ehfuncinfo$??$_Insert_hint@AAU?$pair@$$CBHV?$basic_string@DU?$char_traits@D@std@@V?$allocator@D@2@@std@@@std@@PAU?$_Tree_node@U?$pair@$$CBHV?$basic_string@DU?$char_traits@D@std@@V?$allocator@D@2@@std@@@std@@PAX@2@@?$_Tree@V?$_Tmap_traits@HV?$basic_string@DU?$char_traits@D@std@@V?$allocator@D@2@@std@@U?$less@H@2@V?$allocator@U?$pair@$$CBHV?$basic_string@DU?$char_traits@D@std@@V?$allocator@D@2@@std@@@std@@@2@$0A@@std@@@std@@IAE?AV?$_Tree_iterator@V?$_Tree_val@U?$_Tree_simple_types@U?$pair@$$CBHV?$basic_string@DU?$char_traits@D@std@@V?$allocator@D@2@@std@@@std@@@std@@@std@@@1@V?$_Tree_const_iterator@V?$_Tree_val@U?$_Tree_simple_types@U?$pair@$$CBHV?$basic_string@DU?$char_traits@D@std@@V?$allocator@D@2@@std@@@std@@@std@@@std@@@1@AAU?$pair@$$CBHV?$basic_string@DU?$char_traits@D@std@@V?$allocator@D@2@@std@@@1@PAU?$_Tree_node@U?$pair@$$CBHV?$basic_string@DU?$char_traits@D@std@@V?$allocator@D@2@@std@@@std@@PAX@1@@Z 1002f38c     out_saitek.obj
 0002:000063b0       __catchsym$??$_Insert_nohint@AAU?$pair@$$CBHV?$basic_string@DU?$char_traits@D@std@@V?$allocator@D@2@@std@@@std@@PAU?$_Tree_node@U?$pair@$$CBHV?$basic_string@DU?$char_traits@D@std@@V?$allocator@D@2@@std@@@std@@PAX@2@@?$_Tree@V?$_Tmap_traits@HV?$basic_string@DU?$char_traits@D@std@@V?$allocator@D@2@@std@@U?$less@H@2@V?$allocator@U?$pair@$$CBHV?$basic_string@DU?$char_traits@D@std@@V?$allocator@D@2@@std@@@std@@@2@$0A@@std@@@std@@IAE?AU?$pair@V?$_Tree_iterator@V?$_Tree_val@U?$_Tree_simple_types@U?$pair@$$CBHV?$basic_string@DU?$char_traits@D@std@@V?$allocator@D@2@@std@@@std@@@std@@@std@@@std@@_N@1@_NAAU?$pair@$$CBHV?$basic_string@DU?$char_traits@D@std@@V?$allocator@D@2@@std@@@1@PAU?$_Tree_node@U?$pair@$$CBHV?$basic_string@DU?$char_traits@D@std@@V?$allocator@D@2@@std@@@std@@PAX@1@@Z$2 1002f3b0     out_saitek.obj
 0002:000063c0       __unwindtable$??$_Insert_nohint@AAU?$pair@$$CBHV?$basic_string@DU?$char_traits@D@std@@V?$allocator@D@2@@std@@@std@@PAU?$_Tree_node@U?$pair@$$CBHV?$basic_string@DU?$char_traits@D@std@@V?$allocator@D@2@@std@@@std@@PAX@2@@?$_Tree@V?$_Tmap_traits@HV?$basic_string@DU?$char_traits@D@std@@V?$allocator@D@2@@std@@U?$less@H@2@V?$allocator@U?$pair@$$CBHV?$basic_string@DU?$char_traits@D@std@@V?$allocator@D@2@@std@@@std@@@2@$0A@@std@@@std@@IAE?AU?$pair@V?$_Tree_iterator@V?$_Tree_val@U?$_Tree_simple_types@U?$pair@$$CBHV?$basic_string@DU?$char_traits@D@std@@V?$allocator@D@2@@std@@@std@@@std@@@std@@@std@@_N@1@_NAAU?$pair@$$CBHV?$basic_string@DU?$char_traits@D@std@@V?$allocator@D@2@@std@@@1@PAU?$_Tree_node@U?$pair@$$CBHV?$basic_string@DU?$char_traits@D@std@@V?$allocator@D@2@@std@@@std@@PAX@1@@Z 1002f3c0     out_saitek.obj
 0002:000063d0       __tryblocktable$??$_Insert_nohint@AAU?$pair@$$CBHV?$basic_string@DU?$char_traits@D@std@@V?$allocator@D@2@@std@@@std@@PAU?$_Tree_node@U?$pair@$$CBHV?$basic_string@DU?$char_traits@D@std@@V?$allocator@D@2@@std@@@std@@PAX@2@@?$_Tree@V?$_Tmap_traits@HV?$basic_string@DU?$char_traits@D@std@@V?$allocator@D@2@@std@@U?$less@H@2@V?$allocator@U?$pair@$$CBHV?$basic_string@DU?$char_traits@D@std@@V?$allocator@D@2@@std@@@std@@@2@$0A@@std@@@std@@IAE?AU?$pair@V?$_Tree_iterator@V?$_Tree_val@U?$_Tree_simple_types@U?$pair@$$CBHV?$basic_string@DU?$char_traits@D@std@@V?$allocator@D@2@@std@@@std@@@std@@@std@@@std@@_N@1@_NAAU?$pair@$$CBHV?$basic_string@DU?$char_traits@D@std@@V?$allocator@D@2@@std@@@1@PAU?$_Tree_node@U?$pair@$$CBHV?$basic_string@DU?$char_traits@D@std@@V?$allocator@D@2@@std@@@std@@PAX@1@@Z 1002f3d0     out_saitek.obj
 0002:000063e4       __ehfuncinfo$??$_Insert_nohint@AAU?$pair@$$CBHV?$basic_string@DU?$char_traits@D@std@@V?$allocator@D@2@@std@@@std@@PAU?$_Tree_node@U?$pair@$$CBHV?$basic_string@DU?$char_traits@D@std@@V?$allocator@D@2@@std@@@std@@PAX@2@@?$_Tree@V?$_Tmap_traits@HV?$basic_string@DU?$char_traits@D@std@@V?$allocator@D@2@@std@@U?$less@H@2@V?$allocator@U?$pair@$$CBHV?$basic_string@DU?$char_traits@D@std@@V?$allocator@D@2@@std@@@std@@@2@$0A@@std@@@std@@IAE?AU?$pair@V?$_Tree_iterator@V?$_Tree_val@U?$_Tree_simple_types@U?$pair@$$CBHV?$basic_string@DU?$char_traits@D@std@@V?$allocator@D@2@@std@@@std@@@std@@@std@@@std@@_N@1@_NAAU?$pair@$$CBHV?$basic_string@DU?$char_traits@D@std@@V?$allocator@D@2@@std@@@1@PAU?$_Tree_node@U?$pair@$$CBHV?$basic_string@DU?$char_traits@D@std@@V?$allocator@D@2@@std@@@std@@PAX@1@@Z 1002f3e4     out_saitek.obj
 0002:00006408       __catchsym$?_Buynode0@?$_Tree_buy@PAVobject_t@@V?$allocator@PAVobject_t@@@std@@@std@@QAEPAU?$_Tree_node@PAVobject_t@@PAX@2@XZ$2 1002f408     in.obj
 0002:00006408       __catchsym$?_Buynode0@?$_Tree_buy@PAVmfdpage_t@@V?$allocator@PAVmfdpage_t@@@std@@@std@@QAEPAU?$_Tree_node@PAVmfdpage_t@@PAX@2@XZ$2 1002f408     in.obj
 0002:00006408       __catchsym$?_Buynode0@?$_Tree_buy@PAVlistener_t@@V?$allocator@PAVlistener_t@@@std@@@std@@QAEPAU?$_Tree_node@PAVlistener_t@@PAX@2@XZ$2 1002f408     in.obj
 0002:00006418       __unwindtable$?_Buynode0@?$_Tree_buy@PAVlistener_t@@V?$allocator@PAVlistener_t@@@std@@@std@@QAEPAU?$_Tree_node@PAVlistener_t@@PAX@2@XZ 1002f418     in.obj
 0002:00006418       __unwindtable$?_Buynode0@?$_Tree_buy@PAVobject_t@@V?$allocator@PAVobject_t@@@std@@@std@@QAEPAU?$_Tree_node@PAVobject_t@@PAX@2@XZ 1002f418     in.obj
 0002:00006418       __unwindtable$?_Buynode0@?$_Tree_buy@PAVmfdpage_t@@V?$allocator@PAVmfdpage_t@@@std@@@std@@QAEPAU?$_Tree_node@PAVmfdpage_t@@PAX@2@XZ 1002f418     in.obj
 0002:00006428       __tryblocktable$?_Buynode0@?$_Tree_buy@PAVobject_t@@V?$allocator@PAVobject_t@@@std@@@std@@QAEPAU?$_Tree_node@PAVobject_t@@PAX@2@XZ 1002f428     in.obj
 0002:00006428       __tryblocktable$?_Buynode0@?$_Tree_buy@PAVmfdpage_t@@V?$allocator@PAVmfdpage_t@@@std@@@std@@QAEPAU?$_Tree_node@PAVmfdpage_t@@PAX@2@XZ 1002f428     in.obj
 0002:00006428       __tryblocktable$?_Buynode0@?$_Tree_buy@PAVlistener_t@@V?$allocator@PAVlistener_t@@@std@@@std@@QAEPAU?$_Tree_node@PAVlistener_t@@PAX@2@XZ 1002f428     in.obj
 0002:0000643c       __ehfuncinfo$?_Buynode0@?$_Tree_buy@PAVmfdpage_t@@V?$allocator@PAVmfdpage_t@@@std@@@std@@QAEPAU?$_Tree_node@PAVmfdpage_t@@PAX@2@XZ 1002f43c     in.obj
 0002:0000643c       __ehfuncinfo$?_Buynode0@?$_Tree_buy@PAVlistener_t@@V?$allocator@PAVlistener_t@@@std@@@std@@QAEPAU?$_Tree_node@PAVlistener_t@@PAX@2@XZ 1002f43c     in.obj
 0002:0000643c       __ehfuncinfo$?_Buynode0@?$_Tree_buy@PAVobject_t@@V?$allocator@PAVobject_t@@@std@@@std@@QAEPAU?$_Tree_node@PAVobject_t@@PAX@2@XZ 1002f43c     in.obj
 0002:00006460       __catchsym$?_Buyheadnode@?$_Tree_alloc@$0A@U?$_Tree_base_types@U?$pair@$$CBHPAVobject_t@@@std@@V?$allocator@U?$pair@$$CBHPAVobject_t@@@std@@@2@@std@@@std@@QAEPAU?$_Tree_node@U?$pair@$$CBHPAVobject_t@@@std@@PAX@2@XZ$2 1002f460     mfdpage.obj
 0002:00006460       __catchsym$?_Buyheadnode@?$_Tree_alloc@$0A@U?$_Tree_base_types@U?$pair@$$CBHPAVfms_fp_item_t@@@std@@V?$allocator@U?$pair@$$CBHPAVfms_fp_item_t@@@std@@@2@@std@@@std@@QAEPAU?$_Tree_node@U?$pair@$$CBHPAVfms_fp_item_t@@@std@@PAX@2@XZ$2 1002f460     mfdpage.obj
 0002:00006460       __catchsym$?_Buyheadnode@?$_Tree_alloc@$0A@U?$_Tree_base_types@U?$pair@$$CBHM@std@@V?$allocator@U?$pair@$$CBHM@std@@@2@@std@@@std@@QAEPAU?$_Tree_node@U?$pair@$$CBHM@std@@PAX@2@XZ$2 1002f460     mfdpage.obj
 0002:00006470       __unwindtable$?_Buyheadnode@?$_Tree_alloc@$0A@U?$_Tree_base_types@U?$pair@$$CBHPAVobject_t@@@std@@V?$allocator@U?$pair@$$CBHPAVobject_t@@@std@@@2@@std@@@std@@QAEPAU?$_Tree_node@U?$pair@$$CBHPAVobject_t@@@std@@PAX@2@XZ 1002f470     mfdpage.obj
 0002:00006470       __unwindtable$?_Buyheadnode@?$_Tree_alloc@$0A@U?$_Tree_base_types@U?$pair@$$CBHPAVfms_fp_item_t@@@std@@V?$allocator@U?$pair@$$CBHPAVfms_fp_item_t@@@std@@@2@@std@@@std@@QAEPAU?$_Tree_node@U?$pair@$$CBHPAVfms_fp_item_t@@@std@@PAX@2@XZ 1002f470     mfdpage.obj
 0002:00006470       __unwindtable$?_Buyheadnode@?$_Tree_alloc@$0A@U?$_Tree_base_types@U?$pair@$$CBHM@std@@V?$allocator@U?$pair@$$CBHM@std@@@2@@std@@@std@@QAEPAU?$_Tree_node@U?$pair@$$CBHM@std@@PAX@2@XZ 1002f470     mfdpage.obj
 0002:00006480       __tryblocktable$?_Buyheadnode@?$_Tree_alloc@$0A@U?$_Tree_base_types@U?$pair@$$CBHPAVfms_fp_item_t@@@std@@V?$allocator@U?$pair@$$CBHPAVfms_fp_item_t@@@std@@@2@@std@@@std@@QAEPAU?$_Tree_node@U?$pair@$$CBHPAVfms_fp_item_t@@@std@@PAX@2@XZ 1002f480     mfdpage.obj
 0002:00006480       __tryblocktable$?_Buyheadnode@?$_Tree_alloc@$0A@U?$_Tree_base_types@U?$pair@$$CBHPAVobject_t@@@std@@V?$allocator@U?$pair@$$CBHPAVobject_t@@@std@@@2@@std@@@std@@QAEPAU?$_Tree_node@U?$pair@$$CBHPAVobject_t@@@std@@PAX@2@XZ 1002f480     mfdpage.obj
 0002:00006480       __tryblocktable$?_Buyheadnode@?$_Tree_alloc@$0A@U?$_Tree_base_types@U?$pair@$$CBHM@std@@V?$allocator@U?$pair@$$CBHM@std@@@2@@std@@@std@@QAEPAU?$_Tree_node@U?$pair@$$CBHM@std@@PAX@2@XZ 1002f480     mfdpage.obj
 0002:00006494       __ehfuncinfo$?_Buyheadnode@?$_Tree_alloc@$0A@U?$_Tree_base_types@U?$pair@$$CBHPAVobject_t@@@std@@V?$allocator@U?$pair@$$CBHPAVobject_t@@@std@@@2@@std@@@std@@QAEPAU?$_Tree_node@U?$pair@$$CBHPAVobject_t@@@std@@PAX@2@XZ 1002f494     mfdpage.obj
 0002:00006494       __ehfuncinfo$?_Buyheadnode@?$_Tree_alloc@$0A@U?$_Tree_base_types@U?$pair@$$CBHPAVfms_fp_item_t@@@std@@V?$allocator@U?$pair@$$CBHPAVfms_fp_item_t@@@std@@@2@@std@@@std@@QAEPAU?$_Tree_node@U?$pair@$$CBHPAVfms_fp_item_t@@@std@@PAX@2@XZ 1002f494     mfdpage.obj
 0002:00006494       __ehfuncinfo$?_Buyheadnode@?$_Tree_alloc@$0A@U?$_Tree_base_types@U?$pair@$$CBHM@std@@V?$allocator@U?$pair@$$CBHM@std@@@2@@std@@@std@@QAEPAU?$_Tree_node@U?$pair@$$CBHM@std@@PAX@2@XZ 1002f494     mfdpage.obj
 0002:000064b8       __catchsym$??0?$_Tree@V?$_Tmap_traits@HPAVobject_t@@U?$less@H@std@@V?$allocator@U?$pair@$$CBHPAVobject_t@@@std@@@3@$0A@@std@@@std@@QAE@ABV01@ABV?$allocator@U?$pair@$$CBHPAVobject_t@@@std@@@1@@Z$2 1002f4b8     mfdpage.obj
 0002:000064c8       __unwindtable$??0?$_Tree@V?$_Tmap_traits@HPAVobject_t@@U?$less@H@std@@V?$allocator@U?$pair@$$CBHPAVobject_t@@@std@@@3@$0A@@std@@@std@@QAE@ABV01@ABV?$allocator@U?$pair@$$CBHPAVobject_t@@@std@@@1@@Z 1002f4c8     mfdpage.obj
 0002:000064d8       __tryblocktable$??0?$_Tree@V?$_Tmap_traits@HPAVobject_t@@U?$less@H@std@@V?$allocator@U?$pair@$$CBHPAVobject_t@@@std@@@3@$0A@@std@@@std@@QAE@ABV01@ABV?$allocator@U?$pair@$$CBHPAVobject_t@@@std@@@1@@Z 1002f4d8     mfdpage.obj
 0002:000064ec       __ehfuncinfo$??0?$_Tree@V?$_Tmap_traits@HPAVobject_t@@U?$less@H@std@@V?$allocator@U?$pair@$$CBHPAVobject_t@@@std@@@3@$0A@@std@@@std@@QAE@ABV01@ABV?$allocator@U?$pair@$$CBHPAVobject_t@@@std@@@1@@Z 1002f4ec     mfdpage.obj
 0002:00006510       __catchsym$??$getline@DU?$char_traits@D@std@@V?$allocator@D@2@@std@@YAAAV?$basic_istream@DU?$char_traits@D@std@@@0@$$QAV10@AAV?$basic_string@DU?$char_traits@D@std@@V?$allocator@D@2@@0@D@Z$2 1002f510     mfdpage.obj
 0002:00006520       __unwindtable$??$getline@DU?$char_traits@D@std@@V?$allocator@D@2@@std@@YAAAV?$basic_istream@DU?$char_traits@D@std@@@0@$$QAV10@AAV?$basic_string@DU?$char_traits@D@std@@V?$allocator@D@2@@0@D@Z 1002f520     mfdpage.obj
 0002:00006530       __tryblocktable$??$getline@DU?$char_traits@D@std@@V?$allocator@D@2@@std@@YAAAV?$basic_istream@DU?$char_traits@D@std@@@0@$$QAV10@AAV?$basic_string@DU?$char_traits@D@std@@V?$allocator@D@2@@0@D@Z 1002f530     mfdpage.obj
 0002:00006544       __ehfuncinfo$??$getline@DU?$char_traits@D@std@@V?$allocator@D@2@@std@@YAAAV?$basic_istream@DU?$char_traits@D@std@@@0@$$QAV10@AAV?$basic_string@DU?$char_traits@D@std@@V?$allocator@D@2@@0@D@Z 1002f544     mfdpage.obj
 0002:00006568       __catchsym$??$_Buynode@ABUpiecewise_construct_t@std@@V?$tuple@ABV?$basic_string@DU?$char_traits@D@std@@V?$allocator@D@2@@std@@@2@V?$tuple@$$$V@2@@?$_Tree_buy@U?$pair@$$CBV?$basic_string@DU?$char_traits@D@std@@V?$allocator@D@2@@std@@V12@@std@@V?$allocator@U?$pair@$$CBV?$basic_string@DU?$char_traits@D@std@@V?$allocator@D@2@@std@@V12@@std@@@2@@std@@QAEPAU?$_Tree_node@U?$pair@$$CBV?$basic_string@DU?$char_traits@D@std@@V?$allocator@D@2@@std@@V12@@std@@PAX@1@ABUpiecewise_construct_t@1@$$QAV?$tuple@ABV?$basic_string@DU?$char_traits@D@std@@V?$allocator@D@2@@std@@@1@$$QAV?$tuple@$$$V@1@@Z$2 1002f568     mfdpage.obj
 0002:00006578       __unwindtable$??$_Buynode@ABUpiecewise_construct_t@std@@V?$tuple@ABV?$basic_string@DU?$char_traits@D@std@@V?$allocator@D@2@@std@@@2@V?$tuple@$$$V@2@@?$_Tree_buy@U?$pair@$$CBV?$basic_string@DU?$char_traits@D@std@@V?$allocator@D@2@@std@@V12@@std@@V?$allocator@U?$pair@$$CBV?$basic_string@DU?$char_traits@D@std@@V?$allocator@D@2@@std@@V12@@std@@@2@@std@@QAEPAU?$_Tree_node@U?$pair@$$CBV?$basic_string@DU?$char_traits@D@std@@V?$allocator@D@2@@std@@V12@@std@@PAX@1@ABUpiecewise_construct_t@1@$$QAV?$tuple@ABV?$basic_string@DU?$char_traits@D@std@@V?$allocator@D@2@@std@@@1@$$QAV?$tuple@$$$V@1@@Z 1002f578     mfdpage.obj
 0002:00006588       __tryblocktable$??$_Buynode@ABUpiecewise_construct_t@std@@V?$tuple@ABV?$basic_string@DU?$char_traits@D@std@@V?$allocator@D@2@@std@@@2@V?$tuple@$$$V@2@@?$_Tree_buy@U?$pair@$$CBV?$basic_string@DU?$char_traits@D@std@@V?$allocator@D@2@@std@@V12@@std@@V?$allocator@U?$pair@$$CBV?$basic_string@DU?$char_traits@D@std@@V?$allocator@D@2@@std@@V12@@std@@@2@@std@@QAEPAU?$_Tree_node@U?$pair@$$CBV?$basic_string@DU?$char_traits@D@std@@V?$allocator@D@2@@std@@V12@@std@@PAX@1@ABUpiecewise_construct_t@1@$$QAV?$tuple@ABV?$basic_string@DU?$char_traits@D@std@@V?$allocator@D@2@@std@@@1@$$QAV?$tuple@$$$V@1@@Z 1002f588     mfdpage.obj
 0002:0000659c       __ehfuncinfo$??$_Buynode@ABUpiecewise_construct_t@std@@V?$tuple@ABV?$basic_string@DU?$char_traits@D@std@@V?$allocator@D@2@@std@@@2@V?$tuple@$$$V@2@@?$_Tree_buy@U?$pair@$$CBV?$basic_string@DU?$char_traits@D@std@@V?$allocator@D@2@@std@@V12@@std@@V?$allocator@U?$pair@$$CBV?$basic_string@DU?$char_traits@D@std@@V?$allocator@D@2@@std@@V12@@std@@@2@@std@@QAEPAU?$_Tree_node@U?$pair@$$CBV?$basic_string@DU?$char_traits@D@std@@V?$allocator@D@2@@std@@V12@@std@@PAX@1@ABUpiecewise_construct_t@1@$$QAV?$tuple@ABV?$basic_string@DU?$char_traits@D@std@@V?$allocator@D@2@@std@@@1@$$QAV?$tuple@$$$V@1@@Z 1002f59c     mfdpage.obj
 0002:000065c0       __catchsym$??$_Buynode@ABUpiecewise_construct_t@std@@V?$tuple@$$QAV?$basic_string@DU?$char_traits@D@std@@V?$allocator@D@2@@std@@@2@V?$tuple@$$$V@2@@?$_Tree_buy@U?$pair@$$CBV?$basic_string@DU?$char_traits@D@std@@V?$allocator@D@2@@std@@D@std@@V?$allocator@U?$pair@$$CBV?$basic_string@DU?$char_traits@D@std@@V?$allocator@D@2@@std@@D@std@@@2@@std@@QAEPAU?$_Tree_node@U?$pair@$$CBV?$basic_string@DU?$char_traits@D@std@@V?$allocator@D@2@@std@@D@std@@PAX@1@ABUpiecewise_construct_t@1@$$QAV?$tuple@$$QAV?$basic_string@DU?$char_traits@D@std@@V?$allocator@D@2@@std@@@1@$$QAV?$tuple@$$$V@1@@Z$2 1002f5c0     mfdpage.obj
 0002:000065d0       __unwindtable$??$_Buynode@ABUpiecewise_construct_t@std@@V?$tuple@$$QAV?$basic_string@DU?$char_traits@D@std@@V?$allocator@D@2@@std@@@2@V?$tuple@$$$V@2@@?$_Tree_buy@U?$pair@$$CBV?$basic_string@DU?$char_traits@D@std@@V?$allocator@D@2@@std@@D@std@@V?$allocator@U?$pair@$$CBV?$basic_string@DU?$char_traits@D@std@@V?$allocator@D@2@@std@@D@std@@@2@@std@@QAEPAU?$_Tree_node@U?$pair@$$CBV?$basic_string@DU?$char_traits@D@std@@V?$allocator@D@2@@std@@D@std@@PAX@1@ABUpiecewise_construct_t@1@$$QAV?$tuple@$$QAV?$basic_string@DU?$char_traits@D@std@@V?$allocator@D@2@@std@@@1@$$QAV?$tuple@$$$V@1@@Z 1002f5d0     mfdpage.obj
 0002:000065e0       __tryblocktable$??$_Buynode@ABUpiecewise_construct_t@std@@V?$tuple@$$QAV?$basic_string@DU?$char_traits@D@std@@V?$allocator@D@2@@std@@@2@V?$tuple@$$$V@2@@?$_Tree_buy@U?$pair@$$CBV?$basic_string@DU?$char_traits@D@std@@V?$allocator@D@2@@std@@D@std@@V?$allocator@U?$pair@$$CBV?$basic_string@DU?$char_traits@D@std@@V?$allocator@D@2@@std@@D@std@@@2@@std@@QAEPAU?$_Tree_node@U?$pair@$$CBV?$basic_string@DU?$char_traits@D@std@@V?$allocator@D@2@@std@@D@std@@PAX@1@ABUpiecewise_construct_t@1@$$QAV?$tuple@$$QAV?$basic_string@DU?$char_traits@D@std@@V?$allocator@D@2@@std@@@1@$$QAV?$tuple@$$$V@1@@Z 1002f5e0     mfdpage.obj
 0002:000065f4       __ehfuncinfo$??$_Buynode@ABUpiecewise_construct_t@std@@V?$tuple@$$QAV?$basic_string@DU?$char_traits@D@std@@V?$allocator@D@2@@std@@@2@V?$tuple@$$$V@2@@?$_Tree_buy@U?$pair@$$CBV?$basic_string@DU?$char_traits@D@std@@V?$allocator@D@2@@std@@D@std@@V?$allocator@U?$pair@$$CBV?$basic_string@DU?$char_traits@D@std@@V?$allocator@D@2@@std@@D@std@@@2@@std@@QAEPAU?$_Tree_node@U?$pair@$$CBV?$basic_string@DU?$char_traits@D@std@@V?$allocator@D@2@@std@@D@std@@PAX@1@ABUpiecewise_construct_t@1@$$QAV?$tuple@$$QAV?$basic_string@DU?$char_traits@D@std@@V?$allocator@D@2@@std@@@1@$$QAV?$tuple@$$$V@1@@Z 1002f5f4     mfdpage.obj
 0002:00006618       __catchsym$??$_Buynode@ABUpiecewise_construct_t@std@@V?$tuple@$$QAV?$basic_string@DU?$char_traits@D@std@@V?$allocator@D@2@@std@@@2@V?$tuple@$$$V@2@@?$_Tree_buy@U?$pair@$$CBV?$basic_string@DU?$char_traits@D@std@@V?$allocator@D@2@@std@@H@std@@V?$allocator@U?$pair@$$CBV?$basic_string@DU?$char_traits@D@std@@V?$allocator@D@2@@std@@H@std@@@2@@std@@QAEPAU?$_Tree_node@U?$pair@$$CBV?$basic_string@DU?$char_traits@D@std@@V?$allocator@D@2@@std@@H@std@@PAX@1@ABUpiecewise_construct_t@1@$$QAV?$tuple@$$QAV?$basic_string@DU?$char_traits@D@std@@V?$allocator@D@2@@std@@@1@$$QAV?$tuple@$$$V@1@@Z$2 1002f618     mfdpage.obj
 0002:00006628       __unwindtable$??$_Buynode@ABUpiecewise_construct_t@std@@V?$tuple@$$QAV?$basic_string@DU?$char_traits@D@std@@V?$allocator@D@2@@std@@@2@V?$tuple@$$$V@2@@?$_Tree_buy@U?$pair@$$CBV?$basic_string@DU?$char_traits@D@std@@V?$allocator@D@2@@std@@H@std@@V?$allocator@U?$pair@$$CBV?$basic_string@DU?$char_traits@D@std@@V?$allocator@D@2@@std@@H@std@@@2@@std@@QAEPAU?$_Tree_node@U?$pair@$$CBV?$basic_string@DU?$char_traits@D@std@@V?$allocator@D@2@@std@@H@std@@PAX@1@ABUpiecewise_construct_t@1@$$QAV?$tuple@$$QAV?$basic_string@DU?$char_traits@D@std@@V?$allocator@D@2@@std@@@1@$$QAV?$tuple@$$$V@1@@Z 1002f628     mfdpage.obj
 0002:00006638       __tryblocktable$??$_Buynode@ABUpiecewise_construct_t@std@@V?$tuple@$$QAV?$basic_string@DU?$char_traits@D@std@@V?$allocator@D@2@@std@@@2@V?$tuple@$$$V@2@@?$_Tree_buy@U?$pair@$$CBV?$basic_string@DU?$char_traits@D@std@@V?$allocator@D@2@@std@@H@std@@V?$allocator@U?$pair@$$CBV?$basic_string@DU?$char_traits@D@std@@V?$allocator@D@2@@std@@H@std@@@2@@std@@QAEPAU?$_Tree_node@U?$pair@$$CBV?$basic_string@DU?$char_traits@D@std@@V?$allocator@D@2@@std@@H@std@@PAX@1@ABUpiecewise_construct_t@1@$$QAV?$tuple@$$QAV?$basic_string@DU?$char_traits@D@std@@V?$allocator@D@2@@std@@@1@$$QAV?$tuple@$$$V@1@@Z 1002f638     mfdpage.obj
 0002:0000664c       __ehfuncinfo$??$_Buynode@ABUpiecewise_construct_t@std@@V?$tuple@$$QAV?$basic_string@DU?$char_traits@D@std@@V?$allocator@D@2@@std@@@2@V?$tuple@$$$V@2@@?$_Tree_buy@U?$pair@$$CBV?$basic_string@DU?$char_traits@D@std@@V?$allocator@D@2@@std@@H@std@@V?$allocator@U?$pair@$$CBV?$basic_string@DU?$char_traits@D@std@@V?$allocator@D@2@@std@@H@std@@@2@@std@@QAEPAU?$_Tree_node@U?$pair@$$CBV?$basic_string@DU?$char_traits@D@std@@V?$allocator@D@2@@std@@H@std@@PAX@1@ABUpiecewise_construct_t@1@$$QAV?$tuple@$$QAV?$basic_string@DU?$char_traits@D@std@@V?$allocator@D@2@@std@@@1@$$QAV?$tuple@$$$V@1@@Z 1002f64c     mfdpage.obj
 0002:00006670       __catchsym$??$_Copy_nodes@U?$integral_constant@_N$0A@@std@@@?$_Tree@V?$_Tmap_traits@HPAVobject_t@@U?$less@H@std@@V?$allocator@U?$pair@$$CBHPAVobject_t@@@std@@@3@$0A@@std@@@std@@IAEPAU?$_Tree_node@U?$pair@$$CBHPAVobject_t@@@std@@PAX@1@PAU21@0U?$integral_constant@_N$0A@@1@@Z$2 1002f670     mfdpage.obj
 0002:00006680       __unwindtable$??$_Copy_nodes@U?$integral_constant@_N$0A@@std@@@?$_Tree@V?$_Tmap_traits@HPAVobject_t@@U?$less@H@std@@V?$allocator@U?$pair@$$CBHPAVobject_t@@@std@@@3@$0A@@std@@@std@@IAEPAU?$_Tree_node@U?$pair@$$CBHPAVobject_t@@@std@@PAX@1@PAU21@0U?$integral_constant@_N$0A@@1@@Z 1002f680     mfdpage.obj
 0002:00006690       __tryblocktable$??$_Copy_nodes@U?$integral_constant@_N$0A@@std@@@?$_Tree@V?$_Tmap_traits@HPAVobject_t@@U?$less@H@std@@V?$allocator@U?$pair@$$CBHPAVobject_t@@@std@@@3@$0A@@std@@@std@@IAEPAU?$_Tree_node@U?$pair@$$CBHPAVobject_t@@@std@@PAX@1@PAU21@0U?$integral_constant@_N$0A@@1@@Z 1002f690     mfdpage.obj
 0002:000066a4       __ehfuncinfo$??$_Copy_nodes@U?$integral_constant@_N$0A@@std@@@?$_Tree@V?$_Tmap_traits@HPAVobject_t@@U?$less@H@std@@V?$allocator@U?$pair@$$CBHPAVobject_t@@@std@@@3@$0A@@std@@@std@@IAEPAU?$_Tree_node@U?$pair@$$CBHPAVobject_t@@@std@@PAX@1@PAU21@0U?$integral_constant@_N$0A@@1@@Z 1002f6a4     mfdpage.obj
 0002:000066c8       __catchsym$??$_Buynode@AAU?$pair@$$CBHPAVobject_t@@@std@@@?$_Tree_buy@U?$pair@$$CBHPAVobject_t@@@std@@V?$allocator@U?$pair@$$CBHPAVobject_t@@@std@@@2@@std@@QAEPAU?$_Tree_node@U?$pair@$$CBHPAVobject_t@@@std@@PAX@1@AAU?$pair@$$CBHPAVobject_t@@@1@@Z$2 1002f6c8     mfdpage.obj
 0002:000066d8       __unwindtable$??$_Buynode@AAU?$pair@$$CBHPAVobject_t@@@std@@@?$_Tree_buy@U?$pair@$$CBHPAVobject_t@@@std@@V?$allocator@U?$pair@$$CBHPAVobject_t@@@std@@@2@@std@@QAEPAU?$_Tree_node@U?$pair@$$CBHPAVobject_t@@@std@@PAX@1@AAU?$pair@$$CBHPAVobject_t@@@1@@Z 1002f6d8     mfdpage.obj
 0002:000066e8       __tryblocktable$??$_Buynode@AAU?$pair@$$CBHPAVobject_t@@@std@@@?$_Tree_buy@U?$pair@$$CBHPAVobject_t@@@std@@V?$allocator@U?$pair@$$CBHPAVobject_t@@@std@@@2@@std@@QAEPAU?$_Tree_node@U?$pair@$$CBHPAVobject_t@@@std@@PAX@1@AAU?$pair@$$CBHPAVobject_t@@@1@@Z 1002f6e8     mfdpage.obj
 0002:000066fc       __ehfuncinfo$??$_Buynode@AAU?$pair@$$CBHPAVobject_t@@@std@@@?$_Tree_buy@U?$pair@$$CBHPAVobject_t@@@std@@V?$allocator@U?$pair@$$CBHPAVobject_t@@@std@@@2@@std@@QAEPAU?$_Tree_node@U?$pair@$$CBHPAVobject_t@@@std@@PAX@1@AAU?$pair@$$CBHPAVobject_t@@@1@@Z 1002f6fc     mfdpage.obj
 0002:00006720       __catchsym$?_Buynode0@?$_Tree_buy@U?$pair@$$CBHPAVfms_fp_item_t@@@std@@V?$allocator@U?$pair@$$CBHPAVfms_fp_item_t@@@std@@@2@@std@@QAEPAU?$_Tree_node@U?$pair@$$CBHPAVfms_fp_item_t@@@std@@PAX@2@XZ$2 1002f720     mfdpage_fms.obj
 0002:00006720       __catchsym$?_Buynode0@?$_Tree_buy@U?$pair@$$CBHM@std@@V?$allocator@U?$pair@$$CBHM@std@@@2@@std@@QAEPAU?$_Tree_node@U?$pair@$$CBHM@std@@PAX@2@XZ$2 1002f720     mfdpage_fms.obj
 0002:00006720       __catchsym$?_Buynode0@?$_Tree_buy@U?$pair@$$CBHPAVobject_t@@@std@@V?$allocator@U?$pair@$$CBHPAVobject_t@@@std@@@2@@std@@QAEPAU?$_Tree_node@U?$pair@$$CBHPAVobject_t@@@std@@PAX@2@XZ$2 1002f720     mfdpage_fms.obj
 0002:00006730       __unwindtable$?_Buynode0@?$_Tree_buy@U?$pair@$$CBHPAVobject_t@@@std@@V?$allocator@U?$pair@$$CBHPAVobject_t@@@std@@@2@@std@@QAEPAU?$_Tree_node@U?$pair@$$CBHPAVobject_t@@@std@@PAX@2@XZ 1002f730     mfdpage_fms.obj
 0002:00006730       __unwindtable$?_Buynode0@?$_Tree_buy@U?$pair@$$CBHM@std@@V?$allocator@U?$pair@$$CBHM@std@@@2@@std@@QAEPAU?$_Tree_node@U?$pair@$$CBHM@std@@PAX@2@XZ 1002f730     mfdpage_fms.obj
 0002:00006730       __unwindtable$?_Buynode0@?$_Tree_buy@U?$pair@$$CBHPAVfms_fp_item_t@@@std@@V?$allocator@U?$pair@$$CBHPAVfms_fp_item_t@@@std@@@2@@std@@QAEPAU?$_Tree_node@U?$pair@$$CBHPAVfms_fp_item_t@@@std@@PAX@2@XZ 1002f730     mfdpage_fms.obj
 0002:00006740       __tryblocktable$?_Buynode0@?$_Tree_buy@U?$pair@$$CBHM@std@@V?$allocator@U?$pair@$$CBHM@std@@@2@@std@@QAEPAU?$_Tree_node@U?$pair@$$CBHM@std@@PAX@2@XZ 1002f740     mfdpage_fms.obj
 0002:00006740       __tryblocktable$?_Buynode0@?$_Tree_buy@U?$pair@$$CBHPAVobject_t@@@std@@V?$allocator@U?$pair@$$CBHPAVobject_t@@@std@@@2@@std@@QAEPAU?$_Tree_node@U?$pair@$$CBHPAVobject_t@@@std@@PAX@2@XZ 1002f740     mfdpage_fms.obj
 0002:00006740       __tryblocktable$?_Buynode0@?$_Tree_buy@U?$pair@$$CBHPAVfms_fp_item_t@@@std@@V?$allocator@U?$pair@$$CBHPAVfms_fp_item_t@@@std@@@2@@std@@QAEPAU?$_Tree_node@U?$pair@$$CBHPAVfms_fp_item_t@@@std@@PAX@2@XZ 1002f740     mfdpage_fms.obj
 0002:00006754       __ehfuncinfo$?_Buynode0@?$_Tree_buy@U?$pair@$$CBHM@std@@V?$allocator@U?$pair@$$CBHM@std@@@2@@std@@QAEPAU?$_Tree_node@U?$pair@$$CBHM@std@@PAX@2@XZ 1002f754     mfdpage_fms.obj
 0002:00006754       __ehfuncinfo$?_Buynode0@?$_Tree_buy@U?$pair@$$CBHPAVobject_t@@@std@@V?$allocator@U?$pair@$$CBHPAVobject_t@@@std@@@2@@std@@QAEPAU?$_Tree_node@U?$pair@$$CBHPAVobject_t@@@std@@PAX@2@XZ 1002f754     mfdpage_fms.obj
 0002:00006754       __ehfuncinfo$?_Buynode0@?$_Tree_buy@U?$pair@$$CBHPAVfms_fp_item_t@@@std@@V?$allocator@U?$pair@$$CBHPAVfms_fp_item_t@@@std@@@2@@std@@QAEPAU?$_Tree_node@U?$pair@$$CBHPAVfms_fp_item_t@@@std@@PAX@2@XZ 1002f754     mfdpage_fms.obj
 0002:00006778       __catchsym$?_Buyheadnode@?$_Tree_alloc@$0A@U?$_Tree_base_types@U?$pair@$$CBV?$basic_string@DU?$char_traits@D@std@@V?$allocator@D@2@@std@@PAVfms_config_item_t@@@std@@V?$allocator@U?$pair@$$CBV?$basic_string@DU?$char_traits@D@std@@V?$allocator@D@2@@std@@PAVfms_config_item_t@@@std@@@2@@std@@@std@@QAEPAU?$_Tree_node@U?$pair@$$CBV?$basic_string@DU?$char_traits@D@std@@V?$allocator@D@2@@std@@PAVfms_config_item_t@@@std@@PAX@2@XZ$2 1002f778     mfdpage_fms.obj
 0002:00006778       __catchsym$?_Buyheadnode@?$_Tree_alloc@$0A@U?$_Tree_base_types@U?$pair@$$CBV?$basic_string@DU?$char_traits@D@std@@V?$allocator@D@2@@std@@PAVfms_fp_item_t@@@std@@V?$allocator@U?$pair@$$CBV?$basic_string@DU?$char_traits@D@std@@V?$allocator@D@2@@std@@PAVfms_fp_item_t@@@std@@@2@@std@@@std@@QAEPAU?$_Tree_node@U?$pair@$$CBV?$basic_string@DU?$char_traits@D@std@@V?$allocator@D@2@@std@@PAVfms_fp_item_t@@@std@@PAX@2@XZ$2 1002f778     mfdpage_fms.obj
 0002:00006778       __catchsym$?_Buyheadnode@?$_Tree_alloc@$0A@U?$_Tree_base_types@U?$pair@$$CBV?$basic_string@DU?$char_traits@D@std@@V?$allocator@D@2@@std@@M@std@@V?$allocator@U?$pair@$$CBV?$basic_string@DU?$char_traits@D@std@@V?$allocator@D@2@@std@@M@std@@@2@@std@@@std@@QAEPAU?$_Tree_node@U?$pair@$$CBV?$basic_string@DU?$char_traits@D@std@@V?$allocator@D@2@@std@@M@std@@PAX@2@XZ$2 1002f778     mfdpage_fms.obj
 0002:00006778       __catchsym$?_Buyheadnode@?$_Tree_alloc@$0A@U?$_Tree_base_types@U?$pair@$$CBV?$basic_string@DU?$char_traits@D@std@@V?$allocator@D@2@@std@@D@std@@V?$allocator@U?$pair@$$CBV?$basic_string@DU?$char_traits@D@std@@V?$allocator@D@2@@std@@D@std@@@2@@std@@@std@@QAEPAU?$_Tree_node@U?$pair@$$CBV?$basic_string@DU?$char_traits@D@std@@V?$allocator@D@2@@std@@D@std@@PAX@2@XZ$2 1002f778     mfdpage_fms.obj
 0002:00006778       __catchsym$?_Buyheadnode@?$_Tree_alloc@$0A@U?$_Tree_base_types@U?$pair@$$CBHV?$basic_string@DU?$char_traits@D@std@@V?$allocator@D@2@@std@@@std@@V?$allocator@U?$pair@$$CBHV?$basic_string@DU?$char_traits@D@std@@V?$allocator@D@2@@std@@@std@@@2@@std@@@std@@QAEPAU?$_Tree_node@U?$pair@$$CBHV?$basic_string@DU?$char_traits@D@std@@V?$allocator@D@2@@std@@@std@@PAX@2@XZ$2 1002f778     mfdpage_fms.obj
 0002:00006778       __catchsym$?_Buyheadnode@?$_Tree_alloc@$0A@U?$_Tree_base_types@U?$pair@$$CBV?$basic_string@DU?$char_traits@D@std@@V?$allocator@D@2@@std@@H@std@@V?$allocator@U?$pair@$$CBV?$basic_string@DU?$char_traits@D@std@@V?$allocator@D@2@@std@@H@std@@@2@@std@@@std@@QAEPAU?$_Tree_node@U?$pair@$$CBV?$basic_string@DU?$char_traits@D@std@@V?$allocator@D@2@@std@@H@std@@PAX@2@XZ$2 1002f778     mfdpage_fms.obj
 0002:00006788       __unwindtable$?_Buyheadnode@?$_Tree_alloc@$0A@U?$_Tree_base_types@U?$pair@$$CBV?$basic_string@DU?$char_traits@D@std@@V?$allocator@D@2@@std@@PAVfms_fp_item_t@@@std@@V?$allocator@U?$pair@$$CBV?$basic_string@DU?$char_traits@D@std@@V?$allocator@D@2@@std@@PAVfms_fp_item_t@@@std@@@2@@std@@@std@@QAEPAU?$_Tree_node@U?$pair@$$CBV?$basic_string@DU?$char_traits@D@std@@V?$allocator@D@2@@std@@PAVfms_fp_item_t@@@std@@PAX@2@XZ 1002f788     mfdpage_fms.obj
 0002:00006788       __unwindtable$?_Buyheadnode@?$_Tree_alloc@$0A@U?$_Tree_base_types@U?$pair@$$CBV?$basic_string@DU?$char_traits@D@std@@V?$allocator@D@2@@std@@D@std@@V?$allocator@U?$pair@$$CBV?$basic_string@DU?$char_traits@D@std@@V?$allocator@D@2@@std@@D@std@@@2@@std@@@std@@QAEPAU?$_Tree_node@U?$pair@$$CBV?$basic_string@DU?$char_traits@D@std@@V?$allocator@D@2@@std@@D@std@@PAX@2@XZ 1002f788     mfdpage_fms.obj
 0002:00006788       __unwindtable$?_Buyheadnode@?$_Tree_alloc@$0A@U?$_Tree_base_types@U?$pair@$$CBV?$basic_string@DU?$char_traits@D@std@@V?$allocator@D@2@@std@@M@std@@V?$allocator@U?$pair@$$CBV?$basic_string@DU?$char_traits@D@std@@V?$allocator@D@2@@std@@M@std@@@2@@std@@@std@@QAEPAU?$_Tree_node@U?$pair@$$CBV?$basic_string@DU?$char_traits@D@std@@V?$allocator@D@2@@std@@M@std@@PAX@2@XZ 1002f788     mfdpage_fms.obj
 0002:00006788       __unwindtable$?_Buyheadnode@?$_Tree_alloc@$0A@U?$_Tree_base_types@U?$pair@$$CBV?$basic_string@DU?$char_traits@D@std@@V?$allocator@D@2@@std@@PAVfms_config_item_t@@@std@@V?$allocator@U?$pair@$$CBV?$basic_string@DU?$char_traits@D@std@@V?$allocator@D@2@@std@@PAVfms_config_item_t@@@std@@@2@@std@@@std@@QAEPAU?$_Tree_node@U?$pair@$$CBV?$basic_string@DU?$char_traits@D@std@@V?$allocator@D@2@@std@@PAVfms_config_item_t@@@std@@PAX@2@XZ 1002f788     mfdpage_fms.obj
 0002:00006788       __unwindtable$?_Buyheadnode@?$_Tree_alloc@$0A@U?$_Tree_base_types@U?$pair@$$CBV?$basic_string@DU?$char_traits@D@std@@V?$allocator@D@2@@std@@H@std@@V?$allocator@U?$pair@$$CBV?$basic_string@DU?$char_traits@D@std@@V?$allocator@D@2@@std@@H@std@@@2@@std@@@std@@QAEPAU?$_Tree_node@U?$pair@$$CBV?$basic_string@DU?$char_traits@D@std@@V?$allocator@D@2@@std@@H@std@@PAX@2@XZ 1002f788     mfdpage_fms.obj
 0002:00006788       __unwindtable$?_Buyheadnode@?$_Tree_alloc@$0A@U?$_Tree_base_types@U?$pair@$$CBHV?$basic_string@DU?$char_traits@D@std@@V?$allocator@D@2@@std@@@std@@V?$allocator@U?$pair@$$CBHV?$basic_string@DU?$char_traits@D@std@@V?$allocator@D@2@@std@@@std@@@2@@std@@@std@@QAEPAU?$_Tree_node@U?$pair@$$CBHV?$basic_string@DU?$char_traits@D@std@@V?$allocator@D@2@@std@@@std@@PAX@2@XZ 1002f788     mfdpage_fms.obj
 0002:00006798       __tryblocktable$?_Buyheadnode@?$_Tree_alloc@$0A@U?$_Tree_base_types@U?$pair@$$CBV?$basic_string@DU?$char_traits@D@std@@V?$allocator@D@2@@std@@PAVfms_config_item_t@@@std@@V?$allocator@U?$pair@$$CBV?$basic_string@DU?$char_traits@D@std@@V?$allocator@D@2@@std@@PAVfms_config_item_t@@@std@@@2@@std@@@std@@QAEPAU?$_Tree_node@U?$pair@$$CBV?$basic_string@DU?$char_traits@D@std@@V?$allocator@D@2@@std@@PAVfms_config_item_t@@@std@@PAX@2@XZ 1002f798     mfdpage_fms.obj
 0002:00006798       __tryblocktable$?_Buyheadnode@?$_Tree_alloc@$0A@U?$_Tree_base_types@U?$pair@$$CBV?$basic_string@DU?$char_traits@D@std@@V?$allocator@D@2@@std@@PAVfms_fp_item_t@@@std@@V?$allocator@U?$pair@$$CBV?$basic_string@DU?$char_traits@D@std@@V?$allocator@D@2@@std@@PAVfms_fp_item_t@@@std@@@2@@std@@@std@@QAEPAU?$_Tree_node@U?$pair@$$CBV?$basic_string@DU?$char_traits@D@std@@V?$allocator@D@2@@std@@PAVfms_fp_item_t@@@std@@PAX@2@XZ 1002f798     mfdpage_fms.obj
 0002:00006798       __tryblocktable$?_Buyheadnode@?$_Tree_alloc@$0A@U?$_Tree_base_types@U?$pair@$$CBV?$basic_string@DU?$char_traits@D@std@@V?$allocator@D@2@@std@@M@std@@V?$allocator@U?$pair@$$CBV?$basic_string@DU?$char_traits@D@std@@V?$allocator@D@2@@std@@M@std@@@2@@std@@@std@@QAEPAU?$_Tree_node@U?$pair@$$CBV?$basic_string@DU?$char_traits@D@std@@V?$allocator@D@2@@std@@M@std@@PAX@2@XZ 1002f798     mfdpage_fms.obj
 0002:00006798       __tryblocktable$?_Buyheadnode@?$_Tree_alloc@$0A@U?$_Tree_base_types@U?$pair@$$CBV?$basic_string@DU?$char_traits@D@std@@V?$allocator@D@2@@std@@H@std@@V?$allocator@U?$pair@$$CBV?$basic_string@DU?$char_traits@D@std@@V?$allocator@D@2@@std@@H@std@@@2@@std@@@std@@QAEPAU?$_Tree_node@U?$pair@$$CBV?$basic_string@DU?$char_traits@D@std@@V?$allocator@D@2@@std@@H@std@@PAX@2@XZ 1002f798     mfdpage_fms.obj
 0002:00006798       __tryblocktable$?_Buyheadnode@?$_Tree_alloc@$0A@U?$_Tree_base_types@U?$pair@$$CBHV?$basic_string@DU?$char_traits@D@std@@V?$allocator@D@2@@std@@@std@@V?$allocator@U?$pair@$$CBHV?$basic_string@DU?$char_traits@D@std@@V?$allocator@D@2@@std@@@std@@@2@@std@@@std@@QAEPAU?$_Tree_node@U?$pair@$$CBHV?$basic_string@DU?$char_traits@D@std@@V?$allocator@D@2@@std@@@std@@PAX@2@XZ 1002f798     mfdpage_fms.obj
 0002:00006798       __tryblocktable$?_Buyheadnode@?$_Tree_alloc@$0A@U?$_Tree_base_types@U?$pair@$$CBV?$basic_string@DU?$char_traits@D@std@@V?$allocator@D@2@@std@@D@std@@V?$allocator@U?$pair@$$CBV?$basic_string@DU?$char_traits@D@std@@V?$allocator@D@2@@std@@D@std@@@2@@std@@@std@@QAEPAU?$_Tree_node@U?$pair@$$CBV?$basic_string@DU?$char_traits@D@std@@V?$allocator@D@2@@std@@D@std@@PAX@2@XZ 1002f798     mfdpage_fms.obj
 0002:000067ac       __ehfuncinfo$?_Buyheadnode@?$_Tree_alloc@$0A@U?$_Tree_base_types@U?$pair@$$CBV?$basic_string@DU?$char_traits@D@std@@V?$allocator@D@2@@std@@M@std@@V?$allocator@U?$pair@$$CBV?$basic_string@DU?$char_traits@D@std@@V?$allocator@D@2@@std@@M@std@@@2@@std@@@std@@QAEPAU?$_Tree_node@U?$pair@$$CBV?$basic_string@DU?$char_traits@D@std@@V?$allocator@D@2@@std@@M@std@@PAX@2@XZ 1002f7ac     mfdpage_fms.obj
 0002:000067ac       __ehfuncinfo$?_Buyheadnode@?$_Tree_alloc@$0A@U?$_Tree_base_types@U?$pair@$$CBV?$basic_string@DU?$char_traits@D@std@@V?$allocator@D@2@@std@@D@std@@V?$allocator@U?$pair@$$CBV?$basic_string@DU?$char_traits@D@std@@V?$allocator@D@2@@std@@D@std@@@2@@std@@@std@@QAEPAU?$_Tree_node@U?$pair@$$CBV?$basic_string@DU?$char_traits@D@std@@V?$allocator@D@2@@std@@D@std@@PAX@2@XZ 1002f7ac     mfdpage_fms.obj
 0002:000067ac       __ehfuncinfo$?_Buyheadnode@?$_Tree_alloc@$0A@U?$_Tree_base_types@U?$pair@$$CBV?$basic_string@DU?$char_traits@D@std@@V?$allocator@D@2@@std@@PAVfms_config_item_t@@@std@@V?$allocator@U?$pair@$$CBV?$basic_string@DU?$char_traits@D@std@@V?$allocator@D@2@@std@@PAVfms_config_item_t@@@std@@@2@@std@@@std@@QAEPAU?$_Tree_node@U?$pair@$$CBV?$basic_string@DU?$char_traits@D@std@@V?$allocator@D@2@@std@@PAVfms_config_item_t@@@std@@PAX@2@XZ 1002f7ac     mfdpage_fms.obj
 0002:000067ac       __ehfuncinfo$?_Buyheadnode@?$_Tree_alloc@$0A@U?$_Tree_base_types@U?$pair@$$CBHV?$basic_string@DU?$char_traits@D@std@@V?$allocator@D@2@@std@@@std@@V?$allocator@U?$pair@$$CBHV?$basic_string@DU?$char_traits@D@std@@V?$allocator@D@2@@std@@@std@@@2@@std@@@std@@QAEPAU?$_Tree_node@U?$pair@$$CBHV?$basic_string@DU?$char_traits@D@std@@V?$allocator@D@2@@std@@@std@@PAX@2@XZ 1002f7ac     mfdpage_fms.obj
 0002:000067ac       __ehfuncinfo$?_Buyheadnode@?$_Tree_alloc@$0A@U?$_Tree_base_types@U?$pair@$$CBV?$basic_string@DU?$char_traits@D@std@@V?$allocator@D@2@@std@@H@std@@V?$allocator@U?$pair@$$CBV?$basic_string@DU?$char_traits@D@std@@V?$allocator@D@2@@std@@H@std@@@2@@std@@@std@@QAEPAU?$_Tree_node@U?$pair@$$CBV?$basic_string@DU?$char_traits@D@std@@V?$allocator@D@2@@std@@H@std@@PAX@2@XZ 1002f7ac     mfdpage_fms.obj
 0002:000067ac       __ehfuncinfo$?_Buyheadnode@?$_Tree_alloc@$0A@U?$_Tree_base_types@U?$pair@$$CBV?$basic_string@DU?$char_traits@D@std@@V?$allocator@D@2@@std@@PAVfms_fp_item_t@@@std@@V?$allocator@U?$pair@$$CBV?$basic_string@DU?$char_traits@D@std@@V?$allocator@D@2@@std@@PAVfms_fp_item_t@@@std@@@2@@std@@@std@@QAEPAU?$_Tree_node@U?$pair@$$CBV?$basic_string@DU?$char_traits@D@std@@V?$allocator@D@2@@std@@PAVfms_fp_item_t@@@std@@PAX@2@XZ 1002f7ac     mfdpage_fms.obj
 0002:000067d0       __catchsym$??$_Buynode@ABUpiecewise_construct_t@std@@V?$tuple@$$QAV?$basic_string@DU?$char_traits@D@std@@V?$allocator@D@2@@std@@@2@V?$tuple@$$$V@2@@?$_Tree_buy@U?$pair@$$CBV?$basic_string@DU?$char_traits@D@std@@V?$allocator@D@2@@std@@M@std@@V?$allocator@U?$pair@$$CBV?$basic_string@DU?$char_traits@D@std@@V?$allocator@D@2@@std@@M@std@@@2@@std@@QAEPAU?$_Tree_node@U?$pair@$$CBV?$basic_string@DU?$char_traits@D@std@@V?$allocator@D@2@@std@@M@std@@PAX@1@ABUpiecewise_construct_t@1@$$QAV?$tuple@$$QAV?$basic_string@DU?$char_traits@D@std@@V?$allocator@D@2@@std@@@1@$$QAV?$tuple@$$$V@1@@Z$2 1002f7d0     mfdpage_fms.obj
 0002:000067e0       __unwindtable$??$_Buynode@ABUpiecewise_construct_t@std@@V?$tuple@$$QAV?$basic_string@DU?$char_traits@D@std@@V?$allocator@D@2@@std@@@2@V?$tuple@$$$V@2@@?$_Tree_buy@U?$pair@$$CBV?$basic_string@DU?$char_traits@D@std@@V?$allocator@D@2@@std@@M@std@@V?$allocator@U?$pair@$$CBV?$basic_string@DU?$char_traits@D@std@@V?$allocator@D@2@@std@@M@std@@@2@@std@@QAEPAU?$_Tree_node@U?$pair@$$CBV?$basic_string@DU?$char_traits@D@std@@V?$allocator@D@2@@std@@M@std@@PAX@1@ABUpiecewise_construct_t@1@$$QAV?$tuple@$$QAV?$basic_string@DU?$char_traits@D@std@@V?$allocator@D@2@@std@@@1@$$QAV?$tuple@$$$V@1@@Z 1002f7e0     mfdpage_fms.obj
 0002:000067f0       __tryblocktable$??$_Buynode@ABUpiecewise_construct_t@std@@V?$tuple@$$QAV?$basic_string@DU?$char_traits@D@std@@V?$allocator@D@2@@std@@@2@V?$tuple@$$$V@2@@?$_Tree_buy@U?$pair@$$CBV?$basic_string@DU?$char_traits@D@std@@V?$allocator@D@2@@std@@M@std@@V?$allocator@U?$pair@$$CBV?$basic_string@DU?$char_traits@D@std@@V?$allocator@D@2@@std@@M@std@@@2@@std@@QAEPAU?$_Tree_node@U?$pair@$$CBV?$basic_string@DU?$char_traits@D@std@@V?$allocator@D@2@@std@@M@std@@PAX@1@ABUpiecewise_construct_t@1@$$QAV?$tuple@$$QAV?$basic_string@DU?$char_traits@D@std@@V?$allocator@D@2@@std@@@1@$$QAV?$tuple@$$$V@1@@Z 1002f7f0     mfdpage_fms.obj
 0002:00006804       __ehfuncinfo$??$_Buynode@ABUpiecewise_construct_t@std@@V?$tuple@$$QAV?$basic_string@DU?$char_traits@D@std@@V?$allocator@D@2@@std@@@2@V?$tuple@$$$V@2@@?$_Tree_buy@U?$pair@$$CBV?$basic_string@DU?$char_traits@D@std@@V?$allocator@D@2@@std@@M@std@@V?$allocator@U?$pair@$$CBV?$basic_string@DU?$char_traits@D@std@@V?$allocator@D@2@@std@@M@std@@@2@@std@@QAEPAU?$_Tree_node@U?$pair@$$CBV?$basic_string@DU?$char_traits@D@std@@V?$allocator@D@2@@std@@M@std@@PAX@1@ABUpiecewise_construct_t@1@$$QAV?$tuple@$$QAV?$basic_string@DU?$char_traits@D@std@@V?$allocator@D@2@@std@@@1@$$QAV?$tuple@$$$V@1@@Z 1002f804     mfdpage_fms.obj
 0002:00006828       __catchsym$??$_Insert_hint@AAU?$pair@$$CBV?$basic_string@DU?$char_traits@D@std@@V?$allocator@D@2@@std@@M@std@@PAU?$_Tree_node@U?$pair@$$CBV?$basic_string@DU?$char_traits@D@std@@V?$allocator@D@2@@std@@M@std@@PAX@2@@?$_Tree@V?$_Tmap_traits@V?$basic_string@DU?$char_traits@D@std@@V?$allocator@D@2@@std@@MU?$less@V?$basic_string@DU?$char_traits@D@std@@V?$allocator@D@2@@std@@@2@V?$allocator@U?$pair@$$CBV?$basic_string@DU?$char_traits@D@std@@V?$allocator@D@2@@std@@M@std@@@2@$0A@@std@@@std@@IAE?AV?$_Tree_iterator@V?$_Tree_val@U?$_Tree_simple_types@U?$pair@$$CBV?$basic_string@DU?$char_traits@D@std@@V?$allocator@D@2@@std@@M@std@@@std@@@std@@@1@V?$_Tree_const_iterator@V?$_Tree_val@U?$_Tree_simple_types@U?$pair@$$CBV?$basic_string@DU?$char_traits@D@std@@V?$allocator@D@2@@std@@M@std@@@std@@@std@@@1@AAU?$pair@$$CBV?$basic_string@DU?$char_traits@D@std@@V?$allocator@D@2@@std@@M@1@PAU?$_Tree_node@U?$pair@$$CBV?$basic_string@DU?$char_traits@D@std@@V?$allocator@D@2@@std@@M@std@@PAX@1@@Z$2 1002f828     mfdpage_fms.obj
 0002:00006828       __catchsym$??$_Insert_hint@AAU?$pair@$$CBV?$basic_string@DU?$char_traits@D@std@@V?$allocator@D@2@@std@@PAVfms_config_item_t@@@std@@PAU?$_Tree_node@U?$pair@$$CBV?$basic_string@DU?$char_traits@D@std@@V?$allocator@D@2@@std@@PAVfms_config_item_t@@@std@@PAX@2@@?$_Tree@V?$_Tmap_traits@V?$basic_string@DU?$char_traits@D@std@@V?$allocator@D@2@@std@@PAVfms_config_item_t@@U?$less@V?$basic_string@DU?$char_traits@D@std@@V?$allocator@D@2@@std@@@2@V?$allocator@U?$pair@$$CBV?$basic_string@DU?$char_traits@D@std@@V?$allocator@D@2@@std@@PAVfms_config_item_t@@@std@@@2@$0A@@std@@@std@@IAE?AV?$_Tree_iterator@V?$_Tree_val@U?$_Tree_simple_types@U?$pair@$$CBV?$basic_string@DU?$char_traits@D@std@@V?$allocator@D@2@@std@@PAVfms_config_item_t@@@std@@@std@@@std@@@1@V?$_Tree_const_iterator@V?$_Tree_val@U?$_Tree_simple_types@U?$pair@$$CBV?$basic_string@DU?$char_traits@D@std@@V?$allocator@D@2@@std@@PAVfms_config_item_t@@@std@@@std@@@std@@@1@AAU?$pair@$$CBV?$basic_string@DU?$char_traits@D@std@@V?$allocator@D@2@@std@@PAVfms_config_item_t@@@1@PAU?$_Tree_node@U?$pair@$$CBV?$basic_string@DU?$char_traits@D@std@@V?$allocator@D@2@@std@@PAVfms_config_item_t@@@std@@PAX@1@@Z$2 1002f828     mfdpage_fms.obj
 0002:00006828       __catchsym$??$_Insert_hint@AAU?$pair@$$CBV?$basic_string@DU?$char_traits@D@std@@V?$allocator@D@2@@std@@D@std@@PAU?$_Tree_node@U?$pair@$$CBV?$basic_string@DU?$char_traits@D@std@@V?$allocator@D@2@@std@@D@std@@PAX@2@@?$_Tree@V?$_Tmap_traits@V?$basic_string@DU?$char_traits@D@std@@V?$allocator@D@2@@std@@DU?$less@V?$basic_string@DU?$char_traits@D@std@@V?$allocator@D@2@@std@@@2@V?$allocator@U?$pair@$$CBV?$basic_string@DU?$char_traits@D@std@@V?$allocator@D@2@@std@@D@std@@@2@$0A@@std@@@std@@IAE?AV?$_Tree_iterator@V?$_Tree_val@U?$_Tree_simple_types@U?$pair@$$CBV?$basic_string@DU?$char_traits@D@std@@V?$allocator@D@2@@std@@D@std@@@std@@@std@@@1@V?$_Tree_const_iterator@V?$_Tree_val@U?$_Tree_simple_types@U?$pair@$$CBV?$basic_string@DU?$char_traits@D@std@@V?$allocator@D@2@@std@@D@std@@@std@@@std@@@1@AAU?$pair@$$CBV?$basic_string@DU?$char_traits@D@std@@V?$allocator@D@2@@std@@D@1@PAU?$_Tree_node@U?$pair@$$CBV?$basic_string@DU?$char_traits@D@std@@V?$allocator@D@2@@std@@D@std@@PAX@1@@Z$2 1002f828     mfdpage_fms.obj
 0002:00006828       __catchsym$??$_Insert_hint@AAU?$pair@$$CBV?$basic_string@DU?$char_traits@D@std@@V?$allocator@D@2@@std@@PAVfms_fp_item_t@@@std@@PAU?$_Tree_node@U?$pair@$$CBV?$basic_string@DU?$char_traits@D@std@@V?$allocator@D@2@@std@@PAVfms_fp_item_t@@@std@@PAX@2@@?$_Tree@V?$_Tmap_traits@V?$basic_string@DU?$char_traits@D@std@@V?$allocator@D@2@@std@@PAVfms_fp_item_t@@U?$less@V?$basic_string@DU?$char_traits@D@std@@V?$allocator@D@2@@std@@@2@V?$allocator@U?$pair@$$CBV?$basic_string@DU?$char_traits@D@std@@V?$allocator@D@2@@std@@PAVfms_fp_item_t@@@std@@@2@$0A@@std@@@std@@IAE?AV?$_Tree_iterator@V?$_Tree_val@U?$_Tree_simple_types@U?$pair@$$CBV?$basic_string@DU?$char_traits@D@std@@V?$allocator@D@2@@std@@PAVfms_fp_item_t@@@std@@@std@@@std@@@1@V?$_Tree_const_iterator@V?$_Tree_val@U?$_Tree_simple_types@U?$pair@$$CBV?$basic_string@DU?$char_traits@D@std@@V?$allocator@D@2@@std@@PAVfms_fp_item_t@@@std@@@std@@@std@@@1@AAU?$pair@$$CBV?$basic_string@DU?$char_traits@D@std@@V?$allocator@D@2@@std@@PAVfms_fp_item_t@@@1@PAU?$_Tree_node@U?$pair@$$CBV?$basic_string@DU?$char_traits@D@std@@V?$allocator@D@2@@std@@PAVfms_fp_item_t@@@std@@PAX@1@@Z$2 1002f828     mfdpage_fms.obj
 0002:00006828       __catchsym$??$_Insert_hint@AAU?$pair@$$CBV?$basic_string@DU?$char_traits@D@std@@V?$allocator@D@2@@std@@H@std@@PAU?$_Tree_node@U?$pair@$$CBV?$basic_string@DU?$char_traits@D@std@@V?$allocator@D@2@@std@@H@std@@PAX@2@@?$_Tree@V?$_Tmap_traits@V?$basic_string@DU?$char_traits@D@std@@V?$allocator@D@2@@std@@HU?$less@V?$basic_string@DU?$char_traits@D@std@@V?$allocator@D@2@@std@@@2@V?$allocator@U?$pair@$$CBV?$basic_string@DU?$char_traits@D@std@@V?$allocator@D@2@@std@@H@std@@@2@$0A@@std@@@std@@IAE?AV?$_Tree_iterator@V?$_Tree_val@U?$_Tree_simple_types@U?$pair@$$CBV?$basic_string@DU?$char_traits@D@std@@V?$allocator@D@2@@std@@H@std@@@std@@@std@@@1@V?$_Tree_const_iterator@V?$_Tree_val@U?$_Tree_simple_types@U?$pair@$$CBV?$basic_string@DU?$char_traits@D@std@@V?$allocator@D@2@@std@@H@std@@@std@@@std@@@1@AAU?$pair@$$CBV?$basic_string@DU?$char_traits@D@std@@V?$allocator@D@2@@std@@H@1@PAU?$_Tree_node@U?$pair@$$CBV?$basic_string@DU?$char_traits@D@std@@V?$allocator@D@2@@std@@H@std@@PAX@1@@Z$2 1002f828     mfdpage_fms.obj
 0002:00006838       __unwindtable$??$_Insert_hint@AAU?$pair@$$CBV?$basic_string@DU?$char_traits@D@std@@V?$allocator@D@2@@std@@H@std@@PAU?$_Tree_node@U?$pair@$$CBV?$basic_string@DU?$char_traits@D@std@@V?$allocator@D@2@@std@@H@std@@PAX@2@@?$_Tree@V?$_Tmap_traits@V?$basic_string@DU?$char_traits@D@std@@V?$allocator@D@2@@std@@HU?$less@V?$basic_string@DU?$char_traits@D@std@@V?$allocator@D@2@@std@@@2@V?$allocator@U?$pair@$$CBV?$basic_string@DU?$char_traits@D@std@@V?$allocator@D@2@@std@@H@std@@@2@$0A@@std@@@std@@IAE?AV?$_Tree_iterator@V?$_Tree_val@U?$_Tree_simple_types@U?$pair@$$CBV?$basic_string@DU?$char_traits@D@std@@V?$allocator@D@2@@std@@H@std@@@std@@@std@@@1@V?$_Tree_const_iterator@V?$_Tree_val@U?$_Tree_simple_types@U?$pair@$$CBV?$basic_string@DU?$char_traits@D@std@@V?$allocator@D@2@@std@@H@std@@@std@@@std@@@1@AAU?$pair@$$CBV?$basic_string@DU?$char_traits@D@std@@V?$allocator@D@2@@std@@H@1@PAU?$_Tree_node@U?$pair@$$CBV?$basic_string@DU?$char_traits@D@std@@V?$allocator@D@2@@std@@H@std@@PAX@1@@Z 1002f838     mfdpage_fms.obj
 0002:00006838       __unwindtable$??$_Insert_hint@AAU?$pair@$$CBV?$basic_string@DU?$char_traits@D@std@@V?$allocator@D@2@@std@@PAVfms_fp_item_t@@@std@@PAU?$_Tree_node@U?$pair@$$CBV?$basic_string@DU?$char_traits@D@std@@V?$allocator@D@2@@std@@PAVfms_fp_item_t@@@std@@PAX@2@@?$_Tree@V?$_Tmap_traits@V?$basic_string@DU?$char_traits@D@std@@V?$allocator@D@2@@std@@PAVfms_fp_item_t@@U?$less@V?$basic_string@DU?$char_traits@D@std@@V?$allocator@D@2@@std@@@2@V?$allocator@U?$pair@$$CBV?$basic_string@DU?$char_traits@D@std@@V?$allocator@D@2@@std@@PAVfms_fp_item_t@@@std@@@2@$0A@@std@@@std@@IAE?AV?$_Tree_iterator@V?$_Tree_val@U?$_Tree_simple_types@U?$pair@$$CBV?$basic_string@DU?$char_traits@D@std@@V?$allocator@D@2@@std@@PAVfms_fp_item_t@@@std@@@std@@@std@@@1@V?$_Tree_const_iterator@V?$_Tree_val@U?$_Tree_simple_types@U?$pair@$$CBV?$basic_string@DU?$char_traits@D@std@@V?$allocator@D@2@@std@@PAVfms_fp_item_t@@@std@@@std@@@std@@@1@AAU?$pair@$$CBV?$basic_string@DU?$char_traits@D@std@@V?$allocator@D@2@@std@@PAVfms_fp_item_t@@@1@PAU?$_Tree_node@U?$pair@$$CBV?$basic_string@DU?$char_traits@D@std@@V?$allocator@D@2@@std@@PAVfms_fp_item_t@@@std@@PAX@1@@Z 1002f838     mfdpage_fms.obj
 0002:00006838       __unwindtable$??$_Insert_hint@AAU?$pair@$$CBV?$basic_string@DU?$char_traits@D@std@@V?$allocator@D@2@@std@@M@std@@PAU?$_Tree_node@U?$pair@$$CBV?$basic_string@DU?$char_traits@D@std@@V?$allocator@D@2@@std@@M@std@@PAX@2@@?$_Tree@V?$_Tmap_traits@V?$basic_string@DU?$char_traits@D@std@@V?$allocator@D@2@@std@@MU?$less@V?$basic_string@DU?$char_traits@D@std@@V?$allocator@D@2@@std@@@2@V?$allocator@U?$pair@$$CBV?$basic_string@DU?$char_traits@D@std@@V?$allocator@D@2@@std@@M@std@@@2@$0A@@std@@@std@@IAE?AV?$_Tree_iterator@V?$_Tree_val@U?$_Tree_simple_types@U?$pair@$$CBV?$basic_string@DU?$char_traits@D@std@@V?$allocator@D@2@@std@@M@std@@@std@@@std@@@1@V?$_Tree_const_iterator@V?$_Tree_val@U?$_Tree_simple_types@U?$pair@$$CBV?$basic_string@DU?$char_traits@D@std@@V?$allocator@D@2@@std@@M@std@@@std@@@std@@@1@AAU?$pair@$$CBV?$basic_string@DU?$char_traits@D@std@@V?$allocator@D@2@@std@@M@1@PAU?$_Tree_node@U?$pair@$$CBV?$basic_string@DU?$char_traits@D@std@@V?$allocator@D@2@@std@@M@std@@PAX@1@@Z 1002f838     mfdpage_fms.obj
 0002:00006838       __unwindtable$??$_Insert_hint@AAU?$pair@$$CBV?$basic_string@DU?$char_traits@D@std@@V?$allocator@D@2@@std@@D@std@@PAU?$_Tree_node@U?$pair@$$CBV?$basic_string@DU?$char_traits@D@std@@V?$allocator@D@2@@std@@D@std@@PAX@2@@?$_Tree@V?$_Tmap_traits@V?$basic_string@DU?$char_traits@D@std@@V?$allocator@D@2@@std@@DU?$less@V?$basic_string@DU?$char_traits@D@std@@V?$allocator@D@2@@std@@@2@V?$allocator@U?$pair@$$CBV?$basic_string@DU?$char_traits@D@std@@V?$allocator@D@2@@std@@D@std@@@2@$0A@@std@@@std@@IAE?AV?$_Tree_iterator@V?$_Tree_val@U?$_Tree_simple_types@U?$pair@$$CBV?$basic_string@DU?$char_traits@D@std@@V?$allocator@D@2@@std@@D@std@@@std@@@std@@@1@V?$_Tree_const_iterator@V?$_Tree_val@U?$_Tree_simple_types@U?$pair@$$CBV?$basic_string@DU?$char_traits@D@std@@V?$allocator@D@2@@std@@D@std@@@std@@@std@@@1@AAU?$pair@$$CBV?$basic_string@DU?$char_traits@D@std@@V?$allocator@D@2@@std@@D@1@PAU?$_Tree_node@U?$pair@$$CBV?$basic_string@DU?$char_traits@D@std@@V?$allocator@D@2@@std@@D@std@@PAX@1@@Z 1002f838     mfdpage_fms.obj
 0002:00006838       __unwindtable$??$_Insert_hint@AAU?$pair@$$CBV?$basic_string@DU?$char_traits@D@std@@V?$allocator@D@2@@std@@PAVfms_config_item_t@@@std@@PAU?$_Tree_node@U?$pair@$$CBV?$basic_string@DU?$char_traits@D@std@@V?$allocator@D@2@@std@@PAVfms_config_item_t@@@std@@PAX@2@@?$_Tree@V?$_Tmap_traits@V?$basic_string@DU?$char_traits@D@std@@V?$allocator@D@2@@std@@PAVfms_config_item_t@@U?$less@V?$basic_string@DU?$char_traits@D@std@@V?$allocator@D@2@@std@@@2@V?$allocator@U?$pair@$$CBV?$basic_string@DU?$char_traits@D@std@@V?$allocator@D@2@@std@@PAVfms_config_item_t@@@std@@@2@$0A@@std@@@std@@IAE?AV?$_Tree_iterator@V?$_Tree_val@U?$_Tree_simple_types@U?$pair@$$CBV?$basic_string@DU?$char_traits@D@std@@V?$allocator@D@2@@std@@PAVfms_config_item_t@@@std@@@std@@@std@@@1@V?$_Tree_const_iterator@V?$_Tree_val@U?$_Tree_simple_types@U?$pair@$$CBV?$basic_string@DU?$char_traits@D@std@@V?$allocator@D@2@@std@@PAVfms_config_item_t@@@std@@@std@@@std@@@1@AAU?$pair@$$CBV?$basic_string@DU?$char_traits@D@std@@V?$allocator@D@2@@std@@PAVfms_config_item_t@@@1@PAU?$_Tree_node@U?$pair@$$CBV?$basic_string@DU?$char_traits@D@std@@V?$allocator@D@2@@std@@PAVfms_config_item_t@@@std@@PAX@1@@Z 1002f838     mfdpage_fms.obj
 0002:00006848       __tryblocktable$??$_Insert_hint@AAU?$pair@$$CBV?$basic_string@DU?$char_traits@D@std@@V?$allocator@D@2@@std@@M@std@@PAU?$_Tree_node@U?$pair@$$CBV?$basic_string@DU?$char_traits@D@std@@V?$allocator@D@2@@std@@M@std@@PAX@2@@?$_Tree@V?$_Tmap_traits@V?$basic_string@DU?$char_traits@D@std@@V?$allocator@D@2@@std@@MU?$less@V?$basic_string@DU?$char_traits@D@std@@V?$allocator@D@2@@std@@@2@V?$allocator@U?$pair@$$CBV?$basic_string@DU?$char_traits@D@std@@V?$allocator@D@2@@std@@M@std@@@2@$0A@@std@@@std@@IAE?AV?$_Tree_iterator@V?$_Tree_val@U?$_Tree_simple_types@U?$pair@$$CBV?$basic_string@DU?$char_traits@D@std@@V?$allocator@D@2@@std@@M@std@@@std@@@std@@@1@V?$_Tree_const_iterator@V?$_Tree_val@U?$_Tree_simple_types@U?$pair@$$CBV?$basic_string@DU?$char_traits@D@std@@V?$allocator@D@2@@std@@M@std@@@std@@@std@@@1@AAU?$pair@$$CBV?$basic_string@DU?$char_traits@D@std@@V?$allocator@D@2@@std@@M@1@PAU?$_Tree_node@U?$pair@$$CBV?$basic_string@DU?$char_traits@D@std@@V?$allocator@D@2@@std@@M@std@@PAX@1@@Z 1002f848     mfdpage_fms.obj
 0002:00006848       __tryblocktable$??$_Insert_hint@AAU?$pair@$$CBV?$basic_string@DU?$char_traits@D@std@@V?$allocator@D@2@@std@@H@std@@PAU?$_Tree_node@U?$pair@$$CBV?$basic_string@DU?$char_traits@D@std@@V?$allocator@D@2@@std@@H@std@@PAX@2@@?$_Tree@V?$_Tmap_traits@V?$basic_string@DU?$char_traits@D@std@@V?$allocator@D@2@@std@@HU?$less@V?$basic_string@DU?$char_traits@D@std@@V?$allocator@D@2@@std@@@2@V?$allocator@U?$pair@$$CBV?$basic_string@DU?$char_traits@D@std@@V?$allocator@D@2@@std@@H@std@@@2@$0A@@std@@@std@@IAE?AV?$_Tree_iterator@V?$_Tree_val@U?$_Tree_simple_types@U?$pair@$$CBV?$basic_string@DU?$char_traits@D@std@@V?$allocator@D@2@@std@@H@std@@@std@@@std@@@1@V?$_Tree_const_iterator@V?$_Tree_val@U?$_Tree_simple_types@U?$pair@$$CBV?$basic_string@DU?$char_traits@D@std@@V?$allocator@D@2@@std@@H@std@@@std@@@std@@@1@AAU?$pair@$$CBV?$basic_string@DU?$char_traits@D@std@@V?$allocator@D@2@@std@@H@1@PAU?$_Tree_node@U?$pair@$$CBV?$basic_string@DU?$char_traits@D@std@@V?$allocator@D@2@@std@@H@std@@PAX@1@@Z 1002f848     mfdpage_fms.obj
 0002:00006848       __tryblocktable$??$_Insert_hint@AAU?$pair@$$CBV?$basic_string@DU?$char_traits@D@std@@V?$allocator@D@2@@std@@PAVfms_fp_item_t@@@std@@PAU?$_Tree_node@U?$pair@$$CBV?$basic_string@DU?$char_traits@D@std@@V?$allocator@D@2@@std@@PAVfms_fp_item_t@@@std@@PAX@2@@?$_Tree@V?$_Tmap_traits@V?$basic_string@DU?$char_traits@D@std@@V?$allocator@D@2@@std@@PAVfms_fp_item_t@@U?$less@V?$basic_string@DU?$char_traits@D@std@@V?$allocator@D@2@@std@@@2@V?$allocator@U?$pair@$$CBV?$basic_string@DU?$char_traits@D@std@@V?$allocator@D@2@@std@@PAVfms_fp_item_t@@@std@@@2@$0A@@std@@@std@@IAE?AV?$_Tree_iterator@V?$_Tree_val@U?$_Tree_simple_types@U?$pair@$$CBV?$basic_string@DU?$char_traits@D@std@@V?$allocator@D@2@@std@@PAVfms_fp_item_t@@@std@@@std@@@std@@@1@V?$_Tree_const_iterator@V?$_Tree_val@U?$_Tree_simple_types@U?$pair@$$CBV?$basic_string@DU?$char_traits@D@std@@V?$allocator@D@2@@std@@PAVfms_fp_item_t@@@std@@@std@@@std@@@1@AAU?$pair@$$CBV?$basic_string@DU?$char_traits@D@std@@V?$allocator@D@2@@std@@PAVfms_fp_item_t@@@1@PAU?$_Tree_node@U?$pair@$$CBV?$basic_string@DU?$char_traits@D@std@@V?$allocator@D@2@@std@@PAVfms_fp_item_t@@@std@@PAX@1@@Z 1002f848     mfdpage_fms.obj
 0002:00006848       __tryblocktable$??$_Insert_hint@AAU?$pair@$$CBV?$basic_string@DU?$char_traits@D@std@@V?$allocator@D@2@@std@@D@std@@PAU?$_Tree_node@U?$pair@$$CBV?$basic_string@DU?$char_traits@D@std@@V?$allocator@D@2@@std@@D@std@@PAX@2@@?$_Tree@V?$_Tmap_traits@V?$basic_string@DU?$char_traits@D@std@@V?$allocator@D@2@@std@@DU?$less@V?$basic_string@DU?$char_traits@D@std@@V?$allocator@D@2@@std@@@2@V?$allocator@U?$pair@$$CBV?$basic_string@DU?$char_traits@D@std@@V?$allocator@D@2@@std@@D@std@@@2@$0A@@std@@@std@@IAE?AV?$_Tree_iterator@V?$_Tree_val@U?$_Tree_simple_types@U?$pair@$$CBV?$basic_string@DU?$char_traits@D@std@@V?$allocator@D@2@@std@@D@std@@@std@@@std@@@1@V?$_Tree_const_iterator@V?$_Tree_val@U?$_Tree_simple_types@U?$pair@$$CBV?$basic_string@DU?$char_traits@D@std@@V?$allocator@D@2@@std@@D@std@@@std@@@std@@@1@AAU?$pair@$$CBV?$basic_string@DU?$char_traits@D@std@@V?$allocator@D@2@@std@@D@1@PAU?$_Tree_node@U?$pair@$$CBV?$basic_string@DU?$char_traits@D@std@@V?$allocator@D@2@@std@@D@std@@PAX@1@@Z 1002f848     mfdpage_fms.obj
 0002:00006848       __tryblocktable$??$_Insert_hint@AAU?$pair@$$CBV?$basic_string@DU?$char_traits@D@std@@V?$allocator@D@2@@std@@PAVfms_config_item_t@@@std@@PAU?$_Tree_node@U?$pair@$$CBV?$basic_string@DU?$char_traits@D@std@@V?$allocator@D@2@@std@@PAVfms_config_item_t@@@std@@PAX@2@@?$_Tree@V?$_Tmap_traits@V?$basic_string@DU?$char_traits@D@std@@V?$allocator@D@2@@std@@PAVfms_config_item_t@@U?$less@V?$basic_string@DU?$char_traits@D@std@@V?$allocator@D@2@@std@@@2@V?$allocator@U?$pair@$$CBV?$basic_string@DU?$char_traits@D@std@@V?$allocator@D@2@@std@@PAVfms_config_item_t@@@std@@@2@$0A@@std@@@std@@IAE?AV?$_Tree_iterator@V?$_Tree_val@U?$_Tree_simple_types@U?$pair@$$CBV?$basic_string@DU?$char_traits@D@std@@V?$allocator@D@2@@std@@PAVfms_config_item_t@@@std@@@std@@@std@@@1@V?$_Tree_const_iterator@V?$_Tree_val@U?$_Tree_simple_types@U?$pair@$$CBV?$basic_string@DU?$char_traits@D@std@@V?$allocator@D@2@@std@@PAVfms_config_item_t@@@std@@@std@@@std@@@1@AAU?$pair@$$CBV?$basic_string@DU?$char_traits@D@std@@V?$allocator@D@2@@std@@PAVfms_config_item_t@@@1@PAU?$_Tree_node@U?$pair@$$CBV?$basic_string@DU?$char_traits@D@std@@V?$allocator@D@2@@std@@PAVfms_config_item_t@@@std@@PAX@1@@Z 1002f848     mfdpage_fms.obj
 0002:0000685c       __ehfuncinfo$??$_Insert_hint@AAU?$pair@$$CBV?$basic_string@DU?$char_traits@D@std@@V?$allocator@D@2@@std@@PAVfms_config_item_t@@@std@@PAU?$_Tree_node@U?$pair@$$CBV?$basic_string@DU?$char_traits@D@std@@V?$allocator@D@2@@std@@PAVfms_config_item_t@@@std@@PAX@2@@?$_Tree@V?$_Tmap_traits@V?$basic_string@DU?$char_traits@D@std@@V?$allocator@D@2@@std@@PAVfms_config_item_t@@U?$less@V?$basic_string@DU?$char_traits@D@std@@V?$allocator@D@2@@std@@@2@V?$allocator@U?$pair@$$CBV?$basic_string@DU?$char_traits@D@std@@V?$allocator@D@2@@std@@PAVfms_config_item_t@@@std@@@2@$0A@@std@@@std@@IAE?AV?$_Tree_iterator@V?$_Tree_val@U?$_Tree_simple_types@U?$pair@$$CBV?$basic_string@DU?$char_traits@D@std@@V?$allocator@D@2@@std@@PAVfms_config_item_t@@@std@@@std@@@std@@@1@V?$_Tree_const_iterator@V?$_Tree_val@U?$_Tree_simple_types@U?$pair@$$CBV?$basic_string@DU?$char_traits@D@std@@V?$allocator@D@2@@std@@PAVfms_config_item_t@@@std@@@std@@@std@@@1@AAU?$pair@$$CBV?$basic_string@DU?$char_traits@D@std@@V?$allocator@D@2@@std@@PAVfms_config_item_t@@@1@PAU?$_Tree_node@U?$pair@$$CBV?$basic_string@DU?$char_traits@D@std@@V?$allocator@D@2@@std@@PAVfms_config_item_t@@@std@@PAX@1@@Z 1002f85c     mfdpage_fms.obj
 0002:0000685c       __ehfuncinfo$??$_Insert_hint@AAU?$pair@$$CBV?$basic_string@DU?$char_traits@D@std@@V?$allocator@D@2@@std@@M@std@@PAU?$_Tree_node@U?$pair@$$CBV?$basic_string@DU?$char_traits@D@std@@V?$allocator@D@2@@std@@M@std@@PAX@2@@?$_Tree@V?$_Tmap_traits@V?$basic_string@DU?$char_traits@D@std@@V?$allocator@D@2@@std@@MU?$less@V?$basic_string@DU?$char_traits@D@std@@V?$allocator@D@2@@std@@@2@V?$allocator@U?$pair@$$CBV?$basic_string@DU?$char_traits@D@std@@V?$allocator@D@2@@std@@M@std@@@2@$0A@@std@@@std@@IAE?AV?$_Tree_iterator@V?$_Tree_val@U?$_Tree_simple_types@U?$pair@$$CBV?$basic_string@DU?$char_traits@D@std@@V?$allocator@D@2@@std@@M@std@@@std@@@std@@@1@V?$_Tree_const_iterator@V?$_Tree_val@U?$_Tree_simple_types@U?$pair@$$CBV?$basic_string@DU?$char_traits@D@std@@V?$allocator@D@2@@std@@M@std@@@std@@@std@@@1@AAU?$pair@$$CBV?$basic_string@DU?$char_traits@D@std@@V?$allocator@D@2@@std@@M@1@PAU?$_Tree_node@U?$pair@$$CBV?$basic_string@DU?$char_traits@D@std@@V?$allocator@D@2@@std@@M@std@@PAX@1@@Z 1002f85c     mfdpage_fms.obj
 0002:0000685c       __ehfuncinfo$??$_Insert_hint@AAU?$pair@$$CBV?$basic_string@DU?$char_traits@D@std@@V?$allocator@D@2@@std@@D@std@@PAU?$_Tree_node@U?$pair@$$CBV?$basic_string@DU?$char_traits@D@std@@V?$allocator@D@2@@std@@D@std@@PAX@2@@?$_Tree@V?$_Tmap_traits@V?$basic_string@DU?$char_traits@D@std@@V?$allocator@D@2@@std@@DU?$less@V?$basic_string@DU?$char_traits@D@std@@V?$allocator@D@2@@std@@@2@V?$allocator@U?$pair@$$CBV?$basic_string@DU?$char_traits@D@std@@V?$allocator@D@2@@std@@D@std@@@2@$0A@@std@@@std@@IAE?AV?$_Tree_iterator@V?$_Tree_val@U?$_Tree_simple_types@U?$pair@$$CBV?$basic_string@DU?$char_traits@D@std@@V?$allocator@D@2@@std@@D@std@@@std@@@std@@@1@V?$_Tree_const_iterator@V?$_Tree_val@U?$_Tree_simple_types@U?$pair@$$CBV?$basic_string@DU?$char_traits@D@std@@V?$allocator@D@2@@std@@D@std@@@std@@@std@@@1@AAU?$pair@$$CBV?$basic_string@DU?$char_traits@D@std@@V?$allocator@D@2@@std@@D@1@PAU?$_Tree_node@U?$pair@$$CBV?$basic_string@DU?$char_traits@D@std@@V?$allocator@D@2@@std@@D@std@@PAX@1@@Z 1002f85c     mfdpage_fms.obj
 0002:0000685c       __ehfuncinfo$??$_Insert_hint@AAU?$pair@$$CBV?$basic_string@DU?$char_traits@D@std@@V?$allocator@D@2@@std@@H@std@@PAU?$_Tree_node@U?$pair@$$CBV?$basic_string@DU?$char_traits@D@std@@V?$allocator@D@2@@std@@H@std@@PAX@2@@?$_Tree@V?$_Tmap_traits@V?$basic_string@DU?$char_traits@D@std@@V?$allocator@D@2@@std@@HU?$less@V?$basic_string@DU?$char_traits@D@std@@V?$allocator@D@2@@std@@@2@V?$allocator@U?$pair@$$CBV?$basic_string@DU?$char_traits@D@std@@V?$allocator@D@2@@std@@H@std@@@2@$0A@@std@@@std@@IAE?AV?$_Tree_iterator@V?$_Tree_val@U?$_Tree_simple_types@U?$pair@$$CBV?$basic_string@DU?$char_traits@D@std@@V?$allocator@D@2@@std@@H@std@@@std@@@std@@@1@V?$_Tree_const_iterator@V?$_Tree_val@U?$_Tree_simple_types@U?$pair@$$CBV?$basic_string@DU?$char_traits@D@std@@V?$allocator@D@2@@std@@H@std@@@std@@@std@@@1@AAU?$pair@$$CBV?$basic_string@DU?$char_traits@D@std@@V?$allocator@D@2@@std@@H@1@PAU?$_Tree_node@U?$pair@$$CBV?$basic_string@DU?$char_traits@D@std@@V?$allocator@D@2@@std@@H@std@@PAX@1@@Z 1002f85c     mfdpage_fms.obj
 0002:0000685c       __ehfuncinfo$??$_Insert_hint@AAU?$pair@$$CBV?$basic_string@DU?$char_traits@D@std@@V?$allocator@D@2@@std@@PAVfms_fp_item_t@@@std@@PAU?$_Tree_node@U?$pair@$$CBV?$basic_string@DU?$char_traits@D@std@@V?$allocator@D@2@@std@@PAVfms_fp_item_t@@@std@@PAX@2@@?$_Tree@V?$_Tmap_traits@V?$basic_string@DU?$char_traits@D@std@@V?$allocator@D@2@@std@@PAVfms_fp_item_t@@U?$less@V?$basic_string@DU?$char_traits@D@std@@V?$allocator@D@2@@std@@@2@V?$allocator@U?$pair@$$CBV?$basic_string@DU?$char_traits@D@std@@V?$allocator@D@2@@std@@PAVfms_fp_item_t@@@std@@@2@$0A@@std@@@std@@IAE?AV?$_Tree_iterator@V?$_Tree_val@U?$_Tree_simple_types@U?$pair@$$CBV?$basic_string@DU?$char_traits@D@std@@V?$allocator@D@2@@std@@PAVfms_fp_item_t@@@std@@@std@@@std@@@1@V?$_Tree_const_iterator@V?$_Tree_val@U?$_Tree_simple_types@U?$pair@$$CBV?$basic_string@DU?$char_traits@D@std@@V?$allocator@D@2@@std@@PAVfms_fp_item_t@@@std@@@std@@@std@@@1@AAU?$pair@$$CBV?$basic_string@DU?$char_traits@D@std@@V?$allocator@D@2@@std@@PAVfms_fp_item_t@@@1@PAU?$_Tree_node@U?$pair@$$CBV?$basic_string@DU?$char_traits@D@std@@V?$allocator@D@2@@std@@PAVfms_fp_item_t@@@std@@PAX@1@@Z 1002f85c     mfdpage_fms.obj
 0002:00006880       __catchsym$??$_Insert_hint@AAU?$pair@$$CBHPAVfms_fp_item_t@@@std@@PAU?$_Tree_node@U?$pair@$$CBHPAVfms_fp_item_t@@@std@@PAX@2@@?$_Tree@V?$_Tmap_traits@HPAVfms_fp_item_t@@U?$less@H@std@@V?$allocator@U?$pair@$$CBHPAVfms_fp_item_t@@@std@@@3@$0A@@std@@@std@@IAE?AV?$_Tree_iterator@V?$_Tree_val@U?$_Tree_simple_types@U?$pair@$$CBHPAVfms_fp_item_t@@@std@@@std@@@std@@@1@V?$_Tree_const_iterator@V?$_Tree_val@U?$_Tree_simple_types@U?$pair@$$CBHPAVfms_fp_item_t@@@std@@@std@@@std@@@1@AAU?$pair@$$CBHPAVfms_fp_item_t@@@1@PAU?$_Tree_node@U?$pair@$$CBHPAVfms_fp_item_t@@@std@@PAX@1@@Z$2 1002f880     mfdpage_fms.obj
 0002:00006880       __catchsym$??$_Insert_hint@AAU?$pair@$$CBHM@std@@PAU?$_Tree_node@U?$pair@$$CBHM@std@@PAX@2@@?$_Tree@V?$_Tmap_traits@HMU?$less@H@std@@V?$allocator@U?$pair@$$CBHM@std@@@2@$0A@@std@@@std@@IAE?AV?$_Tree_iterator@V?$_Tree_val@U?$_Tree_simple_types@U?$pair@$$CBHM@std@@@std@@@std@@@1@V?$_Tree_const_iterator@V?$_Tree_val@U?$_Tree_simple_types@U?$pair@$$CBHM@std@@@std@@@std@@@1@AAU?$pair@$$CBHM@1@PAU?$_Tree_node@U?$pair@$$CBHM@std@@PAX@1@@Z$2 1002f880     mfdpage_fms.obj
 0002:00006880       __catchsym$??$_Insert_hint@AAU?$pair@$$CBHPAVobject_t@@@std@@PAU?$_Tree_node@U?$pair@$$CBHPAVobject_t@@@std@@PAX@2@@?$_Tree@V?$_Tmap_traits@HPAVobject_t@@U?$less@H@std@@V?$allocator@U?$pair@$$CBHPAVobject_t@@@std@@@3@$0A@@std@@@std@@IAE?AV?$_Tree_iterator@V?$_Tree_val@U?$_Tree_simple_types@U?$pair@$$CBHPAVobject_t@@@std@@@std@@@std@@@1@V?$_Tree_const_iterator@V?$_Tree_val@U?$_Tree_simple_types@U?$pair@$$CBHPAVobject_t@@@std@@@std@@@std@@@1@AAU?$pair@$$CBHPAVobject_t@@@1@PAU?$_Tree_node@U?$pair@$$CBHPAVobject_t@@@std@@PAX@1@@Z$2 1002f880     mfdpage_fms.obj
 0002:00006890       __unwindtable$??$_Insert_hint@AAU?$pair@$$CBHPAVobject_t@@@std@@PAU?$_Tree_node@U?$pair@$$CBHPAVobject_t@@@std@@PAX@2@@?$_Tree@V?$_Tmap_traits@HPAVobject_t@@U?$less@H@std@@V?$allocator@U?$pair@$$CBHPAVobject_t@@@std@@@3@$0A@@std@@@std@@IAE?AV?$_Tree_iterator@V?$_Tree_val@U?$_Tree_simple_types@U?$pair@$$CBHPAVobject_t@@@std@@@std@@@std@@@1@V?$_Tree_const_iterator@V?$_Tree_val@U?$_Tree_simple_types@U?$pair@$$CBHPAVobject_t@@@std@@@std@@@std@@@1@AAU?$pair@$$CBHPAVobject_t@@@1@PAU?$_Tree_node@U?$pair@$$CBHPAVobject_t@@@std@@PAX@1@@Z 1002f890     mfdpage_fms.obj
 0002:00006890       __unwindtable$??$_Insert_hint@AAU?$pair@$$CBHM@std@@PAU?$_Tree_node@U?$pair@$$CBHM@std@@PAX@2@@?$_Tree@V?$_Tmap_traits@HMU?$less@H@std@@V?$allocator@U?$pair@$$CBHM@std@@@2@$0A@@std@@@std@@IAE?AV?$_Tree_iterator@V?$_Tree_val@U?$_Tree_simple_types@U?$pair@$$CBHM@std@@@std@@@std@@@1@V?$_Tree_const_iterator@V?$_Tree_val@U?$_Tree_simple_types@U?$pair@$$CBHM@std@@@std@@@std@@@1@AAU?$pair@$$CBHM@1@PAU?$_Tree_node@U?$pair@$$CBHM@std@@PAX@1@@Z 1002f890     mfdpage_fms.obj
 0002:00006890       __unwindtable$??$_Insert_hint@AAU?$pair@$$CBHPAVfms_fp_item_t@@@std@@PAU?$_Tree_node@U?$pair@$$CBHPAVfms_fp_item_t@@@std@@PAX@2@@?$_Tree@V?$_Tmap_traits@HPAVfms_fp_item_t@@U?$less@H@std@@V?$allocator@U?$pair@$$CBHPAVfms_fp_item_t@@@std@@@3@$0A@@std@@@std@@IAE?AV?$_Tree_iterator@V?$_Tree_val@U?$_Tree_simple_types@U?$pair@$$CBHPAVfms_fp_item_t@@@std@@@std@@@std@@@1@V?$_Tree_const_iterator@V?$_Tree_val@U?$_Tree_simple_types@U?$pair@$$CBHPAVfms_fp_item_t@@@std@@@std@@@std@@@1@AAU?$pair@$$CBHPAVfms_fp_item_t@@@1@PAU?$_Tree_node@U?$pair@$$CBHPAVfms_fp_item_t@@@std@@PAX@1@@Z 1002f890     mfdpage_fms.obj
 0002:000068a0       __tryblocktable$??$_Insert_hint@AAU?$pair@$$CBHPAVfms_fp_item_t@@@std@@PAU?$_Tree_node@U?$pair@$$CBHPAVfms_fp_item_t@@@std@@PAX@2@@?$_Tree@V?$_Tmap_traits@HPAVfms_fp_item_t@@U?$less@H@std@@V?$allocator@U?$pair@$$CBHPAVfms_fp_item_t@@@std@@@3@$0A@@std@@@std@@IAE?AV?$_Tree_iterator@V?$_Tree_val@U?$_Tree_simple_types@U?$pair@$$CBHPAVfms_fp_item_t@@@std@@@std@@@std@@@1@V?$_Tree_const_iterator@V?$_Tree_val@U?$_Tree_simple_types@U?$pair@$$CBHPAVfms_fp_item_t@@@std@@@std@@@std@@@1@AAU?$pair@$$CBHPAVfms_fp_item_t@@@1@PAU?$_Tree_node@U?$pair@$$CBHPAVfms_fp_item_t@@@std@@PAX@1@@Z 1002f8a0     mfdpage_fms.obj
 0002:000068a0       __tryblocktable$??$_Insert_hint@AAU?$pair@$$CBHPAVobject_t@@@std@@PAU?$_Tree_node@U?$pair@$$CBHPAVobject_t@@@std@@PAX@2@@?$_Tree@V?$_Tmap_traits@HPAVobject_t@@U?$less@H@std@@V?$allocator@U?$pair@$$CBHPAVobject_t@@@std@@@3@$0A@@std@@@std@@IAE?AV?$_Tree_iterator@V?$_Tree_val@U?$_Tree_simple_types@U?$pair@$$CBHPAVobject_t@@@std@@@std@@@std@@@1@V?$_Tree_const_iterator@V?$_Tree_val@U?$_Tree_simple_types@U?$pair@$$CBHPAVobject_t@@@std@@@std@@@std@@@1@AAU?$pair@$$CBHPAVobject_t@@@1@PAU?$_Tree_node@U?$pair@$$CBHPAVobject_t@@@std@@PAX@1@@Z 1002f8a0     mfdpage_fms.obj
 0002:000068a0       __tryblocktable$??$_Insert_hint@AAU?$pair@$$CBHM@std@@PAU?$_Tree_node@U?$pair@$$CBHM@std@@PAX@2@@?$_Tree@V?$_Tmap_traits@HMU?$less@H@std@@V?$allocator@U?$pair@$$CBHM@std@@@2@$0A@@std@@@std@@IAE?AV?$_Tree_iterator@V?$_Tree_val@U?$_Tree_simple_types@U?$pair@$$CBHM@std@@@std@@@std@@@1@V?$_Tree_const_iterator@V?$_Tree_val@U?$_Tree_simple_types@U?$pair@$$CBHM@std@@@std@@@std@@@1@AAU?$pair@$$CBHM@1@PAU?$_Tree_node@U?$pair@$$CBHM@std@@PAX@1@@Z 1002f8a0     mfdpage_fms.obj
 0002:000068b4       __ehfuncinfo$??$_Insert_hint@AAU?$pair@$$CBHPAVobject_t@@@std@@PAU?$_Tree_node@U?$pair@$$CBHPAVobject_t@@@std@@PAX@2@@?$_Tree@V?$_Tmap_traits@HPAVobject_t@@U?$less@H@std@@V?$allocator@U?$pair@$$CBHPAVobject_t@@@std@@@3@$0A@@std@@@std@@IAE?AV?$_Tree_iterator@V?$_Tree_val@U?$_Tree_simple_types@U?$pair@$$CBHPAVobject_t@@@std@@@std@@@std@@@1@V?$_Tree_const_iterator@V?$_Tree_val@U?$_Tree_simple_types@U?$pair@$$CBHPAVobject_t@@@std@@@std@@@std@@@1@AAU?$pair@$$CBHPAVobject_t@@@1@PAU?$_Tree_node@U?$pair@$$CBHPAVobject_t@@@std@@PAX@1@@Z 1002f8b4     mfdpage_fms.obj
 0002:000068b4       __ehfuncinfo$??$_Insert_hint@AAU?$pair@$$CBHPAVfms_fp_item_t@@@std@@PAU?$_Tree_node@U?$pair@$$CBHPAVfms_fp_item_t@@@std@@PAX@2@@?$_Tree@V?$_Tmap_traits@HPAVfms_fp_item_t@@U?$less@H@std@@V?$allocator@U?$pair@$$CBHPAVfms_fp_item_t@@@std@@@3@$0A@@std@@@std@@IAE?AV?$_Tree_iterator@V?$_Tree_val@U?$_Tree_simple_types@U?$pair@$$CBHPAVfms_fp_item_t@@@std@@@std@@@std@@@1@V?$_Tree_const_iterator@V?$_Tree_val@U?$_Tree_simple_types@U?$pair@$$CBHPAVfms_fp_item_t@@@std@@@std@@@std@@@1@AAU?$pair@$$CBHPAVfms_fp_item_t@@@1@PAU?$_Tree_node@U?$pair@$$CBHPAVfms_fp_item_t@@@std@@PAX@1@@Z 1002f8b4     mfdpage_fms.obj
 0002:000068b4       __ehfuncinfo$??$_Insert_hint@AAU?$pair@$$CBHM@std@@PAU?$_Tree_node@U?$pair@$$CBHM@std@@PAX@2@@?$_Tree@V?$_Tmap_traits@HMU?$less@H@std@@V?$allocator@U?$pair@$$CBHM@std@@@2@$0A@@std@@@std@@IAE?AV?$_Tree_iterator@V?$_Tree_val@U?$_Tree_simple_types@U?$pair@$$CBHM@std@@@std@@@std@@@1@V?$_Tree_const_iterator@V?$_Tree_val@U?$_Tree_simple_types@U?$pair@$$CBHM@std@@@std@@@std@@@1@AAU?$pair@$$CBHM@1@PAU?$_Tree_node@U?$pair@$$CBHM@std@@PAX@1@@Z 1002f8b4     mfdpage_fms.obj
 0002:000068d8       __catchsym$??$_Buynode@ABUpiecewise_construct_t@std@@V?$tuple@ABH@2@V?$tuple@$$$V@2@@?$_Tree_buy@U?$pair@$$CBHPAVobject_t@@@std@@V?$allocator@U?$pair@$$CBHPAVobject_t@@@std@@@2@@std@@QAEPAU?$_Tree_node@U?$pair@$$CBHPAVobject_t@@@std@@PAX@1@ABUpiecewise_construct_t@1@$$QAV?$tuple@ABH@1@$$QAV?$tuple@$$$V@1@@Z$2 1002f8d8     mfdpage_fms.obj
 0002:000068d8       __catchsym$??$_Buynode@ABUpiecewise_construct_t@std@@V?$tuple@ABH@2@V?$tuple@$$$V@2@@?$_Tree_buy@U?$pair@$$CBHPAVfms_fp_item_t@@@std@@V?$allocator@U?$pair@$$CBHPAVfms_fp_item_t@@@std@@@2@@std@@QAEPAU?$_Tree_node@U?$pair@$$CBHPAVfms_fp_item_t@@@std@@PAX@1@ABUpiecewise_construct_t@1@$$QAV?$tuple@ABH@1@$$QAV?$tuple@$$$V@1@@Z$2 1002f8d8     mfdpage_fms.obj
 0002:000068d8       __catchsym$??$_Buynode@ABUpiecewise_construct_t@std@@V?$tuple@$$QAH@2@V?$tuple@$$$V@2@@?$_Tree_buy@U?$pair@$$CBHPAVfms_fp_item_t@@@std@@V?$allocator@U?$pair@$$CBHPAVfms_fp_item_t@@@std@@@2@@std@@QAEPAU?$_Tree_node@U?$pair@$$CBHPAVfms_fp_item_t@@@std@@PAX@1@ABUpiecewise_construct_t@1@$$QAV?$tuple@$$QAH@1@$$QAV?$tuple@$$$V@1@@Z$2 1002f8d8     mfdpage_fms.obj
 0002:000068d8       __catchsym$??$_Buynode@ABUpiecewise_construct_t@std@@V?$tuple@$$QAH@2@V?$tuple@$$$V@2@@?$_Tree_buy@U?$pair@$$CBHPAVobject_t@@@std@@V?$allocator@U?$pair@$$CBHPAVobject_t@@@std@@@2@@std@@QAEPAU?$_Tree_node@U?$pair@$$CBHPAVobject_t@@@std@@PAX@1@ABUpiecewise_construct_t@1@$$QAV?$tuple@$$QAH@1@$$QAV?$tuple@$$$V@1@@Z$2 1002f8d8     mfdpage_fms.obj
 0002:000068e8       __unwindtable$??$_Buynode@ABUpiecewise_construct_t@std@@V?$tuple@ABH@2@V?$tuple@$$$V@2@@?$_Tree_buy@U?$pair@$$CBHPAVobject_t@@@std@@V?$allocator@U?$pair@$$CBHPAVobject_t@@@std@@@2@@std@@QAEPAU?$_Tree_node@U?$pair@$$CBHPAVobject_t@@@std@@PAX@1@ABUpiecewise_construct_t@1@$$QAV?$tuple@ABH@1@$$QAV?$tuple@$$$V@1@@Z 1002f8e8     mfdpage_fms.obj
 0002:000068e8       __unwindtable$??$_Buynode@ABUpiecewise_construct_t@std@@V?$tuple@$$QAH@2@V?$tuple@$$$V@2@@?$_Tree_buy@U?$pair@$$CBHPAVobject_t@@@std@@V?$allocator@U?$pair@$$CBHPAVobject_t@@@std@@@2@@std@@QAEPAU?$_Tree_node@U?$pair@$$CBHPAVobject_t@@@std@@PAX@1@ABUpiecewise_construct_t@1@$$QAV?$tuple@$$QAH@1@$$QAV?$tuple@$$$V@1@@Z 1002f8e8     mfdpage_fms.obj
 0002:000068e8       __unwindtable$??$_Buynode@ABUpiecewise_construct_t@std@@V?$tuple@$$QAH@2@V?$tuple@$$$V@2@@?$_Tree_buy@U?$pair@$$CBHPAVfms_fp_item_t@@@std@@V?$allocator@U?$pair@$$CBHPAVfms_fp_item_t@@@std@@@2@@std@@QAEPAU?$_Tree_node@U?$pair@$$CBHPAVfms_fp_item_t@@@std@@PAX@1@ABUpiecewise_construct_t@1@$$QAV?$tuple@$$QAH@1@$$QAV?$tuple@$$$V@1@@Z 1002f8e8     mfdpage_fms.obj
 0002:000068e8       __unwindtable$??$_Buynode@ABUpiecewise_construct_t@std@@V?$tuple@ABH@2@V?$tuple@$$$V@2@@?$_Tree_buy@U?$pair@$$CBHPAVfms_fp_item_t@@@std@@V?$allocator@U?$pair@$$CBHPAVfms_fp_item_t@@@std@@@2@@std@@QAEPAU?$_Tree_node@U?$pair@$$CBHPAVfms_fp_item_t@@@std@@PAX@1@ABUpiecewise_construct_t@1@$$QAV?$tuple@ABH@1@$$QAV?$tuple@$$$V@1@@Z 1002f8e8     mfdpage_fms.obj
 0002:000068f8       __tryblocktable$??$_Buynode@ABUpiecewise_construct_t@std@@V?$tuple@$$QAH@2@V?$tuple@$$$V@2@@?$_Tree_buy@U?$pair@$$CBHPAVfms_fp_item_t@@@std@@V?$allocator@U?$pair@$$CBHPAVfms_fp_item_t@@@std@@@2@@std@@QAEPAU?$_Tree_node@U?$pair@$$CBHPAVfms_fp_item_t@@@std@@PAX@1@ABUpiecewise_construct_t@1@$$QAV?$tuple@$$QAH@1@$$QAV?$tuple@$$$V@1@@Z 1002f8f8     mfdpage_fms.obj
 0002:000068f8       __tryblocktable$??$_Buynode@ABUpiecewise_construct_t@std@@V?$tuple@ABH@2@V?$tuple@$$$V@2@@?$_Tree_buy@U?$pair@$$CBHPAVfms_fp_item_t@@@std@@V?$allocator@U?$pair@$$CBHPAVfms_fp_item_t@@@std@@@2@@std@@QAEPAU?$_Tree_node@U?$pair@$$CBHPAVfms_fp_item_t@@@std@@PAX@1@ABUpiecewise_construct_t@1@$$QAV?$tuple@ABH@1@$$QAV?$tuple@$$$V@1@@Z 1002f8f8     mfdpage_fms.obj
 0002:000068f8       __tryblocktable$??$_Buynode@ABUpiecewise_construct_t@std@@V?$tuple@$$QAH@2@V?$tuple@$$$V@2@@?$_Tree_buy@U?$pair@$$CBHPAVobject_t@@@std@@V?$allocator@U?$pair@$$CBHPAVobject_t@@@std@@@2@@std@@QAEPAU?$_Tree_node@U?$pair@$$CBHPAVobject_t@@@std@@PAX@1@ABUpiecewise_construct_t@1@$$QAV?$tuple@$$QAH@1@$$QAV?$tuple@$$$V@1@@Z 1002f8f8     mfdpage_fms.obj
 0002:000068f8       __tryblocktable$??$_Buynode@ABUpiecewise_construct_t@std@@V?$tuple@ABH@2@V?$tuple@$$$V@2@@?$_Tree_buy@U?$pair@$$CBHPAVobject_t@@@std@@V?$allocator@U?$pair@$$CBHPAVobject_t@@@std@@@2@@std@@QAEPAU?$_Tree_node@U?$pair@$$CBHPAVobject_t@@@std@@PAX@1@ABUpiecewise_construct_t@1@$$QAV?$tuple@ABH@1@$$QAV?$tuple@$$$V@1@@Z 1002f8f8     mfdpage_fms.obj
 0002:0000690c       __ehfuncinfo$??$_Buynode@ABUpiecewise_construct_t@std@@V?$tuple@$$QAH@2@V?$tuple@$$$V@2@@?$_Tree_buy@U?$pair@$$CBHPAVfms_fp_item_t@@@std@@V?$allocator@U?$pair@$$CBHPAVfms_fp_item_t@@@std@@@2@@std@@QAEPAU?$_Tree_node@U?$pair@$$CBHPAVfms_fp_item_t@@@std@@PAX@1@ABUpiecewise_construct_t@1@$$QAV?$tuple@$$QAH@1@$$QAV?$tuple@$$$V@1@@Z 1002f90c     mfdpage_fms.obj
 0002:0000690c       __ehfuncinfo$??$_Buynode@ABUpiecewise_construct_t@std@@V?$tuple@ABH@2@V?$tuple@$$$V@2@@?$_Tree_buy@U?$pair@$$CBHPAVobject_t@@@std@@V?$allocator@U?$pair@$$CBHPAVobject_t@@@std@@@2@@std@@QAEPAU?$_Tree_node@U?$pair@$$CBHPAVobject_t@@@std@@PAX@1@ABUpiecewise_construct_t@1@$$QAV?$tuple@ABH@1@$$QAV?$tuple@$$$V@1@@Z 1002f90c     mfdpage_fms.obj
 0002:0000690c       __ehfuncinfo$??$_Buynode@ABUpiecewise_construct_t@std@@V?$tuple@$$QAH@2@V?$tuple@$$$V@2@@?$_Tree_buy@U?$pair@$$CBHPAVobject_t@@@std@@V?$allocator@U?$pair@$$CBHPAVobject_t@@@std@@@2@@std@@QAEPAU?$_Tree_node@U?$pair@$$CBHPAVobject_t@@@std@@PAX@1@ABUpiecewise_construct_t@1@$$QAV?$tuple@$$QAH@1@$$QAV?$tuple@$$$V@1@@Z 1002f90c     mfdpage_fms.obj
 0002:0000690c       __ehfuncinfo$??$_Buynode@ABUpiecewise_construct_t@std@@V?$tuple@ABH@2@V?$tuple@$$$V@2@@?$_Tree_buy@U?$pair@$$CBHPAVfms_fp_item_t@@@std@@V?$allocator@U?$pair@$$CBHPAVfms_fp_item_t@@@std@@@2@@std@@QAEPAU?$_Tree_node@U?$pair@$$CBHPAVfms_fp_item_t@@@std@@PAX@1@ABUpiecewise_construct_t@1@$$QAV?$tuple@ABH@1@$$QAV?$tuple@$$$V@1@@Z 1002f90c     mfdpage_fms.obj
 0002:00006930       __catchsym$??$_Insert_nohint@AAU?$pair@$$CBHPAVobject_t@@@std@@PAU?$_Tree_node@U?$pair@$$CBHPAVobject_t@@@std@@PAX@2@@?$_Tree@V?$_Tmap_traits@HPAVobject_t@@U?$less@H@std@@V?$allocator@U?$pair@$$CBHPAVobject_t@@@std@@@3@$0A@@std@@@std@@IAE?AU?$pair@V?$_Tree_iterator@V?$_Tree_val@U?$_Tree_simple_types@U?$pair@$$CBHPAVobject_t@@@std@@@std@@@std@@@std@@_N@1@_NAAU?$pair@$$CBHPAVobject_t@@@1@PAU?$_Tree_node@U?$pair@$$CBHPAVobject_t@@@std@@PAX@1@@Z$2 1002f930     mfdpage_fms.obj
 0002:00006930       __catchsym$??$_Insert_nohint@AAU?$pair@$$CBHM@std@@PAU?$_Tree_node@U?$pair@$$CBHM@std@@PAX@2@@?$_Tree@V?$_Tmap_traits@HMU?$less@H@std@@V?$allocator@U?$pair@$$CBHM@std@@@2@$0A@@std@@@std@@IAE?AU?$pair@V?$_Tree_iterator@V?$_Tree_val@U?$_Tree_simple_types@U?$pair@$$CBHM@std@@@std@@@std@@@std@@_N@1@_NAAU?$pair@$$CBHM@1@PAU?$_Tree_node@U?$pair@$$CBHM@std@@PAX@1@@Z$2 1002f930     mfdpage_fms.obj
 0002:00006930       __catchsym$??$_Insert_nohint@AAU?$pair@$$CBHPAVfms_fp_item_t@@@std@@PAU?$_Tree_node@U?$pair@$$CBHPAVfms_fp_item_t@@@std@@PAX@2@@?$_Tree@V?$_Tmap_traits@HPAVfms_fp_item_t@@U?$less@H@std@@V?$allocator@U?$pair@$$CBHPAVfms_fp_item_t@@@std@@@3@$0A@@std@@@std@@IAE?AU?$pair@V?$_Tree_iterator@V?$_Tree_val@U?$_Tree_simple_types@U?$pair@$$CBHPAVfms_fp_item_t@@@std@@@std@@@std@@@std@@_N@1@_NAAU?$pair@$$CBHPAVfms_fp_item_t@@@1@PAU?$_Tree_node@U?$pair@$$CBHPAVfms_fp_item_t@@@std@@PAX@1@@Z$2 1002f930     mfdpage_fms.obj
 0002:00006940       __unwindtable$??$_Insert_nohint@AAU?$pair@$$CBHPAVfms_fp_item_t@@@std@@PAU?$_Tree_node@U?$pair@$$CBHPAVfms_fp_item_t@@@std@@PAX@2@@?$_Tree@V?$_Tmap_traits@HPAVfms_fp_item_t@@U?$less@H@std@@V?$allocator@U?$pair@$$CBHPAVfms_fp_item_t@@@std@@@3@$0A@@std@@@std@@IAE?AU?$pair@V?$_Tree_iterator@V?$_Tree_val@U?$_Tree_simple_types@U?$pair@$$CBHPAVfms_fp_item_t@@@std@@@std@@@std@@@std@@_N@1@_NAAU?$pair@$$CBHPAVfms_fp_item_t@@@1@PAU?$_Tree_node@U?$pair@$$CBHPAVfms_fp_item_t@@@std@@PAX@1@@Z 1002f940     mfdpage_fms.obj
 0002:00006940       __unwindtable$??$_Insert_nohint@AAU?$pair@$$CBHM@std@@PAU?$_Tree_node@U?$pair@$$CBHM@std@@PAX@2@@?$_Tree@V?$_Tmap_traits@HMU?$less@H@std@@V?$allocator@U?$pair@$$CBHM@std@@@2@$0A@@std@@@std@@IAE?AU?$pair@V?$_Tree_iterator@V?$_Tree_val@U?$_Tree_simple_types@U?$pair@$$CBHM@std@@@std@@@std@@@std@@_N@1@_NAAU?$pair@$$CBHM@1@PAU?$_Tree_node@U?$pair@$$CBHM@std@@PAX@1@@Z 1002f940     mfdpage_fms.obj
 0002:00006940       __unwindtable$??$_Insert_nohint@AAU?$pair@$$CBHPAVobject_t@@@std@@PAU?$_Tree_node@U?$pair@$$CBHPAVobject_t@@@std@@PAX@2@@?$_Tree@V?$_Tmap_traits@HPAVobject_t@@U?$less@H@std@@V?$allocator@U?$pair@$$CBHPAVobject_t@@@std@@@3@$0A@@std@@@std@@IAE?AU?$pair@V?$_Tree_iterator@V?$_Tree_val@U?$_Tree_simple_types@U?$pair@$$CBHPAVobject_t@@@std@@@std@@@std@@@std@@_N@1@_NAAU?$pair@$$CBHPAVobject_t@@@1@PAU?$_Tree_node@U?$pair@$$CBHPAVobject_t@@@std@@PAX@1@@Z 1002f940     mfdpage_fms.obj
 0002:00006950       __tryblocktable$??$_Insert_nohint@AAU?$pair@$$CBHM@std@@PAU?$_Tree_node@U?$pair@$$CBHM@std@@PAX@2@@?$_Tree@V?$_Tmap_traits@HMU?$less@H@std@@V?$allocator@U?$pair@$$CBHM@std@@@2@$0A@@std@@@std@@IAE?AU?$pair@V?$_Tree_iterator@V?$_Tree_val@U?$_Tree_simple_types@U?$pair@$$CBHM@std@@@std@@@std@@@std@@_N@1@_NAAU?$pair@$$CBHM@1@PAU?$_Tree_node@U?$pair@$$CBHM@std@@PAX@1@@Z 1002f950     mfdpage_fms.obj
 0002:00006950       __tryblocktable$??$_Insert_nohint@AAU?$pair@$$CBHPAVfms_fp_item_t@@@std@@PAU?$_Tree_node@U?$pair@$$CBHPAVfms_fp_item_t@@@std@@PAX@2@@?$_Tree@V?$_Tmap_traits@HPAVfms_fp_item_t@@U?$less@H@std@@V?$allocator@U?$pair@$$CBHPAVfms_fp_item_t@@@std@@@3@$0A@@std@@@std@@IAE?AU?$pair@V?$_Tree_iterator@V?$_Tree_val@U?$_Tree_simple_types@U?$pair@$$CBHPAVfms_fp_item_t@@@std@@@std@@@std@@@std@@_N@1@_NAAU?$pair@$$CBHPAVfms_fp_item_t@@@1@PAU?$_Tree_node@U?$pair@$$CBHPAVfms_fp_item_t@@@std@@PAX@1@@Z 1002f950     mfdpage_fms.obj
 0002:00006950       __tryblocktable$??$_Insert_nohint@AAU?$pair@$$CBHPAVobject_t@@@std@@PAU?$_Tree_node@U?$pair@$$CBHPAVobject_t@@@std@@PAX@2@@?$_Tree@V?$_Tmap_traits@HPAVobject_t@@U?$less@H@std@@V?$allocator@U?$pair@$$CBHPAVobject_t@@@std@@@3@$0A@@std@@@std@@IAE?AU?$pair@V?$_Tree_iterator@V?$_Tree_val@U?$_Tree_simple_types@U?$pair@$$CBHPAVobject_t@@@std@@@std@@@std@@@std@@_N@1@_NAAU?$pair@$$CBHPAVobject_t@@@1@PAU?$_Tree_node@U?$pair@$$CBHPAVobject_t@@@std@@PAX@1@@Z 1002f950     mfdpage_fms.obj
 0002:00006964       __ehfuncinfo$??$_Insert_nohint@AAU?$pair@$$CBHPAVobject_t@@@std@@PAU?$_Tree_node@U?$pair@$$CBHPAVobject_t@@@std@@PAX@2@@?$_Tree@V?$_Tmap_traits@HPAVobject_t@@U?$less@H@std@@V?$allocator@U?$pair@$$CBHPAVobject_t@@@std@@@3@$0A@@std@@@std@@IAE?AU?$pair@V?$_Tree_iterator@V?$_Tree_val@U?$_Tree_simple_types@U?$pair@$$CBHPAVobject_t@@@std@@@std@@@std@@@std@@_N@1@_NAAU?$pair@$$CBHPAVobject_t@@@1@PAU?$_Tree_node@U?$pair@$$CBHPAVobject_t@@@std@@PAX@1@@Z 1002f964     mfdpage_fms.obj
 0002:00006964       __ehfuncinfo$??$_Insert_nohint@AAU?$pair@$$CBHM@std@@PAU?$_Tree_node@U?$pair@$$CBHM@std@@PAX@2@@?$_Tree@V?$_Tmap_traits@HMU?$less@H@std@@V?$allocator@U?$pair@$$CBHM@std@@@2@$0A@@std@@@std@@IAE?AU?$pair@V?$_Tree_iterator@V?$_Tree_val@U?$_Tree_simple_types@U?$pair@$$CBHM@std@@@std@@@std@@@std@@_N@1@_NAAU?$pair@$$CBHM@1@PAU?$_Tree_node@U?$pair@$$CBHM@std@@PAX@1@@Z 1002f964     mfdpage_fms.obj
 0002:00006964       __ehfuncinfo$??$_Insert_nohint@AAU?$pair@$$CBHPAVfms_fp_item_t@@@std@@PAU?$_Tree_node@U?$pair@$$CBHPAVfms_fp_item_t@@@std@@PAX@2@@?$_Tree@V?$_Tmap_traits@HPAVfms_fp_item_t@@U?$less@H@std@@V?$allocator@U?$pair@$$CBHPAVfms_fp_item_t@@@std@@@3@$0A@@std@@@std@@IAE?AU?$pair@V?$_Tree_iterator@V?$_Tree_val@U?$_Tree_simple_types@U?$pair@$$CBHPAVfms_fp_item_t@@@std@@@std@@@std@@@std@@_N@1@_NAAU?$pair@$$CBHPAVfms_fp_item_t@@@1@PAU?$_Tree_node@U?$pair@$$CBHPAVfms_fp_item_t@@@std@@PAX@1@@Z 1002f964     mfdpage_fms.obj
 0002:00006988       __catchsym$?_Buyheadnode@?$_Tree_alloc@$0A@U?$_Tree_base_types@U?$pair@$$CBV?$basic_string@DU?$char_traits@D@std@@V?$allocator@D@2@@std@@V12@@std@@V?$allocator@U?$pair@$$CBV?$basic_string@DU?$char_traits@D@std@@V?$allocator@D@2@@std@@V12@@std@@@2@@std@@@std@@QAEPAU?$_Tree_node@U?$pair@$$CBV?$basic_string@DU?$char_traits@D@std@@V?$allocator@D@2@@std@@V12@@std@@PAX@2@XZ$2 1002f988     mfdpage_led.obj
 0002:00006998       __unwindtable$?_Buyheadnode@?$_Tree_alloc@$0A@U?$_Tree_base_types@U?$pair@$$CBV?$basic_string@DU?$char_traits@D@std@@V?$allocator@D@2@@std@@V12@@std@@V?$allocator@U?$pair@$$CBV?$basic_string@DU?$char_traits@D@std@@V?$allocator@D@2@@std@@V12@@std@@@2@@std@@@std@@QAEPAU?$_Tree_node@U?$pair@$$CBV?$basic_string@DU?$char_traits@D@std@@V?$allocator@D@2@@std@@V12@@std@@PAX@2@XZ 1002f998     mfdpage_led.obj
 0002:000069a8       __tryblocktable$?_Buyheadnode@?$_Tree_alloc@$0A@U?$_Tree_base_types@U?$pair@$$CBV?$basic_string@DU?$char_traits@D@std@@V?$allocator@D@2@@std@@V12@@std@@V?$allocator@U?$pair@$$CBV?$basic_string@DU?$char_traits@D@std@@V?$allocator@D@2@@std@@V12@@std@@@2@@std@@@std@@QAEPAU?$_Tree_node@U?$pair@$$CBV?$basic_string@DU?$char_traits@D@std@@V?$allocator@D@2@@std@@V12@@std@@PAX@2@XZ 1002f9a8     mfdpage_led.obj
 0002:000069bc       __ehfuncinfo$?_Buyheadnode@?$_Tree_alloc@$0A@U?$_Tree_base_types@U?$pair@$$CBV?$basic_string@DU?$char_traits@D@std@@V?$allocator@D@2@@std@@V12@@std@@V?$allocator@U?$pair@$$CBV?$basic_string@DU?$char_traits@D@std@@V?$allocator@D@2@@std@@V12@@std@@@2@@std@@@std@@QAEPAU?$_Tree_node@U?$pair@$$CBV?$basic_string@DU?$char_traits@D@std@@V?$allocator@D@2@@std@@V12@@std@@PAX@2@XZ 1002f9bc     mfdpage_led.obj
 0002:000069e0       __catchsym$?set_led_by_name@mfdpage_led_t@@AAAXHPBDH0ZZ$2 1002f9e0     mfdpage_led.obj
 0002:000069f0       __unwindtable$?set_led_by_name@mfdpage_led_t@@AAAXHPBDH0ZZ 1002f9f0     mfdpage_led.obj
 0002:00006a00       __catchsym$?do_refresh@mfdpage_led_t@@UAEXPAVobject_t@@@Z$11 1002fa00     mfdpage_led.obj
 0002:00006a10       __catchsym$?do_refresh@mfdpage_led_t@@UAEXPAVobject_t@@@Z$10 1002fa10     mfdpage_led.obj
 0002:00006a20       __catchsym$?do_refresh@mfdpage_led_t@@UAEXPAVobject_t@@@Z$9 1002fa20     mfdpage_led.obj
 0002:00006a30       __catchsym$?do_refresh@mfdpage_led_t@@UAEXPAVobject_t@@@Z$8 1002fa30     mfdpage_led.obj
 0002:00006a40       __tryblocktable$?set_led_by_name@mfdpage_led_t@@AAAXHPBDH0ZZ 1002fa40     mfdpage_led.obj
 0002:00006a54       __ehfuncinfo$?set_led_by_name@mfdpage_led_t@@AAAXHPBDH0ZZ 1002fa54     mfdpage_led.obj
 0002:00006a78       __ehfuncinfo$?do_refresh@mfdpage_led_t@@UAEXPAVobject_t@@@Z 1002fa78     mfdpage_led.obj
 0002:00006a9c       __unwindtable$?do_refresh@mfdpage_led_t@@UAEXPAVobject_t@@@Z 1002fa9c     mfdpage_led.obj
 0002:00006adc       __tryblocktable$?do_refresh@mfdpage_led_t@@UAEXPAVobject_t@@@Z 1002fadc     mfdpage_led.obj
 0002:00006b2c       __catchsym$??$_Copy_nodes@U?$integral_constant@_N$00@std@@@?$_Tree@V?$_Tmap_traits@V?$basic_string@DU?$char_traits@D@std@@V?$allocator@D@2@@std@@V12@U?$less@V?$basic_string@DU?$char_traits@D@std@@V?$allocator@D@2@@std@@@2@V?$allocator@U?$pair@$$CBV?$basic_string@DU?$char_traits@D@std@@V?$allocator@D@2@@std@@V12@@std@@@2@$0A@@std@@@std@@IAEPAU?$_Tree_node@U?$pair@$$CBV?$basic_string@DU?$char_traits@D@std@@V?$allocator@D@2@@std@@V12@@std@@PAX@1@PAU21@0U?$integral_constant@_N$00@1@@Z$2 1002fb2c     mfdpage_led.obj
 0002:00006b3c       __unwindtable$??$_Copy_nodes@U?$integral_constant@_N$00@std@@@?$_Tree@V?$_Tmap_traits@V?$basic_string@DU?$char_traits@D@std@@V?$allocator@D@2@@std@@V12@U?$less@V?$basic_string@DU?$char_traits@D@std@@V?$allocator@D@2@@std@@@2@V?$allocator@U?$pair@$$CBV?$basic_string@DU?$char_traits@D@std@@V?$allocator@D@2@@std@@V12@@std@@@2@$0A@@std@@@std@@IAEPAU?$_Tree_node@U?$pair@$$CBV?$basic_string@DU?$char_traits@D@std@@V?$allocator@D@2@@std@@V12@@std@@PAX@1@PAU21@0U?$integral_constant@_N$00@1@@Z 1002fb3c     mfdpage_led.obj
 0002:00006b4c       __tryblocktable$??$_Copy_nodes@U?$integral_constant@_N$00@std@@@?$_Tree@V?$_Tmap_traits@V?$basic_string@DU?$char_traits@D@std@@V?$allocator@D@2@@std@@V12@U?$less@V?$basic_string@DU?$char_traits@D@std@@V?$allocator@D@2@@std@@@2@V?$allocator@U?$pair@$$CBV?$basic_string@DU?$char_traits@D@std@@V?$allocator@D@2@@std@@V12@@std@@@2@$0A@@std@@@std@@IAEPAU?$_Tree_node@U?$pair@$$CBV?$basic_string@DU?$char_traits@D@std@@V?$allocator@D@2@@std@@V12@@std@@PAX@1@PAU21@0U?$integral_constant@_N$00@1@@Z 1002fb4c     mfdpage_led.obj
 0002:00006b60       __ehfuncinfo$??$_Copy_nodes@U?$integral_constant@_N$00@std@@@?$_Tree@V?$_Tmap_traits@V?$basic_string@DU?$char_traits@D@std@@V?$allocator@D@2@@std@@V12@U?$less@V?$basic_string@DU?$char_traits@D@std@@V?$allocator@D@2@@std@@@2@V?$allocator@U?$pair@$$CBV?$basic_string@DU?$char_traits@D@std@@V?$allocator@D@2@@std@@V12@@std@@@2@$0A@@std@@@std@@IAEPAU?$_Tree_node@U?$pair@$$CBV?$basic_string@DU?$char_traits@D@std@@V?$allocator@D@2@@std@@V12@@std@@PAX@1@PAU21@0U?$integral_constant@_N$00@1@@Z 1002fb60     mfdpage_led.obj
 0002:00006b84       __catchsym$??$_Buynode@V?$basic_string@DU?$char_traits@D@std@@V?$allocator@D@2@@std@@V12@@?$_Tree_buy@U?$pair@$$CBV?$basic_string@DU?$char_traits@D@std@@V?$allocator@D@2@@std@@V12@@std@@V?$allocator@U?$pair@$$CBV?$basic_string@DU?$char_traits@D@std@@V?$allocator@D@2@@std@@V12@@std@@@2@@std@@QAEPAU?$_Tree_node@U?$pair@$$CBV?$basic_string@DU?$char_traits@D@std@@V?$allocator@D@2@@std@@V12@@std@@PAX@1@$$QAV?$basic_string@DU?$char_traits@D@std@@V?$allocator@D@2@@1@0@Z$2 1002fb84     mfdpage_led.obj
 0002:00006b94       __unwindtable$??$_Buynode@V?$basic_string@DU?$char_traits@D@std@@V?$allocator@D@2@@std@@V12@@?$_Tree_buy@U?$pair@$$CBV?$basic_string@DU?$char_traits@D@std@@V?$allocator@D@2@@std@@V12@@std@@V?$allocator@U?$pair@$$CBV?$basic_string@DU?$char_traits@D@std@@V?$allocator@D@2@@std@@V12@@std@@@2@@std@@QAEPAU?$_Tree_node@U?$pair@$$CBV?$basic_string@DU?$char_traits@D@std@@V?$allocator@D@2@@std@@V12@@std@@PAX@1@$$QAV?$basic_string@DU?$char_traits@D@std@@V?$allocator@D@2@@1@0@Z 1002fb94     mfdpage_led.obj
 0002:00006ba4       __tryblocktable$??$_Buynode@V?$basic_string@DU?$char_traits@D@std@@V?$allocator@D@2@@std@@V12@@?$_Tree_buy@U?$pair@$$CBV?$basic_string@DU?$char_traits@D@std@@V?$allocator@D@2@@std@@V12@@std@@V?$allocator@U?$pair@$$CBV?$basic_string@DU?$char_traits@D@std@@V?$allocator@D@2@@std@@V12@@std@@@2@@std@@QAEPAU?$_Tree_node@U?$pair@$$CBV?$basic_string@DU?$char_traits@D@std@@V?$allocator@D@2@@std@@V12@@std@@PAX@1@$$QAV?$basic_string@DU?$char_traits@D@std@@V?$allocator@D@2@@1@0@Z 1002fba4     mfdpage_led.obj
 0002:00006bb8       __ehfuncinfo$??$_Buynode@V?$basic_string@DU?$char_traits@D@std@@V?$allocator@D@2@@std@@V12@@?$_Tree_buy@U?$pair@$$CBV?$basic_string@DU?$char_traits@D@std@@V?$allocator@D@2@@std@@V12@@std@@V?$allocator@U?$pair@$$CBV?$basic_string@DU?$char_traits@D@std@@V?$allocator@D@2@@std@@V12@@std@@@2@@std@@QAEPAU?$_Tree_node@U?$pair@$$CBV?$basic_string@DU?$char_traits@D@std@@V?$allocator@D@2@@std@@V12@@std@@PAX@1@$$QAV?$basic_string@DU?$char_traits@D@std@@V?$allocator@D@2@@1@0@Z 1002fbb8     mfdpage_led.obj
 0002:00006bdc       __catchsym$??$_Buynode@ABUpiecewise_construct_t@std@@V?$tuple@ABH@2@V?$tuple@$$$V@2@@?$_Tree_buy@U?$pair@$$CBHM@std@@V?$allocator@U?$pair@$$CBHM@std@@@2@@std@@QAEPAU?$_Tree_node@U?$pair@$$CBHM@std@@PAX@1@ABUpiecewise_construct_t@1@$$QAV?$tuple@ABH@1@$$QAV?$tuple@$$$V@1@@Z$2 1002fbdc     fms_config.obj
 0002:00006bec       __unwindtable$??$_Buynode@ABUpiecewise_construct_t@std@@V?$tuple@ABH@2@V?$tuple@$$$V@2@@?$_Tree_buy@U?$pair@$$CBHM@std@@V?$allocator@U?$pair@$$CBHM@std@@@2@@std@@QAEPAU?$_Tree_node@U?$pair@$$CBHM@std@@PAX@1@ABUpiecewise_construct_t@1@$$QAV?$tuple@ABH@1@$$QAV?$tuple@$$$V@1@@Z 1002fbec     fms_config.obj
 0002:00006bfc       __tryblocktable$??$_Buynode@ABUpiecewise_construct_t@std@@V?$tuple@ABH@2@V?$tuple@$$$V@2@@?$_Tree_buy@U?$pair@$$CBHM@std@@V?$allocator@U?$pair@$$CBHM@std@@@2@@std@@QAEPAU?$_Tree_node@U?$pair@$$CBHM@std@@PAX@1@ABUpiecewise_construct_t@1@$$QAV?$tuple@ABH@1@$$QAV?$tuple@$$$V@1@@Z 1002fbfc     fms_config.obj
 0002:00006c10       __ehfuncinfo$??$_Buynode@ABUpiecewise_construct_t@std@@V?$tuple@ABH@2@V?$tuple@$$$V@2@@?$_Tree_buy@U?$pair@$$CBHM@std@@V?$allocator@U?$pair@$$CBHM@std@@@2@@std@@QAEPAU?$_Tree_node@U?$pair@$$CBHM@std@@PAX@1@ABUpiecewise_construct_t@1@$$QAV?$tuple@ABH@1@$$QAV?$tuple@$$$V@1@@Z 1002fc10     fms_config.obj
 0002:00006c34       __catchsym$??$_Buynode@ABUpiecewise_construct_t@std@@V?$tuple@ABV?$basic_string@DU?$char_traits@D@std@@V?$allocator@D@2@@std@@@2@V?$tuple@$$$V@2@@?$_Tree_buy@U?$pair@$$CBV?$basic_string@DU?$char_traits@D@std@@V?$allocator@D@2@@std@@PAVfms_fp_item_t@@@std@@V?$allocator@U?$pair@$$CBV?$basic_string@DU?$char_traits@D@std@@V?$allocator@D@2@@std@@PAVfms_fp_item_t@@@std@@@2@@std@@QAEPAU?$_Tree_node@U?$pair@$$CBV?$basic_string@DU?$char_traits@D@std@@V?$allocator@D@2@@std@@PAVfms_fp_item_t@@@std@@PAX@1@ABUpiecewise_construct_t@1@$$QAV?$tuple@ABV?$basic_string@DU?$char_traits@D@std@@V?$allocator@D@2@@std@@@1@$$QAV?$tuple@$$$V@1@@Z$2 1002fc34     fms_fp.obj
 0002:00006c34       __catchsym$??$_Buynode@ABUpiecewise_construct_t@std@@V?$tuple@ABV?$basic_string@DU?$char_traits@D@std@@V?$allocator@D@2@@std@@@2@V?$tuple@$$$V@2@@?$_Tree_buy@U?$pair@$$CBV?$basic_string@DU?$char_traits@D@std@@V?$allocator@D@2@@std@@PAVfms_config_item_t@@@std@@V?$allocator@U?$pair@$$CBV?$basic_string@DU?$char_traits@D@std@@V?$allocator@D@2@@std@@PAVfms_config_item_t@@@std@@@2@@std@@QAEPAU?$_Tree_node@U?$pair@$$CBV?$basic_string@DU?$char_traits@D@std@@V?$allocator@D@2@@std@@PAVfms_config_item_t@@@std@@PAX@1@ABUpiecewise_construct_t@1@$$QAV?$tuple@ABV?$basic_string@DU?$char_traits@D@std@@V?$allocator@D@2@@std@@@1@$$QAV?$tuple@$$$V@1@@Z$2 1002fc34     fms_fp.obj
 0002:00006c44       __unwindtable$??$_Buynode@ABUpiecewise_construct_t@std@@V?$tuple@ABV?$basic_string@DU?$char_traits@D@std@@V?$allocator@D@2@@std@@@2@V?$tuple@$$$V@2@@?$_Tree_buy@U?$pair@$$CBV?$basic_string@DU?$char_traits@D@std@@V?$allocator@D@2@@std@@PAVfms_fp_item_t@@@std@@V?$allocator@U?$pair@$$CBV?$basic_string@DU?$char_traits@D@std@@V?$allocator@D@2@@std@@PAVfms_fp_item_t@@@std@@@2@@std@@QAEPAU?$_Tree_node@U?$pair@$$CBV?$basic_string@DU?$char_traits@D@std@@V?$allocator@D@2@@std@@PAVfms_fp_item_t@@@std@@PAX@1@ABUpiecewise_construct_t@1@$$QAV?$tuple@ABV?$basic_string@DU?$char_traits@D@std@@V?$allocator@D@2@@std@@@1@$$QAV?$tuple@$$$V@1@@Z 1002fc44     fms_fp.obj
 0002:00006c44       __unwindtable$??$_Buynode@ABUpiecewise_construct_t@std@@V?$tuple@ABV?$basic_string@DU?$char_traits@D@std@@V?$allocator@D@2@@std@@@2@V?$tuple@$$$V@2@@?$_Tree_buy@U?$pair@$$CBV?$basic_string@DU?$char_traits@D@std@@V?$allocator@D@2@@std@@PAVfms_config_item_t@@@std@@V?$allocator@U?$pair@$$CBV?$basic_string@DU?$char_traits@D@std@@V?$allocator@D@2@@std@@PAVfms_config_item_t@@@std@@@2@@std@@QAEPAU?$_Tree_node@U?$pair@$$CBV?$basic_string@DU?$char_traits@D@std@@V?$allocator@D@2@@std@@PAVfms_config_item_t@@@std@@PAX@1@ABUpiecewise_construct_t@1@$$QAV?$tuple@ABV?$basic_string@DU?$char_traits@D@std@@V?$allocator@D@2@@std@@@1@$$QAV?$tuple@$$$V@1@@Z 1002fc44     fms_fp.obj
 0002:00006c54       __tryblocktable$??$_Buynode@ABUpiecewise_construct_t@std@@V?$tuple@ABV?$basic_string@DU?$char_traits@D@std@@V?$allocator@D@2@@std@@@2@V?$tuple@$$$V@2@@?$_Tree_buy@U?$pair@$$CBV?$basic_string@DU?$char_traits@D@std@@V?$allocator@D@2@@std@@PAVfms_fp_item_t@@@std@@V?$allocator@U?$pair@$$CBV?$basic_string@DU?$char_traits@D@std@@V?$allocator@D@2@@std@@PAVfms_fp_item_t@@@std@@@2@@std@@QAEPAU?$_Tree_node@U?$pair@$$CBV?$basic_string@DU?$char_traits@D@std@@V?$allocator@D@2@@std@@PAVfms_fp_item_t@@@std@@PAX@1@ABUpiecewise_construct_t@1@$$QAV?$tuple@ABV?$basic_string@DU?$char_traits@D@std@@V?$allocator@D@2@@std@@@1@$$QAV?$tuple@$$$V@1@@Z 1002fc54     fms_fp.obj
 0002:00006c54       __tryblocktable$??$_Buynode@ABUpiecewise_construct_t@std@@V?$tuple@ABV?$basic_string@DU?$char_traits@D@std@@V?$allocator@D@2@@std@@@2@V?$tuple@$$$V@2@@?$_Tree_buy@U?$pair@$$CBV?$basic_string@DU?$char_traits@D@std@@V?$allocator@D@2@@std@@PAVfms_config_item_t@@@std@@V?$allocator@U?$pair@$$CBV?$basic_string@DU?$char_traits@D@std@@V?$allocator@D@2@@std@@PAVfms_config_item_t@@@std@@@2@@std@@QAEPAU?$_Tree_node@U?$pair@$$CBV?$basic_string@DU?$char_traits@D@std@@V?$allocator@D@2@@std@@PAVfms_config_item_t@@@std@@PAX@1@ABUpiecewise_construct_t@1@$$QAV?$tuple@ABV?$basic_string@DU?$char_traits@D@std@@V?$allocator@D@2@@std@@@1@$$QAV?$tuple@$$$V@1@@Z 1002fc54     fms_fp.obj
 0002:00006c68       __ehfuncinfo$??$_Buynode@ABUpiecewise_construct_t@std@@V?$tuple@ABV?$basic_string@DU?$char_traits@D@std@@V?$allocator@D@2@@std@@@2@V?$tuple@$$$V@2@@?$_Tree_buy@U?$pair@$$CBV?$basic_string@DU?$char_traits@D@std@@V?$allocator@D@2@@std@@PAVfms_config_item_t@@@std@@V?$allocator@U?$pair@$$CBV?$basic_string@DU?$char_traits@D@std@@V?$allocator@D@2@@std@@PAVfms_config_item_t@@@std@@@2@@std@@QAEPAU?$_Tree_node@U?$pair@$$CBV?$basic_string@DU?$char_traits@D@std@@V?$allocator@D@2@@std@@PAVfms_config_item_t@@@std@@PAX@1@ABUpiecewise_construct_t@1@$$QAV?$tuple@ABV?$basic_string@DU?$char_traits@D@std@@V?$allocator@D@2@@std@@@1@$$QAV?$tuple@$$$V@1@@Z 1002fc68     fms_fp.obj
 0002:00006c68       __ehfuncinfo$??$_Buynode@ABUpiecewise_construct_t@std@@V?$tuple@ABV?$basic_string@DU?$char_traits@D@std@@V?$allocator@D@2@@std@@@2@V?$tuple@$$$V@2@@?$_Tree_buy@U?$pair@$$CBV?$basic_string@DU?$char_traits@D@std@@V?$allocator@D@2@@std@@PAVfms_fp_item_t@@@std@@V?$allocator@U?$pair@$$CBV?$basic_string@DU?$char_traits@D@std@@V?$allocator@D@2@@std@@PAVfms_fp_item_t@@@std@@@2@@std@@QAEPAU?$_Tree_node@U?$pair@$$CBV?$basic_string@DU?$char_traits@D@std@@V?$allocator@D@2@@std@@PAVfms_fp_item_t@@@std@@PAX@1@ABUpiecewise_construct_t@1@$$QAV?$tuple@ABV?$basic_string@DU?$char_traits@D@std@@V?$allocator@D@2@@std@@@1@$$QAV?$tuple@$$$V@1@@Z 1002fc68     fms_fp.obj
 0002:00006c8c       __catchsym$??$_Insert_nohint@AAU?$pair@$$CBV?$basic_string@DU?$char_traits@D@std@@V?$allocator@D@2@@std@@PAVfms_config_item_t@@@std@@PAU?$_Tree_node@U?$pair@$$CBV?$basic_string@DU?$char_traits@D@std@@V?$allocator@D@2@@std@@PAVfms_config_item_t@@@std@@PAX@2@@?$_Tree@V?$_Tmap_traits@V?$basic_string@DU?$char_traits@D@std@@V?$allocator@D@2@@std@@PAVfms_config_item_t@@U?$less@V?$basic_string@DU?$char_traits@D@std@@V?$allocator@D@2@@std@@@2@V?$allocator@U?$pair@$$CBV?$basic_string@DU?$char_traits@D@std@@V?$allocator@D@2@@std@@PAVfms_config_item_t@@@std@@@2@$0A@@std@@@std@@IAE?AU?$pair@V?$_Tree_iterator@V?$_Tree_val@U?$_Tree_simple_types@U?$pair@$$CBV?$basic_string@DU?$char_traits@D@std@@V?$allocator@D@2@@std@@PAVfms_config_item_t@@@std@@@std@@@std@@@std@@_N@1@_NAAU?$pair@$$CBV?$basic_string@DU?$char_traits@D@std@@V?$allocator@D@2@@std@@PAVfms_config_item_t@@@1@PAU?$_Tree_node@U?$pair@$$CBV?$basic_string@DU?$char_traits@D@std@@V?$allocator@D@2@@std@@PAVfms_config_item_t@@@std@@PAX@1@@Z$2 1002fc8c     fms_fp.obj
 0002:00006c8c       __catchsym$??$_Insert_nohint@AAU?$pair@$$CBV?$basic_string@DU?$char_traits@D@std@@V?$allocator@D@2@@std@@M@std@@PAU?$_Tree_node@U?$pair@$$CBV?$basic_string@DU?$char_traits@D@std@@V?$allocator@D@2@@std@@M@std@@PAX@2@@?$_Tree@V?$_Tmap_traits@V?$basic_string@DU?$char_traits@D@std@@V?$allocator@D@2@@std@@MU?$less@V?$basic_string@DU?$char_traits@D@std@@V?$allocator@D@2@@std@@@2@V?$allocator@U?$pair@$$CBV?$basic_string@DU?$char_traits@D@std@@V?$allocator@D@2@@std@@M@std@@@2@$0A@@std@@@std@@IAE?AU?$pair@V?$_Tree_iterator@V?$_Tree_val@U?$_Tree_simple_types@U?$pair@$$CBV?$basic_string@DU?$char_traits@D@std@@V?$allocator@D@2@@std@@M@std@@@std@@@std@@@std@@_N@1@_NAAU?$pair@$$CBV?$basic_string@DU?$char_traits@D@std@@V?$allocator@D@2@@std@@M@1@PAU?$_Tree_node@U?$pair@$$CBV?$basic_string@DU?$char_traits@D@std@@V?$allocator@D@2@@std@@M@std@@PAX@1@@Z$2 1002fc8c     fms_fp.obj
 0002:00006c8c       __catchsym$??$_Insert_nohint@AAU?$pair@$$CBV?$basic_string@DU?$char_traits@D@std@@V?$allocator@D@2@@std@@H@std@@PAU?$_Tree_node@U?$pair@$$CBV?$basic_string@DU?$char_traits@D@std@@V?$allocator@D@2@@std@@H@std@@PAX@2@@?$_Tree@V?$_Tmap_traits@V?$basic_string@DU?$char_traits@D@std@@V?$allocator@D@2@@std@@HU?$less@V?$basic_string@DU?$char_traits@D@std@@V?$allocator@D@2@@std@@@2@V?$allocator@U?$pair@$$CBV?$basic_string@DU?$char_traits@D@std@@V?$allocator@D@2@@std@@H@std@@@2@$0A@@std@@@std@@IAE?AU?$pair@V?$_Tree_iterator@V?$_Tree_val@U?$_Tree_simple_types@U?$pair@$$CBV?$basic_string@DU?$char_traits@D@std@@V?$allocator@D@2@@std@@H@std@@@std@@@std@@@std@@_N@1@_NAAU?$pair@$$CBV?$basic_string@DU?$char_traits@D@std@@V?$allocator@D@2@@std@@H@1@PAU?$_Tree_node@U?$pair@$$CBV?$basic_string@DU?$char_traits@D@std@@V?$allocator@D@2@@std@@H@std@@PAX@1@@Z$2 1002fc8c     fms_fp.obj
 0002:00006c8c       __catchsym$??$_Insert_nohint@AAU?$pair@$$CBV?$basic_string@DU?$char_traits@D@std@@V?$allocator@D@2@@std@@D@std@@PAU?$_Tree_node@U?$pair@$$CBV?$basic_string@DU?$char_traits@D@std@@V?$allocator@D@2@@std@@D@std@@PAX@2@@?$_Tree@V?$_Tmap_traits@V?$basic_string@DU?$char_traits@D@std@@V?$allocator@D@2@@std@@DU?$less@V?$basic_string@DU?$char_traits@D@std@@V?$allocator@D@2@@std@@@2@V?$allocator@U?$pair@$$CBV?$basic_string@DU?$char_traits@D@std@@V?$allocator@D@2@@std@@D@std@@@2@$0A@@std@@@std@@IAE?AU?$pair@V?$_Tree_iterator@V?$_Tree_val@U?$_Tree_simple_types@U?$pair@$$CBV?$basic_string@DU?$char_traits@D@std@@V?$allocator@D@2@@std@@D@std@@@std@@@std@@@std@@_N@1@_NAAU?$pair@$$CBV?$basic_string@DU?$char_traits@D@std@@V?$allocator@D@2@@std@@D@1@PAU?$_Tree_node@U?$pair@$$CBV?$basic_string@DU?$char_traits@D@std@@V?$allocator@D@2@@std@@D@std@@PAX@1@@Z$2 1002fc8c     fms_fp.obj
 0002:00006c8c       __catchsym$??$_Insert_nohint@AAU?$pair@$$CBV?$basic_string@DU?$char_traits@D@std@@V?$allocator@D@2@@std@@PAVfms_fp_item_t@@@std@@PAU?$_Tree_node@U?$pair@$$CBV?$basic_string@DU?$char_traits@D@std@@V?$allocator@D@2@@std@@PAVfms_fp_item_t@@@std@@PAX@2@@?$_Tree@V?$_Tmap_traits@V?$basic_string@DU?$char_traits@D@std@@V?$allocator@D@2@@std@@PAVfms_fp_item_t@@U?$less@V?$basic_string@DU?$char_traits@D@std@@V?$allocator@D@2@@std@@@2@V?$allocator@U?$pair@$$CBV?$basic_string@DU?$char_traits@D@std@@V?$allocator@D@2@@std@@PAVfms_fp_item_t@@@std@@@2@$0A@@std@@@std@@IAE?AU?$pair@V?$_Tree_iterator@V?$_Tree_val@U?$_Tree_simple_types@U?$pair@$$CBV?$basic_string@DU?$char_traits@D@std@@V?$allocator@D@2@@std@@PAVfms_fp_item_t@@@std@@@std@@@std@@@std@@_N@1@_NAAU?$pair@$$CBV?$basic_string@DU?$char_traits@D@std@@V?$allocator@D@2@@std@@PAVfms_fp_item_t@@@1@PAU?$_Tree_node@U?$pair@$$CBV?$basic_string@DU?$char_traits@D@std@@V?$allocator@D@2@@std@@PAVfms_fp_item_t@@@std@@PAX@1@@Z$2 1002fc8c     fms_fp.obj
 0002:00006c9c       __unwindtable$??$_Insert_nohint@AAU?$pair@$$CBV?$basic_string@DU?$char_traits@D@std@@V?$allocator@D@2@@std@@PAVfms_config_item_t@@@std@@PAU?$_Tree_node@U?$pair@$$CBV?$basic_string@DU?$char_traits@D@std@@V?$allocator@D@2@@std@@PAVfms_config_item_t@@@std@@PAX@2@@?$_Tree@V?$_Tmap_traits@V?$basic_string@DU?$char_traits@D@std@@V?$allocator@D@2@@std@@PAVfms_config_item_t@@U?$less@V?$basic_string@DU?$char_traits@D@std@@V?$allocator@D@2@@std@@@2@V?$allocator@U?$pair@$$CBV?$basic_string@DU?$char_traits@D@std@@V?$allocator@D@2@@std@@PAVfms_config_item_t@@@std@@@2@$0A@@std@@@std@@IAE?AU?$pair@V?$_Tree_iterator@V?$_Tree_val@U?$_Tree_simple_types@U?$pair@$$CBV?$basic_string@DU?$char_traits@D@std@@V?$allocator@D@2@@std@@PAVfms_config_item_t@@@std@@@std@@@std@@@std@@_N@1@_NAAU?$pair@$$CBV?$basic_string@DU?$char_traits@D@std@@V?$allocator@D@2@@std@@PAVfms_config_item_t@@@1@PAU?$_Tree_node@U?$pair@$$CBV?$basic_string@DU?$char_traits@D@std@@V?$allocator@D@2@@std@@PAVfms_config_item_t@@@std@@PAX@1@@Z 1002fc9c     fms_fp.obj
 0002:00006c9c       __unwindtable$??$_Insert_nohint@AAU?$pair@$$CBV?$basic_string@DU?$char_traits@D@std@@V?$allocator@D@2@@std@@PAVfms_fp_item_t@@@std@@PAU?$_Tree_node@U?$pair@$$CBV?$basic_string@DU?$char_traits@D@std@@V?$allocator@D@2@@std@@PAVfms_fp_item_t@@@std@@PAX@2@@?$_Tree@V?$_Tmap_traits@V?$basic_string@DU?$char_traits@D@std@@V?$allocator@D@2@@std@@PAVfms_fp_item_t@@U?$less@V?$basic_string@DU?$char_traits@D@std@@V?$allocator@D@2@@std@@@2@V?$allocator@U?$pair@$$CBV?$basic_string@DU?$char_traits@D@std@@V?$allocator@D@2@@std@@PAVfms_fp_item_t@@@std@@@2@$0A@@std@@@std@@IAE?AU?$pair@V?$_Tree_iterator@V?$_Tree_val@U?$_Tree_simple_types@U?$pair@$$CBV?$basic_string@DU?$char_traits@D@std@@V?$allocator@D@2@@std@@PAVfms_fp_item_t@@@std@@@std@@@std@@@std@@_N@1@_NAAU?$pair@$$CBV?$basic_string@DU?$char_traits@D@std@@V?$allocator@D@2@@std@@PAVfms_fp_item_t@@@1@PAU?$_Tree_node@U?$pair@$$CBV?$basic_string@DU?$char_traits@D@std@@V?$allocator@D@2@@std@@PAVfms_fp_item_t@@@std@@PAX@1@@Z 1002fc9c     fms_fp.obj
 0002:00006c9c       __unwindtable$??$_Insert_nohint@AAU?$pair@$$CBV?$basic_string@DU?$char_traits@D@std@@V?$allocator@D@2@@std@@H@std@@PAU?$_Tree_node@U?$pair@$$CBV?$basic_string@DU?$char_traits@D@std@@V?$allocator@D@2@@std@@H@std@@PAX@2@@?$_Tree@V?$_Tmap_traits@V?$basic_string@DU?$char_traits@D@std@@V?$allocator@D@2@@std@@HU?$less@V?$basic_string@DU?$char_traits@D@std@@V?$allocator@D@2@@std@@@2@V?$allocator@U?$pair@$$CBV?$basic_string@DU?$char_traits@D@std@@V?$allocator@D@2@@std@@H@std@@@2@$0A@@std@@@std@@IAE?AU?$pair@V?$_Tree_iterator@V?$_Tree_val@U?$_Tree_simple_types@U?$pair@$$CBV?$basic_string@DU?$char_traits@D@std@@V?$allocator@D@2@@std@@H@std@@@std@@@std@@@std@@_N@1@_NAAU?$pair@$$CBV?$basic_string@DU?$char_traits@D@std@@V?$allocator@D@2@@std@@H@1@PAU?$_Tree_node@U?$pair@$$CBV?$basic_string@DU?$char_traits@D@std@@V?$allocator@D@2@@std@@H@std@@PAX@1@@Z 1002fc9c     fms_fp.obj
 0002:00006c9c       __unwindtable$??$_Insert_nohint@AAU?$pair@$$CBV?$basic_string@DU?$char_traits@D@std@@V?$allocator@D@2@@std@@M@std@@PAU?$_Tree_node@U?$pair@$$CBV?$basic_string@DU?$char_traits@D@std@@V?$allocator@D@2@@std@@M@std@@PAX@2@@?$_Tree@V?$_Tmap_traits@V?$basic_string@DU?$char_traits@D@std@@V?$allocator@D@2@@std@@MU?$less@V?$basic_string@DU?$char_traits@D@std@@V?$allocator@D@2@@std@@@2@V?$allocator@U?$pair@$$CBV?$basic_string@DU?$char_traits@D@std@@V?$allocator@D@2@@std@@M@std@@@2@$0A@@std@@@std@@IAE?AU?$pair@V?$_Tree_iterator@V?$_Tree_val@U?$_Tree_simple_types@U?$pair@$$CBV?$basic_string@DU?$char_traits@D@std@@V?$allocator@D@2@@std@@M@std@@@std@@@std@@@std@@_N@1@_NAAU?$pair@$$CBV?$basic_string@DU?$char_traits@D@std@@V?$allocator@D@2@@std@@M@1@PAU?$_Tree_node@U?$pair@$$CBV?$basic_string@DU?$char_traits@D@std@@V?$allocator@D@2@@std@@M@std@@PAX@1@@Z 1002fc9c     fms_fp.obj
 0002:00006c9c       __unwindtable$??$_Insert_nohint@AAU?$pair@$$CBV?$basic_string@DU?$char_traits@D@std@@V?$allocator@D@2@@std@@D@std@@PAU?$_Tree_node@U?$pair@$$CBV?$basic_string@DU?$char_traits@D@std@@V?$allocator@D@2@@std@@D@std@@PAX@2@@?$_Tree@V?$_Tmap_traits@V?$basic_string@DU?$char_traits@D@std@@V?$allocator@D@2@@std@@DU?$less@V?$basic_string@DU?$char_traits@D@std@@V?$allocator@D@2@@std@@@2@V?$allocator@U?$pair@$$CBV?$basic_string@DU?$char_traits@D@std@@V?$allocator@D@2@@std@@D@std@@@2@$0A@@std@@@std@@IAE?AU?$pair@V?$_Tree_iterator@V?$_Tree_val@U?$_Tree_simple_types@U?$pair@$$CBV?$basic_string@DU?$char_traits@D@std@@V?$allocator@D@2@@std@@D@std@@@std@@@std@@@std@@_N@1@_NAAU?$pair@$$CBV?$basic_string@DU?$char_traits@D@std@@V?$allocator@D@2@@std@@D@1@PAU?$_Tree_node@U?$pair@$$CBV?$basic_string@DU?$char_traits@D@std@@V?$allocator@D@2@@std@@D@std@@PAX@1@@Z 1002fc9c     fms_fp.obj
 0002:00006cac       __tryblocktable$??$_Insert_nohint@AAU?$pair@$$CBV?$basic_string@DU?$char_traits@D@std@@V?$allocator@D@2@@std@@M@std@@PAU?$_Tree_node@U?$pair@$$CBV?$basic_string@DU?$char_traits@D@std@@V?$allocator@D@2@@std@@M@std@@PAX@2@@?$_Tree@V?$_Tmap_traits@V?$basic_string@DU?$char_traits@D@std@@V?$allocator@D@2@@std@@MU?$less@V?$basic_string@DU?$char_traits@D@std@@V?$allocator@D@2@@std@@@2@V?$allocator@U?$pair@$$CBV?$basic_string@DU?$char_traits@D@std@@V?$allocator@D@2@@std@@M@std@@@2@$0A@@std@@@std@@IAE?AU?$pair@V?$_Tree_iterator@V?$_Tree_val@U?$_Tree_simple_types@U?$pair@$$CBV?$basic_string@DU?$char_traits@D@std@@V?$allocator@D@2@@std@@M@std@@@std@@@std@@@std@@_N@1@_NAAU?$pair@$$CBV?$basic_string@DU?$char_traits@D@std@@V?$allocator@D@2@@std@@M@1@PAU?$_Tree_node@U?$pair@$$CBV?$basic_string@DU?$char_traits@D@std@@V?$allocator@D@2@@std@@M@std@@PAX@1@@Z 1002fcac     fms_fp.obj
 0002:00006cac       __tryblocktable$??$_Insert_nohint@AAU?$pair@$$CBV?$basic_string@DU?$char_traits@D@std@@V?$allocator@D@2@@std@@D@std@@PAU?$_Tree_node@U?$pair@$$CBV?$basic_string@DU?$char_traits@D@std@@V?$allocator@D@2@@std@@D@std@@PAX@2@@?$_Tree@V?$_Tmap_traits@V?$basic_string@DU?$char_traits@D@std@@V?$allocator@D@2@@std@@DU?$less@V?$basic_string@DU?$char_traits@D@std@@V?$allocator@D@2@@std@@@2@V?$allocator@U?$pair@$$CBV?$basic_string@DU?$char_traits@D@std@@V?$allocator@D@2@@std@@D@std@@@2@$0A@@std@@@std@@IAE?AU?$pair@V?$_Tree_iterator@V?$_Tree_val@U?$_Tree_simple_types@U?$pair@$$CBV?$basic_string@DU?$char_traits@D@std@@V?$allocator@D@2@@std@@D@std@@@std@@@std@@@std@@_N@1@_NAAU?$pair@$$CBV?$basic_string@DU?$char_traits@D@std@@V?$allocator@D@2@@std@@D@1@PAU?$_Tree_node@U?$pair@$$CBV?$basic_string@DU?$char_traits@D@std@@V?$allocator@D@2@@std@@D@std@@PAX@1@@Z 1002fcac     fms_fp.obj
 0002:00006cac       __tryblocktable$??$_Insert_nohint@AAU?$pair@$$CBV?$basic_string@DU?$char_traits@D@std@@V?$allocator@D@2@@std@@PAVfms_config_item_t@@@std@@PAU?$_Tree_node@U?$pair@$$CBV?$basic_string@DU?$char_traits@D@std@@V?$allocator@D@2@@std@@PAVfms_config_item_t@@@std@@PAX@2@@?$_Tree@V?$_Tmap_traits@V?$basic_string@DU?$char_traits@D@std@@V?$allocator@D@2@@std@@PAVfms_config_item_t@@U?$less@V?$basic_string@DU?$char_traits@D@std@@V?$allocator@D@2@@std@@@2@V?$allocator@U?$pair@$$CBV?$basic_string@DU?$char_traits@D@std@@V?$allocator@D@2@@std@@PAVfms_config_item_t@@@std@@@2@$0A@@std@@@std@@IAE?AU?$pair@V?$_Tree_iterator@V?$_Tree_val@U?$_Tree_simple_types@U?$pair@$$CBV?$basic_string@DU?$char_traits@D@std@@V?$allocator@D@2@@std@@PAVfms_config_item_t@@@std@@@std@@@std@@@std@@_N@1@_NAAU?$pair@$$CBV?$basic_string@DU?$char_traits@D@std@@V?$allocator@D@2@@std@@PAVfms_config_item_t@@@1@PAU?$_Tree_node@U?$pair@$$CBV?$basic_string@DU?$char_traits@D@std@@V?$allocator@D@2@@std@@PAVfms_config_item_t@@@std@@PAX@1@@Z 1002fcac     fms_fp.obj
 0002:00006cac       __tryblocktable$??$_Insert_nohint@AAU?$pair@$$CBV?$basic_string@DU?$char_traits@D@std@@V?$allocator@D@2@@std@@H@std@@PAU?$_Tree_node@U?$pair@$$CBV?$basic_string@DU?$char_traits@D@std@@V?$allocator@D@2@@std@@H@std@@PAX@2@@?$_Tree@V?$_Tmap_traits@V?$basic_string@DU?$char_traits@D@std@@V?$allocator@D@2@@std@@HU?$less@V?$basic_string@DU?$char_traits@D@std@@V?$allocator@D@2@@std@@@2@V?$allocator@U?$pair@$$CBV?$basic_string@DU?$char_traits@D@std@@V?$allocator@D@2@@std@@H@std@@@2@$0A@@std@@@std@@IAE?AU?$pair@V?$_Tree_iterator@V?$_Tree_val@U?$_Tree_simple_types@U?$pair@$$CBV?$basic_string@DU?$char_traits@D@std@@V?$allocator@D@2@@std@@H@std@@@std@@@std@@@std@@_N@1@_NAAU?$pair@$$CBV?$basic_string@DU?$char_traits@D@std@@V?$allocator@D@2@@std@@H@1@PAU?$_Tree_node@U?$pair@$$CBV?$basic_string@DU?$char_traits@D@std@@V?$allocator@D@2@@std@@H@std@@PAX@1@@Z 1002fcac     fms_fp.obj
 0002:00006cac       __tryblocktable$??$_Insert_nohint@AAU?$pair@$$CBV?$basic_string@DU?$char_traits@D@std@@V?$allocator@D@2@@std@@PAVfms_fp_item_t@@@std@@PAU?$_Tree_node@U?$pair@$$CBV?$basic_string@DU?$char_traits@D@std@@V?$allocator@D@2@@std@@PAVfms_fp_item_t@@@std@@PAX@2@@?$_Tree@V?$_Tmap_traits@V?$basic_string@DU?$char_traits@D@std@@V?$allocator@D@2@@std@@PAVfms_fp_item_t@@U?$less@V?$basic_string@DU?$char_traits@D@std@@V?$allocator@D@2@@std@@@2@V?$allocator@U?$pair@$$CBV?$basic_string@DU?$char_traits@D@std@@V?$allocator@D@2@@std@@PAVfms_fp_item_t@@@std@@@2@$0A@@std@@@std@@IAE?AU?$pair@V?$_Tree_iterator@V?$_Tree_val@U?$_Tree_simple_types@U?$pair@$$CBV?$basic_string@DU?$char_traits@D@std@@V?$allocator@D@2@@std@@PAVfms_fp_item_t@@@std@@@std@@@std@@@std@@_N@1@_NAAU?$pair@$$CBV?$basic_string@DU?$char_traits@D@std@@V?$allocator@D@2@@std@@PAVfms_fp_item_t@@@1@PAU?$_Tree_node@U?$pair@$$CBV?$basic_string@DU?$char_traits@D@std@@V?$allocator@D@2@@std@@PAVfms_fp_item_t@@@std@@PAX@1@@Z 1002fcac     fms_fp.obj
 0002:00006cc0       __ehfuncinfo$??$_Insert_nohint@AAU?$pair@$$CBV?$basic_string@DU?$char_traits@D@std@@V?$allocator@D@2@@std@@PAVfms_fp_item_t@@@std@@PAU?$_Tree_node@U?$pair@$$CBV?$basic_string@DU?$char_traits@D@std@@V?$allocator@D@2@@std@@PAVfms_fp_item_t@@@std@@PAX@2@@?$_Tree@V?$_Tmap_traits@V?$basic_string@DU?$char_traits@D@std@@V?$allocator@D@2@@std@@PAVfms_fp_item_t@@U?$less@V?$basic_string@DU?$char_traits@D@std@@V?$allocator@D@2@@std@@@2@V?$allocator@U?$pair@$$CBV?$basic_string@DU?$char_traits@D@std@@V?$allocator@D@2@@std@@PAVfms_fp_item_t@@@std@@@2@$0A@@std@@@std@@IAE?AU?$pair@V?$_Tree_iterator@V?$_Tree_val@U?$_Tree_simple_types@U?$pair@$$CBV?$basic_string@DU?$char_traits@D@std@@V?$allocator@D@2@@std@@PAVfms_fp_item_t@@@std@@@std@@@std@@@std@@_N@1@_NAAU?$pair@$$CBV?$basic_string@DU?$char_traits@D@std@@V?$allocator@D@2@@std@@PAVfms_fp_item_t@@@1@PAU?$_Tree_node@U?$pair@$$CBV?$basic_string@DU?$char_traits@D@std@@V?$allocator@D@2@@std@@PAVfms_fp_item_t@@@std@@PAX@1@@Z 1002fcc0     fms_fp.obj
 0002:00006cc0       __ehfuncinfo$??$_Insert_nohint@AAU?$pair@$$CBV?$basic_string@DU?$char_traits@D@std@@V?$allocator@D@2@@std@@M@std@@PAU?$_Tree_node@U?$pair@$$CBV?$basic_string@DU?$char_traits@D@std@@V?$allocator@D@2@@std@@M@std@@PAX@2@@?$_Tree@V?$_Tmap_traits@V?$basic_string@DU?$char_traits@D@std@@V?$allocator@D@2@@std@@MU?$less@V?$basic_string@DU?$char_traits@D@std@@V?$allocator@D@2@@std@@@2@V?$allocator@U?$pair@$$CBV?$basic_string@DU?$char_traits@D@std@@V?$allocator@D@2@@std@@M@std@@@2@$0A@@std@@@std@@IAE?AU?$pair@V?$_Tree_iterator@V?$_Tree_val@U?$_Tree_simple_types@U?$pair@$$CBV?$basic_string@DU?$char_traits@D@std@@V?$allocator@D@2@@std@@M@std@@@std@@@std@@@std@@_N@1@_NAAU?$pair@$$CBV?$basic_string@DU?$char_traits@D@std@@V?$allocator@D@2@@std@@M@1@PAU?$_Tree_node@U?$pair@$$CBV?$basic_string@DU?$char_traits@D@std@@V?$allocator@D@2@@std@@M@std@@PAX@1@@Z 1002fcc0     fms_fp.obj
 0002:00006cc0       __ehfuncinfo$??$_Insert_nohint@AAU?$pair@$$CBV?$basic_string@DU?$char_traits@D@std@@V?$allocator@D@2@@std@@H@std@@PAU?$_Tree_node@U?$pair@$$CBV?$basic_string@DU?$char_traits@D@std@@V?$allocator@D@2@@std@@H@std@@PAX@2@@?$_Tree@V?$_Tmap_traits@V?$basic_string@DU?$char_traits@D@std@@V?$allocator@D@2@@std@@HU?$less@V?$basic_string@DU?$char_traits@D@std@@V?$allocator@D@2@@std@@@2@V?$allocator@U?$pair@$$CBV?$basic_string@DU?$char_traits@D@std@@V?$allocator@D@2@@std@@H@std@@@2@$0A@@std@@@std@@IAE?AU?$pair@V?$_Tree_iterator@V?$_Tree_val@U?$_Tree_simple_types@U?$pair@$$CBV?$basic_string@DU?$char_traits@D@std@@V?$allocator@D@2@@std@@H@std@@@std@@@std@@@std@@_N@1@_NAAU?$pair@$$CBV?$basic_string@DU?$char_traits@D@std@@V?$allocator@D@2@@std@@H@1@PAU?$_Tree_node@U?$pair@$$CBV?$basic_string@DU?$char_traits@D@std@@V?$allocator@D@2@@std@@H@std@@PAX@1@@Z 1002fcc0     fms_fp.obj
 0002:00006cc0       __ehfuncinfo$??$_Insert_nohint@AAU?$pair@$$CBV?$basic_string@DU?$char_traits@D@std@@V?$allocator@D@2@@std@@PAVfms_config_item_t@@@std@@PAU?$_Tree_node@U?$pair@$$CBV?$basic_string@DU?$char_traits@D@std@@V?$allocator@D@2@@std@@PAVfms_config_item_t@@@std@@PAX@2@@?$_Tree@V?$_Tmap_traits@V?$basic_string@DU?$char_traits@D@std@@V?$allocator@D@2@@std@@PAVfms_config_item_t@@U?$less@V?$basic_string@DU?$char_traits@D@std@@V?$allocator@D@2@@std@@@2@V?$allocator@U?$pair@$$CBV?$basic_string@DU?$char_traits@D@std@@V?$allocator@D@2@@std@@PAVfms_config_item_t@@@std@@@2@$0A@@std@@@std@@IAE?AU?$pair@V?$_Tree_iterator@V?$_Tree_val@U?$_Tree_simple_types@U?$pair@$$CBV?$basic_string@DU?$char_traits@D@std@@V?$allocator@D@2@@std@@PAVfms_config_item_t@@@std@@@std@@@std@@@std@@_N@1@_NAAU?$pair@$$CBV?$basic_string@DU?$char_traits@D@std@@V?$allocator@D@2@@std@@PAVfms_config_item_t@@@1@PAU?$_Tree_node@U?$pair@$$CBV?$basic_string@DU?$char_traits@D@std@@V?$allocator@D@2@@std@@PAVfms_config_item_t@@@std@@PAX@1@@Z 1002fcc0     fms_fp.obj
 0002:00006cc0       __ehfuncinfo$??$_Insert_nohint@AAU?$pair@$$CBV?$basic_string@DU?$char_traits@D@std@@V?$allocator@D@2@@std@@D@std@@PAU?$_Tree_node@U?$pair@$$CBV?$basic_string@DU?$char_traits@D@std@@V?$allocator@D@2@@std@@D@std@@PAX@2@@?$_Tree@V?$_Tmap_traits@V?$basic_string@DU?$char_traits@D@std@@V?$allocator@D@2@@std@@DU?$less@V?$basic_string@DU?$char_traits@D@std@@V?$allocator@D@2@@std@@@2@V?$allocator@U?$pair@$$CBV?$basic_string@DU?$char_traits@D@std@@V?$allocator@D@2@@std@@D@std@@@2@$0A@@std@@@std@@IAE?AU?$pair@V?$_Tree_iterator@V?$_Tree_val@U?$_Tree_simple_types@U?$pair@$$CBV?$basic_string@DU?$char_traits@D@std@@V?$allocator@D@2@@std@@D@std@@@std@@@std@@@std@@_N@1@_NAAU?$pair@$$CBV?$basic_string@DU?$char_traits@D@std@@V?$allocator@D@2@@std@@D@1@PAU?$_Tree_node@U?$pair@$$CBV?$basic_string@DU?$char_traits@D@std@@V?$allocator@D@2@@std@@D@std@@PAX@1@@Z 1002fcc0     fms_fp.obj
 0002:00006ce4       __catchsym$??0?$_Tree@V?$_Tmap_traits@V?$basic_string@DU?$char_traits@D@std@@V?$allocator@D@2@@std@@V12@U?$less@V?$basic_string@DU?$char_traits@D@std@@V?$allocator@D@2@@std@@@2@V?$allocator@U?$pair@$$CBV?$basic_string@DU?$char_traits@D@std@@V?$allocator@D@2@@std@@V12@@std@@@2@$0A@@std@@@std@@QAE@ABV01@ABV?$allocator@U?$pair@$$CBV?$basic_string@DU?$char_traits@D@std@@V?$allocator@D@2@@std@@V12@@std@@@1@@Z$2 1002fce4     config.obj
 0002:00006cf4       __unwindtable$??0?$_Tree@V?$_Tmap_traits@V?$basic_string@DU?$char_traits@D@std@@V?$allocator@D@2@@std@@V12@U?$less@V?$basic_string@DU?$char_traits@D@std@@V?$allocator@D@2@@std@@@2@V?$allocator@U?$pair@$$CBV?$basic_string@DU?$char_traits@D@std@@V?$allocator@D@2@@std@@V12@@std@@@2@$0A@@std@@@std@@QAE@ABV01@ABV?$allocator@U?$pair@$$CBV?$basic_string@DU?$char_traits@D@std@@V?$allocator@D@2@@std@@V12@@std@@@1@@Z 1002fcf4     config.obj
 0002:00006d04       __tryblocktable$??0?$_Tree@V?$_Tmap_traits@V?$basic_string@DU?$char_traits@D@std@@V?$allocator@D@2@@std@@V12@U?$less@V?$basic_string@DU?$char_traits@D@std@@V?$allocator@D@2@@std@@@2@V?$allocator@U?$pair@$$CBV?$basic_string@DU?$char_traits@D@std@@V?$allocator@D@2@@std@@V12@@std@@@2@$0A@@std@@@std@@QAE@ABV01@ABV?$allocator@U?$pair@$$CBV?$basic_string@DU?$char_traits@D@std@@V?$allocator@D@2@@std@@V12@@std@@@1@@Z 1002fd04     config.obj
 0002:00006d18       __ehfuncinfo$??0?$_Tree@V?$_Tmap_traits@V?$basic_string@DU?$char_traits@D@std@@V?$allocator@D@2@@std@@V12@U?$less@V?$basic_string@DU?$char_traits@D@std@@V?$allocator@D@2@@std@@@2@V?$allocator@U?$pair@$$CBV?$basic_string@DU?$char_traits@D@std@@V?$allocator@D@2@@std@@V12@@std@@@2@$0A@@std@@@std@@QAE@ABV01@ABV?$allocator@U?$pair@$$CBV?$basic_string@DU?$char_traits@D@std@@V?$allocator@D@2@@std@@V12@@std@@@1@@Z 1002fd18     config.obj
 0002:00006d3c       __catchsym$??$_Copy_nodes@U?$integral_constant@_N$0A@@std@@@?$_Tree@V?$_Tmap_traits@V?$basic_string@DU?$char_traits@D@std@@V?$allocator@D@2@@std@@V12@U?$less@V?$basic_string@DU?$char_traits@D@std@@V?$allocator@D@2@@std@@@2@V?$allocator@U?$pair@$$CBV?$basic_string@DU?$char_traits@D@std@@V?$allocator@D@2@@std@@V12@@std@@@2@$0A@@std@@@std@@IAEPAU?$_Tree_node@U?$pair@$$CBV?$basic_string@DU?$char_traits@D@std@@V?$allocator@D@2@@std@@V12@@std@@PAX@1@PAU21@0U?$integral_constant@_N$0A@@1@@Z$2 1002fd3c     config.obj
 0002:00006d4c       __unwindtable$??$_Copy_nodes@U?$integral_constant@_N$0A@@std@@@?$_Tree@V?$_Tmap_traits@V?$basic_string@DU?$char_traits@D@std@@V?$allocator@D@2@@std@@V12@U?$less@V?$basic_string@DU?$char_traits@D@std@@V?$allocator@D@2@@std@@@2@V?$allocator@U?$pair@$$CBV?$basic_string@DU?$char_traits@D@std@@V?$allocator@D@2@@std@@V12@@std@@@2@$0A@@std@@@std@@IAEPAU?$_Tree_node@U?$pair@$$CBV?$basic_string@DU?$char_traits@D@std@@V?$allocator@D@2@@std@@V12@@std@@PAX@1@PAU21@0U?$integral_constant@_N$0A@@1@@Z 1002fd4c     config.obj
 0002:00006d5c       __tryblocktable$??$_Copy_nodes@U?$integral_constant@_N$0A@@std@@@?$_Tree@V?$_Tmap_traits@V?$basic_string@DU?$char_traits@D@std@@V?$allocator@D@2@@std@@V12@U?$less@V?$basic_string@DU?$char_traits@D@std@@V?$allocator@D@2@@std@@@2@V?$allocator@U?$pair@$$CBV?$basic_string@DU?$char_traits@D@std@@V?$allocator@D@2@@std@@V12@@std@@@2@$0A@@std@@@std@@IAEPAU?$_Tree_node@U?$pair@$$CBV?$basic_string@DU?$char_traits@D@std@@V?$allocator@D@2@@std@@V12@@std@@PAX@1@PAU21@0U?$integral_constant@_N$0A@@1@@Z 1002fd5c     config.obj
 0002:00006d70       __ehfuncinfo$??$_Copy_nodes@U?$integral_constant@_N$0A@@std@@@?$_Tree@V?$_Tmap_traits@V?$basic_string@DU?$char_traits@D@std@@V?$allocator@D@2@@std@@V12@U?$less@V?$basic_string@DU?$char_traits@D@std@@V?$allocator@D@2@@std@@@2@V?$allocator@U?$pair@$$CBV?$basic_string@DU?$char_traits@D@std@@V?$allocator@D@2@@std@@V12@@std@@@2@$0A@@std@@@std@@IAEPAU?$_Tree_node@U?$pair@$$CBV?$basic_string@DU?$char_traits@D@std@@V?$allocator@D@2@@std@@V12@@std@@PAX@1@PAU21@0U?$integral_constant@_N$0A@@1@@Z 1002fd70     config.obj
 0002:00006d94       __catchsym$??$_Buynode@AAU?$pair@$$CBV?$basic_string@DU?$char_traits@D@std@@V?$allocator@D@2@@std@@V12@@std@@@?$_Tree_buy@U?$pair@$$CBV?$basic_string@DU?$char_traits@D@std@@V?$allocator@D@2@@std@@V12@@std@@V?$allocator@U?$pair@$$CBV?$basic_string@DU?$char_traits@D@std@@V?$allocator@D@2@@std@@V12@@std@@@2@@std@@QAEPAU?$_Tree_node@U?$pair@$$CBV?$basic_string@DU?$char_traits@D@std@@V?$allocator@D@2@@std@@V12@@std@@PAX@1@AAU?$pair@$$CBV?$basic_string@DU?$char_traits@D@std@@V?$allocator@D@2@@std@@V12@@1@@Z$2 1002fd94     config.obj
 0002:00006da4       __unwindtable$??$_Buynode@AAU?$pair@$$CBV?$basic_string@DU?$char_traits@D@std@@V?$allocator@D@2@@std@@V12@@std@@@?$_Tree_buy@U?$pair@$$CBV?$basic_string@DU?$char_traits@D@std@@V?$allocator@D@2@@std@@V12@@std@@V?$allocator@U?$pair@$$CBV?$basic_string@DU?$char_traits@D@std@@V?$allocator@D@2@@std@@V12@@std@@@2@@std@@QAEPAU?$_Tree_node@U?$pair@$$CBV?$basic_string@DU?$char_traits@D@std@@V?$allocator@D@2@@std@@V12@@std@@PAX@1@AAU?$pair@$$CBV?$basic_string@DU?$char_traits@D@std@@V?$allocator@D@2@@std@@V12@@1@@Z 1002fda4     config.obj
 0002:00006db4       __tryblocktable$??$_Buynode@AAU?$pair@$$CBV?$basic_string@DU?$char_traits@D@std@@V?$allocator@D@2@@std@@V12@@std@@@?$_Tree_buy@U?$pair@$$CBV?$basic_string@DU?$char_traits@D@std@@V?$allocator@D@2@@std@@V12@@std@@V?$allocator@U?$pair@$$CBV?$basic_string@DU?$char_traits@D@std@@V?$allocator@D@2@@std@@V12@@std@@@2@@std@@QAEPAU?$_Tree_node@U?$pair@$$CBV?$basic_string@DU?$char_traits@D@std@@V?$allocator@D@2@@std@@V12@@std@@PAX@1@AAU?$pair@$$CBV?$basic_string@DU?$char_traits@D@std@@V?$allocator@D@2@@std@@V12@@1@@Z 1002fdb4     config.obj
 0002:00006dc8       __ehfuncinfo$??$_Buynode@AAU?$pair@$$CBV?$basic_string@DU?$char_traits@D@std@@V?$allocator@D@2@@std@@V12@@std@@@?$_Tree_buy@U?$pair@$$CBV?$basic_string@DU?$char_traits@D@std@@V?$allocator@D@2@@std@@V12@@std@@V?$allocator@U?$pair@$$CBV?$basic_string@DU?$char_traits@D@std@@V?$allocator@D@2@@std@@V12@@std@@@2@@std@@QAEPAU?$_Tree_node@U?$pair@$$CBV?$basic_string@DU?$char_traits@D@std@@V?$allocator@D@2@@std@@V12@@std@@PAX@1@AAU?$pair@$$CBV?$basic_string@DU?$char_traits@D@std@@V?$allocator@D@2@@std@@V12@@1@@Z 1002fdc8     config.obj
 0002:00006e40       __sehtable$__onexit        1002fe40     MSVCRT:atonexit.obj
 0002:00006e60       __sehtable$___DllMainCRTStartup 1002fe60     MSVCRT:crtdll.obj
 0002:00006e88       __sehtable$??_M@YGXPAXIHP6EX0@Z@Z 1002fe88     MSVCRT:ehvecdtr.obj
 0002:00006ea8       __sehtable$?__ArrayUnwind@@YGXPAXIHP6EX0@Z@Z 1002fea8     MSVCRT:ehvecdtr.obj
 0002:00006ec8       __sehtable$__IsNonwritableInCurrentImage 1002fec8     MSVCRT:pesect.obj
 0002:00006ef0       .edata                     1002fef0     win_32.xpl.exp
 0002:00006f18       rgpv                       1002ff18     win_32.xpl.exp
 0002:00006f2c       rgszName                   1002ff2c     win_32.xpl.exp
 0002:00006f40       rgwOrd                     1002ff40     win_32.xpl.exp
 0002:00006f4a       szName                     1002ff4a     win_32.xpl.exp
 0002:00006f59       $N00001                    1002ff59     win_32.xpl.exp
 0002:00006f68       $N00002                    1002ff68     win_32.xpl.exp
 0002:00006f76       $N00003                    1002ff76     win_32.xpl.exp
 0002:00006f8c       $N00004                    1002ff8c     win_32.xpl.exp
 0002:00006f99       $N00005                    1002ff99     win_32.xpl.exp
 0002:0000758e       .idata$6                   1003058e     XPLM:XPLM.dll
 0002:00007634       .idata$6                   10030634     XPWidgets:XPWidgets.dll
 0002:000076c0       .idata$6                   100306c0     libusb0:libusb0.dll
 0002:00008652       .idata$6                   10031652     msvcprt:MSVCP120.dll
 0002:000088ce       .idata$6                   100318ce     MSVCRT:MSVCR120.dll
 0002:00008ac6       .idata$6                   10031ac6     kernel32:KERNEL32.dll
 0003:000005e8       _session                   100325e8     main.obj
 0003:000005ec       __Tuple_alloc              100325ec     main.obj
 0003:000005ed       _ignore                    100325ed     main.obj
 0003:000005ee       _allocator_arg             100325ee     main.obj
 0003:000005ef       _piecewise_construct       100325ef     main.obj
 0003:00000604       __Tuple_alloc              10032604     session.obj
 0003:00000605       _ignore                    10032605     session.obj
 0003:00000606       _allocator_arg             10032606     session.obj
 0003:00000607       _piecewise_construct       10032607     session.obj
 0003:00000608       __Tuple_alloc              10032608     tools.obj
 0003:00000609       _ignore                    10032609     tools.obj
 0003:0000060a       _allocator_arg             1003260a     tools.obj
 0003:0000060b       _piecewise_construct       1003260b     tools.obj
 0003:0000060c       __Tuple_alloc              1003260c     data.obj
 0003:0000060d       _ignore                    1003260d     data.obj
 0003:0000060e       _allocator_arg             1003260e     data.obj
 0003:0000060f       _piecewise_construct       1003260f     data.obj
 0003:00000610       __Nil_obj                  10032610     data.obj
 0003:00000611       __Tuple_alloc              10032611     out.obj
 0003:00000612       _ignore                    10032612     out.obj
 0003:00000613       _allocator_arg             10032613     out.obj
 0003:00000614       _piecewise_construct       10032614     out.obj
 0003:00000615       __Tuple_alloc              10032615     out_saitek.obj
 0003:00000616       _ignore                    10032616     out_saitek.obj
 0003:00000617       _allocator_arg             10032617     out_saitek.obj
 0003:00000618       _piecewise_construct       10032618     out_saitek.obj
 0003:00000619       __Tuple_alloc              10032619     in.obj
 0003:0000061a       _ignore                    1003261a     in.obj
 0003:0000061b       _allocator_arg             1003261b     in.obj
 0003:0000061c       _piecewise_construct       1003261c     in.obj
 0003:0000061d       __Nil_obj                  1003261d     in.obj
 0003:0000061e       __Tuple_alloc              1003261e     mfdpage.obj
 0003:0000061f       _ignore                    1003261f     mfdpage.obj
 0003:00000620       _allocator_arg             10032620     mfdpage.obj
 0003:00000621       _piecewise_construct       10032621     mfdpage.obj
 0003:00000622       __Tuple_alloc              10032622     mfdpage_fms.obj
 0003:00000623       _ignore                    10032623     mfdpage_fms.obj
 0003:00000624       _allocator_arg             10032624     mfdpage_fms.obj
 0003:00000625       _piecewise_construct       10032625     mfdpage_fms.obj
 0003:00000626       __Tuple_alloc              10032626     mfdpage_flight.obj
 0003:00000627       _ignore                    10032627     mfdpage_flight.obj
 0003:00000628       _allocator_arg             10032628     mfdpage_flight.obj
 0003:00000629       _piecewise_construct       10032629     mfdpage_flight.obj
 0003:0000062a       __Tuple_alloc              1003262a     mfdpage_time.obj
 0003:0000062b       _ignore                    1003262b     mfdpage_time.obj
 0003:0000062c       _allocator_arg             1003262c     mfdpage_time.obj
 0003:0000062d       _piecewise_construct       1003262d     mfdpage_time.obj
 0003:0000062e       __Tuple_alloc              1003262e     mfdpage_weather.obj
 0003:0000062f       _ignore                    1003262f     mfdpage_weather.obj
 0003:00000630       _allocator_arg             10032630     mfdpage_weather.obj
 0003:00000631       _piecewise_construct       10032631     mfdpage_weather.obj
 0003:00000632       __Tuple_alloc              10032632     mfdpage_std.obj
 0003:00000633       _ignore                    10032633     mfdpage_std.obj
 0003:00000634       _allocator_arg             10032634     mfdpage_std.obj
 0003:00000635       _piecewise_construct       10032635     mfdpage_std.obj
 0003:00000636       __Tuple_alloc              10032636     mfdpage_led.obj
 0003:00000637       _ignore                    10032637     mfdpage_led.obj
 0003:00000638       _allocator_arg             10032638     mfdpage_led.obj
 0003:00000639       _piecewise_construct       10032639     mfdpage_led.obj
 0003:0000063a       __Tuple_alloc              1003263a     fms.obj
 0003:0000063b       _ignore                    1003263b     fms.obj
 0003:0000063c       _allocator_arg             1003263c     fms.obj
 0003:0000063d       _piecewise_construct       1003263d     fms.obj
 0003:0000063e       __Tuple_alloc              1003263e     fms_config.obj
 0003:0000063f       _ignore                    1003263f     fms_config.obj
 0003:00000640       _allocator_arg             10032640     fms_config.obj
 0003:00000641       _piecewise_construct       10032641     fms_config.obj
 0003:00000642       __Tuple_alloc              10032642     fms_fuel.obj
 0003:00000643       _ignore                    10032643     fms_fuel.obj
 0003:00000644       _allocator_arg             10032644     fms_fuel.obj
 0003:00000645       _piecewise_construct       10032645     fms_fuel.obj
 0003:00000646       __Tuple_alloc              10032646     fms_fp.obj
 0003:00000647       _ignore                    10032647     fms_fp.obj
 0003:00000648       _allocator_arg             10032648     fms_fp.obj
 0003:00000649       _piecewise_construct       10032649     fms_fp.obj
 0003:0000064a       __Tuple_alloc              1003264a     fms_utils.obj
 0003:0000064b       _ignore                    1003264b     fms_utils.obj
 0003:0000064c       _allocator_arg             1003264c     fms_utils.obj
 0003:0000064d       _piecewise_construct       1003264d     fms_utils.obj
 0003:00000658       __Tuple_alloc              10032658     config.obj
 0003:00000659       _ignore                    10032659     config.obj
 0003:0000065a       _allocator_arg             1003265a     config.obj
 0003:0000065b       _piecewise_construct       1003265b     config.obj
 0003:00000664       __Tuple_alloc              10032664     gui.obj
 0003:00000665       _ignore                    10032665     gui.obj
 0003:00000666       _allocator_arg             10032666     gui.obj
 0003:00000667       _piecewise_construct       10032667     gui.obj
 0003:00000668       _myMenu                    10032668     gui.obj
 0003:0000066c       _mySubMenuItem             1003266c     gui.obj
 0003:00000670       _a_menu_created            10032670     gui.obj
 0003:00000674       _a_fms_status_page         10032674     gui.obj
 0003:00000678       _a_fms_ref                 10032678     gui.obj
 0003:0000067c       _a_config_ref              1003267c     gui.obj
 0003:00000680       _a_mfdpages_ref            10032680     gui.obj
 0003:00000684       _a_out_ref                 10032684     gui.obj
 0003:00000688       _gui_mfd_ref               10032688     gui.obj
 0003:0000068c       _gui_fms_option_ref        1003268c     gui.obj
 0003:00000690       _gui_fms_status_ref        10032690     gui.obj
 0003:00000694       _hotkey                    10032694     gui_mfd.obj
 0003:00000698       __Tuple_alloc              10032698     gui_mfd.obj
 0003:00000699       _ignore                    10032699     gui_mfd.obj
 0003:0000069a       _allocator_arg             1003269a     gui_mfd.obj
 0003:0000069b       _piecewise_construct       1003269b     gui_mfd.obj
 0003:0000069c       _mfd_widget                1003269c     gui_mfd.obj
 0003:000006a0       _mfd_window                100326a0     gui_mfd.obj
 0003:000006a4       _mfd_refresh               100326a4     gui_mfd.obj
 0003:000006a8       _a_out_ref                 100326a8     gui_mfd.obj
 0003:000006ac       __Tuple_alloc              100326ac     gui_fms_option.obj
 0003:000006ad       _ignore                    100326ad     gui_fms_option.obj
 0003:000006ae       _allocator_arg             100326ae     gui_fms_option.obj
 0003:000006af       _piecewise_construct       100326af     gui_fms_option.obj
 0003:000006b0       _widget                    100326b0     gui_fms_option.obj
 0003:000006b4       _window                    100326b4     gui_fms_option.obj
 0003:000006b8       _Text_fl                   100326b8     gui_fms_option.obj
 0003:000006bc       _Text_gs                   100326bc     gui_fms_option.obj
 0003:000006c0       _Text_takeoff              100326c0     gui_fms_option.obj
 0003:000006c4       _button_apply              100326c4     gui_fms_option.obj
 0003:000006c8       _a_config_ref              100326c8     gui_fms_option.obj
 0003:000006cc       _a_fms_ref                 100326cc     gui_fms_option.obj
 0003:000006d0       _hotkey                    100326d0     gui_fms_status.obj
 0003:000006d4       __Tuple_alloc              100326d4     gui_fms_status.obj
 0003:000006d5       _ignore                    100326d5     gui_fms_status.obj
 0003:000006d6       _allocator_arg             100326d6     gui_fms_status.obj
 0003:000006d7       _piecewise_construct       100326d7     gui_fms_status.obj
 0003:000006d8       _widget                    100326d8     gui_fms_status.obj
 0003:000006dc       _window                    100326dc     gui_fms_status.obj
 0003:000006e0       _button_prev               100326e0     gui_fms_status.obj
 0003:000006e4       _button_next               100326e4     gui_fms_status.obj
 0003:000006e8       _button_refresh            100326e8     gui_fms_status.obj
 0003:000006ec       _status_page               100326ec     gui_fms_status.obj
 0003:000006f0       _a_config_ref              100326f0     gui_fms_status.obj
 0003:000006f4       _a_fms_ref                 100326f4     gui_fms_status.obj
 0003:000006f8       _a_fms_utils_ref           100326f8     gui_fms_status.obj
 0003:000006fc       __Fac_head                 100326fc     msvcprt:locale0_implib.obj
 0003:00000700       __Fac_tidy_reg             10032700     msvcprt:locale0_implib.obj
 0003:00000708       _GS_ExceptionRecord        10032708     MSVCRT:gs_report.obj
 0003:00000758       _GS_ContextRecord          10032758     MSVCRT:gs_report.obj
 0003:00000a24       _DebuggerWasPresent        10032a24     MSVCRT:gs_report.obj
 0003:00000a28       ___proc_attached           10032a28     MSVCRT:crtdll.obj
