 win_64.xpl

 Timestamp is 53de58c5 (Sun Aug 03 17:44:05 2014)

 Preferred load address is 0000000180000000

 Start         Length     Name                   Class
 0001:00000000 00000cd8H .text$di                CODE
 0001:00000ce0 0003baacH .text$mn                CODE
 0001:0003c790 00001790H .text$x                 CODE
 0001:0003df20 000000a1H .text$yd                CODE
 0002:00000000 00000618H .idata$5                DATA
 0002:00000618 00000008H .CRT$XCA                DATA
 0002:00000620 00000008H .CRT$XCL                DATA
 0002:00000628 00000328H .CRT$XCU                DATA
 0002:00000950 00000008H .CRT$XCZ                DATA
 0002:00000958 00000008H .CRT$XIA                DATA
 0002:00000960 00000008H .CRT$XIAA               DATA
 0002:00000968 00000008H .CRT$XIC                DATA
 0002:00000970 00000008H .CRT$XIZ                DATA
 0002:00000980 000063a0H .rdata                  DATA
 0002:00006d20 000011c4H .rdata$r                DATA
 0002:00007ee8 00000008H .rtc$IAA                DATA
 0002:00007ef0 00000008H .rtc$IZZ                DATA
 0002:00007ef8 00000008H .rtc$TAA                DATA
 0002:00007f00 00000008H .rtc$TZZ                DATA
 0002:00007f08 000030e4H .xdata                  DATA
 0002:0000aff0 0000010cH .xdata$x                DATA
 0002:0000b100 000000b5H .edata                  DATA
 0002:0000b1b8 00000078H .idata$2                DATA
 0002:0000b230 00000014H .idata$3                DATA
 0002:0000b248 00000618H .idata$4                DATA
 0002:0000b860 00001872H .idata$6                DATA
 0003:00000000 00000024H .data                   DATA
 0003:00000030 00000788H .data$r                 DATA
 0003:000007c0 00000780H .bss                    DATA
 0004:00000000 0000300cH .pdata                  DATA

  Address         Publics by Value              Rva+Base               Lib:Object

 0000:00000000       ___safe_se_handler_count   0000000000000000     <absolute>
 0000:00000000       ___safe_se_handler_table   0000000000000000     <absolute>
 0000:00000000       __guard_fids_table         0000000000000000     <absolute>
 0000:00000000       __guard_fids_count         0000000000000000     <absolute>
 0000:00000000       __guard_flags              0000000000000000     <absolute>
 0000:00000000       __ImageBase                0000000180000000     <linker-defined>
 0001:00000ce0       XPluginStart               0000000180001ce0 f   main.obj
 0001:00000dc0       XPluginEnable              0000000180001dc0 f   main.obj
 0001:00000df0       XPluginDisable             0000000180001df0 f   main.obj
 0001:00000e20       XPluginStop                0000000180001e20 f   main.obj
 0001:00000e80       XPluginReceiveMessage      0000000180001e80 f   main.obj
 0001:00000ea0       DllMain                    0000000180001ea0 f   main.obj
 0001:00000ed0       ??$_Allocate@D@std@@YAPEAD_KPEAD@Z 0000000180001ed0 f i main.obj
 0001:00000f20       ??$construct@PEAVmfdpage_t@@AEBQEAV1@@?$allocator@U?$_Tree_node@PEAVmfdpage_t@@PEAX@std@@@std@@QEAAXPEAPEAVmfdpage_t@@AEBQEAV2@@Z 0000000180001f20 f i in.obj
 0001:00000f20       ??$construct@PEAVlistener_t@@AEBQEAV1@@?$allocator@U?$_Tree_node@PEAVlistener_t@@PEAX@std@@@std@@QEAAXPEAPEAVlistener_t@@AEBQEAV2@@Z 0000000180001f20 f i data.obj
 0001:00000f20       ??$construct@PEAU?$_Tree_node@PEAVmfdpage_t@@PEAX@std@@AEAPEAU12@@?$allocator@U?$_Tree_node@PEAVmfdpage_t@@PEAX@std@@@std@@QEAAXPEAPEAU?$_Tree_node@PEAVmfdpage_t@@PEAX@1@AEAPEAU21@@Z 0000000180001f20 f i in.obj
 0001:00000f20       ??$construct@PEAU?$_Tree_node@U?$pair@$$CBHPEAVfms_fp_item_t@@@std@@PEAX@std@@AEAPEAU12@@?$allocator@U?$_Tree_node@U?$pair@$$CBHPEAVfms_fp_item_t@@@std@@PEAX@std@@@std@@QEAAXPEAPEAU?$_Tree_node@U?$pair@$$CBHPEAVfms_fp_item_t@@@std@@PEAX@1@AEAPEAU21@@Z 0000000180001f20 f i mfdpage_fms.obj
 0001:00000f20       ??$construct@PEAVobject_t@@AEBQEAV1@@?$allocator@U?$_Tree_node@PEAVobject_t@@PEAX@std@@@std@@QEAAXPEAPEAVobject_t@@AEBQEAV2@@Z 0000000180001f20 f i data.obj
 0001:00000f20       ??$construct@PEAU?$_Tree_node@PEAVlistener_t@@PEAX@std@@AEAPEAU12@@?$allocator@U?$_Tree_node@PEAVlistener_t@@PEAX@std@@@std@@QEAAXPEAPEAU?$_Tree_node@PEAVlistener_t@@PEAX@1@AEAPEAU21@@Z 0000000180001f20 f i data.obj
 0001:00000f20       ??$construct@PEAU?$_Tree_node@PEAVobject_t@@PEAX@std@@AEAPEAU12@@?$allocator@U?$_Tree_node@PEAVobject_t@@PEAX@std@@@std@@QEAAXPEAPEAU?$_Tree_node@PEAVobject_t@@PEAX@1@AEAPEAU21@@Z 0000000180001f20 f i data.obj
 0001:00000f20       ??$construct@PEAU?$_Tree_node@U?$pair@$$CBV?$basic_string@DU?$char_traits@D@std@@V?$allocator@D@2@@std@@H@std@@PEAX@std@@AEAPEAU12@@?$allocator@U?$_Tree_node@U?$pair@$$CBV?$basic_string@DU?$char_traits@D@std@@V?$allocator@D@2@@std@@H@std@@PEAX@std@@@std@@QEAAXPEAPEAU?$_Tree_node@U?$pair@$$CBV?$basic_string@DU?$char_traits@D@std@@V?$allocator@D@2@@std@@H@std@@PEAX@1@AEAPEAU21@@Z 0000000180001f20 f i mfdpage.obj
 0001:00000f20       ??$construct@PEAU?$_Tree_node@U?$pair@$$CBV?$basic_string@DU?$char_traits@D@std@@V?$allocator@D@2@@std@@PEAVfms_config_item_t@@@std@@PEAX@std@@AEAPEAU12@@?$allocator@U?$_Tree_node@U?$pair@$$CBV?$basic_string@DU?$char_traits@D@std@@V?$allocator@D@2@@std@@PEAVfms_config_item_t@@@std@@PEAX@std@@@std@@QEAAXPEAPEAU?$_Tree_node@U?$pair@$$CBV?$basic_string@DU?$char_traits@D@std@@V?$allocator@D@2@@std@@PEAVfms_config_item_t@@@std@@PEAX@1@AEAPEAU21@@Z 0000000180001f20 f i fms_config.obj
 0001:00000f20       ??$construct@PEADAEAPEAD@?$allocator@D@std@@QEAAXPEAPEADAEAPEAD@Z 0000000180001f20 f i main.obj
 0001:00000f20       ??$construct@PEAU?$_Tree_node@U?$pair@$$CBV?$basic_string@DU?$char_traits@D@std@@V?$allocator@D@2@@std@@M@std@@PEAX@std@@AEAPEAU12@@?$allocator@U?$_Tree_node@U?$pair@$$CBV?$basic_string@DU?$char_traits@D@std@@V?$allocator@D@2@@std@@M@std@@PEAX@std@@@std@@QEAAXPEAPEAU?$_Tree_node@U?$pair@$$CBV?$basic_string@DU?$char_traits@D@std@@V?$allocator@D@2@@std@@M@std@@PEAX@1@AEAPEAU21@@Z 0000000180001f20 f i mfdpage_fms.obj
 0001:00000f20       ??$construct@PEAU?$_Tree_node@U?$pair@$$CBV?$basic_string@DU?$char_traits@D@std@@V?$allocator@D@2@@std@@V12@@std@@PEAX@std@@AEAPEAU12@@?$allocator@U?$_Tree_node@U?$pair@$$CBV?$basic_string@DU?$char_traits@D@std@@V?$allocator@D@2@@std@@V12@@std@@PEAX@std@@@std@@QEAAXPEAPEAU?$_Tree_node@U?$pair@$$CBV?$basic_string@DU?$char_traits@D@std@@V?$allocator@D@2@@std@@V12@@std@@PEAX@1@AEAPEAU21@@Z 0000000180001f20 f i tools.obj
 0001:00000f20       ??$construct@PEAU?$_Tree_node@U?$pair@$$CBV?$basic_string@DU?$char_traits@D@std@@V?$allocator@D@2@@std@@D@std@@PEAX@std@@AEAPEAU12@@?$allocator@U?$_Tree_node@U?$pair@$$CBV?$basic_string@DU?$char_traits@D@std@@V?$allocator@D@2@@std@@D@std@@PEAX@std@@@std@@QEAAXPEAPEAU?$_Tree_node@U?$pair@$$CBV?$basic_string@DU?$char_traits@D@std@@V?$allocator@D@2@@std@@D@std@@PEAX@1@AEAPEAU21@@Z 0000000180001f20 f i mfdpage.obj
 0001:00000f20       ??$construct@PEAU?$_Tree_node@U?$pair@$$CBHPEAVobject_t@@@std@@PEAX@std@@AEAPEAU12@@?$allocator@U?$_Tree_node@U?$pair@$$CBHPEAVobject_t@@@std@@PEAX@std@@@std@@QEAAXPEAPEAU?$_Tree_node@U?$pair@$$CBHPEAVobject_t@@@std@@PEAX@1@AEAPEAU21@@Z 0000000180001f20 f i mfdpage.obj
 0001:00000f20       ??$construct@PEAU?$_Tree_node@U?$pair@$$CBV?$basic_string@DU?$char_traits@D@std@@V?$allocator@D@2@@std@@PEAVfms_fp_item_t@@@std@@PEAX@std@@AEAPEAU12@@?$allocator@U?$_Tree_node@U?$pair@$$CBV?$basic_string@DU?$char_traits@D@std@@V?$allocator@D@2@@std@@PEAVfms_fp_item_t@@@std@@PEAX@std@@@std@@QEAAXPEAPEAU?$_Tree_node@U?$pair@$$CBV?$basic_string@DU?$char_traits@D@std@@V?$allocator@D@2@@std@@PEAVfms_fp_item_t@@@std@@PEAX@1@AEAPEAU21@@Z 0000000180001f20 f i fms_fp.obj
 0001:00000f20       ??$construct@PEAU?$_Tree_node@U?$pair@$$CBHV?$basic_string@DU?$char_traits@D@std@@V?$allocator@D@2@@std@@@std@@PEAX@std@@AEAPEAU12@@?$allocator@U?$_Tree_node@U?$pair@$$CBHV?$basic_string@DU?$char_traits@D@std@@V?$allocator@D@2@@std@@@std@@PEAX@std@@@std@@QEAAXPEAPEAU?$_Tree_node@U?$pair@$$CBHV?$basic_string@DU?$char_traits@D@std@@V?$allocator@D@2@@std@@@std@@PEAX@1@AEAPEAU21@@Z 0000000180001f20 f i out_saitek.obj
 0001:00000f20       ??$construct@PEAU?$_Tree_node@U?$pair@$$CBHM@std@@PEAX@std@@AEAPEAU12@@?$allocator@U?$_Tree_node@U?$pair@$$CBHM@std@@PEAX@std@@@std@@QEAAXPEAPEAU?$_Tree_node@U?$pair@$$CBHM@std@@PEAX@1@AEAPEAU21@@Z 0000000180001f20 f i fms_config.obj
 0001:00000f80       ??$construct@PEAU?$_Tree_node@U?$pair@$$CBV?$basic_string@DU?$char_traits@D@std@@V?$allocator@D@2@@std@@PEAVfms_config_item_t@@@std@@PEAX@std@@AEAPEAU12@@?$allocator_traits@V?$allocator@U?$_Tree_node@U?$pair@$$CBV?$basic_string@DU?$char_traits@D@std@@V?$allocator@D@2@@std@@PEAVfms_config_item_t@@@std@@PEAX@std@@@std@@@std@@SAXAEAV?$allocator@U?$_Tree_node@U?$pair@$$CBV?$basic_string@DU?$char_traits@D@std@@V?$allocator@D@2@@std@@PEAVfms_config_item_t@@@std@@PEAX@std@@@1@PEAPEAU?$_Tree_node@U?$pair@$$CBV?$basic_string@DU?$char_traits@D@std@@V?$allocator@D@2@@std@@PEAVfms_config_item_t@@@std@@PEAX@1@AEAPEAU31@@Z 0000000180001f80 f i fms_config.obj
 0001:00000f80       ??$construct@PEAU?$_Tree_node@PEAVmfdpage_t@@PEAX@std@@AEAPEAU12@@?$allocator_traits@V?$allocator@U?$_Tree_node@PEAVmfdpage_t@@PEAX@std@@@std@@@std@@SAXAEAV?$allocator@U?$_Tree_node@PEAVmfdpage_t@@PEAX@std@@@1@PEAPEAU?$_Tree_node@PEAVmfdpage_t@@PEAX@1@AEAPEAU31@@Z 0000000180001f80 f i in.obj
 0001:00000f80       ??$construct@PEAU?$_Tree_node@U?$pair@$$CBV?$basic_string@DU?$char_traits@D@std@@V?$allocator@D@2@@std@@PEAVfms_fp_item_t@@@std@@PEAX@std@@AEAPEAU12@@?$allocator_traits@V?$allocator@U?$_Tree_node@U?$pair@$$CBV?$basic_string@DU?$char_traits@D@std@@V?$allocator@D@2@@std@@PEAVfms_fp_item_t@@@std@@PEAX@std@@@std@@@std@@SAXAEAV?$allocator@U?$_Tree_node@U?$pair@$$CBV?$basic_string@DU?$char_traits@D@std@@V?$allocator@D@2@@std@@PEAVfms_fp_item_t@@@std@@PEAX@std@@@1@PEAPEAU?$_Tree_node@U?$pair@$$CBV?$basic_string@DU?$char_traits@D@std@@V?$allocator@D@2@@std@@PEAVfms_fp_item_t@@@std@@PEAX@1@AEAPEAU31@@Z 0000000180001f80 f i fms_fp.obj
 0001:00000f80       ??$construct@PEADAEAPEAD@?$allocator_traits@V?$allocator@D@std@@@std@@SAXAEAV?$allocator@D@1@PEAPEADAEAPEAD@Z 0000000180001f80 f i main.obj
 0001:00000f80       ??$construct@PEAU?$_Tree_node@U?$pair@$$CBHPEAVfms_fp_item_t@@@std@@PEAX@std@@AEAPEAU12@@?$allocator_traits@V?$allocator@U?$_Tree_node@U?$pair@$$CBHPEAVfms_fp_item_t@@@std@@PEAX@std@@@std@@@std@@SAXAEAV?$allocator@U?$_Tree_node@U?$pair@$$CBHPEAVfms_fp_item_t@@@std@@PEAX@std@@@1@PEAPEAU?$_Tree_node@U?$pair@$$CBHPEAVfms_fp_item_t@@@std@@PEAX@1@AEAPEAU31@@Z 0000000180001f80 f i mfdpage_fms.obj
 0001:00000f80       ??$construct@PEAVmfdpage_t@@AEBQEAV1@@?$allocator_traits@V?$allocator@U?$_Tree_node@PEAVmfdpage_t@@PEAX@std@@@std@@@std@@SAXAEAV?$allocator@U?$_Tree_node@PEAVmfdpage_t@@PEAX@std@@@1@PEAPEAVmfdpage_t@@AEBQEAV3@@Z 0000000180001f80 f i in.obj
 0001:00000f80       ??$construct@PEAU?$_Tree_node@U?$pair@$$CBV?$basic_string@DU?$char_traits@D@std@@V?$allocator@D@2@@std@@V12@@std@@PEAX@std@@AEAPEAU12@@?$allocator_traits@V?$allocator@U?$_Tree_node@U?$pair@$$CBV?$basic_string@DU?$char_traits@D@std@@V?$allocator@D@2@@std@@V12@@std@@PEAX@std@@@std@@@std@@SAXAEAV?$allocator@U?$_Tree_node@U?$pair@$$CBV?$basic_string@DU?$char_traits@D@std@@V?$allocator@D@2@@std@@V12@@std@@PEAX@std@@@1@PEAPEAU?$_Tree_node@U?$pair@$$CBV?$basic_string@DU?$char_traits@D@std@@V?$allocator@D@2@@std@@V12@@std@@PEAX@1@AEAPEAU31@@Z 0000000180001f80 f i tools.obj
 0001:00000f80       ??$construct@PEAU?$_Tree_node@U?$pair@$$CBV?$basic_string@DU?$char_traits@D@std@@V?$allocator@D@2@@std@@D@std@@PEAX@std@@AEAPEAU12@@?$allocator_traits@V?$allocator@U?$_Tree_node@U?$pair@$$CBV?$basic_string@DU?$char_traits@D@std@@V?$allocator@D@2@@std@@D@std@@PEAX@std@@@std@@@std@@SAXAEAV?$allocator@U?$_Tree_node@U?$pair@$$CBV?$basic_string@DU?$char_traits@D@std@@V?$allocator@D@2@@std@@D@std@@PEAX@std@@@1@PEAPEAU?$_Tree_node@U?$pair@$$CBV?$basic_string@DU?$char_traits@D@std@@V?$allocator@D@2@@std@@D@std@@PEAX@1@AEAPEAU31@@Z 0000000180001f80 f i mfdpage.obj
 0001:00000f80       ??$construct@PEAVobject_t@@AEBQEAV1@@?$allocator_traits@V?$allocator@U?$_Tree_node@PEAVobject_t@@PEAX@std@@@std@@@std@@SAXAEAV?$allocator@U?$_Tree_node@PEAVobject_t@@PEAX@std@@@1@PEAPEAVobject_t@@AEBQEAV3@@Z 0000000180001f80 f i data.obj
 0001:00000f80       ??$construct@PEAU?$_Tree_node@U?$pair@$$CBHPEAVobject_t@@@std@@PEAX@std@@AEAPEAU12@@?$allocator_traits@V?$allocator@U?$_Tree_node@U?$pair@$$CBHPEAVobject_t@@@std@@PEAX@std@@@std@@@std@@SAXAEAV?$allocator@U?$_Tree_node@U?$pair@$$CBHPEAVobject_t@@@std@@PEAX@std@@@1@PEAPEAU?$_Tree_node@U?$pair@$$CBHPEAVobject_t@@@std@@PEAX@1@AEAPEAU31@@Z 0000000180001f80 f i mfdpage.obj
 0001:00000f80       ??$construct@PEAU?$_Tree_node@U?$pair@$$CBV?$basic_string@DU?$char_traits@D@std@@V?$allocator@D@2@@std@@H@std@@PEAX@std@@AEAPEAU12@@?$allocator_traits@V?$allocator@U?$_Tree_node@U?$pair@$$CBV?$basic_string@DU?$char_traits@D@std@@V?$allocator@D@2@@std@@H@std@@PEAX@std@@@std@@@std@@SAXAEAV?$allocator@U?$_Tree_node@U?$pair@$$CBV?$basic_string@DU?$char_traits@D@std@@V?$allocator@D@2@@std@@H@std@@PEAX@std@@@1@PEAPEAU?$_Tree_node@U?$pair@$$CBV?$basic_string@DU?$char_traits@D@std@@V?$allocator@D@2@@std@@H@std@@PEAX@1@AEAPEAU31@@Z 0000000180001f80 f i mfdpage.obj
 0001:00000f80       ??$construct@PEAU?$_Tree_node@PEAVlistener_t@@PEAX@std@@AEAPEAU12@@?$allocator_traits@V?$allocator@U?$_Tree_node@PEAVlistener_t@@PEAX@std@@@std@@@std@@SAXAEAV?$allocator@U?$_Tree_node@PEAVlistener_t@@PEAX@std@@@1@PEAPEAU?$_Tree_node@PEAVlistener_t@@PEAX@1@AEAPEAU31@@Z 0000000180001f80 f i data.obj
 0001:00000f80       ??$construct@PEAU?$_Tree_node@U?$pair@$$CBV?$basic_string@DU?$char_traits@D@std@@V?$allocator@D@2@@std@@M@std@@PEAX@std@@AEAPEAU12@@?$allocator_traits@V?$allocator@U?$_Tree_node@U?$pair@$$CBV?$basic_string@DU?$char_traits@D@std@@V?$allocator@D@2@@std@@M@std@@PEAX@std@@@std@@@std@@SAXAEAV?$allocator@U?$_Tree_node@U?$pair@$$CBV?$basic_string@DU?$char_traits@D@std@@V?$allocator@D@2@@std@@M@std@@PEAX@std@@@1@PEAPEAU?$_Tree_node@U?$pair@$$CBV?$basic_string@DU?$char_traits@D@std@@V?$allocator@D@2@@std@@M@std@@PEAX@1@AEAPEAU31@@Z 0000000180001f80 f i mfdpage_fms.obj
 0001:00000f80       ??$construct@PEAU?$_Tree_node@U?$pair@$$CBHM@std@@PEAX@std@@AEAPEAU12@@?$allocator_traits@V?$allocator@U?$_Tree_node@U?$pair@$$CBHM@std@@PEAX@std@@@std@@@std@@SAXAEAV?$allocator@U?$_Tree_node@U?$pair@$$CBHM@std@@PEAX@std@@@1@PEAPEAU?$_Tree_node@U?$pair@$$CBHM@std@@PEAX@1@AEAPEAU31@@Z 0000000180001f80 f i fms_config.obj
 0001:00000f80       ??$construct@PEAU?$_Tree_node@U?$pair@$$CBHV?$basic_string@DU?$char_traits@D@std@@V?$allocator@D@2@@std@@@std@@PEAX@std@@AEAPEAU12@@?$allocator_traits@V?$allocator@U?$_Tree_node@U?$pair@$$CBHV?$basic_string@DU?$char_traits@D@std@@V?$allocator@D@2@@std@@@std@@PEAX@std@@@std@@@std@@SAXAEAV?$allocator@U?$_Tree_node@U?$pair@$$CBHV?$basic_string@DU?$char_traits@D@std@@V?$allocator@D@2@@std@@@std@@PEAX@std@@@1@PEAPEAU?$_Tree_node@U?$pair@$$CBHV?$basic_string@DU?$char_traits@D@std@@V?$allocator@D@2@@std@@@std@@PEAX@1@AEAPEAU31@@Z 0000000180001f80 f i out_saitek.obj
 0001:00000f80       ??$construct@PEAVlistener_t@@AEBQEAV1@@?$allocator_traits@V?$allocator@U?$_Tree_node@PEAVlistener_t@@PEAX@std@@@std@@@std@@SAXAEAV?$allocator@U?$_Tree_node@PEAVlistener_t@@PEAX@std@@@1@PEAPEAVlistener_t@@AEBQEAV3@@Z 0000000180001f80 f i data.obj
 0001:00000f80       ??$construct@PEAU?$_Tree_node@PEAVobject_t@@PEAX@std@@AEAPEAU12@@?$allocator_traits@V?$allocator@U?$_Tree_node@PEAVobject_t@@PEAX@std@@@std@@@std@@SAXAEAV?$allocator@U?$_Tree_node@PEAVobject_t@@PEAX@std@@@1@PEAPEAU?$_Tree_node@PEAVobject_t@@PEAX@1@AEAPEAU31@@Z 0000000180001f80 f i data.obj
 0001:00000fc0       ??0?$_String_alloc@$0A@U?$_String_base_types@DV?$allocator@D@std@@@std@@@std@@QEAA@AEBV?$allocator@D@1@@Z 0000000180001fc0 f i main.obj
 0001:00000ff0       ??0?$_String_val@U?$_Simple_types@D@std@@@std@@QEAA@XZ 0000000180001ff0 f i main.obj
 0001:00001020       ??0?$basic_string@DU?$char_traits@D@std@@V?$allocator@D@2@@std@@QEAA@PEBD@Z 0000000180002020 f i main.obj
 0001:00001070       ??0_Generic_error_category@std@@QEAA@XZ 0000000180002070 f i main.obj
 0001:000010a0       ??0_Iostream_error_category@std@@QEAA@XZ 00000001800020a0 f i main.obj
 0001:000010d0       ??0_System_error_category@std@@QEAA@XZ 00000001800020d0 f i main.obj
 0001:00001100       ??0error_category@std@@QEAA@XZ 0000000180002100 f i main.obj
 0001:00001120       ??0error_condition@std@@QEAA@HAEBVerror_category@1@@Z 0000000180002120 f i main.obj
 0001:00001150       ??1_Generic_error_category@std@@UEAA@XZ 0000000180002150 f i main.obj
 0001:00001170       ??1_Iostream_error_category@std@@UEAA@XZ 0000000180002170 f i main.obj
 0001:00001170       ??1_System_error_category@std@@UEAA@XZ 0000000180002170 f i main.obj
 0001:00001190       ??1error_category@std@@UEAA@XZ 0000000180002190 f i main.obj
 0001:000011b0       ??8error_category@std@@QEBA_NAEBV01@@Z 00000001800021b0 f i main.obj
 0001:000011f0       ??8error_condition@std@@QEBA_NAEBV01@@Z 00000001800021f0 f i main.obj
 0001:00001270       ??_E_Generic_error_category@std@@UEAAPEAXI@Z 0000000180002270 f i main.obj
 0001:00001270       ??_G_Generic_error_category@std@@UEAAPEAXI@Z 0000000180002270 f i main.obj
 0001:000012b0       ??_E_System_error_category@std@@UEAAPEAXI@Z 00000001800022b0 f i main.obj
 0001:000012b0       ??_G_Iostream_error_category@std@@UEAAPEAXI@Z 00000001800022b0 f i main.obj
 0001:000012b0       ??_G_System_error_category@std@@UEAAPEAXI@Z 00000001800022b0 f i main.obj
 0001:000012b0       ??_E_Iostream_error_category@std@@UEAAPEAXI@Z 00000001800022b0 f i main.obj
 0001:000012f0       ??_Gerror_category@std@@UEAAPEAXI@Z 00000001800022f0 f i main.obj
 0001:000012f0       ??_Eerror_category@std@@UEAAPEAXI@Z 00000001800022f0 f i main.obj
 0001:00001330       ??_Gsession_t@@QEAAPEAXI@Z 0000000180002330 f i main.obj
 0001:00001370       ?_Copy@?$basic_string@DU?$char_traits@D@std@@V?$allocator@D@2@@std@@QEAAX_K0@Z 0000000180002370 f i main.obj
 0001:00001550       ?_Eos@?$basic_string@DU?$char_traits@D@std@@V?$allocator@D@2@@std@@QEAAX_K@Z 0000000180002550 f i main.obj
 0001:000015a0       ?_Getal@?$_Tree_alloc@$0A@U?$_Tree_base_types@U?$pair@$$CBHV?$basic_string@DU?$char_traits@D@std@@V?$allocator@D@2@@std@@@std@@V?$allocator@U?$pair@$$CBHV?$basic_string@DU?$char_traits@D@std@@V?$allocator@D@2@@std@@@std@@@2@@std@@@std@@QEBA?AU?$_Wrap_alloc@V?$allocator@U?$_Tree_node@U?$pair@$$CBHV?$basic_string@DU?$char_traits@D@std@@V?$allocator@D@2@@std@@@std@@PEAX@std@@@std@@@2@XZ 00000001800025a0 f i out_saitek.obj
 0001:000015a0       ?_Getal@?$_Tree_alloc@$0A@U?$_Tree_base_types@PEAVmfdpage_t@@V?$allocator@PEAVmfdpage_t@@@std@@@std@@@std@@QEBA?AU?$_Wrap_alloc@V?$allocator@U?$_Tree_node@PEAVmfdpage_t@@PEAX@std@@@std@@@2@XZ 00000001800025a0 f i in.obj
 0001:000015a0       ?_Getal@?$_Tree_alloc@$0A@U?$_Tree_base_types@PEAVobject_t@@V?$allocator@PEAVobject_t@@@std@@@std@@@std@@QEBA?AU?$_Wrap_alloc@V?$allocator@U?$_Tree_node@PEAVobject_t@@PEAX@std@@@std@@@2@XZ 00000001800025a0 f i data.obj
 0001:000015a0       ?_Getal@?$_Tree_alloc@$0A@U?$_Tree_base_types@U?$pair@$$CBV?$basic_string@DU?$char_traits@D@std@@V?$allocator@D@2@@std@@V12@@std@@V?$allocator@U?$pair@$$CBV?$basic_string@DU?$char_traits@D@std@@V?$allocator@D@2@@std@@V12@@std@@@2@@std@@@std@@QEBA?AU?$_Wrap_alloc@V?$allocator@U?$_Tree_node@U?$pair@$$CBV?$basic_string@DU?$char_traits@D@std@@V?$allocator@D@2@@std@@V12@@std@@PEAX@std@@@std@@@2@XZ 00000001800025a0 f i tools.obj
 0001:000015a0       ?_Getal@?$_Tree_alloc@$0A@U?$_Tree_base_types@U?$pair@$$CBHM@std@@V?$allocator@U?$pair@$$CBHM@std@@@2@@std@@@std@@QEBA?AU?$_Wrap_alloc@V?$allocator@U?$_Tree_node@U?$pair@$$CBHM@std@@PEAX@std@@@std@@@2@XZ 00000001800025a0 f i fms_config.obj
 0001:000015a0       ?_Getal@?$_Tree_alloc@$0A@U?$_Tree_base_types@U?$pair@$$CBV?$basic_string@DU?$char_traits@D@std@@V?$allocator@D@2@@std@@H@std@@V?$allocator@U?$pair@$$CBV?$basic_string@DU?$char_traits@D@std@@V?$allocator@D@2@@std@@H@std@@@2@@std@@@std@@QEBA?AU?$_Wrap_alloc@V?$allocator@U?$_Tree_node@U?$pair@$$CBV?$basic_string@DU?$char_traits@D@std@@V?$allocator@D@2@@std@@H@std@@PEAX@std@@@std@@@2@XZ 00000001800025a0 f i mfdpage.obj
 0001:000015a0       ?_Getal@?$_String_alloc@$0A@U?$_String_base_types@DV?$allocator@D@std@@@std@@@std@@QEBA?AU?$_Wrap_alloc@V?$allocator@D@std@@@2@XZ 00000001800025a0 f i main.obj
 0001:000015a0       ?_Getal@?$_Tree_alloc@$0A@U?$_Tree_base_types@U?$pair@$$CBV?$basic_string@DU?$char_traits@D@std@@V?$allocator@D@2@@std@@M@std@@V?$allocator@U?$pair@$$CBV?$basic_string@DU?$char_traits@D@std@@V?$allocator@D@2@@std@@M@std@@@2@@std@@@std@@QEBA?AU?$_Wrap_alloc@V?$allocator@U?$_Tree_node@U?$pair@$$CBV?$basic_string@DU?$char_traits@D@std@@V?$allocator@D@2@@std@@M@std@@PEAX@std@@@std@@@2@XZ 00000001800025a0 f i mfdpage_fms.obj
 0001:000015a0       ?_Getal@?$_Tree_alloc@$0A@U?$_Tree_base_types@U?$pair@$$CBV?$basic_string@DU?$char_traits@D@std@@V?$allocator@D@2@@std@@D@std@@V?$allocator@U?$pair@$$CBV?$basic_string@DU?$char_traits@D@std@@V?$allocator@D@2@@std@@D@std@@@2@@std@@@std@@QEBA?AU?$_Wrap_alloc@V?$allocator@U?$_Tree_node@U?$pair@$$CBV?$basic_string@DU?$char_traits@D@std@@V?$allocator@D@2@@std@@D@std@@PEAX@std@@@std@@@2@XZ 00000001800025a0 f i mfdpage.obj
 0001:000015a0       ?_Getal@?$_Tree_alloc@$0A@U?$_Tree_base_types@U?$pair@$$CBHPEAVobject_t@@@std@@V?$allocator@U?$pair@$$CBHPEAVobject_t@@@std@@@2@@std@@@std@@QEBA?AU?$_Wrap_alloc@V?$allocator@U?$_Tree_node@U?$pair@$$CBHPEAVobject_t@@@std@@PEAX@std@@@std@@@2@XZ 00000001800025a0 f i mfdpage.obj
 0001:000015a0       ?_Getal@?$_Tree_alloc@$0A@U?$_Tree_base_types@PEAVlistener_t@@V?$allocator@PEAVlistener_t@@@std@@@std@@@std@@QEBA?AU?$_Wrap_alloc@V?$allocator@U?$_Tree_node@PEAVlistener_t@@PEAX@std@@@std@@@2@XZ 00000001800025a0 f i data.obj
 0001:000015a0       ?_Getal@?$_Tree_alloc@$0A@U?$_Tree_base_types@U?$pair@$$CBHPEAVfms_fp_item_t@@@std@@V?$allocator@U?$pair@$$CBHPEAVfms_fp_item_t@@@std@@@2@@std@@@std@@QEBA?AU?$_Wrap_alloc@V?$allocator@U?$_Tree_node@U?$pair@$$CBHPEAVfms_fp_item_t@@@std@@PEAX@std@@@std@@@2@XZ 00000001800025a0 f i mfdpage_fms.obj
 0001:000015a0       ?_Getal@?$_Tree_alloc@$0A@U?$_Tree_base_types@U?$pair@$$CBV?$basic_string@DU?$char_traits@D@std@@V?$allocator@D@2@@std@@PEAVfms_fp_item_t@@@std@@V?$allocator@U?$pair@$$CBV?$basic_string@DU?$char_traits@D@std@@V?$allocator@D@2@@std@@PEAVfms_fp_item_t@@@std@@@2@@std@@@std@@QEBA?AU?$_Wrap_alloc@V?$allocator@U?$_Tree_node@U?$pair@$$CBV?$basic_string@DU?$char_traits@D@std@@V?$allocator@D@2@@std@@PEAVfms_fp_item_t@@@std@@PEAX@std@@@std@@@2@XZ 00000001800025a0 f i fms_fp.obj
 0001:000015a0       ?_Getal@?$_Tree_alloc@$0A@U?$_Tree_base_types@U?$pair@$$CBV?$basic_string@DU?$char_traits@D@std@@V?$allocator@D@2@@std@@PEAVfms_config_item_t@@@std@@V?$allocator@U?$pair@$$CBV?$basic_string@DU?$char_traits@D@std@@V?$allocator@D@2@@std@@PEAVfms_config_item_t@@@std@@@2@@std@@@std@@QEBA?AU?$_Wrap_alloc@V?$allocator@U?$_Tree_node@U?$pair@$$CBV?$basic_string@DU?$char_traits@D@std@@V?$allocator@D@2@@std@@PEAVfms_config_item_t@@@std@@PEAX@std@@@std@@@2@XZ 00000001800025a0 f i fms_config.obj
 0001:000015d0       ?_Grow@?$basic_string@DU?$char_traits@D@std@@V?$allocator@D@2@@std@@QEAA_N_K_N@Z 00000001800025d0 f i main.obj
 0001:000016b0       ?_Inside@?$basic_string@DU?$char_traits@D@std@@V?$allocator@D@2@@std@@QEAA_NPEBD@Z 00000001800026b0 f i main.obj
 0001:00001700       ?_Myptr@?$_String_val@U?$_Simple_types@D@std@@@std@@QEAAPEADXZ 0000000180002700 f i main.obj
 0001:00001700       ?_Myptr@?$_String_val@U?$_Simple_types@D@std@@@std@@QEBAPEBDXZ 0000000180002700 f i main.obj
 0001:00001740       ?_Tidy@?$basic_string@DU?$char_traits@D@std@@V?$allocator@D@2@@std@@QEAAX_N_K@Z 0000000180002740 f i main.obj
 0001:00001820       ?_Xlen@?$basic_string@DU?$char_traits@D@std@@V?$allocator@D@2@@std@@QEBAXXZ 0000000180002820 f i main.obj
 0001:00001840       ?_Xran@?$basic_string@DU?$char_traits@D@std@@V?$allocator@D@2@@std@@QEBAXXZ 0000000180002840 f i main.obj
 0001:00001860       ?allocate@?$_Wrap_alloc@V?$allocator@D@std@@@std@@QEAAPEAD_K@Z 0000000180002860 f i main.obj
 0001:00001890       ?allocate@?$allocator@D@std@@QEAAPEAD_K@Z 0000000180002890 f i main.obj
 0001:000018b0       ?assign@?$basic_string@DU?$char_traits@D@std@@V?$allocator@D@2@@std@@QEAAAEAV12@AEBV12@_K1@Z 00000001800028b0 f i main.obj
 0001:000019b0       ?assign@?$basic_string@DU?$char_traits@D@std@@V?$allocator@D@2@@std@@QEAAAEAV12@PEBD@Z 00000001800029b0 f i main.obj
 0001:000019e0       ?assign@?$basic_string@DU?$char_traits@D@std@@V?$allocator@D@2@@std@@QEAAAEAV12@PEBD_K@Z 00000001800029e0 f i main.obj
 0001:00001a90       ?assign@?$char_traits@D@std@@SAXAEADAEBD@Z 0000000180002a90 f i main.obj
 0001:00001ab0       ?copy@?$char_traits@D@std@@SAPEADPEADPEBD_K@Z 0000000180002ab0 f i main.obj
 0001:00001b00       ?deallocate@?$allocator@U?$_Tree_node@PEAVlistener_t@@PEAX@std@@@std@@QEAAXPEAU?$_Tree_node@PEAVlistener_t@@PEAX@2@_K@Z 0000000180002b00 f i data.obj
 0001:00001b00       ?deallocate@?$allocator@U?$_Tree_node@PEAVobject_t@@PEAX@std@@@std@@QEAAXPEAU?$_Tree_node@PEAVobject_t@@PEAX@2@_K@Z 0000000180002b00 f i data.obj
 0001:00001b00       ?deallocate@?$allocator@U?$_Tree_node@U?$pair@$$CBV?$basic_string@DU?$char_traits@D@std@@V?$allocator@D@2@@std@@V12@@std@@PEAX@std@@@std@@QEAAXPEAU?$_Tree_node@U?$pair@$$CBV?$basic_string@DU?$char_traits@D@std@@V?$allocator@D@2@@std@@V12@@std@@PEAX@2@_K@Z 0000000180002b00 f i tools.obj
 0001:00001b00       ?deallocate@?$allocator@U?$_Tree_node@U?$pair@$$CBHPEAVfms_fp_item_t@@@std@@PEAX@std@@@std@@QEAAXPEAU?$_Tree_node@U?$pair@$$CBHPEAVfms_fp_item_t@@@std@@PEAX@2@_K@Z 0000000180002b00 f i mfdpage_fms.obj
 0001:00001b00       ?deallocate@?$allocator@U?$_Tree_node@U?$pair@$$CBV?$basic_string@DU?$char_traits@D@std@@V?$allocator@D@2@@std@@M@std@@PEAX@std@@@std@@QEAAXPEAU?$_Tree_node@U?$pair@$$CBV?$basic_string@DU?$char_traits@D@std@@V?$allocator@D@2@@std@@M@std@@PEAX@2@_K@Z 0000000180002b00 f i mfdpage_fms.obj
 0001:00001b00       ?deallocate@?$allocator@U?$_Tree_node@U?$pair@$$CBV?$basic_string@DU?$char_traits@D@std@@V?$allocator@D@2@@std@@PEAVfms_config_item_t@@@std@@PEAX@std@@@std@@QEAAXPEAU?$_Tree_node@U?$pair@$$CBV?$basic_string@DU?$char_traits@D@std@@V?$allocator@D@2@@std@@PEAVfms_config_item_t@@@std@@PEAX@2@_K@Z 0000000180002b00 f i fms_config.obj
 0001:00001b00       ?deallocate@?$allocator@U?$_Tree_node@PEAVmfdpage_t@@PEAX@std@@@std@@QEAAXPEAU?$_Tree_node@PEAVmfdpage_t@@PEAX@2@_K@Z 0000000180002b00 f i in.obj
 0001:00001b00       ?deallocate@?$allocator@U?$_Tree_node@U?$pair@$$CBHM@std@@PEAX@std@@@std@@QEAAXPEAU?$_Tree_node@U?$pair@$$CBHM@std@@PEAX@2@_K@Z 0000000180002b00 f i fms_config.obj
 0001:00001b00       ?deallocate@?$allocator@D@std@@QEAAXPEAD_K@Z 0000000180002b00 f i main.obj
 0001:00001b00       ?deallocate@?$allocator@U?$_Tree_node@U?$pair@$$CBV?$basic_string@DU?$char_traits@D@std@@V?$allocator@D@2@@std@@D@std@@PEAX@std@@@std@@QEAAXPEAU?$_Tree_node@U?$pair@$$CBV?$basic_string@DU?$char_traits@D@std@@V?$allocator@D@2@@std@@D@std@@PEAX@2@_K@Z 0000000180002b00 f i mfdpage.obj
 0001:00001b00       ?deallocate@?$allocator@U?$_Tree_node@U?$pair@$$CBV?$basic_string@DU?$char_traits@D@std@@V?$allocator@D@2@@std@@H@std@@PEAX@std@@@std@@QEAAXPEAU?$_Tree_node@U?$pair@$$CBV?$basic_string@DU?$char_traits@D@std@@V?$allocator@D@2@@std@@H@std@@PEAX@2@_K@Z 0000000180002b00 f i mfdpage.obj
 0001:00001b00       ?deallocate@?$allocator@U?$_Tree_node@U?$pair@$$CBHV?$basic_string@DU?$char_traits@D@std@@V?$allocator@D@2@@std@@@std@@PEAX@std@@@std@@QEAAXPEAU?$_Tree_node@U?$pair@$$CBHV?$basic_string@DU?$char_traits@D@std@@V?$allocator@D@2@@std@@@std@@PEAX@2@_K@Z 0000000180002b00 f i out_saitek.obj
 0001:00001b00       ?deallocate@?$allocator@U?$_Tree_node@U?$pair@$$CBV?$basic_string@DU?$char_traits@D@std@@V?$allocator@D@2@@std@@PEAVfms_fp_item_t@@@std@@PEAX@std@@@std@@QEAAXPEAU?$_Tree_node@U?$pair@$$CBV?$basic_string@DU?$char_traits@D@std@@V?$allocator@D@2@@std@@PEAVfms_fp_item_t@@@std@@PEAX@2@_K@Z 0000000180002b00 f i fms_fp.obj
 0001:00001b00       ?deallocate@?$allocator@U?$_Tree_node@U?$pair@$$CBHPEAVobject_t@@@std@@PEAX@std@@@std@@QEAAXPEAU?$_Tree_node@U?$pair@$$CBHPEAVobject_t@@@std@@PEAX@2@_K@Z 0000000180002b00 f i mfdpage.obj
 0001:00001b30       ?default_error_condition@_System_error_category@std@@UEBA?AVerror_condition@2@H@Z 0000000180002b30 f i main.obj
 0001:00001ba0       ?default_error_condition@error_category@std@@UEBA?AVerror_condition@2@H@Z 0000000180002ba0 f i main.obj
 0001:00001bd0       ?equivalent@error_category@std@@UEBA_NAEBVerror_code@2@H@Z 0000000180002bd0 f i main.obj
 0001:00001c30       ?equivalent@error_category@std@@UEBA_NHAEBVerror_condition@2@@Z 0000000180002c30 f i main.obj
 0001:00001c70       ?erase@?$basic_string@DU?$char_traits@D@std@@V?$allocator@D@2@@std@@QEAAAEAV12@_K0@Z 0000000180002c70 f i main.obj
 0001:00001d50       ?erase@?$basic_string@DU?$char_traits@D@std@@V?$allocator@D@2@@std@@QEAAAEAV12@_K@Z 0000000180002d50 f i main.obj
 0001:00001da0       ?generic_category@std@@YAAEBVerror_category@1@XZ 0000000180002da0 f i main.obj
 0001:00001db0       ?length@?$char_traits@D@std@@SA_KPEBD@Z 0000000180002db0 f i main.obj
 0001:00001df0       ?max_size@?$_Wrap_alloc@V?$allocator@D@std@@@std@@QEBA_KXZ 0000000180002df0 f i main.obj
 0001:00001e10       ?max_size@?$allocator@D@std@@QEBA_KXZ 0000000180002e10 f i main.obj
 0001:00001e20       ?max_size@?$allocator_traits@V?$allocator@D@std@@@std@@SA_KAEBV?$allocator@D@2@@Z 0000000180002e20 f i main.obj
 0001:00001e40       ?max_size@?$basic_string@DU?$char_traits@D@std@@V?$allocator@D@2@@std@@QEBA_KXZ 0000000180002e40 f i main.obj
 0001:00001e90       ?message@_Generic_error_category@std@@UEBA?AV?$basic_string@DU?$char_traits@D@std@@V?$allocator@D@2@@2@H@Z 0000000180002e90 f i main.obj
 0001:00001ef0       ?message@_Iostream_error_category@std@@UEBA?AV?$basic_string@DU?$char_traits@D@std@@V?$allocator@D@2@@2@H@Z 0000000180002ef0 f i main.obj
 0001:00001f50       ?message@_System_error_category@std@@UEBA?AV?$basic_string@DU?$char_traits@D@std@@V?$allocator@D@2@@2@H@Z 0000000180002f50 f i main.obj
 0001:00001fb0       ?move@?$char_traits@D@std@@SAPEADPEADPEBD_K@Z 0000000180002fb0 f i main.obj
 0001:00002000       ?name@_Generic_error_category@std@@UEBAPEBDXZ 0000000180003000 f i main.obj
 0001:00002010       ?name@_Iostream_error_category@std@@UEBAPEBDXZ 0000000180003010 f i main.obj
 0001:00002020       ?name@_System_error_category@std@@UEBAPEBDXZ 0000000180003020 f i main.obj
 0001:00002030       ?size@?$basic_string@DU?$char_traits@D@std@@V?$allocator@D@2@@std@@QEBA_KXZ 0000000180003030 f i main.obj
 0001:00002030       ?length@?$basic_string@DU?$char_traits@D@std@@V?$allocator@D@2@@std@@QEBA_KXZ 0000000180003030 f i config.obj
 0001:00002040       ?system_category@std@@YAAEBVerror_category@1@XZ 0000000180003040 f i main.obj
 0001:00002050       ?value@error_condition@std@@QEBAHXZ 0000000180003050 f i main.obj
 0001:00002050       ?value@error_code@std@@QEBAHXZ 0000000180003050 f i main.obj
 0001:00002060       ??0session_t@@QEAA@XZ      0000000180003060 f   session.obj
 0001:00002370       ??1session_t@@QEAA@XZ      0000000180003370 f   session.obj
 0001:00002580       ?enable@session_t@@QEAAHXZ 0000000180003580 f   session.obj
 0001:000025c0       ?disable@session_t@@QEAAXXZ 00000001800035c0 f   session.obj
 0001:000025f0       ??_Gfms_t@@QEAAPEAXI@Z     00000001800035f0 f i session.obj
 0001:00002630       ??_Ggui_t@@QEAAPEAXI@Z     0000000180003630 f i session.obj
 0001:00002670       ??_Gin_t@@QEAAPEAXI@Z      0000000180003670 f i session.obj
 0001:000026b0       ??_Gmfdpages_t@@QEAAPEAXI@Z 00000001800036b0 f i session.obj
 0001:000026f0       ??_Gout_t@@QEAAPEAXI@Z     00000001800036f0 f i session.obj
 0001:00002770       ??0tools_t@@QEAA@XZ        0000000180003770 f   tools.obj
 0001:00002790       ?debug_out@tools_t@@QEAAXHPEBDZZ 0000000180003790 f   tools.obj
 0001:00002a20       ?debug_out@tools_t@@SAXPEBDZZ 0000000180003a20 f   tools.obj
 0001:00002ac0       ??$?0$$QEAV?$basic_string@DU?$char_traits@D@std@@V?$allocator@D@2@@std@@$$$V@?$pair@$$CBV?$basic_string@DU?$char_traits@D@std@@V?$allocator@D@2@@std@@V12@@std@@QEAA@Upiecewise_construct_t@1@V?$tuple@$$QEAV?$basic_string@DU?$char_traits@D@std@@V?$allocator@D@2@@std@@@1@V?$tuple@$$$V@1@@Z 0000000180003ac0 f i tools.obj
 0001:00002b30       ??$?0V?$basic_string@DU?$char_traits@D@std@@V?$allocator@D@2@@std@@$$$VPEAPEAX@?$tuple@$$QEAV?$basic_string@DU?$char_traits@D@std@@V?$allocator@D@2@@std@@@std@@QEAA@$$QEAV?$basic_string@DU?$char_traits@D@std@@V?$allocator@D@2@@1@@Z 0000000180003b30 f i tools.obj
 0001:00002b30       ??$?0H$$$VPEAPEAX@?$tuple@$$QEAH@std@@QEAA@$$QEAH@Z 0000000180003b30 f i mfdpage_fms.obj
 0001:00002b70       ??$?0V?$tuple@$$QEAV?$basic_string@DU?$char_traits@D@std@@V?$allocator@D@2@@std@@@std@@V?$tuple@$$$V@1@$0A@$S@?$pair@$$CBV?$basic_string@DU?$char_traits@D@std@@V?$allocator@D@2@@std@@V12@@std@@QEAA@AEAV?$tuple@$$QEAV?$basic_string@DU?$char_traits@D@std@@V?$allocator@D@2@@std@@@1@AEAV?$tuple@$$$V@1@U?$_Arg_idx@$0A@@1@U?$_Arg_idx@$S@1@@Z 0000000180003b70 f i tools.obj
 0001:00002bd0       ??$?MDU?$char_traits@D@std@@V?$allocator@D@1@@std@@YA_NAEBV?$basic_string@DU?$char_traits@D@std@@V?$allocator@D@2@@0@0@Z 0000000180003bd0 f i tools.obj
 0001:00002c10       ??$_Allocate@U?$_Tree_node@U?$pair@$$CBV?$basic_string@DU?$char_traits@D@std@@V?$allocator@D@2@@std@@V12@@std@@PEAX@std@@@std@@YAPEAU?$_Tree_node@U?$pair@$$CBV?$basic_string@DU?$char_traits@D@std@@V?$allocator@D@2@@std@@V12@@std@@PEAX@0@_KPEAU10@@Z 0000000180003c10 f i tools.obj
 0001:00002c70       ??$_Buynode@AEBUpiecewise_construct_t@std@@V?$tuple@$$QEAV?$basic_string@DU?$char_traits@D@std@@V?$allocator@D@2@@std@@@2@V?$tuple@$$$V@2@@?$_Tree_buy@U?$pair@$$CBV?$basic_string@DU?$char_traits@D@std@@V?$allocator@D@2@@std@@V12@@std@@V?$allocator@U?$pair@$$CBV?$basic_string@DU?$char_traits@D@std@@V?$allocator@D@2@@std@@V12@@std@@@2@@std@@QEAAPEAU?$_Tree_node@U?$pair@$$CBV?$basic_string@DU?$char_traits@D@std@@V?$allocator@D@2@@std@@V12@@std@@PEAX@1@AEBUpiecewise_construct_t@1@$$QEAV?$tuple@$$QEAV?$basic_string@DU?$char_traits@D@std@@V?$allocator@D@2@@std@@@1@$$QEAV?$tuple@$$$V@1@@Z 0000000180003c70 f i tools.obj
 0001:00002d60       ??$_Insert_at@AEAU?$pair@$$CBV?$basic_string@DU?$char_traits@D@std@@V?$allocator@D@2@@std@@V12@@std@@PEAU?$_Tree_node@U?$pair@$$CBV?$basic_string@DU?$char_traits@D@std@@V?$allocator@D@2@@std@@V12@@std@@PEAX@2@@?$_Tree@V?$_Tmap_traits@V?$basic_string@DU?$char_traits@D@std@@V?$allocator@D@2@@std@@V12@U?$less@V?$basic_string@DU?$char_traits@D@std@@V?$allocator@D@2@@std@@@2@V?$allocator@U?$pair@$$CBV?$basic_string@DU?$char_traits@D@std@@V?$allocator@D@2@@std@@V12@@std@@@2@$0A@@std@@@std@@IEAA?AV?$_Tree_iterator@V?$_Tree_val@U?$_Tree_simple_types@U?$pair@$$CBV?$basic_string@DU?$char_traits@D@std@@V?$allocator@D@2@@std@@V12@@std@@@std@@@std@@@1@_NPEAU?$_Tree_node@U?$pair@$$CBV?$basic_string@DU?$char_traits@D@std@@V?$allocator@D@2@@std@@V12@@std@@PEAX@1@AEAU?$pair@$$CBV?$basic_string@DU?$char_traits@D@std@@V?$allocator@D@2@@std@@V12@@1@1@Z 0000000180003d60 f i tools.obj
 0001:00003190       ??$_Insert_hint@AEAU?$pair@$$CBV?$basic_string@DU?$char_traits@D@std@@V?$allocator@D@2@@std@@V12@@std@@PEAU?$_Tree_node@U?$pair@$$CBV?$basic_string@DU?$char_traits@D@std@@V?$allocator@D@2@@std@@V12@@std@@PEAX@2@@?$_Tree@V?$_Tmap_traits@V?$basic_string@DU?$char_traits@D@std@@V?$allocator@D@2@@std@@V12@U?$less@V?$basic_string@DU?$char_traits@D@std@@V?$allocator@D@2@@std@@@2@V?$allocator@U?$pair@$$CBV?$basic_string@DU?$char_traits@D@std@@V?$allocator@D@2@@std@@V12@@std@@@2@$0A@@std@@@std@@IEAA?AV?$_Tree_iterator@V?$_Tree_val@U?$_Tree_simple_types@U?$pair@$$CBV?$basic_string@DU?$char_traits@D@std@@V?$allocator@D@2@@std@@V12@@std@@@std@@@std@@@1@V?$_Tree_const_iterator@V?$_Tree_val@U?$_Tree_simple_types@U?$pair@$$CBV?$basic_string@DU?$char_traits@D@std@@V?$allocator@D@2@@std@@V12@@std@@@std@@@std@@@1@AEAU?$pair@$$CBV?$basic_string@DU?$char_traits@D@std@@V?$allocator@D@2@@std@@V12@@1@PEAU?$_Tree_node@U?$pair@$$CBV?$basic_string@DU?$char_traits@D@std@@V?$allocator@D@2@@std@@V12@@std@@PEAX@1@@Z 0000000180004190 f i tools.obj
 0001:00003f20       ??$_Insert_nohint@AEAU?$pair@$$CBV?$basic_string@DU?$char_traits@D@std@@V?$allocator@D@2@@std@@V12@@std@@PEAU?$_Tree_node@U?$pair@$$CBV?$basic_string@DU?$char_traits@D@std@@V?$allocator@D@2@@std@@V12@@std@@PEAX@2@@?$_Tree@V?$_Tmap_traits@V?$basic_string@DU?$char_traits@D@std@@V?$allocator@D@2@@std@@V12@U?$less@V?$basic_string@DU?$char_traits@D@std@@V?$allocator@D@2@@std@@@2@V?$allocator@U?$pair@$$CBV?$basic_string@DU?$char_traits@D@std@@V?$allocator@D@2@@std@@V12@@std@@@2@$0A@@std@@@std@@IEAA?AU?$pair@V?$_Tree_iterator@V?$_Tree_val@U?$_Tree_simple_types@U?$pair@$$CBV?$basic_string@DU?$char_traits@D@std@@V?$allocator@D@2@@std@@V12@@std@@@std@@@std@@@std@@_N@1@_NAEAU?$pair@$$CBV?$basic_string@DU?$char_traits@D@std@@V?$allocator@D@2@@std@@V12@@1@PEAU?$_Tree_node@U?$pair@$$CBV?$basic_string@DU?$char_traits@D@std@@V?$allocator@D@2@@std@@V12@@std@@PEAX@1@@Z 0000000180004f20 f i tools.obj
 0001:00004310       ??$construct@U?$pair@$$CBV?$basic_string@DU?$char_traits@D@std@@V?$allocator@D@2@@std@@V12@@std@@AEBUpiecewise_construct_t@2@V?$tuple@$$QEAV?$basic_string@DU?$char_traits@D@std@@V?$allocator@D@2@@std@@@2@V?$tuple@$$$V@2@@?$_Wrap_alloc@V?$allocator@U?$_Tree_node@U?$pair@$$CBV?$basic_string@DU?$char_traits@D@std@@V?$allocator@D@2@@std@@V12@@std@@PEAX@std@@@std@@@std@@QEAAXPEAU?$pair@$$CBV?$basic_string@DU?$char_traits@D@std@@V?$allocator@D@2@@std@@V12@@1@AEBUpiecewise_construct_t@1@$$QEAV?$tuple@$$QEAV?$basic_string@DU?$char_traits@D@std@@V?$allocator@D@2@@std@@@1@$$QEAV?$tuple@$$$V@1@@Z 0000000180005310 f i tools.obj
 0001:00004380       ??$construct@U?$pair@$$CBV?$basic_string@DU?$char_traits@D@std@@V?$allocator@D@2@@std@@V12@@std@@AEBUpiecewise_construct_t@2@V?$tuple@$$QEAV?$basic_string@DU?$char_traits@D@std@@V?$allocator@D@2@@std@@@2@V?$tuple@$$$V@2@@?$allocator@U?$_Tree_node@U?$pair@$$CBV?$basic_string@DU?$char_traits@D@std@@V?$allocator@D@2@@std@@V12@@std@@PEAX@std@@@std@@QEAAXPEAU?$pair@$$CBV?$basic_string@DU?$char_traits@D@std@@V?$allocator@D@2@@std@@V12@@1@AEBUpiecewise_construct_t@1@$$QEAV?$tuple@$$QEAV?$basic_string@DU?$char_traits@D@std@@V?$allocator@D@2@@std@@@1@$$QEAV?$tuple@$$$V@1@@Z 0000000180005380 f i tools.obj
 0001:00004450       ??$construct@U?$pair@$$CBV?$basic_string@DU?$char_traits@D@std@@V?$allocator@D@2@@std@@V12@@std@@AEBUpiecewise_construct_t@2@V?$tuple@$$QEAV?$basic_string@DU?$char_traits@D@std@@V?$allocator@D@2@@std@@@2@V?$tuple@$$$V@2@@?$allocator_traits@V?$allocator@U?$_Tree_node@U?$pair@$$CBV?$basic_string@DU?$char_traits@D@std@@V?$allocator@D@2@@std@@V12@@std@@PEAX@std@@@std@@@std@@SAXAEAV?$allocator@U?$_Tree_node@U?$pair@$$CBV?$basic_string@DU?$char_traits@D@std@@V?$allocator@D@2@@std@@V12@@std@@PEAX@std@@@1@PEAU?$pair@$$CBV?$basic_string@DU?$char_traits@D@std@@V?$allocator@D@2@@std@@V12@@1@AEBUpiecewise_construct_t@1@$$QEAV?$tuple@$$QEAV?$basic_string@DU?$char_traits@D@std@@V?$allocator@D@2@@std@@@1@$$QEAV?$tuple@$$$V@1@@Z 0000000180005450 f i tools.obj
 0001:000044c0       ??$destroy@U?$pair@$$CBV?$basic_string@DU?$char_traits@D@std@@V?$allocator@D@2@@std@@V12@@std@@@?$_Wrap_alloc@V?$allocator@U?$_Tree_node@U?$pair@$$CBV?$basic_string@DU?$char_traits@D@std@@V?$allocator@D@2@@std@@V12@@std@@PEAX@std@@@std@@@std@@QEAAXPEAU?$pair@$$CBV?$basic_string@DU?$char_traits@D@std@@V?$allocator@D@2@@std@@V12@@1@@Z 00000001800054c0 f i tools.obj
 0001:000044f0       ??$destroy@U?$pair@$$CBV?$basic_string@DU?$char_traits@D@std@@V?$allocator@D@2@@std@@V12@@std@@@?$allocator@U?$_Tree_node@U?$pair@$$CBV?$basic_string@DU?$char_traits@D@std@@V?$allocator@D@2@@std@@V12@@std@@PEAX@std@@@std@@QEAAXPEAU?$pair@$$CBV?$basic_string@DU?$char_traits@D@std@@V?$allocator@D@2@@std@@V12@@1@@Z 00000001800054f0 f i tools.obj
 0001:00004510       ??$destroy@U?$pair@$$CBV?$basic_string@DU?$char_traits@D@std@@V?$allocator@D@2@@std@@V12@@std@@@?$allocator_traits@V?$allocator@U?$_Tree_node@U?$pair@$$CBV?$basic_string@DU?$char_traits@D@std@@V?$allocator@D@2@@std@@V12@@std@@PEAX@std@@@std@@@std@@SAXAEAV?$allocator@U?$_Tree_node@U?$pair@$$CBV?$basic_string@DU?$char_traits@D@std@@V?$allocator@D@2@@std@@V12@@std@@PEAX@std@@@1@PEAU?$pair@$$CBV?$basic_string@DU?$char_traits@D@std@@V?$allocator@D@2@@std@@V12@@1@@Z 0000000180005510 f i tools.obj
 0001:00004540       ??$emplace_hint@AEBUpiecewise_construct_t@std@@V?$tuple@$$QEAV?$basic_string@DU?$char_traits@D@std@@V?$allocator@D@2@@std@@@2@V?$tuple@$$$V@2@@?$_Tree@V?$_Tmap_traits@V?$basic_string@DU?$char_traits@D@std@@V?$allocator@D@2@@std@@V12@U?$less@V?$basic_string@DU?$char_traits@D@std@@V?$allocator@D@2@@std@@@2@V?$allocator@U?$pair@$$CBV?$basic_string@DU?$char_traits@D@std@@V?$allocator@D@2@@std@@V12@@std@@@2@$0A@@std@@@std@@QEAA?AV?$_Tree_iterator@V?$_Tree_val@U?$_Tree_simple_types@U?$pair@$$CBV?$basic_string@DU?$char_traits@D@std@@V?$allocator@D@2@@std@@V12@@std@@@std@@@std@@@1@V?$_Tree_const_iterator@V?$_Tree_val@U?$_Tree_simple_types@U?$pair@$$CBV?$basic_string@DU?$char_traits@D@std@@V?$allocator@D@2@@std@@V12@@std@@@std@@@std@@@1@AEBUpiecewise_construct_t@1@$$QEAV?$tuple@$$QEAV?$basic_string@DU?$char_traits@D@std@@V?$allocator@D@2@@std@@@1@$$QEAV?$tuple@$$$V@1@@Z 0000000180005540 f i tools.obj
 0001:000045e0       ??$forward_as_tuple@V?$basic_string@DU?$char_traits@D@std@@V?$allocator@D@2@@std@@@std@@YA?AV?$tuple@$$QEAV?$basic_string@DU?$char_traits@D@std@@V?$allocator@D@2@@std@@@0@$$QEAV?$basic_string@DU?$char_traits@D@std@@V?$allocator@D@2@@0@@Z 00000001800055e0 f i tools.obj
 0001:000045e0       ??$forward_as_tuple@H@std@@YA?AV?$tuple@$$QEAH@0@$$QEAH@Z 00000001800055e0 f i mfdpage_fms.obj
 0001:00004610       ?_Lmost@?$_Tree@V?$_Tset_traits@PEAVlistener_t@@U?$less@PEAVlistener_t@@@std@@V?$allocator@PEAVlistener_t@@@3@$0A@@std@@@std@@IEBAAEAPEAU?$_Tree_node@PEAVlistener_t@@PEAX@2@XZ 0000000180005610 f i data.obj
 0001:00004610       ??$get@$0A@$$QEAH@std@@YA$$QEAH$$QEAV?$tuple@$$QEAH@0@@Z 0000000180005610 f i mfdpage_fms.obj
 0001:00004610       ?_Lmost@?$_Tree@V?$_Tmap_traits@V?$basic_string@DU?$char_traits@D@std@@V?$allocator@D@2@@std@@MU?$less@V?$basic_string@DU?$char_traits@D@std@@V?$allocator@D@2@@std@@@2@V?$allocator@U?$pair@$$CBV?$basic_string@DU?$char_traits@D@std@@V?$allocator@D@2@@std@@M@std@@@2@$0A@@std@@@std@@IEBAAEAPEAU?$_Tree_node@U?$pair@$$CBV?$basic_string@DU?$char_traits@D@std@@V?$allocator@D@2@@std@@M@std@@PEAX@2@XZ 0000000180005610 f i mfdpage_fms.obj
 0001:00004610       ?_Lmost@?$_Tree@V?$_Tmap_traits@V?$basic_string@DU?$char_traits@D@std@@V?$allocator@D@2@@std@@V12@U?$less@V?$basic_string@DU?$char_traits@D@std@@V?$allocator@D@2@@std@@@2@V?$allocator@U?$pair@$$CBV?$basic_string@DU?$char_traits@D@std@@V?$allocator@D@2@@std@@V12@@std@@@2@$0A@@std@@@std@@IEBAAEAPEAU?$_Tree_node@U?$pair@$$CBV?$basic_string@DU?$char_traits@D@std@@V?$allocator@D@2@@std@@V12@@std@@PEAX@2@XZ 0000000180005610 f i tools.obj
 0001:00004610       ?_Lmost@?$_Tree@V?$_Tmap_traits@HV?$basic_string@DU?$char_traits@D@std@@V?$allocator@D@2@@std@@U?$less@H@2@V?$allocator@U?$pair@$$CBHV?$basic_string@DU?$char_traits@D@std@@V?$allocator@D@2@@std@@@std@@@2@$0A@@std@@@std@@IEBAAEAPEAU?$_Tree_node@U?$pair@$$CBHV?$basic_string@DU?$char_traits@D@std@@V?$allocator@D@2@@std@@@std@@PEAX@2@XZ 0000000180005610 f i out_saitek.obj
 0001:00004610       ?_Lmost@?$_Tree@V?$_Tmap_traits@HPEAVfms_fp_item_t@@U?$less@H@std@@V?$allocator@U?$pair@$$CBHPEAVfms_fp_item_t@@@std@@@3@$0A@@std@@@std@@IEBAAEAPEAU?$_Tree_node@U?$pair@$$CBHPEAVfms_fp_item_t@@@std@@PEAX@2@XZ 0000000180005610 f i mfdpage_fms.obj
 0001:00004610       ??$get@$0A@AEBH@std@@YAAEBH$$QEAV?$tuple@AEBH@0@@Z 0000000180005610 f i out_saitek.obj
 0001:00004610       ?_Lmost@?$_Tree@V?$_Tmap_traits@V?$basic_string@DU?$char_traits@D@std@@V?$allocator@D@2@@std@@HU?$less@V?$basic_string@DU?$char_traits@D@std@@V?$allocator@D@2@@std@@@2@V?$allocator@U?$pair@$$CBV?$basic_string@DU?$char_traits@D@std@@V?$allocator@D@2@@std@@H@std@@@2@$0A@@std@@@std@@IEBAAEAPEAU?$_Tree_node@U?$pair@$$CBV?$basic_string@DU?$char_traits@D@std@@V?$allocator@D@2@@std@@H@std@@PEAX@2@XZ 0000000180005610 f i mfdpage.obj
 0001:00004610       ?_Lmost@?$_Tree@V?$_Tset_traits@PEAVmfdpage_t@@U?$less@PEAVmfdpage_t@@@std@@V?$allocator@PEAVmfdpage_t@@@3@$0A@@std@@@std@@IEBAAEAPEAU?$_Tree_node@PEAVmfdpage_t@@PEAX@2@XZ 0000000180005610 f i in.obj
 0001:00004610       ??$get@$0A@AEBV?$basic_string@DU?$char_traits@D@std@@V?$allocator@D@2@@std@@@std@@YAAEBV?$basic_string@DU?$char_traits@D@std@@V?$allocator@D@2@@0@$$QEAV?$tuple@AEBV?$basic_string@DU?$char_traits@D@std@@V?$allocator@D@2@@std@@@0@@Z 0000000180005610 f i mfdpage.obj
 0001:00004610       ?_Lmost@?$_Tree@V?$_Tset_traits@PEAVobject_t@@U?$less@PEAVobject_t@@@std@@V?$allocator@PEAVobject_t@@@3@$0A@@std@@@std@@IEBAAEAPEAU?$_Tree_node@PEAVobject_t@@PEAX@2@XZ 0000000180005610 f i data.obj
 0001:00004610       ?_Lmost@?$_Tree@V?$_Tmap_traits@V?$basic_string@DU?$char_traits@D@std@@V?$allocator@D@2@@std@@PEAVfms_fp_item_t@@U?$less@V?$basic_string@DU?$char_traits@D@std@@V?$allocator@D@2@@std@@@2@V?$allocator@U?$pair@$$CBV?$basic_string@DU?$char_traits@D@std@@V?$allocator@D@2@@std@@PEAVfms_fp_item_t@@@std@@@2@$0A@@std@@@std@@IEBAAEAPEAU?$_Tree_node@U?$pair@$$CBV?$basic_string@DU?$char_traits@D@std@@V?$allocator@D@2@@std@@PEAVfms_fp_item_t@@@std@@PEAX@2@XZ 0000000180005610 f i fms_fp.obj
 0001:00004610       ?_Lmost@?$_Tree@V?$_Tmap_traits@V?$basic_string@DU?$char_traits@D@std@@V?$allocator@D@2@@std@@DU?$less@V?$basic_string@DU?$char_traits@D@std@@V?$allocator@D@2@@std@@@2@V?$allocator@U?$pair@$$CBV?$basic_string@DU?$char_traits@D@std@@V?$allocator@D@2@@std@@D@std@@@2@$0A@@std@@@std@@IEBAAEAPEAU?$_Tree_node@U?$pair@$$CBV?$basic_string@DU?$char_traits@D@std@@V?$allocator@D@2@@std@@D@std@@PEAX@2@XZ 0000000180005610 f i mfdpage.obj
 0001:00004610       ?_Lmost@?$_Tree@V?$_Tmap_traits@V?$basic_string@DU?$char_traits@D@std@@V?$allocator@D@2@@std@@PEAVfms_config_item_t@@U?$less@V?$basic_string@DU?$char_traits@D@std@@V?$allocator@D@2@@std@@@2@V?$allocator@U?$pair@$$CBV?$basic_string@DU?$char_traits@D@std@@V?$allocator@D@2@@std@@PEAVfms_config_item_t@@@std@@@2@$0A@@std@@@std@@IEBAAEAPEAU?$_Tree_node@U?$pair@$$CBV?$basic_string@DU?$char_traits@D@std@@V?$allocator@D@2@@std@@PEAVfms_config_item_t@@@std@@PEAX@2@XZ 0000000180005610 f i fms_config.obj
 0001:00004610       ??$get@$0A@$$QEAV?$basic_string@DU?$char_traits@D@std@@V?$allocator@D@2@@std@@@std@@YA$$QEAV?$basic_string@DU?$char_traits@D@std@@V?$allocator@D@2@@0@$$QEAV?$tuple@$$QEAV?$basic_string@DU?$char_traits@D@std@@V?$allocator@D@2@@std@@@0@@Z 0000000180005610 f i tools.obj
 0001:00004610       ?_Lmost@?$_Tree@V?$_Tmap_traits@HPEAVobject_t@@U?$less@H@std@@V?$allocator@U?$pair@$$CBHPEAVobject_t@@@std@@@3@$0A@@std@@@std@@IEBAAEAPEAU?$_Tree_node@U?$pair@$$CBHPEAVobject_t@@@std@@PEAX@2@XZ 0000000180005610 f i mfdpage.obj
 0001:00004610       ?_Lmost@?$_Tree@V?$_Tmap_traits@HMU?$less@H@std@@V?$allocator@U?$pair@$$CBHM@std@@@2@$0A@@std@@@std@@IEBAAEAPEAU?$_Tree_node@U?$pair@$$CBHM@std@@PEAX@2@XZ 0000000180005610 f i fms_config.obj
 0001:00004630       ??$swap@D@std@@YAXAEAD0@Z  0000000180005630 f i tools.obj
 0001:00004680       ??0?$basic_string@DU?$char_traits@D@std@@V?$allocator@D@2@@std@@QEAA@$$QEAV01@@Z 0000000180005680 f i tools.obj
 0001:000046e0       ??0?$basic_string@DU?$char_traits@D@std@@V?$allocator@D@2@@std@@QEAA@XZ 00000001800056e0 f i tools.obj
 0001:00004720       ??0?$tuple@$$$V@std@@QEAA@AEBV01@@Z 0000000180005720 f i tools.obj
 0001:00004720       ??0?$allocator@U?$_Tree_node@U?$pair@$$CBHPEAVobject_t@@@std@@PEAX@std@@@std@@QEAA@AEBV01@@Z 0000000180005720 f i mfdpage.obj
 0001:00004720       ??$?0U?$_Tree_node@U?$pair@$$CBV?$basic_string@DU?$char_traits@D@std@@V?$allocator@D@2@@std@@V12@@std@@PEAX@std@@@?$allocator@U?$pair@$$CBV?$basic_string@DU?$char_traits@D@std@@V?$allocator@D@2@@std@@V12@@std@@@std@@QEAA@AEBV?$allocator@U?$_Tree_node@U?$pair@$$CBV?$basic_string@DU?$char_traits@D@std@@V?$allocator@D@2@@std@@V12@@std@@PEAX@std@@@1@@Z 0000000180005720 f i mfdpage_led.obj
 0001:00004720       ??0?$allocator@U?$_Tree_node@U?$pair@$$CBV?$basic_string@DU?$char_traits@D@std@@V?$allocator@D@2@@std@@V12@@std@@PEAX@std@@@std@@QEAA@AEBV01@@Z 0000000180005720 f i config.obj
 0001:00004720       ??0?$allocator@D@std@@QEAA@AEBV01@@Z 0000000180005720 f i data.obj
 0001:00004720       ??$?0U?$_Tree_node@U?$pair@$$CBHPEAVobject_t@@@std@@PEAX@std@@@?$allocator@U?$pair@$$CBHPEAVobject_t@@@std@@@std@@QEAA@AEBV?$allocator@U?$_Tree_node@U?$pair@$$CBHPEAVobject_t@@@std@@PEAX@std@@@1@@Z 0000000180005720 f i mfdpage.obj
 0001:00004730       ??1?$_Tree@V?$_Tmap_traits@V?$basic_string@DU?$char_traits@D@std@@V?$allocator@D@2@@std@@V12@U?$less@V?$basic_string@DU?$char_traits@D@std@@V?$allocator@D@2@@std@@@2@V?$allocator@U?$pair@$$CBV?$basic_string@DU?$char_traits@D@std@@V?$allocator@D@2@@std@@V12@@std@@@2@$0A@@std@@@std@@QEAA@XZ 0000000180005730 f i tools.obj
 0001:00004760       ??1?$basic_string@DU?$char_traits@D@std@@V?$allocator@D@2@@std@@QEAA@XZ 0000000180005760 f i tools.obj
 0001:00004780       ??1?$map@V?$basic_string@DU?$char_traits@D@std@@V?$allocator@D@2@@std@@V12@U?$less@V?$basic_string@DU?$char_traits@D@std@@V?$allocator@D@2@@std@@@2@V?$allocator@U?$pair@$$CBV?$basic_string@DU?$char_traits@D@std@@V?$allocator@D@2@@std@@V12@@std@@@2@@std@@QEAA@XZ 0000000180005780 f i tools.obj
 0001:000047a0       ??1?$pair@$$CBV?$basic_string@DU?$char_traits@D@std@@V?$allocator@D@2@@std@@V12@@std@@QEAA@XZ 00000001800057a0 f i tools.obj
 0001:000047d0       ??A?$map@V?$basic_string@DU?$char_traits@D@std@@V?$allocator@D@2@@std@@V12@U?$less@V?$basic_string@DU?$char_traits@D@std@@V?$allocator@D@2@@std@@@2@V?$allocator@U?$pair@$$CBV?$basic_string@DU?$char_traits@D@std@@V?$allocator@D@2@@std@@V12@@std@@@2@@std@@QEAAAEAV?$basic_string@DU?$char_traits@D@std@@V?$allocator@D@2@@1@$$QEAV21@@Z 00000001800057d0 f i tools.obj
 0001:000048f0       ??R?$less@V?$basic_string@DU?$char_traits@D@std@@V?$allocator@D@2@@std@@@std@@QEBA_NAEBV?$basic_string@DU?$char_traits@D@std@@V?$allocator@D@2@@1@0@Z 00000001800058f0 f i tools.obj
 0001:00004920       ??_G?$pair@$$CBV?$basic_string@DU?$char_traits@D@std@@V?$allocator@D@2@@std@@V12@@std@@QEAAPEAXI@Z 0000000180005920 f i tools.obj
 0001:00004960       ?_Assign_rv@?$basic_string@DU?$char_traits@D@std@@V?$allocator@D@2@@std@@QEAAX$$QEAV12@@Z 0000000180005960 f i tools.obj
 0001:00004a30       ?_Buynode0@?$_Tree_buy@U?$pair@$$CBV?$basic_string@DU?$char_traits@D@std@@V?$allocator@D@2@@std@@V12@@std@@V?$allocator@U?$pair@$$CBV?$basic_string@DU?$char_traits@D@std@@V?$allocator@D@2@@std@@V12@@std@@@2@@std@@QEAAPEAU?$_Tree_node@U?$pair@$$CBV?$basic_string@DU?$char_traits@D@std@@V?$allocator@D@2@@std@@V12@@std@@PEAX@2@XZ 0000000180005a30 f i tools.obj
 0001:00004b30       ?_Destroy_if_not_nil@?$_Tree@V?$_Tmap_traits@V?$basic_string@DU?$char_traits@D@std@@V?$allocator@D@2@@std@@V12@U?$less@V?$basic_string@DU?$char_traits@D@std@@V?$allocator@D@2@@std@@@2@V?$allocator@U?$pair@$$CBV?$basic_string@DU?$char_traits@D@std@@V?$allocator@D@2@@std@@V12@@std@@@2@$0A@@std@@@std@@IEAAXPEAU?$_Tree_node@U?$pair@$$CBV?$basic_string@DU?$char_traits@D@std@@V?$allocator@D@2@@std@@V12@@std@@PEAX@2@@Z 0000000180005b30 f i tools.obj
 0001:00004ba0       ?_Erase@?$_Tree@V?$_Tmap_traits@V?$basic_string@DU?$char_traits@D@std@@V?$allocator@D@2@@std@@V12@U?$less@V?$basic_string@DU?$char_traits@D@std@@V?$allocator@D@2@@std@@@2@V?$allocator@U?$pair@$$CBV?$basic_string@DU?$char_traits@D@std@@V?$allocator@D@2@@std@@V12@@std@@@2@$0A@@std@@@std@@IEAAXPEAU?$_Tree_node@U?$pair@$$CBV?$basic_string@DU?$char_traits@D@std@@V?$allocator@D@2@@std@@V12@@std@@PEAX@2@@Z 0000000180005ba0 f i tools.obj
 0001:00004c70       ?_Freenode0@?$_Tree_buy@U?$pair@$$CBV?$basic_string@DU?$char_traits@D@std@@V?$allocator@D@2@@std@@H@std@@V?$allocator@U?$pair@$$CBV?$basic_string@DU?$char_traits@D@std@@V?$allocator@D@2@@std@@H@std@@@2@@std@@QEAAXPEAU?$_Tree_node@U?$pair@$$CBV?$basic_string@DU?$char_traits@D@std@@V?$allocator@D@2@@std@@H@std@@PEAX@2@@Z 0000000180005c70 f i mfdpage.obj
 0001:00004c70       ?_Freenode0@?$_Tree_buy@U?$pair@$$CBV?$basic_string@DU?$char_traits@D@std@@V?$allocator@D@2@@std@@V12@@std@@V?$allocator@U?$pair@$$CBV?$basic_string@DU?$char_traits@D@std@@V?$allocator@D@2@@std@@V12@@std@@@2@@std@@QEAAXPEAU?$_Tree_node@U?$pair@$$CBV?$basic_string@DU?$char_traits@D@std@@V?$allocator@D@2@@std@@V12@@std@@PEAX@2@@Z 0000000180005c70 f i tools.obj
 0001:00004c70       ?_Freeheadnode@?$_Tree_alloc@$0A@U?$_Tree_base_types@PEAVobject_t@@V?$allocator@PEAVobject_t@@@std@@@std@@@std@@QEAAXPEAU?$_Tree_node@PEAVobject_t@@PEAX@2@@Z 0000000180005c70 f i data.obj
 0001:00004c70       ?_Freeheadnode@?$_Tree_alloc@$0A@U?$_Tree_base_types@PEAVmfdpage_t@@V?$allocator@PEAVmfdpage_t@@@std@@@std@@@std@@QEAAXPEAU?$_Tree_node@PEAVmfdpage_t@@PEAX@2@@Z 0000000180005c70 f i in.obj
 0001:00004c70       ?_Freenode0@?$_Tree_buy@PEAVlistener_t@@V?$allocator@PEAVlistener_t@@@std@@@std@@QEAAXPEAU?$_Tree_node@PEAVlistener_t@@PEAX@2@@Z 0000000180005c70 f i data.obj
 0001:00004c70       ?_Freenode0@?$_Tree_buy@U?$pair@$$CBV?$basic_string@DU?$char_traits@D@std@@V?$allocator@D@2@@std@@PEAVfms_config_item_t@@@std@@V?$allocator@U?$pair@$$CBV?$basic_string@DU?$char_traits@D@std@@V?$allocator@D@2@@std@@PEAVfms_config_item_t@@@std@@@2@@std@@QEAAXPEAU?$_Tree_node@U?$pair@$$CBV?$basic_string@DU?$char_traits@D@std@@V?$allocator@D@2@@std@@PEAVfms_config_item_t@@@std@@PEAX@2@@Z 0000000180005c70 f i fms_config.obj
 0001:00004c70       ?_Freenode0@?$_Tree_buy@U?$pair@$$CBHPEAVfms_fp_item_t@@@std@@V?$allocator@U?$pair@$$CBHPEAVfms_fp_item_t@@@std@@@2@@std@@QEAAXPEAU?$_Tree_node@U?$pair@$$CBHPEAVfms_fp_item_t@@@std@@PEAX@2@@Z 0000000180005c70 f i mfdpage_fms.obj
 0001:00004c70       ?_Freeheadnode@?$_Tree_alloc@$0A@U?$_Tree_base_types@U?$pair@$$CBV?$basic_string@DU?$char_traits@D@std@@V?$allocator@D@2@@std@@V12@@std@@V?$allocator@U?$pair@$$CBV?$basic_string@DU?$char_traits@D@std@@V?$allocator@D@2@@std@@V12@@std@@@2@@std@@@std@@QEAAXPEAU?$_Tree_node@U?$pair@$$CBV?$basic_string@DU?$char_traits@D@std@@V?$allocator@D@2@@std@@V12@@std@@PEAX@2@@Z 0000000180005c70 f i tools.obj
 0001:00004c70       ?_Freenode0@?$_Tree_buy@PEAVmfdpage_t@@V?$allocator@PEAVmfdpage_t@@@std@@@std@@QEAAXPEAU?$_Tree_node@PEAVmfdpage_t@@PEAX@2@@Z 0000000180005c70 f i in.obj
 0001:00004c70       ?_Freenode0@?$_Tree_buy@U?$pair@$$CBHV?$basic_string@DU?$char_traits@D@std@@V?$allocator@D@2@@std@@@std@@V?$allocator@U?$pair@$$CBHV?$basic_string@DU?$char_traits@D@std@@V?$allocator@D@2@@std@@@std@@@2@@std@@QEAAXPEAU?$_Tree_node@U?$pair@$$CBHV?$basic_string@DU?$char_traits@D@std@@V?$allocator@D@2@@std@@@std@@PEAX@2@@Z 0000000180005c70 f i out_saitek.obj
 0001:00004c70       ?_Freenode0@?$_Tree_buy@U?$pair@$$CBHPEAVobject_t@@@std@@V?$allocator@U?$pair@$$CBHPEAVobject_t@@@std@@@2@@std@@QEAAXPEAU?$_Tree_node@U?$pair@$$CBHPEAVobject_t@@@std@@PEAX@2@@Z 0000000180005c70 f i mfdpage.obj
 0001:00004c70       ?_Freeheadnode@?$_Tree_alloc@$0A@U?$_Tree_base_types@PEAVlistener_t@@V?$allocator@PEAVlistener_t@@@std@@@std@@@std@@QEAAXPEAU?$_Tree_node@PEAVlistener_t@@PEAX@2@@Z 0000000180005c70 f i data.obj
 0001:00004c70       ?_Freenode0@?$_Tree_buy@U?$pair@$$CBV?$basic_string@DU?$char_traits@D@std@@V?$allocator@D@2@@std@@M@std@@V?$allocator@U?$pair@$$CBV?$basic_string@DU?$char_traits@D@std@@V?$allocator@D@2@@std@@M@std@@@2@@std@@QEAAXPEAU?$_Tree_node@U?$pair@$$CBV?$basic_string@DU?$char_traits@D@std@@V?$allocator@D@2@@std@@M@std@@PEAX@2@@Z 0000000180005c70 f i mfdpage_fms.obj
 0001:00004c70       ?_Freeheadnode@?$_Tree_alloc@$0A@U?$_Tree_base_types@U?$pair@$$CBHPEAVobject_t@@@std@@V?$allocator@U?$pair@$$CBHPEAVobject_t@@@std@@@2@@std@@@std@@QEAAXPEAU?$_Tree_node@U?$pair@$$CBHPEAVobject_t@@@std@@PEAX@2@@Z 0000000180005c70 f i mfdpage.obj
 0001:00004c70       ?_Freenode0@?$_Tree_buy@U?$pair@$$CBV?$basic_string@DU?$char_traits@D@std@@V?$allocator@D@2@@std@@D@std@@V?$allocator@U?$pair@$$CBV?$basic_string@DU?$char_traits@D@std@@V?$allocator@D@2@@std@@D@std@@@2@@std@@QEAAXPEAU?$_Tree_node@U?$pair@$$CBV?$basic_string@DU?$char_traits@D@std@@V?$allocator@D@2@@std@@D@std@@PEAX@2@@Z 0000000180005c70 f i mfdpage.obj
 0001:00004c70       ?_Freenode0@?$_Tree_buy@PEAVobject_t@@V?$allocator@PEAVobject_t@@@std@@@std@@QEAAXPEAU?$_Tree_node@PEAVobject_t@@PEAX@2@@Z 0000000180005c70 f i data.obj
 0001:00004c70       ?_Freeheadnode@?$_Tree_alloc@$0A@U?$_Tree_base_types@U?$pair@$$CBV?$basic_string@DU?$char_traits@D@std@@V?$allocator@D@2@@std@@PEAVfms_config_item_t@@@std@@V?$allocator@U?$pair@$$CBV?$basic_string@DU?$char_traits@D@std@@V?$allocator@D@2@@std@@PEAVfms_config_item_t@@@std@@@2@@std@@@std@@QEAAXPEAU?$_Tree_node@U?$pair@$$CBV?$basic_string@DU?$char_traits@D@std@@V?$allocator@D@2@@std@@PEAVfms_config_item_t@@@std@@PEAX@2@@Z 0000000180005c70 f i fms_config.obj
 0001:00004c70       ?_Freeheadnode@?$_Tree_alloc@$0A@U?$_Tree_base_types@U?$pair@$$CBV?$basic_string@DU?$char_traits@D@std@@V?$allocator@D@2@@std@@M@std@@V?$allocator@U?$pair@$$CBV?$basic_string@DU?$char_traits@D@std@@V?$allocator@D@2@@std@@M@std@@@2@@std@@@std@@QEAAXPEAU?$_Tree_node@U?$pair@$$CBV?$basic_string@DU?$char_traits@D@std@@V?$allocator@D@2@@std@@M@std@@PEAX@2@@Z 0000000180005c70 f i fms_config.obj
 0001:00004c70       ?_Freeheadnode@?$_Tree_alloc@$0A@U?$_Tree_base_types@U?$pair@$$CBHPEAVfms_fp_item_t@@@std@@V?$allocator@U?$pair@$$CBHPEAVfms_fp_item_t@@@std@@@2@@std@@@std@@QEAAXPEAU?$_Tree_node@U?$pair@$$CBHPEAVfms_fp_item_t@@@std@@PEAX@2@@Z 0000000180005c70 f i fms_fp.obj
 0001:00004c70       ?_Freenode0@?$_Tree_buy@U?$pair@$$CBHM@std@@V?$allocator@U?$pair@$$CBHM@std@@@2@@std@@QEAAXPEAU?$_Tree_node@U?$pair@$$CBHM@std@@PEAX@2@@Z 0000000180005c70 f i fms_config.obj
 0001:00004c70       ?_Freeheadnode@?$_Tree_alloc@$0A@U?$_Tree_base_types@U?$pair@$$CBHV?$basic_string@DU?$char_traits@D@std@@V?$allocator@D@2@@std@@@std@@V?$allocator@U?$pair@$$CBHV?$basic_string@DU?$char_traits@D@std@@V?$allocator@D@2@@std@@@std@@@2@@std@@@std@@QEAAXPEAU?$_Tree_node@U?$pair@$$CBHV?$basic_string@DU?$char_traits@D@std@@V?$allocator@D@2@@std@@@std@@PEAX@2@@Z 0000000180005c70 f i mfdpage.obj
 0001:00004c70       ?_Freeheadnode@?$_Tree_alloc@$0A@U?$_Tree_base_types@U?$pair@$$CBV?$basic_string@DU?$char_traits@D@std@@V?$allocator@D@2@@std@@H@std@@V?$allocator@U?$pair@$$CBV?$basic_string@DU?$char_traits@D@std@@V?$allocator@D@2@@std@@H@std@@@2@@std@@@std@@QEAAXPEAU?$_Tree_node@U?$pair@$$CBV?$basic_string@DU?$char_traits@D@std@@V?$allocator@D@2@@std@@H@std@@PEAX@2@@Z 0000000180005c70 f i mfdpage.obj
 0001:00004c70       ?_Freeheadnode@?$_Tree_alloc@$0A@U?$_Tree_base_types@U?$pair@$$CBV?$basic_string@DU?$char_traits@D@std@@V?$allocator@D@2@@std@@PEAVfms_fp_item_t@@@std@@V?$allocator@U?$pair@$$CBV?$basic_string@DU?$char_traits@D@std@@V?$allocator@D@2@@std@@PEAVfms_fp_item_t@@@std@@@2@@std@@@std@@QEAAXPEAU?$_Tree_node@U?$pair@$$CBV?$basic_string@DU?$char_traits@D@std@@V?$allocator@D@2@@std@@PEAVfms_fp_item_t@@@std@@PEAX@2@@Z 0000000180005c70 f i fms_fp.obj
 0001:00004c70       ?_Freenode0@?$_Tree_buy@U?$pair@$$CBV?$basic_string@DU?$char_traits@D@std@@V?$allocator@D@2@@std@@PEAVfms_fp_item_t@@@std@@V?$allocator@U?$pair@$$CBV?$basic_string@DU?$char_traits@D@std@@V?$allocator@D@2@@std@@PEAVfms_fp_item_t@@@std@@@2@@std@@QEAAXPEAU?$_Tree_node@U?$pair@$$CBV?$basic_string@DU?$char_traits@D@std@@V?$allocator@D@2@@std@@PEAVfms_fp_item_t@@@std@@PEAX@2@@Z 0000000180005c70 f i fms_fp.obj
 0001:00004d50       ?_Isnil@?$_Tree_val@U?$_Tree_simple_types@PEAVobject_t@@@std@@@std@@SAAEADPEAU?$_Tree_node@PEAVobject_t@@PEAX@2@@Z 0000000180005d50 f i data.obj
 0001:00004d50       ?_Isnil@?$_Tree_val@U?$_Tree_simple_types@U?$pair@$$CBHM@std@@@std@@@std@@SAAEADPEAU?$_Tree_node@U?$pair@$$CBHM@std@@PEAX@2@@Z 0000000180005d50 f i fms_config.obj
 0001:00004d50       ?_Isnil@?$_Tree_val@U?$_Tree_simple_types@U?$pair@$$CBHPEAVfms_fp_item_t@@@std@@@std@@@std@@SAAEADPEAU?$_Tree_node@U?$pair@$$CBHPEAVfms_fp_item_t@@@std@@PEAX@2@@Z 0000000180005d50 f i mfdpage_fms.obj
 0001:00004d50       ?_Isnil@?$_Tree_val@U?$_Tree_simple_types@U?$pair@$$CBV?$basic_string@DU?$char_traits@D@std@@V?$allocator@D@2@@std@@V12@@std@@@std@@@std@@SAAEADPEAU?$_Tree_node@U?$pair@$$CBV?$basic_string@DU?$char_traits@D@std@@V?$allocator@D@2@@std@@V12@@std@@PEAX@2@@Z 0000000180005d50 f i tools.obj
 0001:00004d50       ?_Isnil@?$_Tree_val@U?$_Tree_simple_types@U?$pair@$$CBHV?$basic_string@DU?$char_traits@D@std@@V?$allocator@D@2@@std@@@std@@@std@@@std@@SAAEADPEAU?$_Tree_node@U?$pair@$$CBHV?$basic_string@DU?$char_traits@D@std@@V?$allocator@D@2@@std@@@std@@PEAX@2@@Z 0000000180005d50 f i out_saitek.obj
 0001:00004d50       ?_Isnil@?$_Tree_val@U?$_Tree_simple_types@PEAVlistener_t@@@std@@@std@@SAAEADPEAU?$_Tree_node@PEAVlistener_t@@PEAX@2@@Z 0000000180005d50 f i data.obj
 0001:00004d50       ?_Isnil@?$_Tree_val@U?$_Tree_simple_types@U?$pair@$$CBV?$basic_string@DU?$char_traits@D@std@@V?$allocator@D@2@@std@@M@std@@@std@@@std@@SAAEADPEAU?$_Tree_node@U?$pair@$$CBV?$basic_string@DU?$char_traits@D@std@@V?$allocator@D@2@@std@@M@std@@PEAX@2@@Z 0000000180005d50 f i mfdpage_fms.obj
 0001:00004d50       ?_Isnil@?$_Tree_val@U?$_Tree_simple_types@U?$pair@$$CBV?$basic_string@DU?$char_traits@D@std@@V?$allocator@D@2@@std@@D@std@@@std@@@std@@SAAEADPEAU?$_Tree_node@U?$pair@$$CBV?$basic_string@DU?$char_traits@D@std@@V?$allocator@D@2@@std@@D@std@@PEAX@2@@Z 0000000180005d50 f i mfdpage.obj
 0001:00004d50       ?_Isnil@?$_Tree_val@U?$_Tree_simple_types@U?$pair@$$CBV?$basic_string@DU?$char_traits@D@std@@V?$allocator@D@2@@std@@PEAVfms_fp_item_t@@@std@@@std@@@std@@SAAEADPEAU?$_Tree_node@U?$pair@$$CBV?$basic_string@DU?$char_traits@D@std@@V?$allocator@D@2@@std@@PEAVfms_fp_item_t@@@std@@PEAX@2@@Z 0000000180005d50 f i fms_fp.obj
 0001:00004d50       ?_Isnil@?$_Tree_val@U?$_Tree_simple_types@U?$pair@$$CBV?$basic_string@DU?$char_traits@D@std@@V?$allocator@D@2@@std@@PEAVfms_config_item_t@@@std@@@std@@@std@@SAAEADPEAU?$_Tree_node@U?$pair@$$CBV?$basic_string@DU?$char_traits@D@std@@V?$allocator@D@2@@std@@PEAVfms_config_item_t@@@std@@PEAX@2@@Z 0000000180005d50 f i fms_config.obj
 0001:00004d50       ?_Isnil@?$_Tree_val@U?$_Tree_simple_types@U?$pair@$$CBV?$basic_string@DU?$char_traits@D@std@@V?$allocator@D@2@@std@@H@std@@@std@@@std@@SAAEADPEAU?$_Tree_node@U?$pair@$$CBV?$basic_string@DU?$char_traits@D@std@@V?$allocator@D@2@@std@@H@std@@PEAX@2@@Z 0000000180005d50 f i mfdpage.obj
 0001:00004d50       ?_Isnil@?$_Tree_val@U?$_Tree_simple_types@PEAVmfdpage_t@@@std@@@std@@SAAEADPEAU?$_Tree_node@PEAVmfdpage_t@@PEAX@2@@Z 0000000180005d50 f i in.obj
 0001:00004d50       ?_Isnil@?$_Tree_val@U?$_Tree_simple_types@U?$pair@$$CBHPEAVobject_t@@@std@@@std@@@std@@SAAEADPEAU?$_Tree_node@U?$pair@$$CBHPEAVobject_t@@@std@@PEAX@2@@Z 0000000180005d50 f i mfdpage.obj
 0001:00004d60       ?_Tidy@?$_Tree@V?$_Tmap_traits@V?$basic_string@DU?$char_traits@D@std@@V?$allocator@D@2@@std@@V12@U?$less@V?$basic_string@DU?$char_traits@D@std@@V?$allocator@D@2@@std@@@2@V?$allocator@U?$pair@$$CBV?$basic_string@DU?$char_traits@D@std@@V?$allocator@D@2@@std@@V12@@std@@@2@$0A@@std@@@std@@IEAAXXZ 0000000180005d60 f i tools.obj
 0001:00004dc0       ?allocate@?$_Wrap_alloc@V?$allocator@U?$_Tree_node@U?$pair@$$CBV?$basic_string@DU?$char_traits@D@std@@V?$allocator@D@2@@std@@V12@@std@@PEAX@std@@@std@@@std@@QEAAPEAU?$_Tree_node@U?$pair@$$CBV?$basic_string@DU?$char_traits@D@std@@V?$allocator@D@2@@std@@V12@@std@@PEAX@2@_K@Z 0000000180005dc0 f i tools.obj
 0001:00004df0       ?allocate@?$allocator@U?$_Tree_node@U?$pair@$$CBV?$basic_string@DU?$char_traits@D@std@@V?$allocator@D@2@@std@@V12@@std@@PEAX@std@@@std@@QEAAPEAU?$_Tree_node@U?$pair@$$CBV?$basic_string@DU?$char_traits@D@std@@V?$allocator@D@2@@std@@V12@@std@@PEAX@2@_K@Z 0000000180005df0 f i tools.obj
 0001:00004e10       ?c_str@?$basic_string@DU?$char_traits@D@std@@V?$allocator@D@2@@std@@QEBAPEBDXZ 0000000180005e10 f i tools.obj
 0001:00004e30       ?clear@?$_Tree@V?$_Tmap_traits@V?$basic_string@DU?$char_traits@D@std@@V?$allocator@D@2@@std@@V12@U?$less@V?$basic_string@DU?$char_traits@D@std@@V?$allocator@D@2@@std@@@2@V?$allocator@U?$pair@$$CBV?$basic_string@DU?$char_traits@D@std@@V?$allocator@D@2@@std@@V12@@std@@@2@$0A@@std@@@std@@QEAAXXZ 0000000180005e30 f i tools.obj
 0001:00004eb0       ?compare@?$basic_string@DU?$char_traits@D@std@@V?$allocator@D@2@@std@@QEBAHAEBV12@@Z 0000000180005eb0 f i tools.obj
 0001:00004f00       ?compare@?$basic_string@DU?$char_traits@D@std@@V?$allocator@D@2@@std@@QEBAH_K0PEBD0@Z 0000000180005f00 f i tools.obj
 0001:00005010       ?compare@?$char_traits@D@std@@SAHPEBD0_K@Z 0000000180006010 f i tools.obj
 0001:00005060       ?erase@?$_Tree@V?$_Tmap_traits@V?$basic_string@DU?$char_traits@D@std@@V?$allocator@D@2@@std@@V12@U?$less@V?$basic_string@DU?$char_traits@D@std@@V?$allocator@D@2@@std@@@2@V?$allocator@U?$pair@$$CBV?$basic_string@DU?$char_traits@D@std@@V?$allocator@D@2@@std@@V12@@std@@@2@$0A@@std@@@std@@QEAA?AV?$_Tree_iterator@V?$_Tree_val@U?$_Tree_simple_types@U?$pair@$$CBV?$basic_string@DU?$char_traits@D@std@@V?$allocator@D@2@@std@@V12@@std@@@std@@@std@@@2@V?$_Tree_const_iterator@V?$_Tree_val@U?$_Tree_simple_types@U?$pair@$$CBV?$basic_string@DU?$char_traits@D@std@@V?$allocator@D@2@@std@@V12@@std@@@std@@@std@@@2@0@Z 0000000180006060 f i tools.obj
 0001:00005140       ?erase@?$_Tree@V?$_Tmap_traits@V?$basic_string@DU?$char_traits@D@std@@V?$allocator@D@2@@std@@V12@U?$less@V?$basic_string@DU?$char_traits@D@std@@V?$allocator@D@2@@std@@@2@V?$allocator@U?$pair@$$CBV?$basic_string@DU?$char_traits@D@std@@V?$allocator@D@2@@std@@V12@@std@@@2@$0A@@std@@@std@@QEAA?AV?$_Tree_iterator@V?$_Tree_val@U?$_Tree_simple_types@U?$pair@$$CBV?$basic_string@DU?$char_traits@D@std@@V?$allocator@D@2@@std@@V12@@std@@@std@@@std@@@2@V?$_Tree_const_iterator@V?$_Tree_val@U?$_Tree_simple_types@U?$pair@$$CBV?$basic_string@DU?$char_traits@D@std@@V?$allocator@D@2@@std@@V12@@std@@@std@@@std@@@2@@Z 0000000180006140 f i tools.obj
 0001:00005980       ?max_size@?$_Tree@V?$_Tmap_traits@V?$basic_string@DU?$char_traits@D@std@@V?$allocator@D@2@@std@@V12@U?$less@V?$basic_string@DU?$char_traits@D@std@@V?$allocator@D@2@@std@@@2@V?$allocator@U?$pair@$$CBV?$basic_string@DU?$char_traits@D@std@@V?$allocator@D@2@@std@@V12@@std@@@2@$0A@@std@@@std@@QEBA_KXZ 0000000180006980 f i tools.obj
 0001:000059b0       ?max_size@?$_Wrap_alloc@V?$allocator@U?$_Tree_node@U?$pair@$$CBV?$basic_string@DU?$char_traits@D@std@@V?$allocator@D@2@@std@@V12@@std@@PEAX@std@@@std@@@std@@QEBA_KXZ 00000001800069b0 f i tools.obj
 0001:000059d0       ?max_size@?$allocator@U?$_Tree_node@U?$pair@$$CBV?$basic_string@DU?$char_traits@D@std@@V?$allocator@D@2@@std@@V12@@std@@PEAX@std@@@std@@QEBA_KXZ 00000001800069d0 f i tools.obj
 0001:000059e0       ?max_size@?$allocator_traits@V?$allocator@U?$_Tree_node@U?$pair@$$CBV?$basic_string@DU?$char_traits@D@std@@V?$allocator@D@2@@std@@V12@@std@@PEAX@std@@@std@@@std@@SA_KAEBV?$allocator@U?$_Tree_node@U?$pair@$$CBV?$basic_string@DU?$char_traits@D@std@@V?$allocator@D@2@@std@@V12@@std@@PEAX@std@@@2@@Z 00000001800069e0 f i tools.obj
 0001:00005a00       ??0datasource_t@@QEAA@PEBD@Z 0000000180006a00 f   data.obj
 0001:00005b30       ??1datasource_t@@UEAA@XZ   0000000180006b30 f   data.obj
 0001:00005bc0       ?name@datasource_t@@UEAAAEBV?$basic_string@DU?$char_traits@D@std@@V?$allocator@D@2@@std@@XZ 0000000180006bc0 f   data.obj
 0001:00005be0       ?newdata_available@datasource_t@@QEAA_NXZ 0000000180006be0 f   data.obj
 0001:00005c00       ?mark_dirty@datasource_t@@UEAAXXZ 0000000180006c00 f   data.obj
 0001:00005c20       ??Bdatasource_t@@UEAAHXZ   0000000180006c20 f   data.obj
 0001:00005c80       ??Bdatasource_t@@UEAAMXZ   0000000180006c80 f   data.obj
 0001:00005ce0       ??Bdatasource_t@@UEAANXZ   0000000180006ce0 f   data.obj
 0001:00005d40       ??Bdatasource_t@@UEAAAEBV?$basic_string@DU?$char_traits@D@std@@V?$allocator@D@2@@std@@XZ 0000000180006d40 f   data.obj
 0001:00005e80       ??Bdatasource_t@@UEAAPEBDXZ 0000000180006e80 f   data.obj
 0001:00005fd0       ?refresh@datasource_t@@UEAA_NXZ 0000000180006fd0 f   data.obj
 0001:00006480       ?getType@datasource_t@@UEAAHXZ 0000000180007480 f   data.obj
 0001:000064a0       ??0data_t@@QEAA@XZ         00000001800074a0 f   data.obj
 0001:00006520       ??1data_t@@UEAA@XZ         0000000180007520 f   data.obj
 0001:00006640       ?add_listener@data_t@@QEAAXPEAVlistener_t@@@Z 0000000180007640 f   data.obj
 0001:000066d0       ?remove_listener@data_t@@QEAAXPEAVlistener_t@@@Z 00000001800076d0 f   data.obj
 0001:00006750       ?add_datasource@data_t@@QEAAPEAVobject_t@@PEBD@Z 0000000180007750 f   data.obj
 0001:00006950       ?remove_datasource@data_t@@QEAAXPEAVobject_t@@@Z 0000000180007950 f   data.obj
 0001:00006a10       ?remove_datasource@data_t@@QEAAXPEBD@Z 0000000180007a10 f   data.obj
 0001:00006ae0       ?connect@data_t@@QEAAXM@Z  0000000180007ae0 f   data.obj
 0001:00006b50       ?disconnect@data_t@@QEAAXXZ 0000000180007b50 f   data.obj
 0001:00006ba0       ?upd_interval@data_t@@QEAAAEBMXZ 0000000180007ba0 f   data.obj
 0001:00006bc0       ?update@data_t@@CAMMMHPEAX@Z 0000000180007bc0 f   data.obj
 0001:00006c10       ?refresh_datasources@data_t@@EEAAXXZ 0000000180007c10 f   data.obj
 0001:00006e40       ?refresh_listeners@data_t@@EEAAXPEAVobject_t@@@Z 0000000180007e40 f   data.obj
 0001:00006f50       ??$?0AEAV?$_Tree_const_iterator@V?$_Tree_val@U?$_Tree_simple_types@PEAVlistener_t@@@std@@@std@@@std@@AEAV01@X@?$pair@V?$_Tree_const_iterator@V?$_Tree_val@U?$_Tree_simple_types@PEAVlistener_t@@@std@@@std@@@std@@V12@@std@@QEAA@AEAV?$_Tree_const_iterator@V?$_Tree_val@U?$_Tree_simple_types@PEAVlistener_t@@@std@@@std@@@1@0@Z 0000000180007f50 f i data.obj
 0001:00006f50       ??$?0AEAV?$_Tree_const_iterator@V?$_Tree_val@U?$_Tree_simple_types@PEAVobject_t@@@std@@@std@@@std@@AEAV01@X@?$pair@V?$_Tree_const_iterator@V?$_Tree_val@U?$_Tree_simple_types@PEAVobject_t@@@std@@@std@@@std@@V12@@std@@QEAA@AEAV?$_Tree_const_iterator@V?$_Tree_val@U?$_Tree_simple_types@PEAVobject_t@@@std@@@std@@@1@0@Z 0000000180007f50 f i data.obj
 0001:00006fa0       ??$?8U?$pair@$$CBV?$basic_string@DU?$char_traits@D@std@@V?$allocator@D@2@@std@@V12@@std@@U01@@std@@YA_NAEBV?$allocator@U?$pair@$$CBV?$basic_string@DU?$char_traits@D@std@@V?$allocator@D@2@@std@@V12@@std@@@0@0@Z 0000000180007fa0 f i mfdpage_led.obj
 0001:00006fa0       ??$?8DD@std@@YA_NAEBV?$allocator@D@0@0@Z 0000000180007fa0 f i data.obj
 0001:00006fb0       ??$?8DU?$char_traits@D@std@@V?$allocator@D@1@@std@@YA_NAEBV?$basic_string@DU?$char_traits@D@std@@V?$allocator@D@2@@0@0@Z 0000000180007fb0 f i data.obj
 0001:00006ff0       ??$?8DU?$char_traits@D@std@@V?$allocator@D@1@@std@@YA_NAEBV?$basic_string@DU?$char_traits@D@std@@V?$allocator@D@2@@0@PEBD@Z 0000000180007ff0 f i data.obj
 0001:00007030       ??$?8DU?$char_traits@D@std@@V?$allocator@D@1@@std@@YA_NPEBDAEBV?$basic_string@DU?$char_traits@D@std@@V?$allocator@D@2@@0@@Z 0000000180008030 f i data.obj
 0001:00007070       ??$?8V?$allocator@D@std@@V01@@std@@YA_NAEBU?$_Wrap_alloc@V?$allocator@D@std@@@0@0@Z 0000000180008070 f i data.obj
 0001:000070c0       ??$?9DD@std@@YA_NAEBV?$allocator@D@0@0@Z 00000001800080c0 f i data.obj
 0001:00007100       ??$?9DU?$char_traits@D@std@@V?$allocator@D@1@@std@@YA_NAEBV?$basic_string@DU?$char_traits@D@std@@V?$allocator@D@2@@0@0@Z 0000000180008100 f i data.obj
 0001:00007140       ??$?9V?$allocator@D@std@@V01@@std@@YA_NAEBU?$_Wrap_alloc@V?$allocator@D@std@@@0@0@Z 0000000180008140 f i data.obj
 0001:00007180       ??$_Buynode@AEBQEAVlistener_t@@@?$_Tree_buy@PEAVlistener_t@@V?$allocator@PEAVlistener_t@@@std@@@std@@QEAAPEAU?$_Tree_node@PEAVlistener_t@@PEAX@1@AEBQEAVlistener_t@@@Z 0000000180008180 f i data.obj
 0001:00007220       ??$_Buynode@AEBQEAVobject_t@@@?$_Tree_buy@PEAVobject_t@@V?$allocator@PEAVobject_t@@@std@@@std@@QEAAPEAU?$_Tree_node@PEAVobject_t@@PEAX@1@AEBQEAVobject_t@@@Z 0000000180008220 f i data.obj
 0001:000072c0       ??$_Buynode_if_nil@AEBQEAVlistener_t@@@?$_Tree@V?$_Tset_traits@PEAVlistener_t@@U?$less@PEAVlistener_t@@@std@@V?$allocator@PEAVlistener_t@@@3@$0A@@std@@@std@@IEAAPEAU?$_Tree_node@PEAVlistener_t@@PEAX@1@U_Nil@1@AEBQEAVlistener_t@@@Z 00000001800082c0 f i data.obj
 0001:000072f0       ??$_Buynode_if_nil@AEBQEAVobject_t@@@?$_Tree@V?$_Tset_traits@PEAVobject_t@@U?$less@PEAVobject_t@@@std@@V?$allocator@PEAVobject_t@@@3@$0A@@std@@@std@@IEAAPEAU?$_Tree_node@PEAVobject_t@@PEAX@1@U_Nil@1@AEBQEAVobject_t@@@Z 00000001800082f0 f i data.obj
 0001:00007320       ??$_Distance2@V?$_Tree_const_iterator@V?$_Tree_val@U?$_Tree_simple_types@PEAVobject_t@@@std@@@std@@@std@@_K@std@@YAXV?$_Tree_const_iterator@V?$_Tree_val@U?$_Tree_simple_types@PEAVobject_t@@@std@@@std@@@0@0AEA_KUbidirectional_iterator_tag@0@@Z 0000000180008320 f i data.obj
 0001:00007320       ??$_Distance2@V?$_Tree_const_iterator@V?$_Tree_val@U?$_Tree_simple_types@PEAVlistener_t@@@std@@@std@@@std@@_K@std@@YAXV?$_Tree_const_iterator@V?$_Tree_val@U?$_Tree_simple_types@PEAVlistener_t@@@std@@@std@@@0@0AEA_KUbidirectional_iterator_tag@0@@Z 0000000180008320 f i data.obj
 0001:00007380       ??$_Distance@V?$_Tree_const_iterator@V?$_Tree_val@U?$_Tree_simple_types@PEAVlistener_t@@@std@@@std@@@std@@_K@std@@YAXV?$_Tree_const_iterator@V?$_Tree_val@U?$_Tree_simple_types@PEAVlistener_t@@@std@@@std@@@0@0AEA_K@Z 0000000180008380 f i data.obj
 0001:00007380       ??$_Distance@V?$_Tree_const_iterator@V?$_Tree_val@U?$_Tree_simple_types@PEAVobject_t@@@std@@@std@@@std@@_K@std@@YAXV?$_Tree_const_iterator@V?$_Tree_val@U?$_Tree_simple_types@PEAVobject_t@@@std@@@std@@@0@0AEA_K@Z 0000000180008380 f i data.obj
 0001:000073c0       ??$_Insert_at@AEBQEAVlistener_t@@U_Nil@std@@@?$_Tree@V?$_Tset_traits@PEAVlistener_t@@U?$less@PEAVlistener_t@@@std@@V?$allocator@PEAVlistener_t@@@3@$0A@@std@@@std@@IEAA?AV?$_Tree_const_iterator@V?$_Tree_val@U?$_Tree_simple_types@PEAVlistener_t@@@std@@@std@@@1@_NPEAU?$_Tree_node@PEAVlistener_t@@PEAX@1@AEBQEAVlistener_t@@U_Nil@1@@Z 00000001800083c0 f i data.obj
 0001:000077f0       ??$_Insert_at@AEBQEAVobject_t@@U_Nil@std@@@?$_Tree@V?$_Tset_traits@PEAVobject_t@@U?$less@PEAVobject_t@@@std@@V?$allocator@PEAVobject_t@@@3@$0A@@std@@@std@@IEAA?AV?$_Tree_const_iterator@V?$_Tree_val@U?$_Tree_simple_types@PEAVobject_t@@@std@@@std@@@1@_NPEAU?$_Tree_node@PEAVobject_t@@PEAX@1@AEBQEAVobject_t@@U_Nil@1@@Z 00000001800087f0 f i data.obj
 0001:00007c20       ??$_Insert_nohint@AEBQEAVlistener_t@@U_Nil@std@@@?$_Tree@V?$_Tset_traits@PEAVlistener_t@@U?$less@PEAVlistener_t@@@std@@V?$allocator@PEAVlistener_t@@@3@$0A@@std@@@std@@IEAA?AU?$pair@V?$_Tree_const_iterator@V?$_Tree_val@U?$_Tree_simple_types@PEAVlistener_t@@@std@@@std@@@std@@_N@1@_NAEBQEAVlistener_t@@U_Nil@1@@Z 0000000180008c20 f i data.obj
 0001:00008010       ??$_Insert_nohint@AEBQEAVobject_t@@U_Nil@std@@@?$_Tree@V?$_Tset_traits@PEAVobject_t@@U?$less@PEAVobject_t@@@std@@V?$allocator@PEAVobject_t@@@3@$0A@@std@@@std@@IEAA?AU?$pair@V?$_Tree_const_iterator@V?$_Tree_val@U?$_Tree_simple_types@PEAVobject_t@@@std@@@std@@@std@@_N@1@_NAEBQEAVobject_t@@U_Nil@1@@Z 0000000180009010 f i data.obj
 0001:00008400       ??$_Iter_cat@V?$_Tree_const_iterator@V?$_Tree_val@U?$_Tree_simple_types@PEAVobject_t@@@std@@@std@@@std@@@std@@YA?AUbidirectional_iterator_tag@0@AEBV?$_Tree_const_iterator@V?$_Tree_val@U?$_Tree_simple_types@PEAVobject_t@@@std@@@std@@@0@@Z 0000000180009400 f i data.obj
 0001:00008400       ??$_Iter_cat@V?$_Tree_const_iterator@V?$_Tree_val@U?$_Tree_simple_types@PEAVlistener_t@@@std@@@std@@@std@@@std@@YA?AUbidirectional_iterator_tag@0@AEBV?$_Tree_const_iterator@V?$_Tree_val@U?$_Tree_simple_types@PEAVlistener_t@@@std@@@std@@@0@@Z 0000000180009400 f i data.obj
 0001:00008430       ??$destroy@U?$pair@$$CBHM@std@@@?$allocator@U?$_Tree_node@U?$pair@$$CBHM@std@@PEAX@std@@@std@@QEAAXPEAU?$pair@$$CBHM@1@@Z 0000000180009430 f i fms_config.obj
 0001:00008430       ??$destroy@PEAU?$_Tree_node@PEAVlistener_t@@PEAX@std@@@?$allocator@U?$_Tree_node@PEAVlistener_t@@PEAX@std@@@std@@QEAAXPEAPEAU?$_Tree_node@PEAVlistener_t@@PEAX@1@@Z 0000000180009430 f i data.obj
 0001:00008430       ??$destroy@PEAU?$_Tree_node@U?$pair@$$CBV?$basic_string@DU?$char_traits@D@std@@V?$allocator@D@2@@std@@PEAVfms_config_item_t@@@std@@PEAX@std@@@?$allocator@U?$_Tree_node@U?$pair@$$CBV?$basic_string@DU?$char_traits@D@std@@V?$allocator@D@2@@std@@PEAVfms_config_item_t@@@std@@PEAX@std@@@std@@QEAAXPEAPEAU?$_Tree_node@U?$pair@$$CBV?$basic_string@DU?$char_traits@D@std@@V?$allocator@D@2@@std@@PEAVfms_config_item_t@@@std@@PEAX@1@@Z 0000000180009430 f i fms_config.obj
 0001:00008430       ??$destroy@PEAVmfdpage_t@@@?$allocator@U?$_Tree_node@PEAVmfdpage_t@@PEAX@std@@@std@@QEAAXPEAPEAVmfdpage_t@@@Z 0000000180009430 f i in.obj
 0001:00008430       ??$destroy@PEAU?$_Tree_node@U?$pair@$$CBV?$basic_string@DU?$char_traits@D@std@@V?$allocator@D@2@@std@@M@std@@PEAX@std@@@?$allocator@U?$_Tree_node@U?$pair@$$CBV?$basic_string@DU?$char_traits@D@std@@V?$allocator@D@2@@std@@M@std@@PEAX@std@@@std@@QEAAXPEAPEAU?$_Tree_node@U?$pair@$$CBV?$basic_string@DU?$char_traits@D@std@@V?$allocator@D@2@@std@@M@std@@PEAX@1@@Z 0000000180009430 f i mfdpage_fms.obj
 0001:00008430       ?_Change_alloc@?$_Tree_alloc@$0A@U?$_Tree_base_types@U?$pair@$$CBV?$basic_string@DU?$char_traits@D@std@@V?$allocator@D@2@@std@@V12@@std@@V?$allocator@U?$pair@$$CBV?$basic_string@DU?$char_traits@D@std@@V?$allocator@D@2@@std@@V12@@std@@@2@@std@@@std@@QEAAXAEBU?$_Wrap_alloc@V?$allocator@U?$_Tree_node@U?$pair@$$CBV?$basic_string@DU?$char_traits@D@std@@V?$allocator@D@2@@std@@V12@@std@@PEAX@std@@@std@@@2@@Z 0000000180009430 f i mfdpage_led.obj
 0001:00008430       ??$destroy@PEAU?$_Tree_node@U?$pair@$$CBHM@std@@PEAX@std@@@?$allocator@U?$_Tree_node@U?$pair@$$CBHM@std@@PEAX@std@@@std@@QEAAXPEAPEAU?$_Tree_node@U?$pair@$$CBHM@std@@PEAX@1@@Z 0000000180009430 f i fms_config.obj
 0001:00008430       ??$destroy@U?$pair@$$CBHPEAVobject_t@@@std@@@?$allocator@U?$_Tree_node@U?$pair@$$CBHPEAVobject_t@@@std@@PEAX@std@@@std@@QEAAXPEAU?$pair@$$CBHPEAVobject_t@@@1@@Z 0000000180009430 f i mfdpage.obj
 0001:00008430       ?_Change_alloc@?$_String_alloc@$0A@U?$_String_base_types@DV?$allocator@D@std@@@std@@@std@@QEAAXAEBU?$_Wrap_alloc@V?$allocator@D@std@@@2@@Z 0000000180009430 f i data.obj
 0001:00008430       ?_Compat@?$_String_const_iterator@V?$_String_val@U?$_Simple_types@D@std@@@std@@@std@@QEBAXAEBV12@@Z 0000000180009430 f i mfdpage.obj
 0001:00008430       ?_Swapcomp@?$_Tree_comp@$0A@V?$_Tmap_traits@V?$basic_string@DU?$char_traits@D@std@@V?$allocator@D@2@@std@@V12@U?$less@V?$basic_string@DU?$char_traits@D@std@@V?$allocator@D@2@@std@@@2@V?$allocator@U?$pair@$$CBV?$basic_string@DU?$char_traits@D@std@@V?$allocator@D@2@@std@@V12@@std@@@2@$0A@@std@@@std@@QEAAXAEBU?$less@V?$basic_string@DU?$char_traits@D@std@@V?$allocator@D@2@@std@@@2@@Z 0000000180009430 f i mfdpage_led.obj
 0001:00008430       ??$destroy@PEAU?$_Tree_node@U?$pair@$$CBV?$basic_string@DU?$char_traits@D@std@@V?$allocator@D@2@@std@@PEAVfms_fp_item_t@@@std@@PEAX@std@@@?$allocator@U?$_Tree_node@U?$pair@$$CBV?$basic_string@DU?$char_traits@D@std@@V?$allocator@D@2@@std@@PEAVfms_fp_item_t@@@std@@PEAX@std@@@std@@QEAAXPEAPEAU?$_Tree_node@U?$pair@$$CBV?$basic_string@DU?$char_traits@D@std@@V?$allocator@D@2@@std@@PEAVfms_fp_item_t@@@std@@PEAX@1@@Z 0000000180009430 f i fms_fp.obj
 0001:00008430       ??$destroy@PEAD@?$allocator@D@std@@QEAAXPEAPEAD@Z 0000000180009430 f i main.obj
 0001:00008430       ??$destroy@U?$pair@$$CBHPEAVfms_fp_item_t@@@std@@@?$allocator@U?$_Tree_node@U?$pair@$$CBHPEAVfms_fp_item_t@@@std@@PEAX@std@@@std@@QEAAXPEAU?$pair@$$CBHPEAVfms_fp_item_t@@@1@@Z 0000000180009430 f i mfdpage_fms.obj
 0001:00008430       ??$destroy@PEAVobject_t@@@?$allocator@U?$_Tree_node@PEAVobject_t@@PEAX@std@@@std@@QEAAXPEAPEAVobject_t@@@Z 0000000180009430 f i data.obj
 0001:00008430       ??$destroy@PEAU?$_Tree_node@PEAVobject_t@@PEAX@std@@@?$allocator@U?$_Tree_node@PEAVobject_t@@PEAX@std@@@std@@QEAAXPEAPEAU?$_Tree_node@PEAVobject_t@@PEAX@1@@Z 0000000180009430 f i data.obj
 0001:00008430       ??$destroy@PEAU?$_Tree_node@U?$pair@$$CBV?$basic_string@DU?$char_traits@D@std@@V?$allocator@D@2@@std@@D@std@@PEAX@std@@@?$allocator@U?$_Tree_node@U?$pair@$$CBV?$basic_string@DU?$char_traits@D@std@@V?$allocator@D@2@@std@@D@std@@PEAX@std@@@std@@QEAAXPEAPEAU?$_Tree_node@U?$pair@$$CBV?$basic_string@DU?$char_traits@D@std@@V?$allocator@D@2@@std@@D@std@@PEAX@1@@Z 0000000180009430 f i mfdpage.obj
 0001:00008430       ??$destroy@PEAU?$_Tree_node@U?$pair@$$CBV?$basic_string@DU?$char_traits@D@std@@V?$allocator@D@2@@std@@H@std@@PEAX@std@@@?$allocator@U?$_Tree_node@U?$pair@$$CBV?$basic_string@DU?$char_traits@D@std@@V?$allocator@D@2@@std@@H@std@@PEAX@std@@@std@@QEAAXPEAPEAU?$_Tree_node@U?$pair@$$CBV?$basic_string@DU?$char_traits@D@std@@V?$allocator@D@2@@std@@H@std@@PEAX@1@@Z 0000000180009430 f i mfdpage.obj
 0001:00008430       ??$destroy@PEAU?$_Tree_node@U?$pair@$$CBV?$basic_string@DU?$char_traits@D@std@@V?$allocator@D@2@@std@@V12@@std@@PEAX@std@@@?$allocator@U?$_Tree_node@U?$pair@$$CBV?$basic_string@DU?$char_traits@D@std@@V?$allocator@D@2@@std@@V12@@std@@PEAX@std@@@std@@QEAAXPEAPEAU?$_Tree_node@U?$pair@$$CBV?$basic_string@DU?$char_traits@D@std@@V?$allocator@D@2@@std@@V12@@std@@PEAX@1@@Z 0000000180009430 f i tools.obj
 0001:00008430       ??$destroy@PEAU?$_Tree_node@U?$pair@$$CBHV?$basic_string@DU?$char_traits@D@std@@V?$allocator@D@2@@std@@@std@@PEAX@std@@@?$allocator@U?$_Tree_node@U?$pair@$$CBHV?$basic_string@DU?$char_traits@D@std@@V?$allocator@D@2@@std@@@std@@PEAX@std@@@std@@QEAAXPEAPEAU?$_Tree_node@U?$pair@$$CBHV?$basic_string@DU?$char_traits@D@std@@V?$allocator@D@2@@std@@@std@@PEAX@1@@Z 0000000180009430 f i out_saitek.obj
 0001:00008430       ??$destroy@PEAU?$_Tree_node@U?$pair@$$CBHPEAVfms_fp_item_t@@@std@@PEAX@std@@@?$allocator@U?$_Tree_node@U?$pair@$$CBHPEAVfms_fp_item_t@@@std@@PEAX@std@@@std@@QEAAXPEAPEAU?$_Tree_node@U?$pair@$$CBHPEAVfms_fp_item_t@@@std@@PEAX@1@@Z 0000000180009430 f i mfdpage_fms.obj
 0001:00008430       ??$destroy@PEAU?$_Tree_node@PEAVmfdpage_t@@PEAX@std@@@?$allocator@U?$_Tree_node@PEAVmfdpage_t@@PEAX@std@@@std@@QEAAXPEAPEAU?$_Tree_node@PEAVmfdpage_t@@PEAX@1@@Z 0000000180009430 f i in.obj
 0001:00008430       ??$destroy@PEAU?$_Tree_node@U?$pair@$$CBHPEAVobject_t@@@std@@PEAX@std@@@?$allocator@U?$_Tree_node@U?$pair@$$CBHPEAVobject_t@@@std@@PEAX@std@@@std@@QEAAXPEAPEAU?$_Tree_node@U?$pair@$$CBHPEAVobject_t@@@std@@PEAX@1@@Z 0000000180009430 f i mfdpage.obj
 0001:00008430       ?_Adopt@_Iterator_base0@std@@QEAAXPEBX@Z 0000000180009430 f i tools.obj
 0001:00008430       ??$destroy@PEAVlistener_t@@@?$allocator@U?$_Tree_node@PEAVlistener_t@@PEAX@std@@@std@@QEAAXPEAPEAVlistener_t@@@Z 0000000180009430 f i data.obj
 0001:00008440       ??0?$_Tree@V?$_Tset_traits@PEAVlistener_t@@U?$less@PEAVlistener_t@@@std@@V?$allocator@PEAVlistener_t@@@3@$0A@@std@@@std@@QEAA@AEBU?$less@PEAVlistener_t@@@1@AEBV?$allocator@PEAVlistener_t@@@1@@Z 0000000180009440 f i data.obj
 0001:00008480       ??0?$_Tree@V?$_Tset_traits@PEAVobject_t@@U?$less@PEAVobject_t@@@std@@V?$allocator@PEAVobject_t@@@3@$0A@@std@@@std@@QEAA@AEBU?$less@PEAVobject_t@@@1@AEBV?$allocator@PEAVobject_t@@@1@@Z 0000000180009480 f i data.obj
 0001:000084c0       ??0?$_Tree_alloc@$0A@U?$_Tree_base_types@PEAVlistener_t@@V?$allocator@PEAVlistener_t@@@std@@@std@@@std@@QEAA@AEBV?$allocator@PEAVlistener_t@@@1@@Z 00000001800094c0 f i data.obj
 0001:00008500       ??0?$_Tree_alloc@$0A@U?$_Tree_base_types@PEAVobject_t@@V?$allocator@PEAVobject_t@@@std@@@std@@@std@@QEAA@AEBV?$allocator@PEAVobject_t@@@1@@Z 0000000180009500 f i data.obj
 0001:00008540       ??0?$_Tree_buy@PEAVlistener_t@@V?$allocator@PEAVlistener_t@@@std@@@std@@QEAA@AEBV?$allocator@PEAVlistener_t@@@1@@Z 0000000180009540 f i data.obj
 0001:00008570       ??0?$_Tree_buy@PEAVobject_t@@V?$allocator@PEAVobject_t@@@std@@@std@@QEAA@AEBV?$allocator@PEAVobject_t@@@1@@Z 0000000180009570 f i data.obj
 0001:000085a0       ??0?$_Tree_comp@$0A@V?$_Tset_traits@PEAVlistener_t@@U?$less@PEAVlistener_t@@@std@@V?$allocator@PEAVlistener_t@@@3@$0A@@std@@@std@@QEAA@AEBU?$less@PEAVlistener_t@@@1@AEBV?$allocator@PEAVlistener_t@@@1@@Z 00000001800095a0 f i data.obj
 0001:000085d0       ??0?$_Tree_comp@$0A@V?$_Tset_traits@PEAVobject_t@@U?$less@PEAVobject_t@@@std@@V?$allocator@PEAVobject_t@@@3@$0A@@std@@@std@@QEAA@AEBU?$less@PEAVobject_t@@@1@AEBV?$allocator@PEAVobject_t@@@1@@Z 00000001800095d0 f i data.obj
 0001:00008600       ??0?$_Tree_const_iterator@V?$_Tree_val@U?$_Tree_simple_types@U?$pair@$$CBHM@std@@@std@@@std@@@std@@QEAA@PEAU?$_Tree_node@U?$pair@$$CBHM@std@@PEAX@1@PEBV?$_Tree_val@U?$_Tree_simple_types@U?$pair@$$CBHM@std@@@std@@@1@@Z 0000000180009600 f i fms_config.obj
 0001:00008600       ??0?$_Tree_const_iterator@V?$_Tree_val@U?$_Tree_simple_types@U?$pair@$$CBHPEAVfms_fp_item_t@@@std@@@std@@@std@@@std@@QEAA@PEAU?$_Tree_node@U?$pair@$$CBHPEAVfms_fp_item_t@@@std@@PEAX@1@PEBV?$_Tree_val@U?$_Tree_simple_types@U?$pair@$$CBHPEAVfms_fp_item_t@@@std@@@std@@@1@@Z 0000000180009600 f i mfdpage_fms.obj
 0001:00008600       ??0?$_Tree_const_iterator@V?$_Tree_val@U?$_Tree_simple_types@U?$pair@$$CBV?$basic_string@DU?$char_traits@D@std@@V?$allocator@D@2@@std@@V12@@std@@@std@@@std@@@std@@QEAA@PEAU?$_Tree_node@U?$pair@$$CBV?$basic_string@DU?$char_traits@D@std@@V?$allocator@D@2@@std@@V12@@std@@PEAX@1@PEBV?$_Tree_val@U?$_Tree_simple_types@U?$pair@$$CBV?$basic_string@DU?$char_traits@D@std@@V?$allocator@D@2@@std@@V12@@std@@@std@@@1@@Z 0000000180009600 f i tools.obj
 0001:00008600       ??0?$_Tree_const_iterator@V?$_Tree_val@U?$_Tree_simple_types@U?$pair@$$CBHPEAVobject_t@@@std@@@std@@@std@@@std@@QEAA@PEAU?$_Tree_node@U?$pair@$$CBHPEAVobject_t@@@std@@PEAX@1@PEBV?$_Tree_val@U?$_Tree_simple_types@U?$pair@$$CBHPEAVobject_t@@@std@@@std@@@1@@Z 0000000180009600 f i mfdpage.obj
 0001:00008600       ??0?$_Tree_const_iterator@V?$_Tree_val@U?$_Tree_simple_types@PEAVmfdpage_t@@@std@@@std@@@std@@QEAA@PEAU?$_Tree_node@PEAVmfdpage_t@@PEAX@1@PEBV?$_Tree_val@U?$_Tree_simple_types@PEAVmfdpage_t@@@std@@@1@@Z 0000000180009600 f i in.obj
 0001:00008600       ??0?$_Tree_const_iterator@V?$_Tree_val@U?$_Tree_simple_types@PEAVlistener_t@@@std@@@std@@@std@@QEAA@PEAU?$_Tree_node@PEAVlistener_t@@PEAX@1@PEBV?$_Tree_val@U?$_Tree_simple_types@PEAVlistener_t@@@std@@@1@@Z 0000000180009600 f i data.obj
 0001:00008600       ??0?$_Tree_const_iterator@V?$_Tree_val@U?$_Tree_simple_types@U?$pair@$$CBV?$basic_string@DU?$char_traits@D@std@@V?$allocator@D@2@@std@@H@std@@@std@@@std@@@std@@QEAA@PEAU?$_Tree_node@U?$pair@$$CBV?$basic_string@DU?$char_traits@D@std@@V?$allocator@D@2@@std@@H@std@@PEAX@1@PEBV?$_Tree_val@U?$_Tree_simple_types@U?$pair@$$CBV?$basic_string@DU?$char_traits@D@std@@V?$allocator@D@2@@std@@H@std@@@std@@@1@@Z 0000000180009600 f i mfdpage.obj
 0001:00008600       ??0?$_Tree_const_iterator@V?$_Tree_val@U?$_Tree_simple_types@U?$pair@$$CBV?$basic_string@DU?$char_traits@D@std@@V?$allocator@D@2@@std@@M@std@@@std@@@std@@@std@@QEAA@PEAU?$_Tree_node@U?$pair@$$CBV?$basic_string@DU?$char_traits@D@std@@V?$allocator@D@2@@std@@M@std@@PEAX@1@PEBV?$_Tree_val@U?$_Tree_simple_types@U?$pair@$$CBV?$basic_string@DU?$char_traits@D@std@@V?$allocator@D@2@@std@@M@std@@@std@@@1@@Z 0000000180009600 f i mfdpage_fms.obj
 0001:00008600       ??0?$_Tree_const_iterator@V?$_Tree_val@U?$_Tree_simple_types@U?$pair@$$CBV?$basic_string@DU?$char_traits@D@std@@V?$allocator@D@2@@std@@D@std@@@std@@@std@@@std@@QEAA@PEAU?$_Tree_node@U?$pair@$$CBV?$basic_string@DU?$char_traits@D@std@@V?$allocator@D@2@@std@@D@std@@PEAX@1@PEBV?$_Tree_val@U?$_Tree_simple_types@U?$pair@$$CBV?$basic_string@DU?$char_traits@D@std@@V?$allocator@D@2@@std@@D@std@@@std@@@1@@Z 0000000180009600 f i mfdpage.obj
 0001:00008600       ??0?$_Tree_const_iterator@V?$_Tree_val@U?$_Tree_simple_types@U?$pair@$$CBV?$basic_string@DU?$char_traits@D@std@@V?$allocator@D@2@@std@@PEAVfms_fp_item_t@@@std@@@std@@@std@@@std@@QEAA@PEAU?$_Tree_node@U?$pair@$$CBV?$basic_string@DU?$char_traits@D@std@@V?$allocator@D@2@@std@@PEAVfms_fp_item_t@@@std@@PEAX@1@PEBV?$_Tree_val@U?$_Tree_simple_types@U?$pair@$$CBV?$basic_string@DU?$char_traits@D@std@@V?$allocator@D@2@@std@@PEAVfms_fp_item_t@@@std@@@std@@@1@@Z 0000000180009600 f i fms_fp.obj
 0001:00008600       ??0?$_Tree_const_iterator@V?$_Tree_val@U?$_Tree_simple_types@U?$pair@$$CBV?$basic_string@DU?$char_traits@D@std@@V?$allocator@D@2@@std@@PEAVfms_config_item_t@@@std@@@std@@@std@@@std@@QEAA@PEAU?$_Tree_node@U?$pair@$$CBV?$basic_string@DU?$char_traits@D@std@@V?$allocator@D@2@@std@@PEAVfms_config_item_t@@@std@@PEAX@1@PEBV?$_Tree_val@U?$_Tree_simple_types@U?$pair@$$CBV?$basic_string@DU?$char_traits@D@std@@V?$allocator@D@2@@std@@PEAVfms_config_item_t@@@std@@@std@@@1@@Z 0000000180009600 f i fms_config.obj
 0001:00008600       ??0?$_Tree_const_iterator@V?$_Tree_val@U?$_Tree_simple_types@PEAVobject_t@@@std@@@std@@@std@@QEAA@PEAU?$_Tree_node@PEAVobject_t@@PEAX@1@PEBV?$_Tree_val@U?$_Tree_simple_types@PEAVobject_t@@@std@@@1@@Z 0000000180009600 f i data.obj
 0001:00008600       ??0?$_Tree_const_iterator@V?$_Tree_val@U?$_Tree_simple_types@U?$pair@$$CBHV?$basic_string@DU?$char_traits@D@std@@V?$allocator@D@2@@std@@@std@@@std@@@std@@@std@@QEAA@PEAU?$_Tree_node@U?$pair@$$CBHV?$basic_string@DU?$char_traits@D@std@@V?$allocator@D@2@@std@@@std@@PEAX@1@PEBV?$_Tree_val@U?$_Tree_simple_types@U?$pair@$$CBHV?$basic_string@DU?$char_traits@D@std@@V?$allocator@D@2@@std@@@std@@@std@@@1@@Z 0000000180009600 f i out_saitek.obj
 0001:00008640       ??0?$_Tree_unchecked_const_iterator@V?$_Tree_val@U?$_Tree_simple_types@U?$pair@$$CBV?$basic_string@DU?$char_traits@D@std@@V?$allocator@D@2@@std@@M@std@@@std@@@std@@U_Iterator_base0@2@@std@@QEAA@PEAU?$_Tree_node@U?$pair@$$CBV?$basic_string@DU?$char_traits@D@std@@V?$allocator@D@2@@std@@M@std@@PEAX@1@PEBV?$_Tree_val@U?$_Tree_simple_types@U?$pair@$$CBV?$basic_string@DU?$char_traits@D@std@@V?$allocator@D@2@@std@@M@std@@@std@@@1@@Z 0000000180009640 f i mfdpage_fms.obj
 0001:00008640       ??0?$_Tree_unchecked_const_iterator@V?$_Tree_val@U?$_Tree_simple_types@U?$pair@$$CBHPEAVfms_fp_item_t@@@std@@@std@@@std@@U_Iterator_base0@2@@std@@QEAA@PEAU?$_Tree_node@U?$pair@$$CBHPEAVfms_fp_item_t@@@std@@PEAX@1@PEBV?$_Tree_val@U?$_Tree_simple_types@U?$pair@$$CBHPEAVfms_fp_item_t@@@std@@@std@@@1@@Z 0000000180009640 f i mfdpage_fms.obj
 0001:00008640       ??0?$_Tree_unchecked_const_iterator@V?$_Tree_val@U?$_Tree_simple_types@U?$pair@$$CBV?$basic_string@DU?$char_traits@D@std@@V?$allocator@D@2@@std@@PEAVfms_fp_item_t@@@std@@@std@@@std@@U_Iterator_base0@2@@std@@QEAA@PEAU?$_Tree_node@U?$pair@$$CBV?$basic_string@DU?$char_traits@D@std@@V?$allocator@D@2@@std@@PEAVfms_fp_item_t@@@std@@PEAX@1@PEBV?$_Tree_val@U?$_Tree_simple_types@U?$pair@$$CBV?$basic_string@DU?$char_traits@D@std@@V?$allocator@D@2@@std@@PEAVfms_fp_item_t@@@std@@@std@@@1@@Z 0000000180009640 f i fms_fp.obj
 0001:00008640       ??0?$_Tree_unchecked_const_iterator@V?$_Tree_val@U?$_Tree_simple_types@U?$pair@$$CBHM@std@@@std@@@std@@U_Iterator_base0@2@@std@@QEAA@PEAU?$_Tree_node@U?$pair@$$CBHM@std@@PEAX@1@PEBV?$_Tree_val@U?$_Tree_simple_types@U?$pair@$$CBHM@std@@@std@@@1@@Z 0000000180009640 f i fms_config.obj
 0001:00008640       ??0?$_Tree_unchecked_const_iterator@V?$_Tree_val@U?$_Tree_simple_types@PEAVmfdpage_t@@@std@@@std@@U_Iterator_base0@2@@std@@QEAA@PEAU?$_Tree_node@PEAVmfdpage_t@@PEAX@1@PEBV?$_Tree_val@U?$_Tree_simple_types@PEAVmfdpage_t@@@std@@@1@@Z 0000000180009640 f i in.obj
 0001:00008640       ??0?$_Tree_unchecked_const_iterator@V?$_Tree_val@U?$_Tree_simple_types@U?$pair@$$CBV?$basic_string@DU?$char_traits@D@std@@V?$allocator@D@2@@std@@D@std@@@std@@@std@@U_Iterator_base0@2@@std@@QEAA@PEAU?$_Tree_node@U?$pair@$$CBV?$basic_string@DU?$char_traits@D@std@@V?$allocator@D@2@@std@@D@std@@PEAX@1@PEBV?$_Tree_val@U?$_Tree_simple_types@U?$pair@$$CBV?$basic_string@DU?$char_traits@D@std@@V?$allocator@D@2@@std@@D@std@@@std@@@1@@Z 0000000180009640 f i mfdpage.obj
 0001:00008640       ??0?$_Tree_unchecked_const_iterator@V?$_Tree_val@U?$_Tree_simple_types@U?$pair@$$CBV?$basic_string@DU?$char_traits@D@std@@V?$allocator@D@2@@std@@H@std@@@std@@@std@@U_Iterator_base0@2@@std@@QEAA@PEAU?$_Tree_node@U?$pair@$$CBV?$basic_string@DU?$char_traits@D@std@@V?$allocator@D@2@@std@@H@std@@PEAX@1@PEBV?$_Tree_val@U?$_Tree_simple_types@U?$pair@$$CBV?$basic_string@DU?$char_traits@D@std@@V?$allocator@D@2@@std@@H@std@@@std@@@1@@Z 0000000180009640 f i mfdpage.obj
 0001:00008640       ??0?$_Tree_unchecked_const_iterator@V?$_Tree_val@U?$_Tree_simple_types@U?$pair@$$CBHPEAVobject_t@@@std@@@std@@@std@@U_Iterator_base0@2@@std@@QEAA@PEAU?$_Tree_node@U?$pair@$$CBHPEAVobject_t@@@std@@PEAX@1@PEBV?$_Tree_val@U?$_Tree_simple_types@U?$pair@$$CBHPEAVobject_t@@@std@@@std@@@1@@Z 0000000180009640 f i mfdpage.obj
 0001:00008640       ??0?$_Tree_unchecked_const_iterator@V?$_Tree_val@U?$_Tree_simple_types@U?$pair@$$CBV?$basic_string@DU?$char_traits@D@std@@V?$allocator@D@2@@std@@V12@@std@@@std@@@std@@U_Iterator_base0@2@@std@@QEAA@PEAU?$_Tree_node@U?$pair@$$CBV?$basic_string@DU?$char_traits@D@std@@V?$allocator@D@2@@std@@V12@@std@@PEAX@1@PEBV?$_Tree_val@U?$_Tree_simple_types@U?$pair@$$CBV?$basic_string@DU?$char_traits@D@std@@V?$allocator@D@2@@std@@V12@@std@@@std@@@1@@Z 0000000180009640 f i tools.obj
 0001:00008640       ??0?$_Tree_unchecked_const_iterator@V?$_Tree_val@U?$_Tree_simple_types@PEAVobject_t@@@std@@@std@@U_Iterator_base0@2@@std@@QEAA@PEAU?$_Tree_node@PEAVobject_t@@PEAX@1@PEBV?$_Tree_val@U?$_Tree_simple_types@PEAVobject_t@@@std@@@1@@Z 0000000180009640 f i data.obj
 0001:00008640       ??0?$_Tree_unchecked_const_iterator@V?$_Tree_val@U?$_Tree_simple_types@U?$pair@$$CBHV?$basic_string@DU?$char_traits@D@std@@V?$allocator@D@2@@std@@@std@@@std@@@std@@U_Iterator_base0@2@@std@@QEAA@PEAU?$_Tree_node@U?$pair@$$CBHV?$basic_string@DU?$char_traits@D@std@@V?$allocator@D@2@@std@@@std@@PEAX@1@PEBV?$_Tree_val@U?$_Tree_simple_types@U?$pair@$$CBHV?$basic_string@DU?$char_traits@D@std@@V?$allocator@D@2@@std@@@std@@@std@@@1@@Z 0000000180009640 f i out_saitek.obj
 0001:00008640       ??0?$_Tree_unchecked_const_iterator@V?$_Tree_val@U?$_Tree_simple_types@PEAVlistener_t@@@std@@@std@@U_Iterator_base0@2@@std@@QEAA@PEAU?$_Tree_node@PEAVlistener_t@@PEAX@1@PEBV?$_Tree_val@U?$_Tree_simple_types@PEAVlistener_t@@@std@@@1@@Z 0000000180009640 f i data.obj
 0001:00008640       ??0?$_Tree_unchecked_const_iterator@V?$_Tree_val@U?$_Tree_simple_types@U?$pair@$$CBV?$basic_string@DU?$char_traits@D@std@@V?$allocator@D@2@@std@@PEAVfms_config_item_t@@@std@@@std@@@std@@U_Iterator_base0@2@@std@@QEAA@PEAU?$_Tree_node@U?$pair@$$CBV?$basic_string@DU?$char_traits@D@std@@V?$allocator@D@2@@std@@PEAVfms_config_item_t@@@std@@PEAX@1@PEBV?$_Tree_val@U?$_Tree_simple_types@U?$pair@$$CBV?$basic_string@DU?$char_traits@D@std@@V?$allocator@D@2@@std@@PEAVfms_config_item_t@@@std@@@std@@@1@@Z 0000000180009640 f i fms_config.obj
 0001:00008680       ??0?$basic_ostringstream@DU?$char_traits@D@std@@V?$allocator@D@2@@std@@QEAA@H@Z 0000000180009680 f i data.obj
 0001:00008750       ??0?$basic_string@DU?$char_traits@D@std@@V?$allocator@D@2@@std@@QEAA@PEBD_K@Z 0000000180009750 f i data.obj
 0001:000087b0       ??0?$basic_stringbuf@DU?$char_traits@D@std@@V?$allocator@D@2@@std@@QEAA@H@Z 00000001800097b0 f i data.obj
 0001:00008820       ??0?$fpos@H@std@@QEAA@_J@Z 0000000180009820 f i data.obj
 0001:00008860       ??0?$set@PEAVlistener_t@@U?$less@PEAVlistener_t@@@std@@V?$allocator@PEAVlistener_t@@@3@@std@@QEAA@XZ 0000000180009860 f i data.obj
 0001:00008890       ??0?$set@PEAVobject_t@@U?$less@PEAVobject_t@@@std@@V?$allocator@PEAVobject_t@@@3@@std@@QEAA@XZ 0000000180009890 f i data.obj
 0001:000088c0       ??0object_t@@QEAA@XZ       00000001800098c0 f i data.obj
 0001:000088e0       ??0provider_t@@QEAA@XZ     00000001800098e0 f i data.obj
 0001:00008900       ??1?$_Tree@V?$_Tset_traits@PEAVmfdpage_t@@U?$less@PEAVmfdpage_t@@@std@@V?$allocator@PEAVmfdpage_t@@@3@$0A@@std@@@std@@QEAA@XZ 0000000180009900 f i in.obj
 0001:00008900       ??1?$_Tree@V?$_Tset_traits@PEAVlistener_t@@U?$less@PEAVlistener_t@@@std@@V?$allocator@PEAVlistener_t@@@3@$0A@@std@@@std@@QEAA@XZ 0000000180009900 f i data.obj
 0001:00008900       ??1?$_Tree@V?$_Tset_traits@PEAVobject_t@@U?$less@PEAVobject_t@@@std@@V?$allocator@PEAVobject_t@@@3@$0A@@std@@@std@@QEAA@XZ 0000000180009900 f i data.obj
 0001:00008930       ??1?$basic_ostringstream@DU?$char_traits@D@std@@V?$allocator@D@2@@std@@UEAA@XZ 0000000180009930 f i data.obj
 0001:000089c0       ??1?$basic_stringbuf@DU?$char_traits@D@std@@V?$allocator@D@2@@std@@UEAA@XZ 00000001800099c0 f i data.obj
 0001:00008a00       ??1?$set@PEAVmfdpage_t@@U?$less@PEAVmfdpage_t@@@std@@V?$allocator@PEAVmfdpage_t@@@3@@std@@QEAA@XZ 0000000180009a00 f i in.obj
 0001:00008a00       ??1?$set@PEAVlistener_t@@U?$less@PEAVlistener_t@@@std@@V?$allocator@PEAVlistener_t@@@3@@std@@QEAA@XZ 0000000180009a00 f i data.obj
 0001:00008a00       ??1?$set@PEAVobject_t@@U?$less@PEAVobject_t@@@std@@V?$allocator@PEAVobject_t@@@3@@std@@QEAA@XZ 0000000180009a00 f i data.obj
 0001:00008a20       ??1object_t@@UEAA@XZ       0000000180009a20 f i data.obj
 0001:00008a40       ??1provider_t@@UEAA@XZ     0000000180009a40 f i data.obj
 0001:00008a60       ??4?$basic_string@DU?$char_traits@D@std@@V?$allocator@D@2@@std@@QEAAAEAV01@AEBV01@@Z 0000000180009a60 f i data.obj
 0001:00008b00       ??8?$_Tree_const_iterator@V?$_Tree_val@U?$_Tree_simple_types@U?$pair@$$CBHM@std@@@std@@@std@@@std@@QEBA_NAEBV01@@Z 0000000180009b00 f i fms_config.obj
 0001:00008b00       ??8?$_Tree_const_iterator@V?$_Tree_val@U?$_Tree_simple_types@PEAVmfdpage_t@@@std@@@std@@@std@@QEBA_NAEBV01@@Z 0000000180009b00 f i in.obj
 0001:00008b00       ??8?$_Tree_const_iterator@V?$_Tree_val@U?$_Tree_simple_types@U?$pair@$$CBHPEAVfms_fp_item_t@@@std@@@std@@@std@@@std@@QEBA_NAEBV01@@Z 0000000180009b00 f i mfdpage_fms.obj
 0001:00008b00       ??8?$_Tree_const_iterator@V?$_Tree_val@U?$_Tree_simple_types@PEAVlistener_t@@@std@@@std@@@std@@QEBA_NAEBV01@@Z 0000000180009b00 f i data.obj
 0001:00008b00       ??8?$_Tree_const_iterator@V?$_Tree_val@U?$_Tree_simple_types@U?$pair@$$CBV?$basic_string@DU?$char_traits@D@std@@V?$allocator@D@2@@std@@PEAVfms_fp_item_t@@@std@@@std@@@std@@@std@@QEBA_NAEBV01@@Z 0000000180009b00 f i fms_fp.obj
 0001:00008b00       ??8?$_Tree_const_iterator@V?$_Tree_val@U?$_Tree_simple_types@PEAVobject_t@@@std@@@std@@@std@@QEBA_NAEBV01@@Z 0000000180009b00 f i data.obj
 0001:00008b00       ??8?$_Tree_const_iterator@V?$_Tree_val@U?$_Tree_simple_types@U?$pair@$$CBHV?$basic_string@DU?$char_traits@D@std@@V?$allocator@D@2@@std@@@std@@@std@@@std@@@std@@QEBA_NAEBV01@@Z 0000000180009b00 f i out_saitek.obj
 0001:00008b00       ??8?$_Tree_const_iterator@V?$_Tree_val@U?$_Tree_simple_types@U?$pair@$$CBV?$basic_string@DU?$char_traits@D@std@@V?$allocator@D@2@@std@@PEAVfms_config_item_t@@@std@@@std@@@std@@@std@@QEBA_NAEBV01@@Z 0000000180009b00 f i fms_config.obj
 0001:00008b00       ??8?$_Tree_const_iterator@V?$_Tree_val@U?$_Tree_simple_types@U?$pair@$$CBV?$basic_string@DU?$char_traits@D@std@@V?$allocator@D@2@@std@@V12@@std@@@std@@@std@@@std@@QEBA_NAEBV01@@Z 0000000180009b00 f i tools.obj
 0001:00008b00       ??8?$_Tree_const_iterator@V?$_Tree_val@U?$_Tree_simple_types@U?$pair@$$CBV?$basic_string@DU?$char_traits@D@std@@V?$allocator@D@2@@std@@D@std@@@std@@@std@@@std@@QEBA_NAEBV01@@Z 0000000180009b00 f i mfdpage.obj
 0001:00008b00       ??8?$_Tree_const_iterator@V?$_Tree_val@U?$_Tree_simple_types@U?$pair@$$CBV?$basic_string@DU?$char_traits@D@std@@V?$allocator@D@2@@std@@M@std@@@std@@@std@@@std@@QEBA_NAEBV01@@Z 0000000180009b00 f i mfdpage_fms.obj
 0001:00008b00       ??8?$_Tree_const_iterator@V?$_Tree_val@U?$_Tree_simple_types@U?$pair@$$CBV?$basic_string@DU?$char_traits@D@std@@V?$allocator@D@2@@std@@H@std@@@std@@@std@@@std@@QEBA_NAEBV01@@Z 0000000180009b00 f i mfdpage.obj
 0001:00008b00       ??8?$_Tree_const_iterator@V?$_Tree_val@U?$_Tree_simple_types@U?$pair@$$CBHPEAVobject_t@@@std@@@std@@@std@@@std@@QEBA_NAEBV01@@Z 0000000180009b00 f i mfdpage.obj
 0001:00008b40       ??B?$fpos@H@std@@QEBA_JXZ  0000000180009b40 f i data.obj
 0001:00008b60       ??D?$_Tree_const_iterator@V?$_Tree_val@U?$_Tree_simple_types@U?$pair@$$CBHPEAVobject_t@@@std@@@std@@@std@@@std@@QEBAAEBU?$pair@$$CBHPEAVobject_t@@@1@XZ 0000000180009b60 f i mfdpage.obj
 0001:00008b60       ??D?$_Tree_const_iterator@V?$_Tree_val@U?$_Tree_simple_types@PEAVmfdpage_t@@@std@@@std@@@std@@QEBAAEBQEAVmfdpage_t@@XZ 0000000180009b60 f i in.obj
 0001:00008b60       ??D?$_Tree_const_iterator@V?$_Tree_val@U?$_Tree_simple_types@U?$pair@$$CBV?$basic_string@DU?$char_traits@D@std@@V?$allocator@D@2@@std@@PEAVfms_config_item_t@@@std@@@std@@@std@@@std@@QEBAAEBU?$pair@$$CBV?$basic_string@DU?$char_traits@D@std@@V?$allocator@D@2@@std@@PEAVfms_config_item_t@@@1@XZ 0000000180009b60 f i fms_config.obj
 0001:00008b60       ??D?$_Tree_const_iterator@V?$_Tree_val@U?$_Tree_simple_types@U?$pair@$$CBHPEAVfms_fp_item_t@@@std@@@std@@@std@@@std@@QEBAAEBU?$pair@$$CBHPEAVfms_fp_item_t@@@1@XZ 0000000180009b60 f i mfdpage_fms.obj
 0001:00008b60       ??D?$_Tree_const_iterator@V?$_Tree_val@U?$_Tree_simple_types@PEAVobject_t@@@std@@@std@@@std@@QEBAAEBQEAVobject_t@@XZ 0000000180009b60 f i data.obj
 0001:00008b60       ??D?$_Tree_const_iterator@V?$_Tree_val@U?$_Tree_simple_types@U?$pair@$$CBV?$basic_string@DU?$char_traits@D@std@@V?$allocator@D@2@@std@@M@std@@@std@@@std@@@std@@QEBAAEBU?$pair@$$CBV?$basic_string@DU?$char_traits@D@std@@V?$allocator@D@2@@std@@M@1@XZ 0000000180009b60 f i mfdpage_fms.obj
 0001:00008b60       ??D?$_Tree_const_iterator@V?$_Tree_val@U?$_Tree_simple_types@U?$pair@$$CBV?$basic_string@DU?$char_traits@D@std@@V?$allocator@D@2@@std@@D@std@@@std@@@std@@@std@@QEBAAEBU?$pair@$$CBV?$basic_string@DU?$char_traits@D@std@@V?$allocator@D@2@@std@@D@1@XZ 0000000180009b60 f i mfdpage.obj
 0001:00008b60       ??D?$_Tree_const_iterator@V?$_Tree_val@U?$_Tree_simple_types@PEAVlistener_t@@@std@@@std@@@std@@QEBAAEBQEAVlistener_t@@XZ 0000000180009b60 f i data.obj
 0001:00008b60       ??D?$_Tree_const_iterator@V?$_Tree_val@U?$_Tree_simple_types@U?$pair@$$CBHV?$basic_string@DU?$char_traits@D@std@@V?$allocator@D@2@@std@@@std@@@std@@@std@@@std@@QEBAAEBU?$pair@$$CBHV?$basic_string@DU?$char_traits@D@std@@V?$allocator@D@2@@std@@@1@XZ 0000000180009b60 f i out_saitek.obj
 0001:00008b60       ??D?$_Tree_const_iterator@V?$_Tree_val@U?$_Tree_simple_types@U?$pair@$$CBV?$basic_string@DU?$char_traits@D@std@@V?$allocator@D@2@@std@@PEAVfms_fp_item_t@@@std@@@std@@@std@@@std@@QEBAAEBU?$pair@$$CBV?$basic_string@DU?$char_traits@D@std@@V?$allocator@D@2@@std@@PEAVfms_fp_item_t@@@1@XZ 0000000180009b60 f i fms_fp.obj
 0001:00008b60       ??D?$_Tree_const_iterator@V?$_Tree_val@U?$_Tree_simple_types@U?$pair@$$CBV?$basic_string@DU?$char_traits@D@std@@V?$allocator@D@2@@std@@H@std@@@std@@@std@@@std@@QEBAAEBU?$pair@$$CBV?$basic_string@DU?$char_traits@D@std@@V?$allocator@D@2@@std@@H@1@XZ 0000000180009b60 f i mfdpage.obj
 0001:00008b60       ??D?$_Tree_const_iterator@V?$_Tree_val@U?$_Tree_simple_types@U?$pair@$$CBV?$basic_string@DU?$char_traits@D@std@@V?$allocator@D@2@@std@@V12@@std@@@std@@@std@@@std@@QEBAAEBU?$pair@$$CBV?$basic_string@DU?$char_traits@D@std@@V?$allocator@D@2@@std@@V12@@1@XZ 0000000180009b60 f i tools.obj
 0001:00008b80       ??E?$_Tree_const_iterator@V?$_Tree_val@U?$_Tree_simple_types@U?$pair@$$CBV?$basic_string@DU?$char_traits@D@std@@V?$allocator@D@2@@std@@V12@@std@@@std@@@std@@@std@@QEAA?AV01@H@Z 0000000180009b80 f i tools.obj
 0001:00008b80       ??E?$_Tree_const_iterator@V?$_Tree_val@U?$_Tree_simple_types@U?$pair@$$CBV?$basic_string@DU?$char_traits@D@std@@V?$allocator@D@2@@std@@H@std@@@std@@@std@@@std@@QEAA?AV01@H@Z 0000000180009b80 f i mfdpage.obj
 0001:00008b80       ??E?$_Tree_const_iterator@V?$_Tree_val@U?$_Tree_simple_types@U?$pair@$$CBHPEAVfms_fp_item_t@@@std@@@std@@@std@@@std@@QEAA?AV01@H@Z 0000000180009b80 f i fms_fp.obj
 0001:00008b80       ??E?$_Tree_const_iterator@V?$_Tree_val@U?$_Tree_simple_types@U?$pair@$$CBV?$basic_string@DU?$char_traits@D@std@@V?$allocator@D@2@@std@@M@std@@@std@@@std@@@std@@QEAA?AV01@H@Z 0000000180009b80 f i fms_config.obj
 0001:00008b80       ??E?$_Tree_const_iterator@V?$_Tree_val@U?$_Tree_simple_types@U?$pair@$$CBV?$basic_string@DU?$char_traits@D@std@@V?$allocator@D@2@@std@@PEAVfms_config_item_t@@@std@@@std@@@std@@@std@@QEAA?AV01@H@Z 0000000180009b80 f i fms_config.obj
 0001:00008b80       ??E?$_Tree_const_iterator@V?$_Tree_val@U?$_Tree_simple_types@U?$pair@$$CBHPEAVobject_t@@@std@@@std@@@std@@@std@@QEAA?AV01@H@Z 0000000180009b80 f i mfdpage.obj
 0001:00008b80       ??E?$_Tree_const_iterator@V?$_Tree_val@U?$_Tree_simple_types@PEAVobject_t@@@std@@@std@@@std@@QEAA?AV01@H@Z 0000000180009b80 f i data.obj
 0001:00008b80       ??E?$_Tree_const_iterator@V?$_Tree_val@U?$_Tree_simple_types@U?$pair@$$CBHV?$basic_string@DU?$char_traits@D@std@@V?$allocator@D@2@@std@@@std@@@std@@@std@@@std@@QEAA?AV01@H@Z 0000000180009b80 f i mfdpage.obj
 0001:00008b80       ??E?$_Tree_const_iterator@V?$_Tree_val@U?$_Tree_simple_types@PEAVlistener_t@@@std@@@std@@@std@@QEAA?AV01@H@Z 0000000180009b80 f i data.obj
 0001:00008b80       ??E?$_Tree_const_iterator@V?$_Tree_val@U?$_Tree_simple_types@PEAVmfdpage_t@@@std@@@std@@@std@@QEAA?AV01@H@Z 0000000180009b80 f i in.obj
 0001:00008b80       ??E?$_Tree_const_iterator@V?$_Tree_val@U?$_Tree_simple_types@U?$pair@$$CBV?$basic_string@DU?$char_traits@D@std@@V?$allocator@D@2@@std@@PEAVfms_fp_item_t@@@std@@@std@@@std@@@std@@QEAA?AV01@H@Z 0000000180009b80 f i fms_fp.obj
 0001:00008bd0       ??E?$_Tree_const_iterator@V?$_Tree_val@U?$_Tree_simple_types@U?$pair@$$CBV?$basic_string@DU?$char_traits@D@std@@V?$allocator@D@2@@std@@V12@@std@@@std@@@std@@@std@@QEAAAEAV01@XZ 0000000180009bd0 f i tools.obj
 0001:00008bd0       ??E?$_Tree_const_iterator@V?$_Tree_val@U?$_Tree_simple_types@U?$pair@$$CBHPEAVobject_t@@@std@@@std@@@std@@@std@@QEAAAEAV01@XZ 0000000180009bd0 f i mfdpage.obj
 0001:00008bd0       ??E?$_Tree_const_iterator@V?$_Tree_val@U?$_Tree_simple_types@U?$pair@$$CBHV?$basic_string@DU?$char_traits@D@std@@V?$allocator@D@2@@std@@@std@@@std@@@std@@@std@@QEAAAEAV01@XZ 0000000180009bd0 f i out_saitek.obj
 0001:00008bd0       ??E?$_Tree_const_iterator@V?$_Tree_val@U?$_Tree_simple_types@U?$pair@$$CBV?$basic_string@DU?$char_traits@D@std@@V?$allocator@D@2@@std@@D@std@@@std@@@std@@@std@@QEAAAEAV01@XZ 0000000180009bd0 f i mfdpage.obj
 0001:00008bd0       ??E?$_Tree_const_iterator@V?$_Tree_val@U?$_Tree_simple_types@U?$pair@$$CBV?$basic_string@DU?$char_traits@D@std@@V?$allocator@D@2@@std@@PEAVfms_config_item_t@@@std@@@std@@@std@@@std@@QEAAAEAV01@XZ 0000000180009bd0 f i fms_config.obj
 0001:00008bd0       ??E?$_Tree_const_iterator@V?$_Tree_val@U?$_Tree_simple_types@U?$pair@$$CBV?$basic_string@DU?$char_traits@D@std@@V?$allocator@D@2@@std@@H@std@@@std@@@std@@@std@@QEAAAEAV01@XZ 0000000180009bd0 f i mfdpage.obj
 0001:00008bd0       ??E?$_Tree_const_iterator@V?$_Tree_val@U?$_Tree_simple_types@PEAVmfdpage_t@@@std@@@std@@@std@@QEAAAEAV01@XZ 0000000180009bd0 f i in.obj
 0001:00008bd0       ??E?$_Tree_const_iterator@V?$_Tree_val@U?$_Tree_simple_types@U?$pair@$$CBHPEAVfms_fp_item_t@@@std@@@std@@@std@@@std@@QEAAAEAV01@XZ 0000000180009bd0 f i mfdpage_fms.obj
 0001:00008bd0       ??E?$_Tree_const_iterator@V?$_Tree_val@U?$_Tree_simple_types@U?$pair@$$CBHM@std@@@std@@@std@@@std@@QEAAAEAV01@XZ 0000000180009bd0 f i fms_config.obj
 0001:00008bd0       ??E?$_Tree_const_iterator@V?$_Tree_val@U?$_Tree_simple_types@U?$pair@$$CBV?$basic_string@DU?$char_traits@D@std@@V?$allocator@D@2@@std@@PEAVfms_fp_item_t@@@std@@@std@@@std@@@std@@QEAAAEAV01@XZ 0000000180009bd0 f i fms_fp.obj
 0001:00008bd0       ??E?$_Tree_const_iterator@V?$_Tree_val@U?$_Tree_simple_types@U?$pair@$$CBV?$basic_string@DU?$char_traits@D@std@@V?$allocator@D@2@@std@@M@std@@@std@@@std@@@std@@QEAAAEAV01@XZ 0000000180009bd0 f i mfdpage_fms.obj
 0001:00008bd0       ??E?$_Tree_const_iterator@V?$_Tree_val@U?$_Tree_simple_types@PEAVobject_t@@@std@@@std@@@std@@QEAAAEAV01@XZ 0000000180009bd0 f i data.obj
 0001:00008bd0       ??E?$_Tree_const_iterator@V?$_Tree_val@U?$_Tree_simple_types@PEAVlistener_t@@@std@@@std@@@std@@QEAAAEAV01@XZ 0000000180009bd0 f i data.obj
 0001:00008bf0       ??E?$_Tree_unchecked_const_iterator@V?$_Tree_val@U?$_Tree_simple_types@PEAVobject_t@@@std@@@std@@U_Iterator_base0@2@@std@@QEAAAEAV01@XZ 0000000180009bf0 f i data.obj
 0001:00008bf0       ??E?$_Tree_unchecked_const_iterator@V?$_Tree_val@U?$_Tree_simple_types@U?$pair@$$CBV?$basic_string@DU?$char_traits@D@std@@V?$allocator@D@2@@std@@H@std@@@std@@@std@@U_Iterator_base0@2@@std@@QEAAAEAV01@XZ 0000000180009bf0 f i mfdpage.obj
 0001:00008bf0       ??E?$_Tree_unchecked_const_iterator@V?$_Tree_val@U?$_Tree_simple_types@U?$pair@$$CBV?$basic_string@DU?$char_traits@D@std@@V?$allocator@D@2@@std@@M@std@@@std@@@std@@U_Iterator_base0@2@@std@@QEAAAEAV01@XZ 0000000180009bf0 f i mfdpage_fms.obj
 0001:00008bf0       ??E?$_Tree_unchecked_const_iterator@V?$_Tree_val@U?$_Tree_simple_types@U?$pair@$$CBHPEAVobject_t@@@std@@@std@@@std@@U_Iterator_base0@2@@std@@QEAAAEAV01@XZ 0000000180009bf0 f i mfdpage.obj
 0001:00008bf0       ??E?$_Tree_unchecked_const_iterator@V?$_Tree_val@U?$_Tree_simple_types@U?$pair@$$CBV?$basic_string@DU?$char_traits@D@std@@V?$allocator@D@2@@std@@PEAVfms_fp_item_t@@@std@@@std@@@std@@U_Iterator_base0@2@@std@@QEAAAEAV01@XZ 0000000180009bf0 f i fms_fp.obj
 0001:00008bf0       ??E?$_Tree_unchecked_const_iterator@V?$_Tree_val@U?$_Tree_simple_types@U?$pair@$$CBHM@std@@@std@@@std@@U_Iterator_base0@2@@std@@QEAAAEAV01@XZ 0000000180009bf0 f i fms_config.obj
 0001:00008bf0       ??E?$_Tree_unchecked_const_iterator@V?$_Tree_val@U?$_Tree_simple_types@U?$pair@$$CBHPEAVfms_fp_item_t@@@std@@@std@@@std@@U_Iterator_base0@2@@std@@QEAAAEAV01@XZ 0000000180009bf0 f i mfdpage_fms.obj
 0001:00008bf0       ??E?$_Tree_unchecked_const_iterator@V?$_Tree_val@U?$_Tree_simple_types@U?$pair@$$CBV?$basic_string@DU?$char_traits@D@std@@V?$allocator@D@2@@std@@V12@@std@@@std@@@std@@U_Iterator_base0@2@@std@@QEAAAEAV01@XZ 0000000180009bf0 f i tools.obj
 0001:00008bf0       ??E?$_Tree_unchecked_const_iterator@V?$_Tree_val@U?$_Tree_simple_types@PEAVmfdpage_t@@@std@@@std@@U_Iterator_base0@2@@std@@QEAAAEAV01@XZ 0000000180009bf0 f i in.obj
 0001:00008bf0       ??E?$_Tree_unchecked_const_iterator@V?$_Tree_val@U?$_Tree_simple_types@PEAVlistener_t@@@std@@@std@@U_Iterator_base0@2@@std@@QEAAAEAV01@XZ 0000000180009bf0 f i data.obj
 0001:00008bf0       ??E?$_Tree_unchecked_const_iterator@V?$_Tree_val@U?$_Tree_simple_types@U?$pair@$$CBHV?$basic_string@DU?$char_traits@D@std@@V?$allocator@D@2@@std@@@std@@@std@@@std@@U_Iterator_base0@2@@std@@QEAAAEAV01@XZ 0000000180009bf0 f i out_saitek.obj
 0001:00008bf0       ??E?$_Tree_unchecked_const_iterator@V?$_Tree_val@U?$_Tree_simple_types@U?$pair@$$CBV?$basic_string@DU?$char_traits@D@std@@V?$allocator@D@2@@std@@PEAVfms_config_item_t@@@std@@@std@@@std@@U_Iterator_base0@2@@std@@QEAAAEAV01@XZ 0000000180009bf0 f i fms_config.obj
 0001:00008bf0       ??E?$_Tree_unchecked_const_iterator@V?$_Tree_val@U?$_Tree_simple_types@U?$pair@$$CBV?$basic_string@DU?$char_traits@D@std@@V?$allocator@D@2@@std@@D@std@@@std@@@std@@U_Iterator_base0@2@@std@@QEAAAEAV01@XZ 0000000180009bf0 f i mfdpage.obj
 0001:00008cb0       ??R?$less@PEAVobject_t@@@std@@QEBA_NAEBQEAVobject_t@@0@Z 0000000180009cb0 f i data.obj
 0001:00008cb0       ??R?$less@PEAVmfdpage_t@@@std@@QEBA_NAEBQEAVmfdpage_t@@0@Z 0000000180009cb0 f i in.obj
 0001:00008cb0       ??R?$less@PEAVlistener_t@@@std@@QEBA_NAEBQEAVlistener_t@@0@Z 0000000180009cb0 f i data.obj
 0001:00008cf0       ??_D?$basic_ostringstream@DU?$char_traits@D@std@@V?$allocator@D@2@@std@@QEAAXXZ 0000000180009cf0 f i data.obj
 0001:00008d28       ??_E?$basic_ostringstream@DU?$char_traits@D@std@@V?$allocator@D@2@@std@@$4PPPPPPPM@A@EAAPEAXI@Z 0000000180009d28 f i data.obj
 0001:00008d40       ??_G?$basic_ostringstream@DU?$char_traits@D@std@@V?$allocator@D@2@@std@@UEAAPEAXI@Z 0000000180009d40 f i data.obj
 0001:00008d40       ??_E?$basic_ostringstream@DU?$char_traits@D@std@@V?$allocator@D@2@@std@@UEAAPEAXI@Z 0000000180009d40 f i data.obj
 0001:00008d90       ??_E?$basic_stringbuf@DU?$char_traits@D@std@@V?$allocator@D@2@@std@@UEAAPEAXI@Z 0000000180009d90 f i data.obj
 0001:00008d90       ??_G?$basic_stringbuf@DU?$char_traits@D@std@@V?$allocator@D@2@@std@@UEAAPEAXI@Z 0000000180009d90 f i data.obj
 0001:00008dd0       ??_Gdata_t@@UEAAPEAXI@Z    0000000180009dd0 f i data.obj
 0001:00008dd0       ??_Edata_t@@UEAAPEAXI@Z    0000000180009dd0 f i data.obj
 0001:00008e10       ??_Gdatasource_t@@UEAAPEAXI@Z 0000000180009e10 f i data.obj
 0001:00008e10       ??_Edatasource_t@@UEAAPEAXI@Z 0000000180009e10 f i data.obj
 0001:00008e50       ??_Eobject_t@@UEAAPEAXI@Z  0000000180009e50 f i data.obj
 0001:00008e50       ??_Gobject_t@@UEAAPEAXI@Z  0000000180009e50 f i data.obj
 0001:00008e90       ??_Gprovider_t@@UEAAPEAXI@Z 0000000180009e90 f i data.obj
 0001:00008e90       ??_Eprovider_t@@UEAAPEAXI@Z 0000000180009e90 f i data.obj
 0001:00008ed0       ?_Buyheadnode@?$_Tree_alloc@$0A@U?$_Tree_base_types@PEAVlistener_t@@V?$allocator@PEAVlistener_t@@@std@@@std@@@std@@QEAAPEAU?$_Tree_node@PEAVlistener_t@@PEAX@2@XZ 0000000180009ed0 f i data.obj
 0001:00008fe0       ?_Buyheadnode@?$_Tree_alloc@$0A@U?$_Tree_base_types@PEAVobject_t@@V?$allocator@PEAVobject_t@@@std@@@std@@@std@@QEAAPEAU?$_Tree_node@PEAVobject_t@@PEAX@2@XZ 0000000180009fe0 f i data.obj
 0001:000090f0       ?_Buynode0@?$_Tree_buy@PEAVlistener_t@@V?$allocator@PEAVlistener_t@@@std@@@std@@QEAAPEAU?$_Tree_node@PEAVlistener_t@@PEAX@2@XZ 000000018000a0f0 f i data.obj
 0001:000091f0       ?_Buynode0@?$_Tree_buy@PEAVobject_t@@V?$allocator@PEAVobject_t@@@std@@@std@@QEAAPEAU?$_Tree_node@PEAVobject_t@@PEAX@2@XZ 000000018000a1f0 f i data.obj
 0001:000092f0       ?_Destroy_if_not_nil@?$_Tree@V?$_Tset_traits@PEAVmfdpage_t@@U?$less@PEAVmfdpage_t@@@std@@V?$allocator@PEAVmfdpage_t@@@3@$0A@@std@@@std@@IEAAXU_Nil@2@@Z 000000018000a2f0 f i in.obj
 0001:000092f0       ?_Destroy_if_not_nil@?$_Tree@V?$_Tset_traits@PEAVobject_t@@U?$less@PEAVobject_t@@@std@@V?$allocator@PEAVobject_t@@@3@$0A@@std@@@std@@IEAAXU_Nil@2@@Z 000000018000a2f0 f i data.obj
 0001:000092f0       ?_Destroy_if_not_nil@?$_Tree@V?$_Tset_traits@PEAVlistener_t@@U?$less@PEAVlistener_t@@@std@@V?$allocator@PEAVlistener_t@@@3@$0A@@std@@@std@@IEAAXU_Nil@2@@Z 000000018000a2f0 f i data.obj
 0001:00009300       ?_Eqrange@?$_Tree@V?$_Tset_traits@PEAVlistener_t@@U?$less@PEAVlistener_t@@@std@@V?$allocator@PEAVlistener_t@@@3@$0A@@std@@@std@@IEAA?AU?$pair@V?$_Tree_const_iterator@V?$_Tree_val@U?$_Tree_simple_types@PEAVlistener_t@@@std@@@std@@@std@@V12@@2@AEBQEAVlistener_t@@@Z 000000018000a300 f i data.obj
 0001:00009300       ?_Eqrange@?$_Tree@V?$_Tset_traits@PEAVobject_t@@U?$less@PEAVobject_t@@@std@@V?$allocator@PEAVobject_t@@@3@$0A@@std@@@std@@IEAA?AU?$pair@V?$_Tree_const_iterator@V?$_Tree_val@U?$_Tree_simple_types@PEAVobject_t@@@std@@@std@@@std@@V12@@2@AEBQEAVobject_t@@@Z 000000018000a300 f i data.obj
 0001:00009570       ?_Getstate@?$basic_stringbuf@DU?$char_traits@D@std@@V?$allocator@D@2@@std@@AEAAHH@Z 000000018000a570 f i data.obj
 0001:000095e0       ?_Init@?$basic_stringbuf@DU?$char_traits@D@std@@V?$allocator@D@2@@std@@IEAAXPEBD_KH@Z 000000018000a5e0 f i data.obj
 0001:00009760       ?_Lrotate@?$_Tree@V?$_Tmap_traits@V?$basic_string@DU?$char_traits@D@std@@V?$allocator@D@2@@std@@DU?$less@V?$basic_string@DU?$char_traits@D@std@@V?$allocator@D@2@@std@@@2@V?$allocator@U?$pair@$$CBV?$basic_string@DU?$char_traits@D@std@@V?$allocator@D@2@@std@@D@std@@@2@$0A@@std@@@std@@IEAAXPEAU?$_Tree_node@U?$pair@$$CBV?$basic_string@DU?$char_traits@D@std@@V?$allocator@D@2@@std@@D@std@@PEAX@2@@Z 000000018000a760 f i mfdpage.obj
 0001:00009760       ?_Lrotate@?$_Tree@V?$_Tmap_traits@V?$basic_string@DU?$char_traits@D@std@@V?$allocator@D@2@@std@@HU?$less@V?$basic_string@DU?$char_traits@D@std@@V?$allocator@D@2@@std@@@2@V?$allocator@U?$pair@$$CBV?$basic_string@DU?$char_traits@D@std@@V?$allocator@D@2@@std@@H@std@@@2@$0A@@std@@@std@@IEAAXPEAU?$_Tree_node@U?$pair@$$CBV?$basic_string@DU?$char_traits@D@std@@V?$allocator@D@2@@std@@H@std@@PEAX@2@@Z 000000018000a760 f i mfdpage.obj
 0001:00009760       ?_Lrotate@?$_Tree@V?$_Tmap_traits@V?$basic_string@DU?$char_traits@D@std@@V?$allocator@D@2@@std@@MU?$less@V?$basic_string@DU?$char_traits@D@std@@V?$allocator@D@2@@std@@@2@V?$allocator@U?$pair@$$CBV?$basic_string@DU?$char_traits@D@std@@V?$allocator@D@2@@std@@M@std@@@2@$0A@@std@@@std@@IEAAXPEAU?$_Tree_node@U?$pair@$$CBV?$basic_string@DU?$char_traits@D@std@@V?$allocator@D@2@@std@@M@std@@PEAX@2@@Z 000000018000a760 f i mfdpage_fms.obj
 0001:00009760       ?_Lrotate@?$_Tree@V?$_Tset_traits@PEAVlistener_t@@U?$less@PEAVlistener_t@@@std@@V?$allocator@PEAVlistener_t@@@3@$0A@@std@@@std@@IEAAXPEAU?$_Tree_node@PEAVlistener_t@@PEAX@2@@Z 000000018000a760 f i data.obj
 0001:00009760       ?_Lrotate@?$_Tree@V?$_Tset_traits@PEAVmfdpage_t@@U?$less@PEAVmfdpage_t@@@std@@V?$allocator@PEAVmfdpage_t@@@3@$0A@@std@@@std@@IEAAXPEAU?$_Tree_node@PEAVmfdpage_t@@PEAX@2@@Z 000000018000a760 f i in.obj
 0001:00009760       ?_Lrotate@?$_Tree@V?$_Tmap_traits@HPEAVobject_t@@U?$less@H@std@@V?$allocator@U?$pair@$$CBHPEAVobject_t@@@std@@@3@$0A@@std@@@std@@IEAAXPEAU?$_Tree_node@U?$pair@$$CBHPEAVobject_t@@@std@@PEAX@2@@Z 000000018000a760 f i mfdpage.obj
 0001:00009760       ?_Lrotate@?$_Tree@V?$_Tset_traits@PEAVobject_t@@U?$less@PEAVobject_t@@@std@@V?$allocator@PEAVobject_t@@@3@$0A@@std@@@std@@IEAAXPEAU?$_Tree_node@PEAVobject_t@@PEAX@2@@Z 000000018000a760 f i data.obj
 0001:00009760       ?_Lrotate@?$_Tree@V?$_Tmap_traits@HMU?$less@H@std@@V?$allocator@U?$pair@$$CBHM@std@@@2@$0A@@std@@@std@@IEAAXPEAU?$_Tree_node@U?$pair@$$CBHM@std@@PEAX@2@@Z 000000018000a760 f i fms_config.obj
 0001:00009760       ?_Lrotate@?$_Tree@V?$_Tmap_traits@V?$basic_string@DU?$char_traits@D@std@@V?$allocator@D@2@@std@@V12@U?$less@V?$basic_string@DU?$char_traits@D@std@@V?$allocator@D@2@@std@@@2@V?$allocator@U?$pair@$$CBV?$basic_string@DU?$char_traits@D@std@@V?$allocator@D@2@@std@@V12@@std@@@2@$0A@@std@@@std@@IEAAXPEAU?$_Tree_node@U?$pair@$$CBV?$basic_string@DU?$char_traits@D@std@@V?$allocator@D@2@@std@@V12@@std@@PEAX@2@@Z 000000018000a760 f i tools.obj
 0001:00009760       ?_Lrotate@?$_Tree@V?$_Tmap_traits@HPEAVfms_fp_item_t@@U?$less@H@std@@V?$allocator@U?$pair@$$CBHPEAVfms_fp_item_t@@@std@@@3@$0A@@std@@@std@@IEAAXPEAU?$_Tree_node@U?$pair@$$CBHPEAVfms_fp_item_t@@@std@@PEAX@2@@Z 000000018000a760 f i mfdpage_fms.obj
 0001:00009760       ?_Lrotate@?$_Tree@V?$_Tmap_traits@V?$basic_string@DU?$char_traits@D@std@@V?$allocator@D@2@@std@@PEAVfms_fp_item_t@@U?$less@V?$basic_string@DU?$char_traits@D@std@@V?$allocator@D@2@@std@@@2@V?$allocator@U?$pair@$$CBV?$basic_string@DU?$char_traits@D@std@@V?$allocator@D@2@@std@@PEAVfms_fp_item_t@@@std@@@2@$0A@@std@@@std@@IEAAXPEAU?$_Tree_node@U?$pair@$$CBV?$basic_string@DU?$char_traits@D@std@@V?$allocator@D@2@@std@@PEAVfms_fp_item_t@@@std@@PEAX@2@@Z 000000018000a760 f i fms_fp.obj
 0001:00009760       ?_Lrotate@?$_Tree@V?$_Tmap_traits@HV?$basic_string@DU?$char_traits@D@std@@V?$allocator@D@2@@std@@U?$less@H@2@V?$allocator@U?$pair@$$CBHV?$basic_string@DU?$char_traits@D@std@@V?$allocator@D@2@@std@@@std@@@2@$0A@@std@@@std@@IEAAXPEAU?$_Tree_node@U?$pair@$$CBHV?$basic_string@DU?$char_traits@D@std@@V?$allocator@D@2@@std@@@std@@PEAX@2@@Z 000000018000a760 f i out_saitek.obj
 0001:00009760       ?_Lrotate@?$_Tree@V?$_Tmap_traits@V?$basic_string@DU?$char_traits@D@std@@V?$allocator@D@2@@std@@PEAVfms_config_item_t@@U?$less@V?$basic_string@DU?$char_traits@D@std@@V?$allocator@D@2@@std@@@2@V?$allocator@U?$pair@$$CBV?$basic_string@DU?$char_traits@D@std@@V?$allocator@D@2@@std@@PEAVfms_config_item_t@@@std@@@2@$0A@@std@@@std@@IEAAXPEAU?$_Tree_node@U?$pair@$$CBV?$basic_string@DU?$char_traits@D@std@@V?$allocator@D@2@@std@@PEAVfms_config_item_t@@@std@@PEAX@2@@Z 000000018000a760 f i fms_config.obj
 0001:000098a0       ?_Min@?$_Tree_val@U?$_Tree_simple_types@U?$pair@$$CBV?$basic_string@DU?$char_traits@D@std@@V?$allocator@D@2@@std@@V12@@std@@@std@@@std@@SAPEAU?$_Tree_node@U?$pair@$$CBV?$basic_string@DU?$char_traits@D@std@@V?$allocator@D@2@@std@@V12@@std@@PEAX@2@PEAU32@@Z 000000018000a8a0 f i tools.obj
 0001:000098a0       ?_Min@?$_Tree_val@U?$_Tree_simple_types@U?$pair@$$CBHM@std@@@std@@@std@@SAPEAU?$_Tree_node@U?$pair@$$CBHM@std@@PEAX@2@PEAU32@@Z 000000018000a8a0 f i fms_config.obj
 0001:000098a0       ?_Min@?$_Tree_val@U?$_Tree_simple_types@U?$pair@$$CBHPEAVfms_fp_item_t@@@std@@@std@@@std@@SAPEAU?$_Tree_node@U?$pair@$$CBHPEAVfms_fp_item_t@@@std@@PEAX@2@PEAU32@@Z 000000018000a8a0 f i mfdpage_fms.obj
 0001:000098a0       ?_Min@?$_Tree_val@U?$_Tree_simple_types@PEAVobject_t@@@std@@@std@@SAPEAU?$_Tree_node@PEAVobject_t@@PEAX@2@PEAU32@@Z 000000018000a8a0 f i data.obj
 0001:000098a0       ?_Min@?$_Tree_val@U?$_Tree_simple_types@U?$pair@$$CBV?$basic_string@DU?$char_traits@D@std@@V?$allocator@D@2@@std@@H@std@@@std@@@std@@SAPEAU?$_Tree_node@U?$pair@$$CBV?$basic_string@DU?$char_traits@D@std@@V?$allocator@D@2@@std@@H@std@@PEAX@2@PEAU32@@Z 000000018000a8a0 f i mfdpage.obj
 0001:000098a0       ?_Min@?$_Tree_val@U?$_Tree_simple_types@U?$pair@$$CBV?$basic_string@DU?$char_traits@D@std@@V?$allocator@D@2@@std@@PEAVfms_config_item_t@@@std@@@std@@@std@@SAPEAU?$_Tree_node@U?$pair@$$CBV?$basic_string@DU?$char_traits@D@std@@V?$allocator@D@2@@std@@PEAVfms_config_item_t@@@std@@PEAX@2@PEAU32@@Z 000000018000a8a0 f i fms_config.obj
 0001:000098a0       ?_Min@?$_Tree_val@U?$_Tree_simple_types@U?$pair@$$CBHPEAVobject_t@@@std@@@std@@@std@@SAPEAU?$_Tree_node@U?$pair@$$CBHPEAVobject_t@@@std@@PEAX@2@PEAU32@@Z 000000018000a8a0 f i mfdpage.obj
 0001:000098a0       ?_Min@?$_Tree_val@U?$_Tree_simple_types@U?$pair@$$CBV?$basic_string@DU?$char_traits@D@std@@V?$allocator@D@2@@std@@M@std@@@std@@@std@@SAPEAU?$_Tree_node@U?$pair@$$CBV?$basic_string@DU?$char_traits@D@std@@V?$allocator@D@2@@std@@M@std@@PEAX@2@PEAU32@@Z 000000018000a8a0 f i mfdpage_fms.obj
 0001:000098a0       ?_Min@?$_Tree_val@U?$_Tree_simple_types@PEAVmfdpage_t@@@std@@@std@@SAPEAU?$_Tree_node@PEAVmfdpage_t@@PEAX@2@PEAU32@@Z 000000018000a8a0 f i in.obj
 0001:000098a0       ?_Min@?$_Tree_val@U?$_Tree_simple_types@U?$pair@$$CBV?$basic_string@DU?$char_traits@D@std@@V?$allocator@D@2@@std@@D@std@@@std@@@std@@SAPEAU?$_Tree_node@U?$pair@$$CBV?$basic_string@DU?$char_traits@D@std@@V?$allocator@D@2@@std@@D@std@@PEAX@2@PEAU32@@Z 000000018000a8a0 f i mfdpage.obj
 0001:000098a0       ?_Min@?$_Tree_val@U?$_Tree_simple_types@U?$pair@$$CBHV?$basic_string@DU?$char_traits@D@std@@V?$allocator@D@2@@std@@@std@@@std@@@std@@SAPEAU?$_Tree_node@U?$pair@$$CBHV?$basic_string@DU?$char_traits@D@std@@V?$allocator@D@2@@std@@@std@@PEAX@2@PEAU32@@Z 000000018000a8a0 f i out_saitek.obj
 0001:000098a0       ?_Min@?$_Tree_val@U?$_Tree_simple_types@PEAVlistener_t@@@std@@@std@@SAPEAU?$_Tree_node@PEAVlistener_t@@PEAX@2@PEAU32@@Z 000000018000a8a0 f i data.obj
 0001:000098a0       ?_Min@?$_Tree_val@U?$_Tree_simple_types@U?$pair@$$CBV?$basic_string@DU?$char_traits@D@std@@V?$allocator@D@2@@std@@PEAVfms_fp_item_t@@@std@@@std@@@std@@SAPEAU?$_Tree_node@U?$pair@$$CBV?$basic_string@DU?$char_traits@D@std@@V?$allocator@D@2@@std@@PEAVfms_fp_item_t@@@std@@PEAX@2@PEAU32@@Z 000000018000a8a0 f i fms_fp.obj
 0001:000098e0       ?_Tidy@?$_Tree@V?$_Tset_traits@PEAVlistener_t@@U?$less@PEAVlistener_t@@@std@@V?$allocator@PEAVlistener_t@@@3@$0A@@std@@@std@@IEAAXXZ 000000018000a8e0 f i data.obj
 0001:000098e0       ?_Tidy@?$_Tree@V?$_Tset_traits@PEAVobject_t@@U?$less@PEAVobject_t@@@std@@V?$allocator@PEAVobject_t@@@3@$0A@@std@@@std@@IEAAXXZ 000000018000a8e0 f i data.obj
 0001:000098e0       ?_Tidy@?$_Tree@V?$_Tset_traits@PEAVmfdpage_t@@U?$less@PEAVmfdpage_t@@@std@@V?$allocator@PEAVmfdpage_t@@@3@$0A@@std@@@std@@IEAAXXZ 000000018000a8e0 f i in.obj
 0001:00009930       ?_Tidy@?$basic_stringbuf@DU?$char_traits@D@std@@V?$allocator@D@2@@std@@IEAAXXZ 000000018000a930 f i data.obj
 0001:00009a10       ?assign@?$basic_string@DU?$char_traits@D@std@@V?$allocator@D@2@@std@@QEAAAEAV12@$$QEAV12@@Z 000000018000aa10 f i data.obj
 0001:00009ac0       ?assign@?$basic_string@DU?$char_traits@D@std@@V?$allocator@D@2@@std@@QEAAAEAV12@AEBV12@@Z 000000018000aac0 f i data.obj
 0001:00009af0       ?begin@?$_Tree@V?$_Tset_traits@PEAVobject_t@@U?$less@PEAVobject_t@@@std@@V?$allocator@PEAVobject_t@@@3@$0A@@std@@@std@@QEAA?AV?$_Tree_const_iterator@V?$_Tree_val@U?$_Tree_simple_types@PEAVobject_t@@@std@@@std@@@2@XZ 000000018000aaf0 f i data.obj
 0001:00009af0       ?begin@?$_Tree@V?$_Tset_traits@PEAVlistener_t@@U?$less@PEAVlistener_t@@@std@@V?$allocator@PEAVlistener_t@@@3@$0A@@std@@@std@@QEAA?AV?$_Tree_const_iterator@V?$_Tree_val@U?$_Tree_simple_types@PEAVlistener_t@@@std@@@std@@@2@XZ 000000018000aaf0 f i data.obj
 0001:00009af0       ?begin@?$_Tree@V?$_Tset_traits@PEAVmfdpage_t@@U?$less@PEAVmfdpage_t@@@std@@V?$allocator@PEAVmfdpage_t@@@3@$0A@@std@@@std@@QEAA?AV?$_Tree_const_iterator@V?$_Tree_val@U?$_Tree_simple_types@PEAVmfdpage_t@@@std@@@std@@@2@XZ 000000018000aaf0 f i in.obj
 0001:00009b30       ?clear@?$basic_string@DU?$char_traits@D@std@@V?$allocator@D@2@@std@@QEAAXXZ 000000018000ab30 f i data.obj
 0001:00009b50       ?compare@?$basic_string@DU?$char_traits@D@std@@V?$allocator@D@2@@std@@QEBAHPEBD@Z 000000018000ab50 f i data.obj
 0001:00009b90       ?end@?$_Tree@V?$_Tset_traits@PEAVobject_t@@U?$less@PEAVobject_t@@@std@@V?$allocator@PEAVobject_t@@@3@$0A@@std@@@std@@QEAA?AV?$_Tree_const_iterator@V?$_Tree_val@U?$_Tree_simple_types@PEAVobject_t@@@std@@@std@@@2@XZ 000000018000ab90 f i data.obj
 0001:00009b90       ?end@?$_Tree@V?$_Tset_traits@PEAVmfdpage_t@@U?$less@PEAVmfdpage_t@@@std@@V?$allocator@PEAVmfdpage_t@@@3@$0A@@std@@@std@@QEAA?AV?$_Tree_const_iterator@V?$_Tree_val@U?$_Tree_simple_types@PEAVmfdpage_t@@@std@@@std@@@2@XZ 000000018000ab90 f i in.obj
 0001:00009b90       ?end@?$_Tree@V?$_Tset_traits@PEAVlistener_t@@U?$less@PEAVlistener_t@@@std@@V?$allocator@PEAVlistener_t@@@3@$0A@@std@@@std@@QEAA?AV?$_Tree_const_iterator@V?$_Tree_val@U?$_Tree_simple_types@PEAVlistener_t@@@std@@@std@@@2@XZ 000000018000ab90 f i data.obj
 0001:00009bc0       ?eof@?$char_traits@D@std@@SAHXZ 000000018000abc0 f i data.obj
 0001:00009bd0       ?eq@?$char_traits@D@std@@SA_NAEBD0@Z 000000018000abd0 f i data.obj
 0001:00009c10       ?eq_int_type@?$char_traits@D@std@@SA_NAEBH0@Z 000000018000ac10 f i data.obj
 0001:00009c50       ?equal_range@?$_Tree@V?$_Tset_traits@PEAVlistener_t@@U?$less@PEAVlistener_t@@@std@@V?$allocator@PEAVlistener_t@@@3@$0A@@std@@@std@@QEAA?AU?$pair@V?$_Tree_const_iterator@V?$_Tree_val@U?$_Tree_simple_types@PEAVlistener_t@@@std@@@std@@@std@@V12@@2@AEBQEAVlistener_t@@@Z 000000018000ac50 f i data.obj
 0001:00009c50       ?equal_range@?$_Tree@V?$_Tset_traits@PEAVobject_t@@U?$less@PEAVobject_t@@@std@@V?$allocator@PEAVobject_t@@@3@$0A@@std@@@std@@QEAA?AU?$pair@V?$_Tree_const_iterator@V?$_Tree_val@U?$_Tree_simple_types@PEAVobject_t@@@std@@@std@@@std@@V12@@2@AEBQEAVobject_t@@@Z 000000018000ac50 f i data.obj
 0001:00009c90       ?erase@?$_Tree@V?$_Tset_traits@PEAVmfdpage_t@@U?$less@PEAVmfdpage_t@@@std@@V?$allocator@PEAVmfdpage_t@@@3@$0A@@std@@@std@@QEAA?AV?$_Tree_const_iterator@V?$_Tree_val@U?$_Tree_simple_types@PEAVmfdpage_t@@@std@@@std@@@2@V32@0@Z 000000018000ac90 f i in.obj
 0001:00009c90       ?erase@?$_Tree@V?$_Tset_traits@PEAVobject_t@@U?$less@PEAVobject_t@@@std@@V?$allocator@PEAVobject_t@@@3@$0A@@std@@@std@@QEAA?AV?$_Tree_const_iterator@V?$_Tree_val@U?$_Tree_simple_types@PEAVobject_t@@@std@@@std@@@2@V32@0@Z 000000018000ac90 f i data.obj
 0001:00009c90       ?erase@?$_Tree@V?$_Tset_traits@PEAVlistener_t@@U?$less@PEAVlistener_t@@@std@@V?$allocator@PEAVlistener_t@@@3@$0A@@std@@@std@@QEAA?AV?$_Tree_const_iterator@V?$_Tree_val@U?$_Tree_simple_types@PEAVlistener_t@@@std@@@std@@@2@V32@0@Z 000000018000ac90 f i data.obj
 0001:00009d70       ?erase@?$_Tree@V?$_Tset_traits@PEAVobject_t@@U?$less@PEAVobject_t@@@std@@V?$allocator@PEAVobject_t@@@3@$0A@@std@@@std@@QEAA_KAEBQEAVobject_t@@@Z 000000018000ad70 f i data.obj
 0001:00009d70       ?erase@?$_Tree@V?$_Tset_traits@PEAVlistener_t@@U?$less@PEAVlistener_t@@@std@@V?$allocator@PEAVlistener_t@@@3@$0A@@std@@@std@@QEAA_KAEBQEAVlistener_t@@@Z 000000018000ad70 f i data.obj
 0001:00009de0       ?insert@?$_Tree@V?$_Tset_traits@PEAVlistener_t@@U?$less@PEAVlistener_t@@@std@@V?$allocator@PEAVlistener_t@@@3@$0A@@std@@@std@@QEAA?AU?$pair@V?$_Tree_const_iterator@V?$_Tree_val@U?$_Tree_simple_types@PEAVlistener_t@@@std@@@std@@@std@@_N@2@AEBQEAVlistener_t@@@Z 000000018000ade0 f i data.obj
 0001:00009e20       ?insert@?$_Tree@V?$_Tset_traits@PEAVobject_t@@U?$less@PEAVobject_t@@@std@@V?$allocator@PEAVobject_t@@@3@$0A@@std@@@std@@QEAA?AU?$pair@V?$_Tree_const_iterator@V?$_Tree_val@U?$_Tree_simple_types@PEAVobject_t@@@std@@@std@@@std@@_N@2@AEBQEAVobject_t@@@Z 000000018000ae20 f i data.obj
 0001:00009e60       ?insert@?$set@PEAVlistener_t@@U?$less@PEAVlistener_t@@@std@@V?$allocator@PEAVlistener_t@@@3@@std@@QEAA?AU?$pair@V?$_Tree_const_iterator@V?$_Tree_val@U?$_Tree_simple_types@PEAVlistener_t@@@std@@@std@@@std@@_N@2@AEBQEAVlistener_t@@@Z 000000018000ae60 f i data.obj
 0001:00009ea0       ?insert@?$set@PEAVobject_t@@U?$less@PEAVobject_t@@@std@@V?$allocator@PEAVobject_t@@@3@@std@@QEAA?AU?$pair@V?$_Tree_const_iterator@V?$_Tree_val@U?$_Tree_simple_types@PEAVobject_t@@@std@@@std@@@std@@_N@2@AEBQEAVobject_t@@@Z 000000018000aea0 f i data.obj
 0001:00009ee0       ?max_size@?$_Wrap_alloc@V?$allocator@U?$_Tree_node@PEAVobject_t@@PEAX@std@@@std@@@std@@QEBA_KXZ 000000018000aee0 f i data.obj
 0001:00009ee0       ?max_size@?$_Wrap_alloc@V?$allocator@U?$_Tree_node@U?$pair@$$CBHM@std@@PEAX@std@@@std@@@std@@QEBA_KXZ 000000018000aee0 f i fms_config.obj
 0001:00009ee0       ?max_size@?$_Wrap_alloc@V?$allocator@U?$_Tree_node@PEAVlistener_t@@PEAX@std@@@std@@@std@@QEBA_KXZ 000000018000aee0 f i data.obj
 0001:00009ee0       ?max_size@?$_Wrap_alloc@V?$allocator@U?$_Tree_node@PEAVmfdpage_t@@PEAX@std@@@std@@@std@@QEBA_KXZ 000000018000aee0 f i in.obj
 0001:00009f00       ?max_size@?$allocator_traits@V?$allocator@U?$_Tree_node@PEAVlistener_t@@PEAX@std@@@std@@@std@@SA_KAEBV?$allocator@U?$_Tree_node@PEAVlistener_t@@PEAX@std@@@2@@Z 000000018000af00 f i data.obj
 0001:00009f00       ?max_size@?$allocator_traits@V?$allocator@U?$_Tree_node@PEAVobject_t@@PEAX@std@@@std@@@std@@SA_KAEBV?$allocator@U?$_Tree_node@PEAVobject_t@@PEAX@std@@@2@@Z 000000018000af00 f i data.obj
 0001:00009f00       ?max_size@?$allocator_traits@V?$allocator@U?$_Tree_node@U?$pair@$$CBHM@std@@PEAX@std@@@std@@@std@@SA_KAEBV?$allocator@U?$_Tree_node@U?$pair@$$CBHM@std@@PEAX@std@@@2@@Z 000000018000af00 f i fms_config.obj
 0001:00009f00       ?max_size@?$allocator_traits@V?$allocator@U?$_Tree_node@PEAVmfdpage_t@@PEAX@std@@@std@@@std@@SA_KAEBV?$allocator@U?$_Tree_node@PEAVmfdpage_t@@PEAX@std@@@2@@Z 000000018000af00 f i in.obj
 0001:00009f20       ?not_eof@?$char_traits@D@std@@SAHAEBH@Z 000000018000af20 f i data.obj
 0001:00009f70       ?overflow@?$basic_stringbuf@DU?$char_traits@D@std@@V?$allocator@D@2@@std@@MEAAHH@Z 000000018000af70 f i data.obj
 0001:0000a460       ?pbackfail@?$basic_stringbuf@DU?$char_traits@D@std@@V?$allocator@D@2@@std@@MEAAHH@Z 000000018000b460 f i data.obj
 0001:0000a580       ?seekoff@?$basic_stringbuf@DU?$char_traits@D@std@@V?$allocator@D@2@@std@@MEAA?AV?$fpos@H@2@_JHH@Z 000000018000b580 f i data.obj
 0001:0000a8d0       ?seekpos@?$basic_stringbuf@DU?$char_traits@D@std@@V?$allocator@D@2@@std@@MEAA?AV?$fpos@H@2@V32@H@Z 000000018000b8d0 f i data.obj
 0001:0000ab10       ?str@?$basic_ostringstream@DU?$char_traits@D@std@@V?$allocator@D@2@@std@@QEBA?AV?$basic_string@DU?$char_traits@D@std@@V?$allocator@D@2@@2@XZ 000000018000bb10 f i data.obj
 0001:0000ab40       ?str@?$basic_stringbuf@DU?$char_traits@D@std@@V?$allocator@D@2@@std@@QEBA?AV?$basic_string@DU?$char_traits@D@std@@V?$allocator@D@2@@2@XZ 000000018000bb40 f i data.obj
 0001:0000ad40       ?to_int_type@?$char_traits@D@std@@SAHAEBD@Z 000000018000bd40 f i data.obj
 0001:0000ad40       ?to_char_type@?$char_traits@D@std@@SADAEBH@Z 000000018000bd40 f i data.obj
 0001:0000ad50       ?underflow@?$basic_stringbuf@DU?$char_traits@D@std@@V?$allocator@D@2@@std@@MEAAHXZ 000000018000bd50 f i data.obj
 0001:0000aea0       ??0out_t@@QEAA@XZ          000000018000bea0 f   out.obj
 0001:0000af20       ??1out_t@@QEAA@XZ          000000018000bf20 f   out.obj
 0001:0000af50       ??0out_saitek_t@@QEAA@XZ   000000018000bf50 f   out_saitek.obj
 0001:0000afe0       ?init@out_saitek_t@@UEAAXXZ 000000018000bfe0 f   out_saitek.obj
 0001:0000b0a0       ?deinit@out_saitek_t@@UEAAXXZ 000000018000c0a0 f   out_saitek.obj
 0001:0000b0f0       ?set_display_brightness@out_saitek_t@@UEAAXD@Z 000000018000c0f0 f   out_saitek.obj
 0001:0000b1b0       ?set_led_brightness@out_saitek_t@@UEAAXD@Z 000000018000c1b0 f   out_saitek.obj
 0001:0000b270       ?set_textdata@out_saitek_t@@UEAAXPEBD@Z 000000018000c270 f   out_saitek.obj
 0001:0000b2a0       ?get_text@out_saitek_t@@UEAA?AV?$basic_string@DU?$char_traits@D@std@@V?$allocator@D@2@@std@@H@Z 000000018000c2a0 f   out_saitek.obj
 0001:0000b2f0       ?set_led@out_saitek_t@@UEAAXHH@Z 000000018000c2f0 f   out_saitek.obj
 0001:0000b390       ?set_time@out_saitek_t@@UEAAX_NHH@Z 000000018000c390 f   out_saitek.obj
 0001:0000b460       ?set_date@out_saitek_t@@UEAAXHHH@Z 000000018000c460 f   out_saitek.obj
 0001:0000b580       ?print@out_saitek_t@@UEAAXXZ 000000018000c580 f   out_saitek.obj
 0001:0000b5c0       ?search@out_saitek_t@@AEAA_NXZ 000000018000c5c0 f   out_saitek.obj
 0001:0000b850       ?attach@out_saitek_t@@AEAA_NXZ 000000018000c850 f   out_saitek.obj
 0001:0000b8c0       ?detach@out_saitek_t@@AEAA_NXZ 000000018000c8c0 f   out_saitek.obj
 0001:0000b9d0       ?print@out_saitek_t@@AEAAXPEBDZZ 000000018000c9d0 f   out_saitek.obj
 0001:0000bbc0       ?print_line@out_saitek_t@@AEAAXHPEBDH@Z 000000018000cbc0 f   out_saitek.obj
 0001:0000bcf0       ?clear_line@out_saitek_t@@AEAAXH@Z 000000018000ccf0 f   out_saitek.obj
 0001:0000bd70       ?send_usb@out_saitek_t@@AEAAHHH@Z 000000018000cd70 f   out_saitek.obj
 0001:0000be20       ?usb_error@out_saitek_t@@AEAAPEADH@Z 000000018000ce20 f   out_saitek.obj
 0001:0000be40       ??$?0AEAV?$_Tree_iterator@V?$_Tree_val@U?$_Tree_simple_types@U?$pair@$$CBHV?$basic_string@DU?$char_traits@D@std@@V?$allocator@D@2@@std@@@std@@@std@@@std@@@std@@_NX@?$pair@V?$_Tree_iterator@V?$_Tree_val@U?$_Tree_simple_types@U?$pair@$$CBHV?$basic_string@DU?$char_traits@D@std@@V?$allocator@D@2@@std@@@std@@@std@@@std@@@std@@_N@std@@QEAA@AEAV?$_Tree_iterator@V?$_Tree_val@U?$_Tree_simple_types@U?$pair@$$CBHV?$basic_string@DU?$char_traits@D@std@@V?$allocator@D@2@@std@@@std@@@std@@@std@@@1@$$QEA_N@Z 000000018000ce40 f i out_saitek.obj
 0001:0000be40       ??$?0V?$_Tree_const_iterator@V?$_Tree_val@U?$_Tree_simple_types@PEAVlistener_t@@@std@@@std@@@std@@_NX@?$pair@V?$_Tree_const_iterator@V?$_Tree_val@U?$_Tree_simple_types@PEAVlistener_t@@@std@@@std@@@std@@_N@std@@QEAA@$$QEAV?$_Tree_const_iterator@V?$_Tree_val@U?$_Tree_simple_types@PEAVlistener_t@@@std@@@std@@@1@$$QEA_N@Z 000000018000ce40 f i data.obj
 0001:0000be40       ??$?0AEAV?$_Tree_iterator@V?$_Tree_val@U?$_Tree_simple_types@U?$pair@$$CBV?$basic_string@DU?$char_traits@D@std@@V?$allocator@D@2@@std@@V12@@std@@@std@@@std@@@std@@_NX@?$pair@V?$_Tree_iterator@V?$_Tree_val@U?$_Tree_simple_types@U?$pair@$$CBV?$basic_string@DU?$char_traits@D@std@@V?$allocator@D@2@@std@@V12@@std@@@std@@@std@@@std@@_N@std@@QEAA@AEAV?$_Tree_iterator@V?$_Tree_val@U?$_Tree_simple_types@U?$pair@$$CBV?$basic_string@DU?$char_traits@D@std@@V?$allocator@D@2@@std@@V12@@std@@@std@@@std@@@1@$$QEA_N@Z 000000018000ce40 f i tools.obj
 0001:0000be40       ??$?0AEAV?$_Tree_iterator@V?$_Tree_val@U?$_Tree_simple_types@U?$pair@$$CBHPEAVfms_fp_item_t@@@std@@@std@@@std@@@std@@_NX@?$pair@V?$_Tree_iterator@V?$_Tree_val@U?$_Tree_simple_types@U?$pair@$$CBHPEAVfms_fp_item_t@@@std@@@std@@@std@@@std@@_N@std@@QEAA@AEAV?$_Tree_iterator@V?$_Tree_val@U?$_Tree_simple_types@U?$pair@$$CBHPEAVfms_fp_item_t@@@std@@@std@@@std@@@1@$$QEA_N@Z 000000018000ce40 f i mfdpage_fms.obj
 0001:0000be40       ??$?0AEAV?$_Tree_const_iterator@V?$_Tree_val@U?$_Tree_simple_types@PEAVobject_t@@@std@@@std@@@std@@_NX@?$pair@V?$_Tree_const_iterator@V?$_Tree_val@U?$_Tree_simple_types@PEAVobject_t@@@std@@@std@@@std@@_N@std@@QEAA@AEAV?$_Tree_const_iterator@V?$_Tree_val@U?$_Tree_simple_types@PEAVobject_t@@@std@@@std@@@1@$$QEA_N@Z 000000018000ce40 f i data.obj
 0001:0000be40       ??$?0AEAV?$_Tree_const_iterator@V?$_Tree_val@U?$_Tree_simple_types@PEAVlistener_t@@@std@@@std@@@std@@_NX@?$pair@V?$_Tree_const_iterator@V?$_Tree_val@U?$_Tree_simple_types@PEAVlistener_t@@@std@@@std@@@std@@_N@std@@QEAA@AEAV?$_Tree_const_iterator@V?$_Tree_val@U?$_Tree_simple_types@PEAVlistener_t@@@std@@@std@@@1@$$QEA_N@Z 000000018000ce40 f i data.obj
 0001:0000be40       ??$?0AEAV?$_Tree_iterator@V?$_Tree_val@U?$_Tree_simple_types@U?$pair@$$CBV?$basic_string@DU?$char_traits@D@std@@V?$allocator@D@2@@std@@M@std@@@std@@@std@@@std@@_NX@?$pair@V?$_Tree_iterator@V?$_Tree_val@U?$_Tree_simple_types@U?$pair@$$CBV?$basic_string@DU?$char_traits@D@std@@V?$allocator@D@2@@std@@M@std@@@std@@@std@@@std@@_N@std@@QEAA@AEAV?$_Tree_iterator@V?$_Tree_val@U?$_Tree_simple_types@U?$pair@$$CBV?$basic_string@DU?$char_traits@D@std@@V?$allocator@D@2@@std@@M@std@@@std@@@std@@@1@$$QEA_N@Z 000000018000ce40 f i mfdpage_fms.obj
 0001:0000be40       ??$?0V?$_Tree_iterator@V?$_Tree_val@U?$_Tree_simple_types@U?$pair@$$CBHPEAVfms_fp_item_t@@@std@@@std@@@std@@@std@@_NX@?$pair@V?$_Tree_iterator@V?$_Tree_val@U?$_Tree_simple_types@U?$pair@$$CBHPEAVfms_fp_item_t@@@std@@@std@@@std@@@std@@_N@std@@QEAA@$$QEAV?$_Tree_iterator@V?$_Tree_val@U?$_Tree_simple_types@U?$pair@$$CBHPEAVfms_fp_item_t@@@std@@@std@@@std@@@1@$$QEA_N@Z 000000018000ce40 f i mfdpage_fms.obj
 0001:0000be40       ??$?0V?$_Tree_iterator@V?$_Tree_val@U?$_Tree_simple_types@U?$pair@$$CBV?$basic_string@DU?$char_traits@D@std@@V?$allocator@D@2@@std@@V12@@std@@@std@@@std@@@std@@_NX@?$pair@V?$_Tree_iterator@V?$_Tree_val@U?$_Tree_simple_types@U?$pair@$$CBV?$basic_string@DU?$char_traits@D@std@@V?$allocator@D@2@@std@@V12@@std@@@std@@@std@@@std@@_N@std@@QEAA@$$QEAV?$_Tree_iterator@V?$_Tree_val@U?$_Tree_simple_types@U?$pair@$$CBV?$basic_string@DU?$char_traits@D@std@@V?$allocator@D@2@@std@@V12@@std@@@std@@@std@@@1@$$QEA_N@Z 000000018000ce40 f i tools.obj
 0001:0000be40       ??$?0V?$_Tree_iterator@V?$_Tree_val@U?$_Tree_simple_types@U?$pair@$$CBV?$basic_string@DU?$char_traits@D@std@@V?$allocator@D@2@@std@@PEAVfms_config_item_t@@@std@@@std@@@std@@@std@@_NX@?$pair@V?$_Tree_iterator@V?$_Tree_val@U?$_Tree_simple_types@U?$pair@$$CBV?$basic_string@DU?$char_traits@D@std@@V?$allocator@D@2@@std@@PEAVfms_config_item_t@@@std@@@std@@@std@@@std@@_N@std@@QEAA@$$QEAV?$_Tree_iterator@V?$_Tree_val@U?$_Tree_simple_types@U?$pair@$$CBV?$basic_string@DU?$char_traits@D@std@@V?$allocator@D@2@@std@@PEAVfms_config_item_t@@@std@@@std@@@std@@@1@$$QEA_N@Z 000000018000ce40 f i fms_config.obj
 0001:0000be40       ??$?0AEAV?$_Tree_iterator@V?$_Tree_val@U?$_Tree_simple_types@U?$pair@$$CBV?$basic_string@DU?$char_traits@D@std@@V?$allocator@D@2@@std@@PEAVfms_config_item_t@@@std@@@std@@@std@@@std@@_NX@?$pair@V?$_Tree_iterator@V?$_Tree_val@U?$_Tree_simple_types@U?$pair@$$CBV?$basic_string@DU?$char_traits@D@std@@V?$allocator@D@2@@std@@PEAVfms_config_item_t@@@std@@@std@@@std@@@std@@_N@std@@QEAA@AEAV?$_Tree_iterator@V?$_Tree_val@U?$_Tree_simple_types@U?$pair@$$CBV?$basic_string@DU?$char_traits@D@std@@V?$allocator@D@2@@std@@PEAVfms_config_item_t@@@std@@@std@@@std@@@1@$$QEA_N@Z 000000018000ce40 f i fms_config.obj
 0001:0000be40       ??$?0V?$_Tree_iterator@V?$_Tree_val@U?$_Tree_simple_types@U?$pair@$$CBHV?$basic_string@DU?$char_traits@D@std@@V?$allocator@D@2@@std@@@std@@@std@@@std@@@std@@_NX@?$pair@V?$_Tree_iterator@V?$_Tree_val@U?$_Tree_simple_types@U?$pair@$$CBHV?$basic_string@DU?$char_traits@D@std@@V?$allocator@D@2@@std@@@std@@@std@@@std@@@std@@_N@std@@QEAA@$$QEAV?$_Tree_iterator@V?$_Tree_val@U?$_Tree_simple_types@U?$pair@$$CBHV?$basic_string@DU?$char_traits@D@std@@V?$allocator@D@2@@std@@@std@@@std@@@std@@@1@$$QEA_N@Z 000000018000ce40 f i out_saitek.obj
 0001:0000be40       ??$?0AEAV?$_Tree_iterator@V?$_Tree_val@U?$_Tree_simple_types@U?$pair@$$CBV?$basic_string@DU?$char_traits@D@std@@V?$allocator@D@2@@std@@H@std@@@std@@@std@@@std@@_NX@?$pair@V?$_Tree_iterator@V?$_Tree_val@U?$_Tree_simple_types@U?$pair@$$CBV?$basic_string@DU?$char_traits@D@std@@V?$allocator@D@2@@std@@H@std@@@std@@@std@@@std@@_N@std@@QEAA@AEAV?$_Tree_iterator@V?$_Tree_val@U?$_Tree_simple_types@U?$pair@$$CBV?$basic_string@DU?$char_traits@D@std@@V?$allocator@D@2@@std@@H@std@@@std@@@std@@@1@$$QEA_N@Z 000000018000ce40 f i mfdpage.obj
 0001:0000be40       ??$?0V?$_Tree_iterator@V?$_Tree_val@U?$_Tree_simple_types@U?$pair@$$CBV?$basic_string@DU?$char_traits@D@std@@V?$allocator@D@2@@std@@M@std@@@std@@@std@@@std@@_NX@?$pair@V?$_Tree_iterator@V?$_Tree_val@U?$_Tree_simple_types@U?$pair@$$CBV?$basic_string@DU?$char_traits@D@std@@V?$allocator@D@2@@std@@M@std@@@std@@@std@@@std@@_N@std@@QEAA@$$QEAV?$_Tree_iterator@V?$_Tree_val@U?$_Tree_simple_types@U?$pair@$$CBV?$basic_string@DU?$char_traits@D@std@@V?$allocator@D@2@@std@@M@std@@@std@@@std@@@1@$$QEA_N@Z 000000018000ce40 f i mfdpage_fms.obj
 0001:0000be40       ??$?0V?$_Tree_iterator@V?$_Tree_val@U?$_Tree_simple_types@U?$pair@$$CBV?$basic_string@DU?$char_traits@D@std@@V?$allocator@D@2@@std@@H@std@@@std@@@std@@@std@@_NX@?$pair@V?$_Tree_iterator@V?$_Tree_val@U?$_Tree_simple_types@U?$pair@$$CBV?$basic_string@DU?$char_traits@D@std@@V?$allocator@D@2@@std@@H@std@@@std@@@std@@@std@@_N@std@@QEAA@$$QEAV?$_Tree_iterator@V?$_Tree_val@U?$_Tree_simple_types@U?$pair@$$CBV?$basic_string@DU?$char_traits@D@std@@V?$allocator@D@2@@std@@H@std@@@std@@@std@@@1@$$QEA_N@Z 000000018000ce40 f i mfdpage.obj
 0001:0000be40       ??$?0AEAV?$_Tree_iterator@V?$_Tree_val@U?$_Tree_simple_types@U?$pair@$$CBHPEAVobject_t@@@std@@@std@@@std@@@std@@_NX@?$pair@V?$_Tree_iterator@V?$_Tree_val@U?$_Tree_simple_types@U?$pair@$$CBHPEAVobject_t@@@std@@@std@@@std@@@std@@_N@std@@QEAA@AEAV?$_Tree_iterator@V?$_Tree_val@U?$_Tree_simple_types@U?$pair@$$CBHPEAVobject_t@@@std@@@std@@@std@@@1@$$QEA_N@Z 000000018000ce40 f i mfdpage.obj
 0001:0000be40       ??$?0AEAV?$_Tree_iterator@V?$_Tree_val@U?$_Tree_simple_types@U?$pair@$$CBV?$basic_string@DU?$char_traits@D@std@@V?$allocator@D@2@@std@@D@std@@@std@@@std@@@std@@_NX@?$pair@V?$_Tree_iterator@V?$_Tree_val@U?$_Tree_simple_types@U?$pair@$$CBV?$basic_string@DU?$char_traits@D@std@@V?$allocator@D@2@@std@@D@std@@@std@@@std@@@std@@_N@std@@QEAA@AEAV?$_Tree_iterator@V?$_Tree_val@U?$_Tree_simple_types@U?$pair@$$CBV?$basic_string@DU?$char_traits@D@std@@V?$allocator@D@2@@std@@D@std@@@std@@@std@@@1@$$QEA_N@Z 000000018000ce40 f i mfdpage.obj
 0001:0000be40       ??$?0V?$_Tree_iterator@V?$_Tree_val@U?$_Tree_simple_types@U?$pair@$$CBV?$basic_string@DU?$char_traits@D@std@@V?$allocator@D@2@@std@@PEAVfms_fp_item_t@@@std@@@std@@@std@@@std@@_NX@?$pair@V?$_Tree_iterator@V?$_Tree_val@U?$_Tree_simple_types@U?$pair@$$CBV?$basic_string@DU?$char_traits@D@std@@V?$allocator@D@2@@std@@PEAVfms_fp_item_t@@@std@@@std@@@std@@@std@@_N@std@@QEAA@$$QEAV?$_Tree_iterator@V?$_Tree_val@U?$_Tree_simple_types@U?$pair@$$CBV?$basic_string@DU?$char_traits@D@std@@V?$allocator@D@2@@std@@PEAVfms_fp_item_t@@@std@@@std@@@std@@@1@$$QEA_N@Z 000000018000ce40 f i fms_fp.obj
 0001:0000be40       ??$?0AEAV?$_Tree_iterator@V?$_Tree_val@U?$_Tree_simple_types@U?$pair@$$CBV?$basic_string@DU?$char_traits@D@std@@V?$allocator@D@2@@std@@PEAVfms_fp_item_t@@@std@@@std@@@std@@@std@@_NX@?$pair@V?$_Tree_iterator@V?$_Tree_val@U?$_Tree_simple_types@U?$pair@$$CBV?$basic_string@DU?$char_traits@D@std@@V?$allocator@D@2@@std@@PEAVfms_fp_item_t@@@std@@@std@@@std@@@std@@_N@std@@QEAA@AEAV?$_Tree_iterator@V?$_Tree_val@U?$_Tree_simple_types@U?$pair@$$CBV?$basic_string@DU?$char_traits@D@std@@V?$allocator@D@2@@std@@PEAVfms_fp_item_t@@@std@@@std@@@std@@@1@$$QEA_N@Z 000000018000ce40 f i fms_fp.obj
 0001:0000be40       ??$?0V?$_Tree_const_iterator@V?$_Tree_val@U?$_Tree_simple_types@PEAVobject_t@@@std@@@std@@@std@@_NX@?$pair@V?$_Tree_const_iterator@V?$_Tree_val@U?$_Tree_simple_types@PEAVobject_t@@@std@@@std@@@std@@_N@std@@QEAA@$$QEAV?$_Tree_const_iterator@V?$_Tree_val@U?$_Tree_simple_types@PEAVobject_t@@@std@@@std@@@1@$$QEA_N@Z 000000018000ce40 f i data.obj
 0001:0000be40       ??$?0V?$_Tree_iterator@V?$_Tree_val@U?$_Tree_simple_types@U?$pair@$$CBHPEAVobject_t@@@std@@@std@@@std@@@std@@_NX@?$pair@V?$_Tree_iterator@V?$_Tree_val@U?$_Tree_simple_types@U?$pair@$$CBHPEAVobject_t@@@std@@@std@@@std@@@std@@_N@std@@QEAA@$$QEAV?$_Tree_iterator@V?$_Tree_val@U?$_Tree_simple_types@U?$pair@$$CBHPEAVobject_t@@@std@@@std@@@std@@@1@$$QEA_N@Z 000000018000ce40 f i mfdpage.obj
 0001:0000be40       ??$?0AEAV?$_Tree_const_iterator@V?$_Tree_val@U?$_Tree_simple_types@PEAVmfdpage_t@@@std@@@std@@@std@@_NX@?$pair@V?$_Tree_const_iterator@V?$_Tree_val@U?$_Tree_simple_types@PEAVmfdpage_t@@@std@@@std@@@std@@_N@std@@QEAA@AEAV?$_Tree_const_iterator@V?$_Tree_val@U?$_Tree_simple_types@PEAVmfdpage_t@@@std@@@std@@@1@$$QEA_N@Z 000000018000ce40 f i in.obj
 0001:0000be40       ??$?0V?$_Tree_iterator@V?$_Tree_val@U?$_Tree_simple_types@U?$pair@$$CBV?$basic_string@DU?$char_traits@D@std@@V?$allocator@D@2@@std@@D@std@@@std@@@std@@@std@@_NX@?$pair@V?$_Tree_iterator@V?$_Tree_val@U?$_Tree_simple_types@U?$pair@$$CBV?$basic_string@DU?$char_traits@D@std@@V?$allocator@D@2@@std@@D@std@@@std@@@std@@@std@@_N@std@@QEAA@$$QEAV?$_Tree_iterator@V?$_Tree_val@U?$_Tree_simple_types@U?$pair@$$CBV?$basic_string@DU?$char_traits@D@std@@V?$allocator@D@2@@std@@D@std@@@std@@@std@@@1@$$QEA_N@Z 000000018000ce40 f i mfdpage.obj
 0001:0000be40       ??$?0V?$_Tree_iterator@V?$_Tree_val@U?$_Tree_simple_types@U?$pair@$$CBHM@std@@@std@@@std@@@std@@_NX@?$pair@V?$_Tree_iterator@V?$_Tree_val@U?$_Tree_simple_types@U?$pair@$$CBHM@std@@@std@@@std@@@std@@_N@std@@QEAA@$$QEAV?$_Tree_iterator@V?$_Tree_val@U?$_Tree_simple_types@U?$pair@$$CBHM@std@@@std@@@std@@@1@$$QEA_N@Z 000000018000ce40 f i fms_config.obj
 0001:0000be40       ??$?0V?$_Tree_const_iterator@V?$_Tree_val@U?$_Tree_simple_types@PEAVmfdpage_t@@@std@@@std@@@std@@_NX@?$pair@V?$_Tree_const_iterator@V?$_Tree_val@U?$_Tree_simple_types@PEAVmfdpage_t@@@std@@@std@@@std@@_N@std@@QEAA@$$QEAV?$_Tree_const_iterator@V?$_Tree_val@U?$_Tree_simple_types@PEAVmfdpage_t@@@std@@@std@@@1@$$QEA_N@Z 000000018000ce40 f i in.obj
 0001:0000be40       ??$?0AEAV?$_Tree_iterator@V?$_Tree_val@U?$_Tree_simple_types@U?$pair@$$CBHM@std@@@std@@@std@@@std@@_NX@?$pair@V?$_Tree_iterator@V?$_Tree_val@U?$_Tree_simple_types@U?$pair@$$CBHM@std@@@std@@@std@@@std@@_N@std@@QEAA@AEAV?$_Tree_iterator@V?$_Tree_val@U?$_Tree_simple_types@U?$pair@$$CBHM@std@@@std@@@std@@@1@$$QEA_N@Z 000000018000ce40 f i fms_config.obj
 0001:0000be90       ??$?0H@?$_Tuple_val@$$QEAH@std@@QEAA@$$QEAH@Z 000000018000ce90 f i mfdpage_fms.obj
 0001:0000be90       ??$?0V?$basic_string@DU?$char_traits@D@std@@V?$allocator@D@2@@std@@@?$_Tuple_val@$$QEAV?$basic_string@DU?$char_traits@D@std@@V?$allocator@D@2@@std@@@std@@QEAA@$$QEAV?$basic_string@DU?$char_traits@D@std@@V?$allocator@D@2@@1@@Z 000000018000ce90 f i tools.obj
 0001:0000be90       ??$?0AEBV?$basic_string@DU?$char_traits@D@std@@V?$allocator@D@2@@std@@@?$_Tuple_val@AEBV?$basic_string@DU?$char_traits@D@std@@V?$allocator@D@2@@std@@@std@@QEAA@AEBV?$basic_string@DU?$char_traits@D@std@@V?$allocator@D@2@@1@@Z 000000018000ce90 f i mfdpage.obj
 0001:0000be90       ??$?0AEBH@?$_Tuple_val@AEBH@std@@QEAA@AEBH@Z 000000018000ce90 f i out_saitek.obj
 0001:0000bec0       ??$_Allocate@U?$_Tree_node@U?$pair@$$CBV?$basic_string@DU?$char_traits@D@std@@V?$allocator@D@2@@std@@PEAVfms_config_item_t@@@std@@PEAX@std@@@std@@YAPEAU?$_Tree_node@U?$pair@$$CBV?$basic_string@DU?$char_traits@D@std@@V?$allocator@D@2@@std@@PEAVfms_config_item_t@@@std@@PEAX@0@_KPEAU10@@Z 000000018000cec0 f i fms_config.obj
 0001:0000bec0       ??$_Allocate@U?$_Tree_node@U?$pair@$$CBV?$basic_string@DU?$char_traits@D@std@@V?$allocator@D@2@@std@@M@std@@PEAX@std@@@std@@YAPEAU?$_Tree_node@U?$pair@$$CBV?$basic_string@DU?$char_traits@D@std@@V?$allocator@D@2@@std@@M@std@@PEAX@0@_KPEAU10@@Z 000000018000cec0 f i mfdpage_fms.obj
 0001:0000bec0       ??$_Allocate@U?$_Tree_node@U?$pair@$$CBHV?$basic_string@DU?$char_traits@D@std@@V?$allocator@D@2@@std@@@std@@PEAX@std@@@std@@YAPEAU?$_Tree_node@U?$pair@$$CBHV?$basic_string@DU?$char_traits@D@std@@V?$allocator@D@2@@std@@@std@@PEAX@0@_KPEAU10@@Z 000000018000cec0 f i out_saitek.obj
 0001:0000bec0       ??$_Allocate@U?$_Tree_node@U?$pair@$$CBV?$basic_string@DU?$char_traits@D@std@@V?$allocator@D@2@@std@@H@std@@PEAX@std@@@std@@YAPEAU?$_Tree_node@U?$pair@$$CBV?$basic_string@DU?$char_traits@D@std@@V?$allocator@D@2@@std@@H@std@@PEAX@0@_KPEAU10@@Z 000000018000cec0 f i mfdpage.obj
 0001:0000bec0       ??$_Allocate@U?$_Tree_node@U?$pair@$$CBV?$basic_string@DU?$char_traits@D@std@@V?$allocator@D@2@@std@@PEAVfms_fp_item_t@@@std@@PEAX@std@@@std@@YAPEAU?$_Tree_node@U?$pair@$$CBV?$basic_string@DU?$char_traits@D@std@@V?$allocator@D@2@@std@@PEAVfms_fp_item_t@@@std@@PEAX@0@_KPEAU10@@Z 000000018000cec0 f i fms_fp.obj
 0001:0000bec0       ??$_Allocate@U?$_Tree_node@U?$pair@$$CBV?$basic_string@DU?$char_traits@D@std@@V?$allocator@D@2@@std@@D@std@@PEAX@std@@@std@@YAPEAU?$_Tree_node@U?$pair@$$CBV?$basic_string@DU?$char_traits@D@std@@V?$allocator@D@2@@std@@D@std@@PEAX@0@_KPEAU10@@Z 000000018000cec0 f i mfdpage.obj
 0001:0000bf20       ??$_Buynode@AEBUpiecewise_construct_t@std@@V?$tuple@AEBH@2@V?$tuple@$$$V@2@@?$_Tree_buy@U?$pair@$$CBHV?$basic_string@DU?$char_traits@D@std@@V?$allocator@D@2@@std@@@std@@V?$allocator@U?$pair@$$CBHV?$basic_string@DU?$char_traits@D@std@@V?$allocator@D@2@@std@@@std@@@2@@std@@QEAAPEAU?$_Tree_node@U?$pair@$$CBHV?$basic_string@DU?$char_traits@D@std@@V?$allocator@D@2@@std@@@std@@PEAX@1@AEBUpiecewise_construct_t@1@$$QEAV?$tuple@AEBH@1@$$QEAV?$tuple@$$$V@1@@Z 000000018000cf20 f i out_saitek.obj
 0001:0000c010       ??$_Insert_at@AEAU?$pair@$$CBHV?$basic_string@DU?$char_traits@D@std@@V?$allocator@D@2@@std@@@std@@PEAU?$_Tree_node@U?$pair@$$CBHV?$basic_string@DU?$char_traits@D@std@@V?$allocator@D@2@@std@@@std@@PEAX@2@@?$_Tree@V?$_Tmap_traits@HV?$basic_string@DU?$char_traits@D@std@@V?$allocator@D@2@@std@@U?$less@H@2@V?$allocator@U?$pair@$$CBHV?$basic_string@DU?$char_traits@D@std@@V?$allocator@D@2@@std@@@std@@@2@$0A@@std@@@std@@IEAA?AV?$_Tree_iterator@V?$_Tree_val@U?$_Tree_simple_types@U?$pair@$$CBHV?$basic_string@DU?$char_traits@D@std@@V?$allocator@D@2@@std@@@std@@@std@@@std@@@1@_NPEAU?$_Tree_node@U?$pair@$$CBHV?$basic_string@DU?$char_traits@D@std@@V?$allocator@D@2@@std@@@std@@PEAX@1@AEAU?$pair@$$CBHV?$basic_string@DU?$char_traits@D@std@@V?$allocator@D@2@@std@@@1@1@Z 000000018000d010 f i out_saitek.obj
 0001:0000c440       ??$_Insert_hint@AEAU?$pair@$$CBHV?$basic_string@DU?$char_traits@D@std@@V?$allocator@D@2@@std@@@std@@PEAU?$_Tree_node@U?$pair@$$CBHV?$basic_string@DU?$char_traits@D@std@@V?$allocator@D@2@@std@@@std@@PEAX@2@@?$_Tree@V?$_Tmap_traits@HV?$basic_string@DU?$char_traits@D@std@@V?$allocator@D@2@@std@@U?$less@H@2@V?$allocator@U?$pair@$$CBHV?$basic_string@DU?$char_traits@D@std@@V?$allocator@D@2@@std@@@std@@@2@$0A@@std@@@std@@IEAA?AV?$_Tree_iterator@V?$_Tree_val@U?$_Tree_simple_types@U?$pair@$$CBHV?$basic_string@DU?$char_traits@D@std@@V?$allocator@D@2@@std@@@std@@@std@@@std@@@1@V?$_Tree_const_iterator@V?$_Tree_val@U?$_Tree_simple_types@U?$pair@$$CBHV?$basic_string@DU?$char_traits@D@std@@V?$allocator@D@2@@std@@@std@@@std@@@std@@@1@AEAU?$pair@$$CBHV?$basic_string@DU?$char_traits@D@std@@V?$allocator@D@2@@std@@@1@PEAU?$_Tree_node@U?$pair@$$CBHV?$basic_string@DU?$char_traits@D@std@@V?$allocator@D@2@@std@@@std@@PEAX@1@@Z 000000018000d440 f i out_saitek.obj
 0001:0000d1d0       ??$_Insert_nohint@AEAU?$pair@$$CBHV?$basic_string@DU?$char_traits@D@std@@V?$allocator@D@2@@std@@@std@@PEAU?$_Tree_node@U?$pair@$$CBHV?$basic_string@DU?$char_traits@D@std@@V?$allocator@D@2@@std@@@std@@PEAX@2@@?$_Tree@V?$_Tmap_traits@HV?$basic_string@DU?$char_traits@D@std@@V?$allocator@D@2@@std@@U?$less@H@2@V?$allocator@U?$pair@$$CBHV?$basic_string@DU?$char_traits@D@std@@V?$allocator@D@2@@std@@@std@@@2@$0A@@std@@@std@@IEAA?AU?$pair@V?$_Tree_iterator@V?$_Tree_val@U?$_Tree_simple_types@U?$pair@$$CBHV?$basic_string@DU?$char_traits@D@std@@V?$allocator@D@2@@std@@@std@@@std@@@std@@@std@@_N@1@_NAEAU?$pair@$$CBHV?$basic_string@DU?$char_traits@D@std@@V?$allocator@D@2@@std@@@1@PEAU?$_Tree_node@U?$pair@$$CBHV?$basic_string@DU?$char_traits@D@std@@V?$allocator@D@2@@std@@@std@@PEAX@1@@Z 000000018000e1d0 f i out_saitek.obj
 0001:0000d5c0       ??$construct@U?$pair@$$CBHV?$basic_string@DU?$char_traits@D@std@@V?$allocator@D@2@@std@@@std@@AEBUpiecewise_construct_t@2@V?$tuple@AEBH@2@V?$tuple@$$$V@2@@?$_Wrap_alloc@V?$allocator@U?$_Tree_node@U?$pair@$$CBHV?$basic_string@DU?$char_traits@D@std@@V?$allocator@D@2@@std@@@std@@PEAX@std@@@std@@@std@@QEAAXPEAU?$pair@$$CBHV?$basic_string@DU?$char_traits@D@std@@V?$allocator@D@2@@std@@@1@AEBUpiecewise_construct_t@1@$$QEAV?$tuple@AEBH@1@$$QEAV?$tuple@$$$V@1@@Z 000000018000e5c0 f i out_saitek.obj
 0001:0000d5c0       ??$construct@U?$pair@$$CBHV?$basic_string@DU?$char_traits@D@std@@V?$allocator@D@2@@std@@@std@@AEBUpiecewise_construct_t@2@V?$tuple@$$QEAH@2@V?$tuple@$$$V@2@@?$_Wrap_alloc@V?$allocator@U?$_Tree_node@U?$pair@$$CBHV?$basic_string@DU?$char_traits@D@std@@V?$allocator@D@2@@std@@@std@@PEAX@std@@@std@@@std@@QEAAXPEAU?$pair@$$CBHV?$basic_string@DU?$char_traits@D@std@@V?$allocator@D@2@@std@@@1@AEBUpiecewise_construct_t@1@$$QEAV?$tuple@$$QEAH@1@$$QEAV?$tuple@$$$V@1@@Z 000000018000e5c0 f i mfdpage_fms.obj
 0001:0000d630       ??$construct@U?$pair@$$CBHV?$basic_string@DU?$char_traits@D@std@@V?$allocator@D@2@@std@@@std@@AEBUpiecewise_construct_t@2@V?$tuple@AEBH@2@V?$tuple@$$$V@2@@?$allocator@U?$_Tree_node@U?$pair@$$CBHV?$basic_string@DU?$char_traits@D@std@@V?$allocator@D@2@@std@@@std@@PEAX@std@@@std@@QEAAXPEAU?$pair@$$CBHV?$basic_string@DU?$char_traits@D@std@@V?$allocator@D@2@@std@@@1@AEBUpiecewise_construct_t@1@$$QEAV?$tuple@AEBH@1@$$QEAV?$tuple@$$$V@1@@Z 000000018000e630 f i out_saitek.obj
 0001:0000d630       ??$construct@U?$pair@$$CBHV?$basic_string@DU?$char_traits@D@std@@V?$allocator@D@2@@std@@@std@@AEBUpiecewise_construct_t@2@V?$tuple@$$QEAH@2@V?$tuple@$$$V@2@@?$allocator@U?$_Tree_node@U?$pair@$$CBHV?$basic_string@DU?$char_traits@D@std@@V?$allocator@D@2@@std@@@std@@PEAX@std@@@std@@QEAAXPEAU?$pair@$$CBHV?$basic_string@DU?$char_traits@D@std@@V?$allocator@D@2@@std@@@1@AEBUpiecewise_construct_t@1@$$QEAV?$tuple@$$QEAH@1@$$QEAV?$tuple@$$$V@1@@Z 000000018000e630 f i mfdpage_fms.obj
 0001:0000d700       ??$construct@U?$pair@$$CBHV?$basic_string@DU?$char_traits@D@std@@V?$allocator@D@2@@std@@@std@@AEBUpiecewise_construct_t@2@V?$tuple@$$QEAH@2@V?$tuple@$$$V@2@@?$allocator_traits@V?$allocator@U?$_Tree_node@U?$pair@$$CBHV?$basic_string@DU?$char_traits@D@std@@V?$allocator@D@2@@std@@@std@@PEAX@std@@@std@@@std@@SAXAEAV?$allocator@U?$_Tree_node@U?$pair@$$CBHV?$basic_string@DU?$char_traits@D@std@@V?$allocator@D@2@@std@@@std@@PEAX@std@@@1@PEAU?$pair@$$CBHV?$basic_string@DU?$char_traits@D@std@@V?$allocator@D@2@@std@@@1@AEBUpiecewise_construct_t@1@$$QEAV?$tuple@$$QEAH@1@$$QEAV?$tuple@$$$V@1@@Z 000000018000e700 f i mfdpage_fms.obj
 0001:0000d700       ??$construct@U?$pair@$$CBHV?$basic_string@DU?$char_traits@D@std@@V?$allocator@D@2@@std@@@std@@AEBUpiecewise_construct_t@2@V?$tuple@AEBH@2@V?$tuple@$$$V@2@@?$allocator_traits@V?$allocator@U?$_Tree_node@U?$pair@$$CBHV?$basic_string@DU?$char_traits@D@std@@V?$allocator@D@2@@std@@@std@@PEAX@std@@@std@@@std@@SAXAEAV?$allocator@U?$_Tree_node@U?$pair@$$CBHV?$basic_string@DU?$char_traits@D@std@@V?$allocator@D@2@@std@@@std@@PEAX@std@@@1@PEAU?$pair@$$CBHV?$basic_string@DU?$char_traits@D@std@@V?$allocator@D@2@@std@@@1@AEBUpiecewise_construct_t@1@$$QEAV?$tuple@AEBH@1@$$QEAV?$tuple@$$$V@1@@Z 000000018000e700 f i out_saitek.obj
 0001:0000d770       ??$destroy@U?$pair@$$CBHV?$basic_string@DU?$char_traits@D@std@@V?$allocator@D@2@@std@@@std@@@?$_Wrap_alloc@V?$allocator@U?$_Tree_node@U?$pair@$$CBHV?$basic_string@DU?$char_traits@D@std@@V?$allocator@D@2@@std@@@std@@PEAX@std@@@std@@@std@@QEAAXPEAU?$pair@$$CBHV?$basic_string@DU?$char_traits@D@std@@V?$allocator@D@2@@std@@@1@@Z 000000018000e770 f i out_saitek.obj
 0001:0000d7a0       ??$destroy@U?$pair@$$CBHV?$basic_string@DU?$char_traits@D@std@@V?$allocator@D@2@@std@@@std@@@?$allocator@U?$_Tree_node@U?$pair@$$CBHV?$basic_string@DU?$char_traits@D@std@@V?$allocator@D@2@@std@@@std@@PEAX@std@@@std@@QEAAXPEAU?$pair@$$CBHV?$basic_string@DU?$char_traits@D@std@@V?$allocator@D@2@@std@@@1@@Z 000000018000e7a0 f i out_saitek.obj
 0001:0000d7c0       ??$destroy@U?$pair@$$CBHV?$basic_string@DU?$char_traits@D@std@@V?$allocator@D@2@@std@@@std@@@?$allocator_traits@V?$allocator@U?$_Tree_node@U?$pair@$$CBHV?$basic_string@DU?$char_traits@D@std@@V?$allocator@D@2@@std@@@std@@PEAX@std@@@std@@@std@@SAXAEAV?$allocator@U?$_Tree_node@U?$pair@$$CBHV?$basic_string@DU?$char_traits@D@std@@V?$allocator@D@2@@std@@@std@@PEAX@std@@@1@PEAU?$pair@$$CBHV?$basic_string@DU?$char_traits@D@std@@V?$allocator@D@2@@std@@@1@@Z 000000018000e7c0 f i out_saitek.obj
 0001:0000d7f0       ??$emplace_hint@AEBUpiecewise_construct_t@std@@V?$tuple@AEBH@2@V?$tuple@$$$V@2@@?$_Tree@V?$_Tmap_traits@HV?$basic_string@DU?$char_traits@D@std@@V?$allocator@D@2@@std@@U?$less@H@2@V?$allocator@U?$pair@$$CBHV?$basic_string@DU?$char_traits@D@std@@V?$allocator@D@2@@std@@@std@@@2@$0A@@std@@@std@@QEAA?AV?$_Tree_iterator@V?$_Tree_val@U?$_Tree_simple_types@U?$pair@$$CBHV?$basic_string@DU?$char_traits@D@std@@V?$allocator@D@2@@std@@@std@@@std@@@std@@@1@V?$_Tree_const_iterator@V?$_Tree_val@U?$_Tree_simple_types@U?$pair@$$CBHV?$basic_string@DU?$char_traits@D@std@@V?$allocator@D@2@@std@@@std@@@std@@@std@@@1@AEBUpiecewise_construct_t@1@$$QEAV?$tuple@AEBH@1@$$QEAV?$tuple@$$$V@1@@Z 000000018000e7f0 f i out_saitek.obj
 0001:0000d890       ??0?$_Tree@V?$_Tmap_traits@HV?$basic_string@DU?$char_traits@D@std@@V?$allocator@D@2@@std@@U?$less@H@2@V?$allocator@U?$pair@$$CBHV?$basic_string@DU?$char_traits@D@std@@V?$allocator@D@2@@std@@@std@@@2@$0A@@std@@@std@@QEAA@AEBU?$less@H@1@AEBV?$allocator@U?$pair@$$CBHV?$basic_string@DU?$char_traits@D@std@@V?$allocator@D@2@@std@@@std@@@1@@Z 000000018000e890 f i out_saitek.obj
 0001:0000d8d0       ??0?$_Tree_alloc@$0A@U?$_Tree_base_types@U?$pair@$$CBHV?$basic_string@DU?$char_traits@D@std@@V?$allocator@D@2@@std@@@std@@V?$allocator@U?$pair@$$CBHV?$basic_string@DU?$char_traits@D@std@@V?$allocator@D@2@@std@@@std@@@2@@std@@@std@@QEAA@AEBV?$allocator@U?$pair@$$CBHV?$basic_string@DU?$char_traits@D@std@@V?$allocator@D@2@@std@@@std@@@1@@Z 000000018000e8d0 f i out_saitek.obj
 0001:0000d910       ??0?$_Tree_buy@U?$pair@$$CBHV?$basic_string@DU?$char_traits@D@std@@V?$allocator@D@2@@std@@@std@@V?$allocator@U?$pair@$$CBHV?$basic_string@DU?$char_traits@D@std@@V?$allocator@D@2@@std@@@std@@@2@@std@@QEAA@AEBV?$allocator@U?$pair@$$CBHV?$basic_string@DU?$char_traits@D@std@@V?$allocator@D@2@@std@@@std@@@1@@Z 000000018000e910 f i out_saitek.obj
 0001:0000d940       ??0?$_Tree_comp@$0A@V?$_Tmap_traits@HV?$basic_string@DU?$char_traits@D@std@@V?$allocator@D@2@@std@@U?$less@H@2@V?$allocator@U?$pair@$$CBHV?$basic_string@DU?$char_traits@D@std@@V?$allocator@D@2@@std@@@std@@@2@$0A@@std@@@std@@QEAA@AEBU?$less@H@1@AEBV?$allocator@U?$pair@$$CBHV?$basic_string@DU?$char_traits@D@std@@V?$allocator@D@2@@std@@@std@@@1@@Z 000000018000e940 f i out_saitek.obj
 0001:0000d970       ??0?$basic_string@DU?$char_traits@D@std@@V?$allocator@D@2@@std@@QEAA@AEBV01@@Z 000000018000e970 f i out_saitek.obj
 0001:0000d9e0       ??0?$map@HV?$basic_string@DU?$char_traits@D@std@@V?$allocator@D@2@@std@@U?$less@H@2@V?$allocator@U?$pair@$$CBHV?$basic_string@DU?$char_traits@D@std@@V?$allocator@D@2@@std@@@std@@@2@@std@@QEAA@XZ 000000018000e9e0 f i out_saitek.obj
 0001:0000da10       ??0out_joystick_t@@QEAA@XZ 000000018000ea10 f i out_saitek.obj
 0001:0000da30       ??1?$pair@$$CBHV?$basic_string@DU?$char_traits@D@std@@V?$allocator@D@2@@std@@@std@@QEAA@XZ 000000018000ea30 f i out_saitek.obj
 0001:0000da50       ??A?$map@HV?$basic_string@DU?$char_traits@D@std@@V?$allocator@D@2@@std@@U?$less@H@2@V?$allocator@U?$pair@$$CBHV?$basic_string@DU?$char_traits@D@std@@V?$allocator@D@2@@std@@@std@@@2@@std@@QEAAAEAV?$basic_string@DU?$char_traits@D@std@@V?$allocator@D@2@@1@AEBH@Z 000000018000ea50 f i out_saitek.obj
 0001:0000db70       ??R?$less@H@std@@QEBA_NAEBH0@Z 000000018000eb70 f i out_saitek.obj
 0001:0000dbb0       ??_G?$pair@$$CBHV?$basic_string@DU?$char_traits@D@std@@V?$allocator@D@2@@std@@@std@@QEAAPEAXI@Z 000000018000ebb0 f i out_saitek.obj
 0001:0000dbf0       ?_Buyheadnode@?$_Tree_alloc@$0A@U?$_Tree_base_types@U?$pair@$$CBHV?$basic_string@DU?$char_traits@D@std@@V?$allocator@D@2@@std@@@std@@V?$allocator@U?$pair@$$CBHV?$basic_string@DU?$char_traits@D@std@@V?$allocator@D@2@@std@@@std@@@2@@std@@@std@@QEAAPEAU?$_Tree_node@U?$pair@$$CBHV?$basic_string@DU?$char_traits@D@std@@V?$allocator@D@2@@std@@@std@@PEAX@2@XZ 000000018000ebf0 f i out_saitek.obj
 0001:0000dd00       ?_Buynode0@?$_Tree_buy@U?$pair@$$CBHV?$basic_string@DU?$char_traits@D@std@@V?$allocator@D@2@@std@@@std@@V?$allocator@U?$pair@$$CBHV?$basic_string@DU?$char_traits@D@std@@V?$allocator@D@2@@std@@@std@@@2@@std@@QEAAPEAU?$_Tree_node@U?$pair@$$CBHV?$basic_string@DU?$char_traits@D@std@@V?$allocator@D@2@@std@@@std@@PEAX@2@XZ 000000018000ed00 f i out_saitek.obj
 0001:0000de00       ?_Destroy_if_not_nil@?$_Tree@V?$_Tmap_traits@HV?$basic_string@DU?$char_traits@D@std@@V?$allocator@D@2@@std@@U?$less@H@2@V?$allocator@U?$pair@$$CBHV?$basic_string@DU?$char_traits@D@std@@V?$allocator@D@2@@std@@@std@@@2@$0A@@std@@@std@@IEAAXPEAU?$_Tree_node@U?$pair@$$CBHV?$basic_string@DU?$char_traits@D@std@@V?$allocator@D@2@@std@@@std@@PEAX@2@@Z 000000018000ee00 f i out_saitek.obj
 0001:0000de70       ?allocate@?$allocator@U?$_Tree_node@U?$pair@$$CBV?$basic_string@DU?$char_traits@D@std@@V?$allocator@D@2@@std@@D@std@@PEAX@std@@@std@@QEAAPEAU?$_Tree_node@U?$pair@$$CBV?$basic_string@DU?$char_traits@D@std@@V?$allocator@D@2@@std@@D@std@@PEAX@2@_K@Z 000000018000ee70 f i mfdpage.obj
 0001:0000de70       ?allocate@?$allocator@U?$_Tree_node@U?$pair@$$CBV?$basic_string@DU?$char_traits@D@std@@V?$allocator@D@2@@std@@PEAVfms_fp_item_t@@@std@@PEAX@std@@@std@@QEAAPEAU?$_Tree_node@U?$pair@$$CBV?$basic_string@DU?$char_traits@D@std@@V?$allocator@D@2@@std@@PEAVfms_fp_item_t@@@std@@PEAX@2@_K@Z 000000018000ee70 f i fms_fp.obj
 0001:0000de70       ?allocate@?$allocator@U?$_Tree_node@U?$pair@$$CBV?$basic_string@DU?$char_traits@D@std@@V?$allocator@D@2@@std@@H@std@@PEAX@std@@@std@@QEAAPEAU?$_Tree_node@U?$pair@$$CBV?$basic_string@DU?$char_traits@D@std@@V?$allocator@D@2@@std@@H@std@@PEAX@2@_K@Z 000000018000ee70 f i mfdpage.obj
 0001:0000de70       ?allocate@?$allocator@U?$_Tree_node@U?$pair@$$CBV?$basic_string@DU?$char_traits@D@std@@V?$allocator@D@2@@std@@PEAVfms_config_item_t@@@std@@PEAX@std@@@std@@QEAAPEAU?$_Tree_node@U?$pair@$$CBV?$basic_string@DU?$char_traits@D@std@@V?$allocator@D@2@@std@@PEAVfms_config_item_t@@@std@@PEAX@2@_K@Z 000000018000ee70 f i fms_config.obj
 0001:0000de70       ?allocate@?$allocator@U?$_Tree_node@U?$pair@$$CBHV?$basic_string@DU?$char_traits@D@std@@V?$allocator@D@2@@std@@@std@@PEAX@std@@@std@@QEAAPEAU?$_Tree_node@U?$pair@$$CBHV?$basic_string@DU?$char_traits@D@std@@V?$allocator@D@2@@std@@@std@@PEAX@2@_K@Z 000000018000ee70 f i out_saitek.obj
 0001:0000de70       ?allocate@?$allocator@U?$_Tree_node@U?$pair@$$CBV?$basic_string@DU?$char_traits@D@std@@V?$allocator@D@2@@std@@M@std@@PEAX@std@@@std@@QEAAPEAU?$_Tree_node@U?$pair@$$CBV?$basic_string@DU?$char_traits@D@std@@V?$allocator@D@2@@std@@M@std@@PEAX@2@_K@Z 000000018000ee70 f i mfdpage_fms.obj
 0001:0000de90       ?max_size@?$allocator@U?$_Tree_node@U?$pair@$$CBHV?$basic_string@DU?$char_traits@D@std@@V?$allocator@D@2@@std@@@std@@PEAX@std@@@std@@QEBA_KXZ 000000018000ee90 f i out_saitek.obj
 0001:0000de90       ?max_size@?$allocator@U?$_Tree_node@U?$pair@$$CBV?$basic_string@DU?$char_traits@D@std@@V?$allocator@D@2@@std@@H@std@@PEAX@std@@@std@@QEBA_KXZ 000000018000ee90 f i mfdpage.obj
 0001:0000de90       ?max_size@?$allocator@U?$_Tree_node@U?$pair@$$CBV?$basic_string@DU?$char_traits@D@std@@V?$allocator@D@2@@std@@D@std@@PEAX@std@@@std@@QEBA_KXZ 000000018000ee90 f i mfdpage.obj
 0001:0000de90       ?max_size@?$allocator@U?$_Tree_node@U?$pair@$$CBV?$basic_string@DU?$char_traits@D@std@@V?$allocator@D@2@@std@@PEAVfms_fp_item_t@@@std@@PEAX@std@@@std@@QEBA_KXZ 000000018000ee90 f i fms_fp.obj
 0001:0000de90       ?max_size@?$allocator@U?$_Tree_node@U?$pair@$$CBV?$basic_string@DU?$char_traits@D@std@@V?$allocator@D@2@@std@@PEAVfms_config_item_t@@@std@@PEAX@std@@@std@@QEBA_KXZ 000000018000ee90 f i fms_config.obj
 0001:0000de90       ?max_size@?$allocator@U?$_Tree_node@U?$pair@$$CBV?$basic_string@DU?$char_traits@D@std@@V?$allocator@D@2@@std@@M@std@@PEAX@std@@@std@@QEBA_KXZ 000000018000ee90 f i mfdpage_fms.obj
 0001:0000dea0       ?size@?$_Tree@V?$_Tmap_traits@HMU?$less@H@std@@V?$allocator@U?$pair@$$CBHM@std@@@2@$0A@@std@@@std@@QEBA_KXZ 000000018000eea0 f i fms_config.obj
 0001:0000dea0       ?category@error_condition@std@@QEBAAEBVerror_category@2@XZ 000000018000eea0 f i main.obj
 0001:0000dea0       ?size@?$_Tree@V?$_Tmap_traits@V?$basic_string@DU?$char_traits@D@std@@V?$allocator@D@2@@std@@MU?$less@V?$basic_string@DU?$char_traits@D@std@@V?$allocator@D@2@@std@@@2@V?$allocator@U?$pair@$$CBV?$basic_string@DU?$char_traits@D@std@@V?$allocator@D@2@@std@@M@std@@@2@$0A@@std@@@std@@QEBA_KXZ 000000018000eea0 f i mfdpage_fms.obj
 0001:0000dea0       ?size@?$_Tree@V?$_Tmap_traits@V?$basic_string@DU?$char_traits@D@std@@V?$allocator@D@2@@std@@DU?$less@V?$basic_string@DU?$char_traits@D@std@@V?$allocator@D@2@@std@@@2@V?$allocator@U?$pair@$$CBV?$basic_string@DU?$char_traits@D@std@@V?$allocator@D@2@@std@@D@std@@@2@$0A@@std@@@std@@QEBA_KXZ 000000018000eea0 f i mfdpage.obj
 0001:0000dea0       ?size@?$_Tree@V?$_Tmap_traits@V?$basic_string@DU?$char_traits@D@std@@V?$allocator@D@2@@std@@PEAVfms_config_item_t@@U?$less@V?$basic_string@DU?$char_traits@D@std@@V?$allocator@D@2@@std@@@2@V?$allocator@U?$pair@$$CBV?$basic_string@DU?$char_traits@D@std@@V?$allocator@D@2@@std@@PEAVfms_config_item_t@@@std@@@2@$0A@@std@@@std@@QEBA_KXZ 000000018000eea0 f i fms_config.obj
 0001:0000dea0       ?size@?$_Tree@V?$_Tmap_traits@V?$basic_string@DU?$char_traits@D@std@@V?$allocator@D@2@@std@@V12@U?$less@V?$basic_string@DU?$char_traits@D@std@@V?$allocator@D@2@@std@@@2@V?$allocator@U?$pair@$$CBV?$basic_string@DU?$char_traits@D@std@@V?$allocator@D@2@@std@@V12@@std@@@2@$0A@@std@@@std@@QEBA_KXZ 000000018000eea0 f i tools.obj
 0001:0000dea0       ?size@?$_Tree@V?$_Tmap_traits@V?$basic_string@DU?$char_traits@D@std@@V?$allocator@D@2@@std@@PEAVfms_fp_item_t@@U?$less@V?$basic_string@DU?$char_traits@D@std@@V?$allocator@D@2@@std@@@2@V?$allocator@U?$pair@$$CBV?$basic_string@DU?$char_traits@D@std@@V?$allocator@D@2@@std@@PEAVfms_fp_item_t@@@std@@@2@$0A@@std@@@std@@QEBA_KXZ 000000018000eea0 f i fms_fp.obj
 0001:0000dea0       ?size@?$_Tree@V?$_Tset_traits@PEAVmfdpage_t@@U?$less@PEAVmfdpage_t@@@std@@V?$allocator@PEAVmfdpage_t@@@3@$0A@@std@@@std@@QEBA_KXZ 000000018000eea0 f i in.obj
 0001:0000dea0       ?size@?$_Tree@V?$_Tmap_traits@HPEAVfms_fp_item_t@@U?$less@H@std@@V?$allocator@U?$pair@$$CBHPEAVfms_fp_item_t@@@std@@@3@$0A@@std@@@std@@QEBA_KXZ 000000018000eea0 f i mfdpage_fms.obj
 0001:0000dea0       ?size@?$_Tree@V?$_Tmap_traits@HPEAVobject_t@@U?$less@H@std@@V?$allocator@U?$pair@$$CBHPEAVobject_t@@@std@@@3@$0A@@std@@@std@@QEBA_KXZ 000000018000eea0 f i mfdpage.obj
 0001:0000dea0       ?size@?$_Tree@V?$_Tmap_traits@HV?$basic_string@DU?$char_traits@D@std@@V?$allocator@D@2@@std@@U?$less@H@2@V?$allocator@U?$pair@$$CBHV?$basic_string@DU?$char_traits@D@std@@V?$allocator@D@2@@std@@@std@@@2@$0A@@std@@@std@@QEBA_KXZ 000000018000eea0 f i out_saitek.obj
 0001:0000dea0       ?category@error_code@std@@QEBAAEBVerror_category@2@XZ 000000018000eea0 f i main.obj
 0001:0000dea0       ?seekpos@?$fpos@H@std@@QEBA_JXZ 000000018000eea0 f i config.obj
 0001:0000dea0       ?size@?$_Tree@V?$_Tmap_traits@V?$basic_string@DU?$char_traits@D@std@@V?$allocator@D@2@@std@@HU?$less@V?$basic_string@DU?$char_traits@D@std@@V?$allocator@D@2@@std@@@2@V?$allocator@U?$pair@$$CBV?$basic_string@DU?$char_traits@D@std@@V?$allocator@D@2@@std@@H@std@@@2@$0A@@std@@@std@@QEBA_KXZ 000000018000eea0 f i mfdpage.obj
 0001:0000deb0       ??0in_t@@QEAA@XZ           000000018000eeb0 f   in.obj
 0001:0000e070       ??1in_t@@QEAA@XZ           000000018000f070 f   in.obj
 0001:0000e0a0       ?handle_pagecycle@in_t@@QEAAXH@Z 000000018000f0a0 f   in.obj
 0001:0000e3b0       ?add_page@in_t@@QEAAXPEAVmfdpage_t@@@Z 000000018000f3b0 f   in.obj
 0001:0000e4c0       ?delete_all_pages@in_t@@QEAAXXZ 000000018000f4c0 f   in.obj
 0001:0000e5c0       ?dispatch_command@in_t@@SAHPEAXH0@Z 000000018000f5c0 f   in.obj
 0001:0000e680       ??$_Allocate@U?$_Tree_node@PEAVmfdpage_t@@PEAX@std@@@std@@YAPEAU?$_Tree_node@PEAVmfdpage_t@@PEAX@0@_KPEAU10@@Z 000000018000f680 f i in.obj
 0001:0000e680       ??$_Allocate@U?$_Tree_node@U?$pair@$$CBHM@std@@PEAX@std@@@std@@YAPEAU?$_Tree_node@U?$pair@$$CBHM@std@@PEAX@0@_KPEAU10@@Z 000000018000f680 f i fms_config.obj
 0001:0000e680       ??$_Allocate@U?$_Tree_node@PEAVobject_t@@PEAX@std@@@std@@YAPEAU?$_Tree_node@PEAVobject_t@@PEAX@0@_KPEAU10@@Z 000000018000f680 f i data.obj
 0001:0000e680       ??$_Allocate@U?$_Tree_node@PEAVlistener_t@@PEAX@std@@@std@@YAPEAU?$_Tree_node@PEAVlistener_t@@PEAX@0@_KPEAU10@@Z 000000018000f680 f i data.obj
 0001:0000e6e0       ??$_Buynode@AEBQEAVmfdpage_t@@@?$_Tree_buy@PEAVmfdpage_t@@V?$allocator@PEAVmfdpage_t@@@std@@@std@@QEAAPEAU?$_Tree_node@PEAVmfdpage_t@@PEAX@1@AEBQEAVmfdpage_t@@@Z 000000018000f6e0 f i in.obj
 0001:0000e780       ??$_Buynode_if_nil@AEBQEAVmfdpage_t@@@?$_Tree@V?$_Tset_traits@PEAVmfdpage_t@@U?$less@PEAVmfdpage_t@@@std@@V?$allocator@PEAVmfdpage_t@@@3@$0A@@std@@@std@@IEAAPEAU?$_Tree_node@PEAVmfdpage_t@@PEAX@1@U_Nil@1@AEBQEAVmfdpage_t@@@Z 000000018000f780 f i in.obj
 0001:0000e7b0       ??$_Insert_at@AEBQEAVmfdpage_t@@U_Nil@std@@@?$_Tree@V?$_Tset_traits@PEAVmfdpage_t@@U?$less@PEAVmfdpage_t@@@std@@V?$allocator@PEAVmfdpage_t@@@3@$0A@@std@@@std@@IEAA?AV?$_Tree_const_iterator@V?$_Tree_val@U?$_Tree_simple_types@PEAVmfdpage_t@@@std@@@std@@@1@_NPEAU?$_Tree_node@PEAVmfdpage_t@@PEAX@1@AEBQEAVmfdpage_t@@U_Nil@1@@Z 000000018000f7b0 f i in.obj
 0001:0000ebe0       ??$_Insert_nohint@AEBQEAVmfdpage_t@@U_Nil@std@@@?$_Tree@V?$_Tset_traits@PEAVmfdpage_t@@U?$less@PEAVmfdpage_t@@@std@@V?$allocator@PEAVmfdpage_t@@@3@$0A@@std@@@std@@IEAA?AU?$pair@V?$_Tree_const_iterator@V?$_Tree_val@U?$_Tree_simple_types@PEAVmfdpage_t@@@std@@@std@@@std@@_N@1@_NAEBQEAVmfdpage_t@@U_Nil@1@@Z 000000018000fbe0 f i in.obj
 0001:0000efd0       ??0?$allocator@U?$pair@$$CBHPEAVfms_fp_item_t@@@std@@@std@@QEAA@XZ 000000018000ffd0 f i fms_fp.obj
 0001:0000efd0       ??$move@AEAV?$tuple@AEBV?$basic_string@DU?$char_traits@D@std@@V?$allocator@D@2@@std@@@std@@@std@@YA$$QEAV?$tuple@AEBV?$basic_string@DU?$char_traits@D@std@@V?$allocator@D@2@@std@@@0@AEAV10@@Z 000000018000ffd0 f i mfdpage.obj
 0001:0000efd0       ??$forward@V?$_Tree_iterator@V?$_Tree_val@U?$_Tree_simple_types@U?$pair@$$CBV?$basic_string@DU?$char_traits@D@std@@V?$allocator@D@2@@std@@PEAVfms_config_item_t@@@std@@@std@@@std@@@std@@@std@@YA$$QEAV?$_Tree_iterator@V?$_Tree_val@U?$_Tree_simple_types@U?$pair@$$CBV?$basic_string@DU?$char_traits@D@std@@V?$allocator@D@2@@std@@PEAVfms_config_item_t@@@std@@@std@@@std@@@0@AEAV10@@Z 000000018000ffd0 f i fms_config.obj
 0001:0000efd0       ??$forward@AEAPEAU?$_Tree_node@PEAVobject_t@@PEAX@std@@@std@@YAAEAPEAU?$_Tree_node@PEAVobject_t@@PEAX@0@AEAPEAU10@@Z 000000018000ffd0 f i data.obj
 0001:0000efd0       ??$forward@AEAU?$pair@$$CBV?$basic_string@DU?$char_traits@D@std@@V?$allocator@D@2@@std@@H@std@@@std@@YAAEAU?$pair@$$CBV?$basic_string@DU?$char_traits@D@std@@V?$allocator@D@2@@std@@H@0@AEAU10@@Z 000000018000ffd0 f i mfdpage.obj
 0001:0000efd0       ?_Left@?$_Tree_val@U?$_Tree_simple_types@U?$pair@$$CBHPEAVobject_t@@@std@@@std@@@std@@SAAEAPEAU?$_Tree_node@U?$pair@$$CBHPEAVobject_t@@@std@@PEAX@2@PEAU32@@Z 000000018000ffd0 f i mfdpage.obj
 0001:0000efd0       ??$_Kfn@$$CBV?$basic_string@DU?$char_traits@D@std@@V?$allocator@D@2@@std@@PEAVfms_fp_item_t@@@?$_Tmap_traits@V?$basic_string@DU?$char_traits@D@std@@V?$allocator@D@2@@std@@PEAVfms_fp_item_t@@U?$less@V?$basic_string@DU?$char_traits@D@std@@V?$allocator@D@2@@std@@@2@V?$allocator@U?$pair@$$CBV?$basic_string@DU?$char_traits@D@std@@V?$allocator@D@2@@std@@PEAVfms_fp_item_t@@@std@@@2@$0A@@std@@SAAEBV?$basic_string@DU?$char_traits@D@std@@V?$allocator@D@2@@1@AEBU?$pair@$$CBV?$basic_string@DU?$char_traits@D@std@@V?$allocator@D@2@@std@@PEAVfms_fp_item_t@@@1@@Z 000000018000ffd0 f i fms_fp.obj
 0001:0000efd0       ??$forward@AEAU?$pair@$$CBV?$basic_string@DU?$char_traits@D@std@@V?$allocator@D@2@@std@@PEAVfms_fp_item_t@@@std@@@std@@YAAEAU?$pair@$$CBV?$basic_string@DU?$char_traits@D@std@@V?$allocator@D@2@@std@@PEAVfms_fp_item_t@@@0@AEAU10@@Z 000000018000ffd0 f i fms_fp.obj
 0001:0000efd0       ??$move@AEAV?$tuple@$$QEAH@std@@@std@@YA$$QEAV?$tuple@$$QEAH@0@AEAV10@@Z 000000018000ffd0 f i mfdpage_fms.obj
 0001:0000efd0       ??$_Move@AEAPEAU?$_Tree_node@U?$pair@$$CBV?$basic_string@DU?$char_traits@D@std@@V?$allocator@D@2@@std@@V12@@std@@PEAX@std@@@std@@YA$$QEAPEAU?$_Tree_node@U?$pair@$$CBV?$basic_string@DU?$char_traits@D@std@@V?$allocator@D@2@@std@@V12@@std@@PEAX@0@AEAPEAU10@@Z 000000018000ffd0 f i mfdpage_led.obj
 0001:0000efd0       ??$forward@AEBH@std@@YAAEBHAEBH@Z 000000018000ffd0 f i out_saitek.obj
 0001:0000efd0       ??$_Move@AEA_K@std@@YA$$QEA_KAEA_K@Z 000000018000ffd0 f i mfdpage_led.obj
 0001:0000efd0       ??$forward@V?$tuple@$$$V@std@@@std@@YA$$QEAV?$tuple@$$$V@0@AEAV10@@Z 000000018000ffd0 f i tools.obj
 0001:0000efd0       ??0?$allocator@U?$_Tree_node@PEAVobject_t@@PEAX@std@@@std@@QEAA@XZ 000000018000ffd0 f i data.obj
 0001:0000efd0       ?_Left@?$_Tree_val@U?$_Tree_simple_types@PEAVmfdpage_t@@@std@@@std@@SAAEAPEAU?$_Tree_node@PEAVmfdpage_t@@PEAX@2@PEAU32@@Z 000000018000ffd0 f i in.obj
 0001:0000efd0       ??$forward@AEAPEAU?$_Tree_node@U?$pair@$$CBV?$basic_string@DU?$char_traits@D@std@@V?$allocator@D@2@@std@@M@std@@PEAX@std@@@std@@YAAEAPEAU?$_Tree_node@U?$pair@$$CBV?$basic_string@DU?$char_traits@D@std@@V?$allocator@D@2@@std@@M@std@@PEAX@0@AEAPEAU10@@Z 000000018000ffd0 f i mfdpage_fms.obj
 0001:0000efd0       ??$forward@H@std@@YA$$QEAHAEAH@Z 000000018000ffd0 f i mfdpage_fms.obj
 0001:0000efd0       ??$forward@V?$_Tree_iterator@V?$_Tree_val@U?$_Tree_simple_types@U?$pair@$$CBV?$basic_string@DU?$char_traits@D@std@@V?$allocator@D@2@@std@@D@std@@@std@@@std@@@std@@@std@@YA$$QEAV?$_Tree_iterator@V?$_Tree_val@U?$_Tree_simple_types@U?$pair@$$CBV?$basic_string@DU?$char_traits@D@std@@V?$allocator@D@2@@std@@D@std@@@std@@@std@@@0@AEAV10@@Z 000000018000ffd0 f i mfdpage.obj
 0001:0000efd0       ??$forward@AEAV?$_Tree_iterator@V?$_Tree_val@U?$_Tree_simple_types@U?$pair@$$CBV?$basic_string@DU?$char_traits@D@std@@V?$allocator@D@2@@std@@V12@@std@@@std@@@std@@@std@@@std@@YAAEAV?$_Tree_iterator@V?$_Tree_val@U?$_Tree_simple_types@U?$pair@$$CBV?$basic_string@DU?$char_traits@D@std@@V?$allocator@D@2@@std@@V12@@std@@@std@@@std@@@0@AEAV10@@Z 000000018000ffd0 f i tools.obj
 0001:0000efd0       ??$forward@AEAPEAU?$_Tree_node@U?$pair@$$CBV?$basic_string@DU?$char_traits@D@std@@V?$allocator@D@2@@std@@H@std@@PEAX@std@@@std@@YAAEAPEAU?$_Tree_node@U?$pair@$$CBV?$basic_string@DU?$char_traits@D@std@@V?$allocator@D@2@@std@@H@std@@PEAX@0@AEAPEAU10@@Z 000000018000ffd0 f i mfdpage.obj
 0001:0000efd0       ??$forward@V?$_Tree_iterator@V?$_Tree_val@U?$_Tree_simple_types@U?$pair@$$CBHV?$basic_string@DU?$char_traits@D@std@@V?$allocator@D@2@@std@@@std@@@std@@@std@@@std@@@std@@YA$$QEAV?$_Tree_iterator@V?$_Tree_val@U?$_Tree_simple_types@U?$pair@$$CBHV?$basic_string@DU?$char_traits@D@std@@V?$allocator@D@2@@std@@@std@@@std@@@std@@@0@AEAV10@@Z 000000018000ffd0 f i out_saitek.obj
 0001:0000efd0       ?_Get_rest@?$tuple@$$QEAH@std@@QEAAAEAV?$tuple@$$$V@2@XZ 000000018000ffd0 f i mfdpage_fms.obj
 0001:0000efd0       ?_Left@?$_Tree_val@U?$_Tree_simple_types@U?$pair@$$CBV?$basic_string@DU?$char_traits@D@std@@V?$allocator@D@2@@std@@D@std@@@std@@@std@@SAAEAPEAU?$_Tree_node@U?$pair@$$CBV?$basic_string@DU?$char_traits@D@std@@V?$allocator@D@2@@std@@D@std@@PEAX@2@PEAU32@@Z 000000018000ffd0 f i mfdpage.obj
 0001:0000efd0       ??$addressof@U?$pair@$$CBV?$basic_string@DU?$char_traits@D@std@@V?$allocator@D@2@@std@@PEAVfms_fp_item_t@@@std@@@std@@YAPEAU?$pair@$$CBV?$basic_string@DU?$char_traits@D@std@@V?$allocator@D@2@@std@@PEAVfms_fp_item_t@@@0@AEAU10@@Z 000000018000ffd0 f i fms_fp.obj
 0001:0000efd0       ?_Left@?$_Tree_val@U?$_Tree_simple_types@U?$pair@$$CBHV?$basic_string@DU?$char_traits@D@std@@V?$allocator@D@2@@std@@@std@@@std@@@std@@SAAEAPEAU?$_Tree_node@U?$pair@$$CBHV?$basic_string@DU?$char_traits@D@std@@V?$allocator@D@2@@std@@@std@@PEAX@2@PEAU32@@Z 000000018000ffd0 f i out_saitek.obj
 0001:0000efd0       ??$forward@AEAV?$_Tree_iterator@V?$_Tree_val@U?$_Tree_simple_types@U?$pair@$$CBHPEAVobject_t@@@std@@@std@@@std@@@std@@@std@@YAAEAV?$_Tree_iterator@V?$_Tree_val@U?$_Tree_simple_types@U?$pair@$$CBHPEAVobject_t@@@std@@@std@@@std@@@0@AEAV10@@Z 000000018000ffd0 f i mfdpage.obj
 0001:0000efd0       ??$forward@AEAV?$_Tree_iterator@V?$_Tree_val@U?$_Tree_simple_types@U?$pair@$$CBHM@std@@@std@@@std@@@std@@@std@@YAAEAV?$_Tree_iterator@V?$_Tree_val@U?$_Tree_simple_types@U?$pair@$$CBHM@std@@@std@@@std@@@0@AEAV10@@Z 000000018000ffd0 f i fms_config.obj
 0001:0000efd0       ??$forward@V?$_Tree_iterator@V?$_Tree_val@U?$_Tree_simple_types@U?$pair@$$CBHPEAVobject_t@@@std@@@std@@@std@@@std@@@std@@YA$$QEAV?$_Tree_iterator@V?$_Tree_val@U?$_Tree_simple_types@U?$pair@$$CBHPEAVobject_t@@@std@@@std@@@std@@@0@AEAV10@@Z 000000018000ffd0 f i mfdpage.obj
 0001:0000efd0       ??$move@AEAV?$basic_string@DU?$char_traits@D@std@@V?$allocator@D@2@@std@@@std@@YA$$QEAV?$basic_string@DU?$char_traits@D@std@@V?$allocator@D@2@@0@AEAV10@@Z 000000018000ffd0 f i tools.obj
 0001:0000efd0       ??$forward@AEAPEAU?$_Tree_node@U?$pair@$$CBHM@std@@PEAX@std@@@std@@YAAEAPEAU?$_Tree_node@U?$pair@$$CBHM@std@@PEAX@0@AEAPEAU10@@Z 000000018000ffd0 f i fms_config.obj
 0001:0000efd0       ??0?$allocator@PEAVlistener_t@@@std@@QEAA@XZ 000000018000ffd0 f i data.obj
 0001:0000efd0       ??$addressof@PEAU?$_Tree_node@PEAVlistener_t@@PEAX@std@@@std@@YAPEAPEAU?$_Tree_node@PEAVlistener_t@@PEAX@0@AEAPEAU10@@Z 000000018000ffd0 f i data.obj
 0001:0000efd0       ??$_Kfn@$$CBV?$basic_string@DU?$char_traits@D@std@@V?$allocator@D@2@@std@@PEAVfms_config_item_t@@@?$_Tmap_traits@V?$basic_string@DU?$char_traits@D@std@@V?$allocator@D@2@@std@@PEAVfms_config_item_t@@U?$less@V?$basic_string@DU?$char_traits@D@std@@V?$allocator@D@2@@std@@@2@V?$allocator@U?$pair@$$CBV?$basic_string@DU?$char_traits@D@std@@V?$allocator@D@2@@std@@PEAVfms_config_item_t@@@std@@@2@$0A@@std@@SAAEBV?$basic_string@DU?$char_traits@D@std@@V?$allocator@D@2@@1@AEBU?$pair@$$CBV?$basic_string@DU?$char_traits@D@std@@V?$allocator@D@2@@std@@PEAVfms_config_item_t@@@1@@Z 000000018000ffd0 f i fms_config.obj
 0001:0000efd0       ??$forward@AEAV?$_Tree_iterator@V?$_Tree_val@U?$_Tree_simple_types@U?$pair@$$CBV?$basic_string@DU?$char_traits@D@std@@V?$allocator@D@2@@std@@PEAVfms_config_item_t@@@std@@@std@@@std@@@std@@@std@@YAAEAV?$_Tree_iterator@V?$_Tree_val@U?$_Tree_simple_types@U?$pair@$$CBV?$basic_string@DU?$char_traits@D@std@@V?$allocator@D@2@@std@@PEAVfms_config_item_t@@@std@@@std@@@std@@@0@AEAV10@@Z 000000018000ffd0 f i fms_config.obj
 0001:0000efd0       ?_Left@?$_Tree_val@U?$_Tree_simple_types@U?$pair@$$CBV?$basic_string@DU?$char_traits@D@std@@V?$allocator@D@2@@std@@PEAVfms_config_item_t@@@std@@@std@@@std@@SAAEAPEAU?$_Tree_node@U?$pair@$$CBV?$basic_string@DU?$char_traits@D@std@@V?$allocator@D@2@@std@@PEAVfms_config_item_t@@@std@@PEAX@2@PEAU32@@Z 000000018000ffd0 f i fms_config.obj
 0001:0000efd0       ??$forward@V?$tuple@AEBH@std@@@std@@YA$$QEAV?$tuple@AEBH@0@AEAV10@@Z 000000018000ffd0 f i out_saitek.obj
 0001:0000efd0       ??$_Kfn@$$CBHPEAVfms_fp_item_t@@@?$_Tmap_traits@HPEAVfms_fp_item_t@@U?$less@H@std@@V?$allocator@U?$pair@$$CBHPEAVfms_fp_item_t@@@std@@@3@$0A@@std@@SAAEBHAEBU?$pair@$$CBHPEAVfms_fp_item_t@@@1@@Z 000000018000ffd0 f i mfdpage_fms.obj
 0001:0000efd0       ??$forward@$$QEAH@std@@YA$$QEAHAEAH@Z 000000018000ffd0 f i mfdpage_fms.obj
 0001:0000efd0       ??$addressof@PEAVlistener_t@@@std@@YAPEAPEAVlistener_t@@AEAPEAV1@@Z 000000018000ffd0 f i data.obj
 0001:0000efd0       ?_Left@?$_Tree_val@U?$_Tree_simple_types@U?$pair@$$CBV?$basic_string@DU?$char_traits@D@std@@V?$allocator@D@2@@std@@V12@@std@@@std@@@std@@SAAEAPEAU?$_Tree_node@U?$pair@$$CBV?$basic_string@DU?$char_traits@D@std@@V?$allocator@D@2@@std@@V12@@std@@PEAX@2@PEAU32@@Z 000000018000ffd0 f i tools.obj
 0001:0000efd0       ??$forward@AEAU?$pair@$$CBV?$basic_string@DU?$char_traits@D@std@@V?$allocator@D@2@@std@@D@std@@@std@@YAAEAU?$pair@$$CBV?$basic_string@DU?$char_traits@D@std@@V?$allocator@D@2@@std@@D@0@AEAU10@@Z 000000018000ffd0 f i mfdpage.obj
 0001:0000efd0       ??0?$allocator@U?$pair@$$CBV?$basic_string@DU?$char_traits@D@std@@V?$allocator@D@2@@std@@PEAVfms_fp_item_t@@@std@@@std@@QEAA@XZ 000000018000ffd0 f i fms_fp.obj
 0001:0000efd0       ?_Kfn@?$_Tset_traits@PEAVlistener_t@@U?$less@PEAVlistener_t@@@std@@V?$allocator@PEAVlistener_t@@@3@$0A@@std@@SAAEBQEAVlistener_t@@AEBQEAV3@@Z 000000018000ffd0 f i data.obj
 0001:0000efd0       ??$forward@AEAPEAD@std@@YAAEAPEADAEAPEAD@Z 000000018000ffd0 f i main.obj
 0001:0000efd0       ??$forward@V?$_Tree_iterator@V?$_Tree_val@U?$_Tree_simple_types@U?$pair@$$CBV?$basic_string@DU?$char_traits@D@std@@V?$allocator@D@2@@std@@PEAVfms_fp_item_t@@@std@@@std@@@std@@@std@@@std@@YA$$QEAV?$_Tree_iterator@V?$_Tree_val@U?$_Tree_simple_types@U?$pair@$$CBV?$basic_string@DU?$char_traits@D@std@@V?$allocator@D@2@@std@@PEAVfms_fp_item_t@@@std@@@std@@@std@@@0@AEAV10@@Z 000000018000ffd0 f i fms_fp.obj
 0001:0000efd0       ??$addressof@U?$pair@$$CBV?$basic_string@DU?$char_traits@D@std@@V?$allocator@D@2@@std@@H@std@@@std@@YAPEAU?$pair@$$CBV?$basic_string@DU?$char_traits@D@std@@V?$allocator@D@2@@std@@H@0@AEAU10@@Z 000000018000ffd0 f i mfdpage.obj
 0001:0000efd0       ?_Left@?$_Tree_val@U?$_Tree_simple_types@U?$pair@$$CBV?$basic_string@DU?$char_traits@D@std@@V?$allocator@D@2@@std@@H@std@@@std@@@std@@SAAEAPEAU?$_Tree_node@U?$pair@$$CBV?$basic_string@DU?$char_traits@D@std@@V?$allocator@D@2@@std@@H@std@@PEAX@2@PEAU32@@Z 000000018000ffd0 f i mfdpage.obj
 0001:0000efd0       ??$forward@AEBQEAVobject_t@@@std@@YAAEBQEAVobject_t@@AEBQEAV1@@Z 000000018000ffd0 f i data.obj
 0001:0000efd0       ??$forward@V?$_Tree_iterator@V?$_Tree_val@U?$_Tree_simple_types@U?$pair@$$CBHPEAVfms_fp_item_t@@@std@@@std@@@std@@@std@@@std@@YA$$QEAV?$_Tree_iterator@V?$_Tree_val@U?$_Tree_simple_types@U?$pair@$$CBHPEAVfms_fp_item_t@@@std@@@std@@@std@@@0@AEAV10@@Z 000000018000ffd0 f i mfdpage_fms.obj
 0001:0000efd0       ??$forward@V?$_Tree_iterator@V?$_Tree_val@U?$_Tree_simple_types@U?$pair@$$CBV?$basic_string@DU?$char_traits@D@std@@V?$allocator@D@2@@std@@V12@@std@@@std@@@std@@@std@@@std@@YA$$QEAV?$_Tree_iterator@V?$_Tree_val@U?$_Tree_simple_types@U?$pair@$$CBV?$basic_string@DU?$char_traits@D@std@@V?$allocator@D@2@@std@@V12@@std@@@std@@@std@@@0@AEAV10@@Z 000000018000ffd0 f i tools.obj
 0001:0000efd0       ??$forward@AEAPEAU?$_Tree_node@U?$pair@$$CBHPEAVobject_t@@@std@@PEAX@std@@@std@@YAAEAPEAU?$_Tree_node@U?$pair@$$CBHPEAVobject_t@@@std@@PEAX@0@AEAPEAU10@@Z 000000018000ffd0 f i mfdpage.obj
 0001:0000efd0       ??$forward@AEAPEAU?$_Tree_node@PEAVlistener_t@@PEAX@std@@@std@@YAAEAPEAU?$_Tree_node@PEAVlistener_t@@PEAX@0@AEAPEAU10@@Z 000000018000ffd0 f i data.obj
 0001:0000efd0       ??$addressof@U?$pair@$$CBV?$basic_string@DU?$char_traits@D@std@@V?$allocator@D@2@@std@@V12@@std@@@std@@YAPEAU?$pair@$$CBV?$basic_string@DU?$char_traits@D@std@@V?$allocator@D@2@@std@@V12@@0@AEAU10@@Z 000000018000ffd0 f i tools.obj
 0001:0000efd0       ??$addressof@U?$pair@$$CBV?$basic_string@DU?$char_traits@D@std@@V?$allocator@D@2@@std@@M@std@@@std@@YAPEAU?$pair@$$CBV?$basic_string@DU?$char_traits@D@std@@V?$allocator@D@2@@std@@M@0@AEAU10@@Z 000000018000ffd0 f i mfdpage_fms.obj
 0001:0000efd0       ??$move@AEAV?$tuple@AEBH@std@@@std@@YA$$QEAV?$tuple@AEBH@0@AEAV10@@Z 000000018000ffd0 f i out_saitek.obj
 0001:0000efd0       ?_Kfn@?$_Tset_traits@PEAVobject_t@@U?$less@PEAVobject_t@@@std@@V?$allocator@PEAVobject_t@@@3@$0A@@std@@SAAEBQEAVobject_t@@AEBQEAV3@@Z 000000018000ffd0 f i data.obj
 0001:0000efd0       ??$move@AEAV?$tuple@$$QEAV?$basic_string@DU?$char_traits@D@std@@V?$allocator@D@2@@std@@@std@@@std@@YA$$QEAV?$tuple@$$QEAV?$basic_string@DU?$char_traits@D@std@@V?$allocator@D@2@@std@@@0@AEAV10@@Z 000000018000ffd0 f i tools.obj
 0001:0000efd0       ??0?$allocator@PEAVobject_t@@@std@@QEAA@XZ 000000018000ffd0 f i data.obj
 0001:0000efd0       ?_Left@?$_Tree_val@U?$_Tree_simple_types@U?$pair@$$CBHM@std@@@std@@@std@@SAAEAPEAU?$_Tree_node@U?$pair@$$CBHM@std@@PEAX@2@PEAU32@@Z 000000018000ffd0 f i fms_config.obj
 0001:0000efd0       ??$addressof@U?$pair@$$CBHM@std@@@std@@YAPEAU?$pair@$$CBHM@0@AEAU10@@Z 000000018000ffd0 f i fms_config.obj
 0001:0000efd0       ??$_Kfn@$$CBV?$basic_string@DU?$char_traits@D@std@@V?$allocator@D@2@@std@@V12@@?$_Tmap_traits@V?$basic_string@DU?$char_traits@D@std@@V?$allocator@D@2@@std@@V12@U?$less@V?$basic_string@DU?$char_traits@D@std@@V?$allocator@D@2@@std@@@2@V?$allocator@U?$pair@$$CBV?$basic_string@DU?$char_traits@D@std@@V?$allocator@D@2@@std@@V12@@std@@@2@$0A@@std@@SAAEBV?$basic_string@DU?$char_traits@D@std@@V?$allocator@D@2@@1@AEBU?$pair@$$CBV?$basic_string@DU?$char_traits@D@std@@V?$allocator@D@2@@std@@V12@@1@@Z 000000018000ffd0 f i tools.obj
 0001:0000efd0       ??$_Kfn@$$CBV?$basic_string@DU?$char_traits@D@std@@V?$allocator@D@2@@std@@D@?$_Tmap_traits@V?$basic_string@DU?$char_traits@D@std@@V?$allocator@D@2@@std@@DU?$less@V?$basic_string@DU?$char_traits@D@std@@V?$allocator@D@2@@std@@@2@V?$allocator@U?$pair@$$CBV?$basic_string@DU?$char_traits@D@std@@V?$allocator@D@2@@std@@D@std@@@2@$0A@@std@@SAAEBV?$basic_string@DU?$char_traits@D@std@@V?$allocator@D@2@@1@AEBU?$pair@$$CBV?$basic_string@DU?$char_traits@D@std@@V?$allocator@D@2@@std@@D@1@@Z 000000018000ffd0 f i mfdpage.obj
 0001:0000efd0       ?_Left@?$_Tree_val@U?$_Tree_simple_types@PEAVlistener_t@@@std@@@std@@SAAEAPEAU?$_Tree_node@PEAVlistener_t@@PEAX@2@PEAU32@@Z 000000018000ffd0 f i data.obj
 0001:0000efd0       ??$_Kfn@$$CBHPEAVobject_t@@@?$_Tmap_traits@HPEAVobject_t@@U?$less@H@std@@V?$allocator@U?$pair@$$CBHPEAVobject_t@@@std@@@3@$0A@@std@@SAAEBHAEBU?$pair@$$CBHPEAVobject_t@@@1@@Z 000000018000ffd0 f i mfdpage.obj
 0001:0000efd0       ??$forward@AEAV?$_Tree_const_iterator@V?$_Tree_val@U?$_Tree_simple_types@PEAVobject_t@@@std@@@std@@@std@@@std@@YAAEAV?$_Tree_const_iterator@V?$_Tree_val@U?$_Tree_simple_types@PEAVobject_t@@@std@@@std@@@0@AEAV10@@Z 000000018000ffd0 f i data.obj
 0001:0000efd0       ??$forward@AEAPEAU?$_Tree_node@PEAVmfdpage_t@@PEAX@std@@@std@@YAAEAPEAU?$_Tree_node@PEAVmfdpage_t@@PEAX@0@AEAPEAU10@@Z 000000018000ffd0 f i in.obj
 0001:0000efd0       ??0?$allocator@U?$_Tree_node@U?$pair@$$CBV?$basic_string@DU?$char_traits@D@std@@V?$allocator@D@2@@std@@PEAVfms_fp_item_t@@@std@@PEAX@std@@@std@@QEAA@XZ 000000018000ffd0 f i fms_fp.obj
 0001:0000efd0       ??$move@AEAH@std@@YA$$QEAHAEAH@Z 000000018000ffd0 f i mfdpage_fms.obj
 0001:0000efd0       ??$addressof@PEAU?$_Tree_node@PEAVobject_t@@PEAX@std@@@std@@YAPEAPEAU?$_Tree_node@PEAVobject_t@@PEAX@0@AEAPEAU10@@Z 000000018000ffd0 f i data.obj
 0001:0000efd0       ??0_Ignore@std@@QEAA@XZ    000000018000ffd0 f i main.obj
 0001:0000efd0       ??$addressof@PEAVobject_t@@@std@@YAPEAPEAVobject_t@@AEAPEAV1@@Z 000000018000ffd0 f i data.obj
 0001:0000efd0       ?_Get_rest@?$tuple@AEBV?$basic_string@DU?$char_traits@D@std@@V?$allocator@D@2@@std@@@std@@QEAAAEAV?$tuple@$$$V@2@XZ 000000018000ffd0 f i mfdpage.obj
 0001:0000efd0       ??$forward@AEAV?$_Tree_const_iterator@V?$_Tree_val@U?$_Tree_simple_types@PEAVlistener_t@@@std@@@std@@@std@@@std@@YAAEAV?$_Tree_const_iterator@V?$_Tree_val@U?$_Tree_simple_types@PEAVlistener_t@@@std@@@std@@@0@AEAV10@@Z 000000018000ffd0 f i data.obj
 0001:0000efd0       ??0?$allocator@U?$_Tree_node@U?$pair@$$CBV?$basic_string@DU?$char_traits@D@std@@V?$allocator@D@2@@std@@M@std@@PEAX@std@@@std@@QEAA@XZ 000000018000ffd0 f i mfdpage_fms.obj
 0001:0000efd0       ??$forward@AEAPEAU?$_Tree_node@U?$pair@$$CBV?$basic_string@DU?$char_traits@D@std@@V?$allocator@D@2@@std@@V12@@std@@PEAX@std@@@std@@YAAEAPEAU?$_Tree_node@U?$pair@$$CBV?$basic_string@DU?$char_traits@D@std@@V?$allocator@D@2@@std@@V12@@std@@PEAX@0@AEAPEAU10@@Z 000000018000ffd0 f i tools.obj
 0001:0000efd0       ??$addressof@U?$pair@$$CBV?$basic_string@DU?$char_traits@D@std@@V?$allocator@D@2@@std@@D@std@@@std@@YAPEAU?$pair@$$CBV?$basic_string@DU?$char_traits@D@std@@V?$allocator@D@2@@std@@D@0@AEAU10@@Z 000000018000ffd0 f i mfdpage.obj
 0001:0000efd0       ??$move@AEAV?$basic_istream@DU?$char_traits@D@std@@@std@@@std@@YA$$QEAV?$basic_istream@DU?$char_traits@D@std@@@0@AEAV10@@Z 000000018000ffd0 f i mfdpage.obj
 0001:0000efd0       ??$addressof@PEAU?$_Tree_node@U?$pair@$$CBV?$basic_string@DU?$char_traits@D@std@@V?$allocator@D@2@@std@@H@std@@PEAX@std@@@std@@YAPEAPEAU?$_Tree_node@U?$pair@$$CBV?$basic_string@DU?$char_traits@D@std@@V?$allocator@D@2@@std@@H@std@@PEAX@0@AEAPEAU10@@Z 000000018000ffd0 f i mfdpage.obj
 0001:0000efd0       ??$addressof@PEAU?$_Tree_node@PEAVmfdpage_t@@PEAX@std@@@std@@YAPEAPEAU?$_Tree_node@PEAVmfdpage_t@@PEAX@0@AEAPEAU10@@Z 000000018000ffd0 f i in.obj
 0001:0000efd0       ??$addressof@PEAVmfdpage_t@@@std@@YAPEAPEAVmfdpage_t@@AEAPEAV1@@Z 000000018000ffd0 f i in.obj
 0001:0000efd0       ??$forward@AEAPEAU?$_Tree_node@U?$pair@$$CBV?$basic_string@DU?$char_traits@D@std@@V?$allocator@D@2@@std@@D@std@@PEAX@std@@@std@@YAAEAPEAU?$_Tree_node@U?$pair@$$CBV?$basic_string@DU?$char_traits@D@std@@V?$allocator@D@2@@std@@D@std@@PEAX@0@AEAPEAU10@@Z 000000018000ffd0 f i mfdpage.obj
 0001:0000efd0       ??0?$allocator@U?$pair@$$CBHPEAVobject_t@@@std@@@std@@QEAA@XZ 000000018000ffd0 f i mfdpage.obj
 0001:0000efd0       ??$forward@V?$tuple@AEBV?$basic_string@DU?$char_traits@D@std@@V?$allocator@D@2@@std@@@std@@@std@@YA$$QEAV?$tuple@AEBV?$basic_string@DU?$char_traits@D@std@@V?$allocator@D@2@@std@@@0@AEAV10@@Z 000000018000ffd0 f i mfdpage.obj
 0001:0000efd0       ??$forward@V?$_Tree_const_iterator@V?$_Tree_val@U?$_Tree_simple_types@PEAVlistener_t@@@std@@@std@@@std@@@std@@YA$$QEAV?$_Tree_const_iterator@V?$_Tree_val@U?$_Tree_simple_types@PEAVlistener_t@@@std@@@std@@@0@AEAV10@@Z 000000018000ffd0 f i data.obj
 0001:0000efd0       ??$forward@AEBUpiecewise_construct_t@std@@@std@@YAAEBUpiecewise_construct_t@0@AEBU10@@Z 000000018000ffd0 f i tools.obj
 0001:0000efd0       ??0?$allocator@U?$_Tree_node@U?$pair@$$CBHPEAVfms_fp_item_t@@@std@@PEAX@std@@@std@@QEAA@XZ 000000018000ffd0 f i mfdpage_fms.obj
 0001:0000efd0       ??0?$allocator@U?$pair@$$CBV?$basic_string@DU?$char_traits@D@std@@V?$allocator@D@2@@std@@D@std@@@std@@QEAA@XZ 000000018000ffd0 f i mfdpage_fms.obj
 0001:0000efd0       ?_Get_rest@?$tuple@$$QEAV?$basic_string@DU?$char_traits@D@std@@V?$allocator@D@2@@std@@@std@@QEAAAEAV?$tuple@$$$V@2@XZ 000000018000ffd0 f i tools.obj
 0001:0000efd0       ??$forward@AEAU?$pair@$$CBV?$basic_string@DU?$char_traits@D@std@@V?$allocator@D@2@@std@@PEAVfms_config_item_t@@@std@@@std@@YAAEAU?$pair@$$CBV?$basic_string@DU?$char_traits@D@std@@V?$allocator@D@2@@std@@PEAVfms_config_item_t@@@0@AEAU10@@Z 000000018000ffd0 f i fms_config.obj
 0001:0000efd0       ??$forward@AEAV?$_Tree_iterator@V?$_Tree_val@U?$_Tree_simple_types@U?$pair@$$CBV?$basic_string@DU?$char_traits@D@std@@V?$allocator@D@2@@std@@D@std@@@std@@@std@@@std@@@std@@YAAEAV?$_Tree_iterator@V?$_Tree_val@U?$_Tree_simple_types@U?$pair@$$CBV?$basic_string@DU?$char_traits@D@std@@V?$allocator@D@2@@std@@D@std@@@std@@@std@@@0@AEAV10@@Z 000000018000ffd0 f i mfdpage.obj
 0001:0000efd0       ??$forward@AEAPEAU?$_Tree_node@U?$pair@$$CBV?$basic_string@DU?$char_traits@D@std@@V?$allocator@D@2@@std@@PEAVfms_fp_item_t@@@std@@PEAX@std@@@std@@YAAEAPEAU?$_Tree_node@U?$pair@$$CBV?$basic_string@DU?$char_traits@D@std@@V?$allocator@D@2@@std@@PEAVfms_fp_item_t@@@std@@PEAX@0@AEAPEAU10@@Z 000000018000ffd0 f i fms_fp.obj
 0001:0000efd0       ??$addressof@PEAU?$_Tree_node@U?$pair@$$CBHV?$basic_string@DU?$char_traits@D@std@@V?$allocator@D@2@@std@@@std@@PEAX@std@@@std@@YAPEAPEAU?$_Tree_node@U?$pair@$$CBHV?$basic_string@DU?$char_traits@D@std@@V?$allocator@D@2@@std@@@std@@PEAX@0@AEAPEAU10@@Z 000000018000ffd0 f i out_saitek.obj
 0001:0000efd0       ??$addressof@PEAU?$_Tree_node@U?$pair@$$CBHPEAVobject_t@@@std@@PEAX@std@@@std@@YAPEAPEAU?$_Tree_node@U?$pair@$$CBHPEAVobject_t@@@std@@PEAX@0@AEAPEAU10@@Z 000000018000ffd0 f i mfdpage.obj
 0001:0000efd0       ??$_Kfn@$$CBV?$basic_string@DU?$char_traits@D@std@@V?$allocator@D@2@@std@@H@?$_Tmap_traits@V?$basic_string@DU?$char_traits@D@std@@V?$allocator@D@2@@std@@HU?$less@V?$basic_string@DU?$char_traits@D@std@@V?$allocator@D@2@@std@@@2@V?$allocator@U?$pair@$$CBV?$basic_string@DU?$char_traits@D@std@@V?$allocator@D@2@@std@@H@std@@@2@$0A@@std@@SAAEBV?$basic_string@DU?$char_traits@D@std@@V?$allocator@D@2@@1@AEBU?$pair@$$CBV?$basic_string@DU?$char_traits@D@std@@V?$allocator@D@2@@std@@H@1@@Z 000000018000ffd0 f i mfdpage.obj
 0001:0000efd0       ??$forward@AEAU?$pair@$$CBHPEAVfms_fp_item_t@@@std@@@std@@YAAEAU?$pair@$$CBHPEAVfms_fp_item_t@@@0@AEAU10@@Z 000000018000ffd0 f i mfdpage_fms.obj
 0001:0000efd0       ??$addressof@PEAU?$_Tree_node@U?$pair@$$CBV?$basic_string@DU?$char_traits@D@std@@V?$allocator@D@2@@std@@M@std@@PEAX@std@@@std@@YAPEAPEAU?$_Tree_node@U?$pair@$$CBV?$basic_string@DU?$char_traits@D@std@@V?$allocator@D@2@@std@@M@std@@PEAX@0@AEAPEAU10@@Z 000000018000ffd0 f i mfdpage_fms.obj
 0001:0000efd0       ??$forward@$$QEAV?$basic_string@DU?$char_traits@D@std@@V?$allocator@D@2@@std@@@std@@YA$$QEAV?$basic_string@DU?$char_traits@D@std@@V?$allocator@D@2@@0@AEAV10@@Z 000000018000ffd0 f i tools.obj
 0001:0000efd0       ??$forward@V?$_Tree_iterator@V?$_Tree_val@U?$_Tree_simple_types@U?$pair@$$CBV?$basic_string@DU?$char_traits@D@std@@V?$allocator@D@2@@std@@H@std@@@std@@@std@@@std@@@std@@YA$$QEAV?$_Tree_iterator@V?$_Tree_val@U?$_Tree_simple_types@U?$pair@$$CBV?$basic_string@DU?$char_traits@D@std@@V?$allocator@D@2@@std@@H@std@@@std@@@std@@@0@AEAV10@@Z 000000018000ffd0 f i mfdpage.obj
 0001:0000efd0       ??$forward@AEAU?$pair@$$CBHV?$basic_string@DU?$char_traits@D@std@@V?$allocator@D@2@@std@@@std@@@std@@YAAEAU?$pair@$$CBHV?$basic_string@DU?$char_traits@D@std@@V?$allocator@D@2@@std@@@0@AEAU10@@Z 000000018000ffd0 f i out_saitek.obj
 0001:0000efd0       ??0?$allocator@U?$_Tree_node@U?$pair@$$CBHM@std@@PEAX@std@@@std@@QEAA@XZ 000000018000ffd0 f i fms_config.obj
 0001:0000efd0       ??0?$allocator@U?$pair@$$CBHM@std@@@std@@QEAA@XZ 000000018000ffd0 f i fms_config.obj
 0001:0000efd0       ??$forward@V?$tuple@$$QEAV?$basic_string@DU?$char_traits@D@std@@V?$allocator@D@2@@std@@@std@@@std@@YA$$QEAV?$tuple@$$QEAV?$basic_string@DU?$char_traits@D@std@@V?$allocator@D@2@@std@@@0@AEAV10@@Z 000000018000ffd0 f i tools.obj
 0001:0000efd0       ??$forward@AEBQEAVmfdpage_t@@@std@@YAAEBQEAVmfdpage_t@@AEBQEAV1@@Z 000000018000ffd0 f i in.obj
 0001:0000efd0       ??$forward@V?$_Tree_const_iterator@V?$_Tree_val@U?$_Tree_simple_types@PEAVmfdpage_t@@@std@@@std@@@std@@@std@@YA$$QEAV?$_Tree_const_iterator@V?$_Tree_val@U?$_Tree_simple_types@PEAVmfdpage_t@@@std@@@std@@@0@AEAV10@@Z 000000018000ffd0 f i in.obj
 0001:0000efd0       ??$_Move@AEAD@std@@YA$$QEADAEAD@Z 000000018000ffd0 f i tools.obj
 0001:0000efd0       ??$forward@AEAV?$_Tree_iterator@V?$_Tree_val@U?$_Tree_simple_types@U?$pair@$$CBHPEAVfms_fp_item_t@@@std@@@std@@@std@@@std@@@std@@YAAEAV?$_Tree_iterator@V?$_Tree_val@U?$_Tree_simple_types@U?$pair@$$CBHPEAVfms_fp_item_t@@@std@@@std@@@std@@@0@AEAV10@@Z 000000018000ffd0 f i mfdpage_fms.obj
 0001:0000efd0       ??$_Kfn@$$CBHM@?$_Tmap_traits@HMU?$less@H@std@@V?$allocator@U?$pair@$$CBHM@std@@@2@$0A@@std@@SAAEBHAEBU?$pair@$$CBHM@1@@Z 000000018000ffd0 f i fms_config.obj
 0001:0000efd0       ??$addressof@PEAU?$_Tree_node@U?$pair@$$CBHM@std@@PEAX@std@@@std@@YAPEAPEAU?$_Tree_node@U?$pair@$$CBHM@std@@PEAX@0@AEAPEAU10@@Z 000000018000ffd0 f i fms_config.obj
 0001:0000efd0       ??$addressof@D@std@@YAPEADAEAD@Z 000000018000ffd0 f i main.obj
 0001:0000efd0       ??$forward@V?$_Tree_iterator@V?$_Tree_val@U?$_Tree_simple_types@U?$pair@$$CBHM@std@@@std@@@std@@@std@@@std@@YA$$QEAV?$_Tree_iterator@V?$_Tree_val@U?$_Tree_simple_types@U?$pair@$$CBHM@std@@@std@@@std@@@0@AEAV10@@Z 000000018000ffd0 f i fms_config.obj
 0001:0000efd0       ??0?$allocator@U?$_Tree_node@U?$pair@$$CBHV?$basic_string@DU?$char_traits@D@std@@V?$allocator@D@2@@std@@@std@@PEAX@std@@@std@@QEAA@XZ 000000018000ffd0 f i out_saitek.obj
 0001:0000efd0       ?_Left@?$_Tree_val@U?$_Tree_simple_types@U?$pair@$$CBV?$basic_string@DU?$char_traits@D@std@@V?$allocator@D@2@@std@@M@std@@@std@@@std@@SAAEAPEAU?$_Tree_node@U?$pair@$$CBV?$basic_string@DU?$char_traits@D@std@@V?$allocator@D@2@@std@@M@std@@PEAX@2@PEAU32@@Z 000000018000ffd0 f i mfdpage_fms.obj
 0001:0000efd0       ??$forward@AEAU?$pair@$$CBV?$basic_string@DU?$char_traits@D@std@@V?$allocator@D@2@@std@@V12@@std@@@std@@YAAEAU?$pair@$$CBV?$basic_string@DU?$char_traits@D@std@@V?$allocator@D@2@@std@@V12@@0@AEAU10@@Z 000000018000ffd0 f i tools.obj
 0001:0000efd0       ??$addressof@U?$pair@$$CBHPEAVfms_fp_item_t@@@std@@@std@@YAPEAU?$pair@$$CBHPEAVfms_fp_item_t@@@0@AEAU10@@Z 000000018000ffd0 f i mfdpage_fms.obj
 0001:0000efd0       ??$forward@AEAV?$_Tree_iterator@V?$_Tree_val@U?$_Tree_simple_types@U?$pair@$$CBHV?$basic_string@DU?$char_traits@D@std@@V?$allocator@D@2@@std@@@std@@@std@@@std@@@std@@@std@@YAAEAV?$_Tree_iterator@V?$_Tree_val@U?$_Tree_simple_types@U?$pair@$$CBHV?$basic_string@DU?$char_traits@D@std@@V?$allocator@D@2@@std@@@std@@@std@@@std@@@0@AEAV10@@Z 000000018000ffd0 f i out_saitek.obj
 0001:0000efd0       ??$forward@V?$_Tree_iterator@V?$_Tree_val@U?$_Tree_simple_types@U?$pair@$$CBV?$basic_string@DU?$char_traits@D@std@@V?$allocator@D@2@@std@@M@std@@@std@@@std@@@std@@@std@@YA$$QEAV?$_Tree_iterator@V?$_Tree_val@U?$_Tree_simple_types@U?$pair@$$CBV?$basic_string@DU?$char_traits@D@std@@V?$allocator@D@2@@std@@M@std@@@std@@@std@@@0@AEAV10@@Z 000000018000ffd0 f i mfdpage_fms.obj
 0001:0000efd0       ??$addressof@PEAU?$_Tree_node@U?$pair@$$CBV?$basic_string@DU?$char_traits@D@std@@V?$allocator@D@2@@std@@V12@@std@@PEAX@std@@@std@@YAPEAPEAU?$_Tree_node@U?$pair@$$CBV?$basic_string@DU?$char_traits@D@std@@V?$allocator@D@2@@std@@V12@@std@@PEAX@0@AEAPEAU10@@Z 000000018000ffd0 f i tools.obj
 0001:0000efd0       ??$addressof@U?$pair@$$CBV?$basic_string@DU?$char_traits@D@std@@V?$allocator@D@2@@std@@PEAVfms_config_item_t@@@std@@@std@@YAPEAU?$pair@$$CBV?$basic_string@DU?$char_traits@D@std@@V?$allocator@D@2@@std@@PEAVfms_config_item_t@@@0@AEAU10@@Z 000000018000ffd0 f i fms_config.obj
 0001:0000efd0       ??0?$allocator@U?$pair@$$CBV?$basic_string@DU?$char_traits@D@std@@V?$allocator@D@2@@std@@M@std@@@std@@QEAA@XZ 000000018000ffd0 f i fms_config.obj
 0001:0000efd0       ??$forward@AEAV?$_Tree_iterator@V?$_Tree_val@U?$_Tree_simple_types@U?$pair@$$CBV?$basic_string@DU?$char_traits@D@std@@V?$allocator@D@2@@std@@H@std@@@std@@@std@@@std@@@std@@YAAEAV?$_Tree_iterator@V?$_Tree_val@U?$_Tree_simple_types@U?$pair@$$CBV?$basic_string@DU?$char_traits@D@std@@V?$allocator@D@2@@std@@H@std@@@std@@@std@@@0@AEAV10@@Z 000000018000ffd0 f i mfdpage.obj
 0001:0000efd0       ??0?$allocator@U?$_Tree_node@U?$pair@$$CBV?$basic_string@DU?$char_traits@D@std@@V?$allocator@D@2@@std@@PEAVfms_config_item_t@@@std@@PEAX@std@@@std@@QEAA@XZ 000000018000ffd0 f i fms_config.obj
 0001:0000efd0       ??0?$allocator@U?$pair@$$CBV?$basic_string@DU?$char_traits@D@std@@V?$allocator@D@2@@std@@V12@@std@@@std@@QEAA@XZ 000000018000ffd0 f i mfdpage_led.obj
 0001:0000efd0       ??0?$allocator@U?$_Tree_node@U?$pair@$$CBHPEAVobject_t@@@std@@PEAX@std@@@std@@QEAA@XZ 000000018000ffd0 f i mfdpage.obj
 0001:0000efd0       ??0?$allocator@U?$_Tree_node@PEAVmfdpage_t@@PEAX@std@@@std@@QEAA@XZ 000000018000ffd0 f i in.obj
 0001:0000efd0       ??$forward@AEAV?$_Tree_iterator@V?$_Tree_val@U?$_Tree_simple_types@U?$pair@$$CBV?$basic_string@DU?$char_traits@D@std@@V?$allocator@D@2@@std@@M@std@@@std@@@std@@@std@@@std@@YAAEAV?$_Tree_iterator@V?$_Tree_val@U?$_Tree_simple_types@U?$pair@$$CBV?$basic_string@DU?$char_traits@D@std@@V?$allocator@D@2@@std@@M@std@@@std@@@std@@@0@AEAV10@@Z 000000018000ffd0 f i mfdpage_fms.obj
 0001:0000efd0       ??$forward@V?$_Tree@V?$_Tmap_traits@V?$basic_string@DU?$char_traits@D@std@@V?$allocator@D@2@@std@@V12@U?$less@V?$basic_string@DU?$char_traits@D@std@@V?$allocator@D@2@@std@@@2@V?$allocator@U?$pair@$$CBV?$basic_string@DU?$char_traits@D@std@@V?$allocator@D@2@@std@@V12@@std@@@2@$0A@@std@@@std@@@std@@YA$$QEAV?$_Tree@V?$_Tmap_traits@V?$basic_string@DU?$char_traits@D@std@@V?$allocator@D@2@@std@@V12@U?$less@V?$basic_string@DU?$char_traits@D@std@@V?$allocator@D@2@@std@@@2@V?$allocator@U?$pair@$$CBV?$basic_string@DU?$char_traits@D@std@@V?$allocator@D@2@@std@@V12@@std@@@2@$0A@@std@@@0@AEAV10@@Z 000000018000ffd0 f i mfdpage_led.obj
 0001:0000efd0       ??$forward@AEBV?$basic_string@DU?$char_traits@D@std@@V?$allocator@D@2@@std@@@std@@YAAEBV?$basic_string@DU?$char_traits@D@std@@V?$allocator@D@2@@0@AEBV10@@Z 000000018000ffd0 f i mfdpage.obj
 0001:0000efd0       ??$addressof@PEAU?$_Tree_node@U?$pair@$$CBV?$basic_string@DU?$char_traits@D@std@@V?$allocator@D@2@@std@@PEAVfms_config_item_t@@@std@@PEAX@std@@@std@@YAPEAPEAU?$_Tree_node@U?$pair@$$CBV?$basic_string@DU?$char_traits@D@std@@V?$allocator@D@2@@std@@PEAVfms_config_item_t@@@std@@PEAX@0@AEAPEAU10@@Z 000000018000ffd0 f i fms_config.obj
 0001:0000efd0       ??0?$allocator@U?$_Tree_node@U?$pair@$$CBV?$basic_string@DU?$char_traits@D@std@@V?$allocator@D@2@@std@@D@std@@PEAX@std@@@std@@QEAA@XZ 000000018000ffd0 f i mfdpage.obj
 0001:0000efd0       ?_Kfn@?$_Tset_traits@PEAVmfdpage_t@@U?$less@PEAVmfdpage_t@@@std@@V?$allocator@PEAVmfdpage_t@@@3@$0A@@std@@SAAEBQEAVmfdpage_t@@AEBQEAV3@@Z 000000018000ffd0 f i in.obj
 0001:0000efd0       ??$forward@AEAU?$pair@$$CBV?$basic_string@DU?$char_traits@D@std@@V?$allocator@D@2@@std@@M@std@@@std@@YAAEAU?$pair@$$CBV?$basic_string@DU?$char_traits@D@std@@V?$allocator@D@2@@std@@M@0@AEAU10@@Z 000000018000ffd0 f i mfdpage_fms.obj
 0001:0000efd0       ??$addressof@U?$pair@$$CBHPEAVobject_t@@@std@@@std@@YAPEAU?$pair@$$CBHPEAVobject_t@@@0@AEAU10@@Z 000000018000ffd0 f i mfdpage.obj
 0001:0000efd0       ??$addressof@PEAU?$_Tree_node@U?$pair@$$CBV?$basic_string@DU?$char_traits@D@std@@V?$allocator@D@2@@std@@D@std@@PEAX@std@@@std@@YAPEAPEAU?$_Tree_node@U?$pair@$$CBV?$basic_string@DU?$char_traits@D@std@@V?$allocator@D@2@@std@@D@std@@PEAX@0@AEAPEAU10@@Z 000000018000ffd0 f i mfdpage.obj
 0001:0000efd0       ??$forward@AEAU?$pair@$$CBHPEAVobject_t@@@std@@@std@@YAAEAU?$pair@$$CBHPEAVobject_t@@@0@AEAU10@@Z 000000018000ffd0 f i mfdpage.obj
 0001:0000efd0       ??$forward@AEAPEAU?$_Tree_node@U?$pair@$$CBHV?$basic_string@DU?$char_traits@D@std@@V?$allocator@D@2@@std@@@std@@PEAX@std@@@std@@YAAEAPEAU?$_Tree_node@U?$pair@$$CBHV?$basic_string@DU?$char_traits@D@std@@V?$allocator@D@2@@std@@@std@@PEAX@0@AEAPEAU10@@Z 000000018000ffd0 f i out_saitek.obj
 0001:0000efd0       ?_Get_rest@?$tuple@AEBH@std@@QEAAAEAV?$tuple@$$$V@2@XZ 000000018000ffd0 f i out_saitek.obj
 0001:0000efd0       ??0?$allocator@PEAVmfdpage_t@@@std@@QEAA@XZ 000000018000ffd0 f i in.obj
 0001:0000efd0       ??0?$allocator@U?$pair@$$CBV?$basic_string@DU?$char_traits@D@std@@V?$allocator@D@2@@std@@H@std@@@std@@QEAA@XZ 000000018000ffd0 f i mfdpage.obj
 0001:0000efd0       ??$move@AEAV?$map@V?$basic_string@DU?$char_traits@D@std@@V?$allocator@D@2@@std@@V12@U?$less@V?$basic_string@DU?$char_traits@D@std@@V?$allocator@D@2@@std@@@2@V?$allocator@U?$pair@$$CBV?$basic_string@DU?$char_traits@D@std@@V?$allocator@D@2@@std@@V12@@std@@@2@@std@@@std@@YA$$QEAV?$map@V?$basic_string@DU?$char_traits@D@std@@V?$allocator@D@2@@std@@V12@U?$less@V?$basic_string@DU?$char_traits@D@std@@V?$allocator@D@2@@std@@@2@V?$allocator@U?$pair@$$CBV?$basic_string@DU?$char_traits@D@std@@V?$allocator@D@2@@std@@V12@@std@@@2@@0@AEAV10@@Z 000000018000ffd0 f i mfdpage_led.obj
 0001:0000efd0       ??$addressof@PEAU?$_Tree_node@U?$pair@$$CBHPEAVfms_fp_item_t@@@std@@PEAX@std@@@std@@YAPEAPEAU?$_Tree_node@U?$pair@$$CBHPEAVfms_fp_item_t@@@std@@PEAX@0@AEAPEAU10@@Z 000000018000ffd0 f i mfdpage_fms.obj
 0001:0000efd0       ??$forward@V?$basic_string@DU?$char_traits@D@std@@V?$allocator@D@2@@std@@@std@@YA$$QEAV?$basic_string@DU?$char_traits@D@std@@V?$allocator@D@2@@0@AEAV10@@Z 000000018000ffd0 f i tools.obj
 0001:0000efd0       ??0?$allocator@U?$pair@$$CBHV?$basic_string@DU?$char_traits@D@std@@V?$allocator@D@2@@std@@@std@@@std@@QEAA@XZ 000000018000ffd0 f i out_saitek.obj
 0001:0000efd0       ??0?$allocator@U?$_Tree_node@PEAVlistener_t@@PEAX@std@@@std@@QEAA@XZ 000000018000ffd0 f i data.obj
 0001:0000efd0       ??0?$allocator@U?$_Tree_node@U?$pair@$$CBV?$basic_string@DU?$char_traits@D@std@@V?$allocator@D@2@@std@@H@std@@PEAX@std@@@std@@QEAA@XZ 000000018000ffd0 f i mfdpage.obj
 0001:0000efd0       ??$forward@_N@std@@YA$$QEA_NAEA_N@Z 000000018000ffd0 f i tools.obj
 0001:0000efd0       ??$addressof@U?$pair@$$CBHV?$basic_string@DU?$char_traits@D@std@@V?$allocator@D@2@@std@@@std@@@std@@YAPEAU?$pair@$$CBHV?$basic_string@DU?$char_traits@D@std@@V?$allocator@D@2@@std@@@0@AEAU10@@Z 000000018000ffd0 f i out_saitek.obj
 0001:0000efd0       ??0?$allocator@D@std@@QEAA@XZ 000000018000ffd0 f i main.obj
 0001:0000efd0       ??0?$allocator@U?$pair@$$CBV?$basic_string@DU?$char_traits@D@std@@V?$allocator@D@2@@std@@PEAVfms_config_item_t@@@std@@@std@@QEAA@XZ 000000018000ffd0 f i fms_config.obj
 0001:0000efd0       ??$forward@AEAPEAU?$_Tree_node@U?$pair@$$CBHPEAVfms_fp_item_t@@@std@@PEAX@std@@@std@@YAAEAPEAU?$_Tree_node@U?$pair@$$CBHPEAVfms_fp_item_t@@@std@@PEAX@0@AEAPEAU10@@Z 000000018000ffd0 f i mfdpage_fms.obj
 0001:0000efd0       ??0?$allocator@U?$_Tree_node@U?$pair@$$CBV?$basic_string@DU?$char_traits@D@std@@V?$allocator@D@2@@std@@V12@@std@@PEAX@std@@@std@@QEAA@XZ 000000018000ffd0 f i tools.obj
 0001:0000efd0       ?_Left@?$_Tree_val@U?$_Tree_simple_types@U?$pair@$$CBV?$basic_string@DU?$char_traits@D@std@@V?$allocator@D@2@@std@@PEAVfms_fp_item_t@@@std@@@std@@@std@@SAAEAPEAU?$_Tree_node@U?$pair@$$CBV?$basic_string@DU?$char_traits@D@std@@V?$allocator@D@2@@std@@PEAVfms_fp_item_t@@@std@@PEAX@2@PEAU32@@Z 000000018000ffd0 f i fms_fp.obj
 0001:0000efd0       ??0?$tuple@$$$V@std@@QEAA@XZ 000000018000ffd0 f i tools.obj
 0001:0000efd0       ??$forward@V?$_Tree_const_iterator@V?$_Tree_val@U?$_Tree_simple_types@PEAVobject_t@@@std@@@std@@@std@@@std@@YA$$QEAV?$_Tree_const_iterator@V?$_Tree_val@U?$_Tree_simple_types@PEAVobject_t@@@std@@@std@@@0@AEAV10@@Z 000000018000ffd0 f i data.obj
 0001:0000efd0       ??$forward@AEAU?$pair@$$CBHM@std@@@std@@YAAEAU?$pair@$$CBHM@0@AEAU10@@Z 000000018000ffd0 f i fms_config.obj
 0001:0000efd0       ??$forward@V?$tuple@$$QEAH@std@@@std@@YA$$QEAV?$tuple@$$QEAH@0@AEAV10@@Z 000000018000ffd0 f i mfdpage_fms.obj
 0001:0000efd0       ??$addressof@PEAU?$_Tree_node@U?$pair@$$CBV?$basic_string@DU?$char_traits@D@std@@V?$allocator@D@2@@std@@PEAVfms_fp_item_t@@@std@@PEAX@std@@@std@@YAPEAPEAU?$_Tree_node@U?$pair@$$CBV?$basic_string@DU?$char_traits@D@std@@V?$allocator@D@2@@std@@PEAVfms_fp_item_t@@@std@@PEAX@0@AEAPEAU10@@Z 000000018000ffd0 f i fms_fp.obj
 0001:0000efd0       ?_Left@?$_Tree_val@U?$_Tree_simple_types@U?$pair@$$CBHPEAVfms_fp_item_t@@@std@@@std@@@std@@SAAEAPEAU?$_Tree_node@U?$pair@$$CBHPEAVfms_fp_item_t@@@std@@PEAX@2@PEAU32@@Z 000000018000ffd0 f i mfdpage_fms.obj
 0001:0000efd0       ??$_Kfn@$$CBHV?$basic_string@DU?$char_traits@D@std@@V?$allocator@D@2@@std@@@?$_Tmap_traits@HV?$basic_string@DU?$char_traits@D@std@@V?$allocator@D@2@@std@@U?$less@H@2@V?$allocator@U?$pair@$$CBHV?$basic_string@DU?$char_traits@D@std@@V?$allocator@D@2@@std@@@std@@@2@$0A@@std@@SAAEBHAEBU?$pair@$$CBHV?$basic_string@DU?$char_traits@D@std@@V?$allocator@D@2@@std@@@1@@Z 000000018000ffd0 f i out_saitek.obj
 0001:0000efd0       ??$forward@AEAPEAU?$_Tree_node@U?$pair@$$CBV?$basic_string@DU?$char_traits@D@std@@V?$allocator@D@2@@std@@PEAVfms_config_item_t@@@std@@PEAX@std@@@std@@YAAEAPEAU?$_Tree_node@U?$pair@$$CBV?$basic_string@DU?$char_traits@D@std@@V?$allocator@D@2@@std@@PEAVfms_config_item_t@@@std@@PEAX@0@AEAPEAU10@@Z 000000018000ffd0 f i fms_config.obj
 0001:0000efd0       ?_Left@?$_Tree_val@U?$_Tree_simple_types@PEAVobject_t@@@std@@@std@@SAAEAPEAU?$_Tree_node@PEAVobject_t@@PEAX@2@PEAU32@@Z 000000018000ffd0 f i data.obj
 0001:0000efd0       ??$_Kfn@$$CBV?$basic_string@DU?$char_traits@D@std@@V?$allocator@D@2@@std@@M@?$_Tmap_traits@V?$basic_string@DU?$char_traits@D@std@@V?$allocator@D@2@@std@@MU?$less@V?$basic_string@DU?$char_traits@D@std@@V?$allocator@D@2@@std@@@2@V?$allocator@U?$pair@$$CBV?$basic_string@DU?$char_traits@D@std@@V?$allocator@D@2@@std@@M@std@@@2@$0A@@std@@SAAEBV?$basic_string@DU?$char_traits@D@std@@V?$allocator@D@2@@1@AEBU?$pair@$$CBV?$basic_string@DU?$char_traits@D@std@@V?$allocator@D@2@@std@@M@1@@Z 000000018000ffd0 f i mfdpage_fms.obj
 0001:0000efd0       ??$forward@AEAV?$_Tree_iterator@V?$_Tree_val@U?$_Tree_simple_types@U?$pair@$$CBV?$basic_string@DU?$char_traits@D@std@@V?$allocator@D@2@@std@@PEAVfms_fp_item_t@@@std@@@std@@@std@@@std@@@std@@YAAEAV?$_Tree_iterator@V?$_Tree_val@U?$_Tree_simple_types@U?$pair@$$CBV?$basic_string@DU?$char_traits@D@std@@V?$allocator@D@2@@std@@PEAVfms_fp_item_t@@@std@@@std@@@std@@@0@AEAV10@@Z 000000018000ffd0 f i fms_fp.obj
 0001:0000efd0       ??$forward@AEAV?$_Tree_const_iterator@V?$_Tree_val@U?$_Tree_simple_types@PEAVmfdpage_t@@@std@@@std@@@std@@@std@@YAAEAV?$_Tree_const_iterator@V?$_Tree_val@U?$_Tree_simple_types@PEAVmfdpage_t@@@std@@@std@@@0@AEAV10@@Z 000000018000ffd0 f i in.obj
 0001:0000efd0       ??$forward@AEBQEAVlistener_t@@@std@@YAAEBQEAVlistener_t@@AEBQEAV1@@Z 000000018000ffd0 f i data.obj
 0001:0000efe0       ??0?$_Tree@V?$_Tset_traits@PEAVmfdpage_t@@U?$less@PEAVmfdpage_t@@@std@@V?$allocator@PEAVmfdpage_t@@@3@$0A@@std@@@std@@QEAA@AEBU?$less@PEAVmfdpage_t@@@1@AEBV?$allocator@PEAVmfdpage_t@@@1@@Z 000000018000ffe0 f i in.obj
 0001:0000f020       ??0?$_Tree_alloc@$0A@U?$_Tree_base_types@PEAVmfdpage_t@@V?$allocator@PEAVmfdpage_t@@@std@@@std@@@std@@QEAA@AEBV?$allocator@PEAVmfdpage_t@@@1@@Z 0000000180010020 f i in.obj
 0001:0000f060       ??0?$_Tree_buy@PEAVmfdpage_t@@V?$allocator@PEAVmfdpage_t@@@std@@@std@@QEAA@AEBV?$allocator@PEAVmfdpage_t@@@1@@Z 0000000180010060 f i in.obj
 0001:0000f090       ??0?$_Tree_comp@$0A@V?$_Tset_traits@PEAVmfdpage_t@@U?$less@PEAVmfdpage_t@@@std@@V?$allocator@PEAVmfdpage_t@@@3@$0A@@std@@@std@@QEAA@AEBU?$less@PEAVmfdpage_t@@@1@AEBV?$allocator@PEAVmfdpage_t@@@1@@Z 0000000180010090 f i in.obj
 0001:0000f0c0       ??0?$_Tree_val@U?$_Tree_simple_types@U?$pair@$$CBHPEAVfms_fp_item_t@@@std@@@std@@@std@@QEAA@XZ 00000001800100c0 f i fms_fp.obj
 0001:0000f0c0       ??0?$_Tree_val@U?$_Tree_simple_types@PEAVlistener_t@@@std@@@std@@QEAA@XZ 00000001800100c0 f i data.obj
 0001:0000f0c0       ??0?$_Tree_val@U?$_Tree_simple_types@U?$pair@$$CBV?$basic_string@DU?$char_traits@D@std@@V?$allocator@D@2@@std@@PEAVfms_fp_item_t@@@std@@@std@@@std@@QEAA@XZ 00000001800100c0 f i fms_fp.obj
 0001:0000f0c0       ??0?$_Tree_val@U?$_Tree_simple_types@U?$pair@$$CBV?$basic_string@DU?$char_traits@D@std@@V?$allocator@D@2@@std@@V12@@std@@@std@@@std@@QEAA@XZ 00000001800100c0 f i mfdpage_led.obj
 0001:0000f0c0       ??0?$_Tree_val@U?$_Tree_simple_types@U?$pair@$$CBV?$basic_string@DU?$char_traits@D@std@@V?$allocator@D@2@@std@@M@std@@@std@@@std@@QEAA@XZ 00000001800100c0 f i fms_config.obj
 0001:0000f0c0       ??0?$_Tree_val@U?$_Tree_simple_types@PEAVmfdpage_t@@@std@@@std@@QEAA@XZ 00000001800100c0 f i in.obj
 0001:0000f0c0       ??0?$_Tree_val@U?$_Tree_simple_types@U?$pair@$$CBV?$basic_string@DU?$char_traits@D@std@@V?$allocator@D@2@@std@@H@std@@@std@@@std@@QEAA@XZ 00000001800100c0 f i mfdpage.obj
 0001:0000f0c0       ??0?$_Tree_val@U?$_Tree_simple_types@U?$pair@$$CBHM@std@@@std@@@std@@QEAA@XZ 00000001800100c0 f i fms_config.obj
 0001:0000f0c0       ??0?$_Tree_val@U?$_Tree_simple_types@U?$pair@$$CBHV?$basic_string@DU?$char_traits@D@std@@V?$allocator@D@2@@std@@@std@@@std@@@std@@QEAA@XZ 00000001800100c0 f i out_saitek.obj
 0001:0000f0c0       ??0?$_Tree_val@U?$_Tree_simple_types@PEAVobject_t@@@std@@@std@@QEAA@XZ 00000001800100c0 f i data.obj
 0001:0000f0c0       ??0?$_Tree_val@U?$_Tree_simple_types@U?$pair@$$CBHPEAVobject_t@@@std@@@std@@@std@@QEAA@XZ 00000001800100c0 f i mfdpage.obj
 0001:0000f0c0       ??0?$_Tree_val@U?$_Tree_simple_types@U?$pair@$$CBV?$basic_string@DU?$char_traits@D@std@@V?$allocator@D@2@@std@@PEAVfms_config_item_t@@@std@@@std@@@std@@QEAA@XZ 00000001800100c0 f i fms_config.obj
 0001:0000f0c0       ??0?$_Tree_val@U?$_Tree_simple_types@U?$pair@$$CBV?$basic_string@DU?$char_traits@D@std@@V?$allocator@D@2@@std@@D@std@@@std@@@std@@QEAA@XZ 00000001800100c0 f i mfdpage_fms.obj
 0001:0000f0f0       ??0?$set@PEAVmfdpage_t@@U?$less@PEAVmfdpage_t@@@std@@V?$allocator@PEAVmfdpage_t@@@3@@std@@QEAA@XZ 00000001800100f0 f i in.obj
 0001:0000f120       ?_Buyheadnode@?$_Tree_alloc@$0A@U?$_Tree_base_types@PEAVmfdpage_t@@V?$allocator@PEAVmfdpage_t@@@std@@@std@@@std@@QEAAPEAU?$_Tree_node@PEAVmfdpage_t@@PEAX@2@XZ 0000000180010120 f i in.obj
 0001:0000f230       ?_Buynode0@?$_Tree_buy@PEAVmfdpage_t@@V?$allocator@PEAVmfdpage_t@@@std@@@std@@QEAAPEAU?$_Tree_node@PEAVmfdpage_t@@PEAX@2@XZ 0000000180010230 f i in.obj
 0001:0000f330       ?_Lbound@?$_Tree@V?$_Tset_traits@PEAVmfdpage_t@@U?$less@PEAVmfdpage_t@@@std@@V?$allocator@PEAVmfdpage_t@@@3@$0A@@std@@@std@@IEAAPEAU?$_Tree_node@PEAVmfdpage_t@@PEAX@2@AEBQEAVmfdpage_t@@@Z 0000000180010330 f i in.obj
 0001:0000f3f0       ?allocate@?$allocator@U?$_Tree_node@U?$pair@$$CBHM@std@@PEAX@std@@@std@@QEAAPEAU?$_Tree_node@U?$pair@$$CBHM@std@@PEAX@2@_K@Z 00000001800103f0 f i fms_config.obj
 0001:0000f3f0       ?allocate@?$allocator@U?$_Tree_node@PEAVmfdpage_t@@PEAX@std@@@std@@QEAAPEAU?$_Tree_node@PEAVmfdpage_t@@PEAX@2@_K@Z 00000001800103f0 f i in.obj
 0001:0000f3f0       ?allocate@?$allocator@U?$_Tree_node@PEAVobject_t@@PEAX@std@@@std@@QEAAPEAU?$_Tree_node@PEAVobject_t@@PEAX@2@_K@Z 00000001800103f0 f i data.obj
 0001:0000f3f0       ?allocate@?$allocator@U?$_Tree_node@PEAVlistener_t@@PEAX@std@@@std@@QEAAPEAU?$_Tree_node@PEAVlistener_t@@PEAX@2@_K@Z 00000001800103f0 f i data.obj
 0001:0000f410       ?erase@?$_Tree@V?$_Tset_traits@PEAVobject_t@@U?$less@PEAVobject_t@@@std@@V?$allocator@PEAVobject_t@@@3@$0A@@std@@@std@@QEAA?AV?$_Tree_const_iterator@V?$_Tree_val@U?$_Tree_simple_types@PEAVobject_t@@@std@@@std@@@2@V32@@Z 0000000180010410 f i data.obj
 0001:0000f410       ?erase@?$_Tree@V?$_Tset_traits@PEAVmfdpage_t@@U?$less@PEAVmfdpage_t@@@std@@V?$allocator@PEAVmfdpage_t@@@3@$0A@@std@@@std@@QEAA?AV?$_Tree_const_iterator@V?$_Tree_val@U?$_Tree_simple_types@PEAVmfdpage_t@@@std@@@std@@@2@V32@@Z 0000000180010410 f i in.obj
 0001:0000f410       ?erase@?$_Tree@V?$_Tset_traits@PEAVlistener_t@@U?$less@PEAVlistener_t@@@std@@V?$allocator@PEAVlistener_t@@@3@$0A@@std@@@std@@QEAA?AV?$_Tree_const_iterator@V?$_Tree_val@U?$_Tree_simple_types@PEAVlistener_t@@@std@@@std@@@2@V32@@Z 0000000180010410 f i data.obj
 0001:0000fc50       ?find@?$_Tree@V?$_Tset_traits@PEAVmfdpage_t@@U?$less@PEAVmfdpage_t@@@std@@V?$allocator@PEAVmfdpage_t@@@3@$0A@@std@@@std@@QEAA?AV?$_Tree_const_iterator@V?$_Tree_val@U?$_Tree_simple_types@PEAVmfdpage_t@@@std@@@std@@@2@AEBQEAVmfdpage_t@@@Z 0000000180010c50 f i in.obj
 0001:0000fd40       ?insert@?$_Tree@V?$_Tset_traits@PEAVmfdpage_t@@U?$less@PEAVmfdpage_t@@@std@@V?$allocator@PEAVmfdpage_t@@@3@$0A@@std@@@std@@QEAA?AU?$pair@V?$_Tree_const_iterator@V?$_Tree_val@U?$_Tree_simple_types@PEAVmfdpage_t@@@std@@@std@@@std@@_N@2@AEBQEAVmfdpage_t@@@Z 0000000180010d40 f i in.obj
 0001:0000fd80       ?insert@?$set@PEAVmfdpage_t@@U?$less@PEAVmfdpage_t@@@std@@V?$allocator@PEAVmfdpage_t@@@3@@std@@QEAA?AU?$pair@V?$_Tree_const_iterator@V?$_Tree_val@U?$_Tree_simple_types@PEAVmfdpage_t@@@std@@@std@@@std@@_N@2@AEBQEAVmfdpage_t@@@Z 0000000180010d80 f i in.obj
 0001:0000fdc0       ?lower_bound@?$_Tree@V?$_Tset_traits@PEAVmfdpage_t@@U?$less@PEAVmfdpage_t@@@std@@V?$allocator@PEAVmfdpage_t@@@3@$0A@@std@@@std@@QEAA?AV?$_Tree_const_iterator@V?$_Tree_val@U?$_Tree_simple_types@PEAVmfdpage_t@@@std@@@std@@@2@AEBQEAVmfdpage_t@@@Z 0000000180010dc0 f i in.obj
 0001:0000fe20       ??0mfdpages_t@@QEAA@PEAVout_t@@PEAVin_t@@PEAVdata_t@@PEAVfms_t@@@Z 0000000180010e20 f   mfdpage.obj
 0001:0000fe90       ??1mfdpages_t@@QEAA@XZ     0000000180010e90 f   mfdpage.obj
 0001:0000fed0       ?load@mfdpages_t@@QEAAXXZ  0000000180010ed0 f   mfdpage.obj
 0001:000108d0       ??0mfdpage_t@@QEAA@PEBDPEAVout_t@@PEAVdata_t@@HV?$basic_string@DU?$char_traits@D@std@@V?$allocator@D@2@@std@@PEAVfms_t@@@Z 00000001800118d0 f   mfdpage.obj
 0001:00011020       ??1mfdpage_t@@UEAA@XZ      0000000180012020 f   mfdpage.obj
 0001:00011100       ?name@mfdpage_t@@UEAAAEBV?$basic_string@DU?$char_traits@D@std@@V?$allocator@D@2@@std@@XZ 0000000180012100 f   mfdpage.obj
 0001:00011120       ?set_datasources@mfdpage_t@@QEAAXPEAV?$map@HV?$basic_string@DU?$char_traits@D@std@@V?$allocator@D@2@@std@@U?$less@H@2@V?$allocator@U?$pair@$$CBHV?$basic_string@DU?$char_traits@D@std@@V?$allocator@D@2@@std@@@std@@@2@@std@@@Z 0000000180012120 f   mfdpage.obj
 0001:00011200       ?remove_datasources@mfdpage_t@@QEAAXXZ 0000000180012200 f   mfdpage.obj
 0001:000112a0       ?set_active@mfdpage_t@@QEAAX_N@Z 00000001800122a0 f   mfdpage.obj
 0001:00011360       ?has_object@mfdpage_t@@UEAA_NPEAVobject_t@@@Z 0000000180012360 f   mfdpage.obj
 0001:00011440       ?refresh@mfdpage_t@@UEAA_NPEAVobject_t@@@Z 0000000180012440 f   mfdpage.obj
 0001:00011570       ?final_refresh@mfdpage_t@@UEAAXXZ 0000000180012570 f   mfdpage.obj
 0001:00011c40       ??$?0$$QEAV?$basic_string@DU?$char_traits@D@std@@V?$allocator@D@2@@std@@$$$V@?$pair@$$CBV?$basic_string@DU?$char_traits@D@std@@V?$allocator@D@2@@std@@D@std@@QEAA@Upiecewise_construct_t@1@V?$tuple@$$QEAV?$basic_string@DU?$char_traits@D@std@@V?$allocator@D@2@@std@@@1@V?$tuple@$$$V@1@@Z 0000000180012c40 f i mfdpage.obj
 0001:00011cb0       ??$?0$$QEAV?$basic_string@DU?$char_traits@D@std@@V?$allocator@D@2@@std@@$$$V@?$pair@$$CBV?$basic_string@DU?$char_traits@D@std@@V?$allocator@D@2@@std@@H@std@@QEAA@Upiecewise_construct_t@1@V?$tuple@$$QEAV?$basic_string@DU?$char_traits@D@std@@V?$allocator@D@2@@std@@@1@V?$tuple@$$$V@1@@Z 0000000180012cb0 f i mfdpage.obj
 0001:00011d20       ??$?0AEBV?$basic_string@DU?$char_traits@D@std@@V?$allocator@D@2@@std@@$$$V@?$pair@$$CBV?$basic_string@DU?$char_traits@D@std@@V?$allocator@D@2@@std@@V12@@std@@QEAA@Upiecewise_construct_t@1@V?$tuple@AEBV?$basic_string@DU?$char_traits@D@std@@V?$allocator@D@2@@std@@@1@V?$tuple@$$$V@1@@Z 0000000180012d20 f i mfdpage.obj
 0001:00011d90       ??$?0AEBV?$basic_string@DU?$char_traits@D@std@@V?$allocator@D@2@@std@@PEAPEAX@?$tuple@AEBV?$basic_string@DU?$char_traits@D@std@@V?$allocator@D@2@@std@@@std@@QEAA@$$QEAV01@@Z 0000000180012d90 f i mfdpage.obj
 0001:00011d90       ??$?0AEBHPEAPEAX@?$tuple@AEBH@std@@QEAA@$$QEAV01@@Z 0000000180012d90 f i out_saitek.obj
 0001:00011d90       ??$?0$$QEAHPEAPEAX@?$tuple@$$QEAH@std@@QEAA@$$QEAV01@@Z 0000000180012d90 f i mfdpage_fms.obj
 0001:00011d90       ??$?0$$QEAV?$basic_string@DU?$char_traits@D@std@@V?$allocator@D@2@@std@@PEAPEAX@?$tuple@$$QEAV?$basic_string@DU?$char_traits@D@std@@V?$allocator@D@2@@std@@@std@@QEAA@$$QEAV01@@Z 0000000180012d90 f i tools.obj
 0001:00011df0       ??$?0V?$tuple@$$QEAV?$basic_string@DU?$char_traits@D@std@@V?$allocator@D@2@@std@@@std@@V?$tuple@$$$V@1@$0A@$S@?$pair@$$CBV?$basic_string@DU?$char_traits@D@std@@V?$allocator@D@2@@std@@D@std@@QEAA@AEAV?$tuple@$$QEAV?$basic_string@DU?$char_traits@D@std@@V?$allocator@D@2@@std@@@1@AEAV?$tuple@$$$V@1@U?$_Arg_idx@$0A@@1@U?$_Arg_idx@$S@1@@Z 0000000180012df0 f i mfdpage.obj
 0001:00011e40       ??$?0V?$tuple@$$QEAV?$basic_string@DU?$char_traits@D@std@@V?$allocator@D@2@@std@@@std@@V?$tuple@$$$V@1@$0A@$S@?$pair@$$CBV?$basic_string@DU?$char_traits@D@std@@V?$allocator@D@2@@std@@H@std@@QEAA@AEAV?$tuple@$$QEAV?$basic_string@DU?$char_traits@D@std@@V?$allocator@D@2@@std@@@1@AEAV?$tuple@$$$V@1@U?$_Arg_idx@$0A@@1@U?$_Arg_idx@$S@1@@Z 0000000180012e40 f i mfdpage.obj
 0001:00011e90       ??$?0V?$tuple@AEBV?$basic_string@DU?$char_traits@D@std@@V?$allocator@D@2@@std@@@std@@V?$tuple@$$$V@1@$0A@$S@?$pair@$$CBV?$basic_string@DU?$char_traits@D@std@@V?$allocator@D@2@@std@@V12@@std@@QEAA@AEAV?$tuple@AEBV?$basic_string@DU?$char_traits@D@std@@V?$allocator@D@2@@std@@@1@AEAV?$tuple@$$$V@1@U?$_Arg_idx@$0A@@1@U?$_Arg_idx@$S@1@@Z 0000000180012e90 f i mfdpage.obj
 0001:00011ef0       ??$_Buynode@AEAU?$pair@$$CBHPEAVobject_t@@@std@@@?$_Tree_buy@U?$pair@$$CBHPEAVobject_t@@@std@@V?$allocator@U?$pair@$$CBHPEAVobject_t@@@std@@@2@@std@@QEAAPEAU?$_Tree_node@U?$pair@$$CBHPEAVobject_t@@@std@@PEAX@1@AEAU?$pair@$$CBHPEAVobject_t@@@1@@Z 0000000180012ef0 f i mfdpage.obj
 0001:00011f90       ??$_Buynode@AEBUpiecewise_construct_t@std@@V?$tuple@$$QEAV?$basic_string@DU?$char_traits@D@std@@V?$allocator@D@2@@std@@@2@V?$tuple@$$$V@2@@?$_Tree_buy@U?$pair@$$CBV?$basic_string@DU?$char_traits@D@std@@V?$allocator@D@2@@std@@D@std@@V?$allocator@U?$pair@$$CBV?$basic_string@DU?$char_traits@D@std@@V?$allocator@D@2@@std@@D@std@@@2@@std@@QEAAPEAU?$_Tree_node@U?$pair@$$CBV?$basic_string@DU?$char_traits@D@std@@V?$allocator@D@2@@std@@D@std@@PEAX@1@AEBUpiecewise_construct_t@1@$$QEAV?$tuple@$$QEAV?$basic_string@DU?$char_traits@D@std@@V?$allocator@D@2@@std@@@1@$$QEAV?$tuple@$$$V@1@@Z 0000000180012f90 f i mfdpage.obj
 0001:00012080       ??$_Buynode@AEBUpiecewise_construct_t@std@@V?$tuple@$$QEAV?$basic_string@DU?$char_traits@D@std@@V?$allocator@D@2@@std@@@2@V?$tuple@$$$V@2@@?$_Tree_buy@U?$pair@$$CBV?$basic_string@DU?$char_traits@D@std@@V?$allocator@D@2@@std@@H@std@@V?$allocator@U?$pair@$$CBV?$basic_string@DU?$char_traits@D@std@@V?$allocator@D@2@@std@@H@std@@@2@@std@@QEAAPEAU?$_Tree_node@U?$pair@$$CBV?$basic_string@DU?$char_traits@D@std@@V?$allocator@D@2@@std@@H@std@@PEAX@1@AEBUpiecewise_construct_t@1@$$QEAV?$tuple@$$QEAV?$basic_string@DU?$char_traits@D@std@@V?$allocator@D@2@@std@@@1@$$QEAV?$tuple@$$$V@1@@Z 0000000180013080 f i mfdpage.obj
 0001:00012170       ??$_Buynode@AEBUpiecewise_construct_t@std@@V?$tuple@AEBH@2@V?$tuple@$$$V@2@@?$_Tree_buy@U?$pair@$$CBHPEAVobject_t@@@std@@V?$allocator@U?$pair@$$CBHPEAVobject_t@@@std@@@2@@std@@QEAAPEAU?$_Tree_node@U?$pair@$$CBHPEAVobject_t@@@std@@PEAX@1@AEBUpiecewise_construct_t@1@$$QEAV?$tuple@AEBH@1@$$QEAV?$tuple@$$$V@1@@Z 0000000180013170 f i mfdpage.obj
 0001:00012260       ??$_Buynode@AEBUpiecewise_construct_t@std@@V?$tuple@AEBV?$basic_string@DU?$char_traits@D@std@@V?$allocator@D@2@@std@@@2@V?$tuple@$$$V@2@@?$_Tree_buy@U?$pair@$$CBV?$basic_string@DU?$char_traits@D@std@@V?$allocator@D@2@@std@@V12@@std@@V?$allocator@U?$pair@$$CBV?$basic_string@DU?$char_traits@D@std@@V?$allocator@D@2@@std@@V12@@std@@@2@@std@@QEAAPEAU?$_Tree_node@U?$pair@$$CBV?$basic_string@DU?$char_traits@D@std@@V?$allocator@D@2@@std@@V12@@std@@PEAX@1@AEBUpiecewise_construct_t@1@$$QEAV?$tuple@AEBV?$basic_string@DU?$char_traits@D@std@@V?$allocator@D@2@@std@@@1@$$QEAV?$tuple@$$$V@1@@Z 0000000180013260 f i mfdpage.obj
 0001:00012350       ??$_Buynode_if_nil@AEAU?$pair@$$CBHPEAVfms_fp_item_t@@@std@@@?$_Tree@V?$_Tmap_traits@HPEAVfms_fp_item_t@@U?$less@H@std@@V?$allocator@U?$pair@$$CBHPEAVfms_fp_item_t@@@std@@@3@$0A@@std@@@std@@IEAAPEAU?$_Tree_node@U?$pair@$$CBHPEAVfms_fp_item_t@@@std@@PEAX@1@PEAU21@AEAU?$pair@$$CBHPEAVfms_fp_item_t@@@1@@Z 0000000180013350 f i mfdpage_fms.obj
 0001:00012350       ??$_Buynode_if_nil@AEAU?$pair@$$CBHV?$basic_string@DU?$char_traits@D@std@@V?$allocator@D@2@@std@@@std@@@?$_Tree@V?$_Tmap_traits@HV?$basic_string@DU?$char_traits@D@std@@V?$allocator@D@2@@std@@U?$less@H@2@V?$allocator@U?$pair@$$CBHV?$basic_string@DU?$char_traits@D@std@@V?$allocator@D@2@@std@@@std@@@2@$0A@@std@@@std@@IEAAPEAU?$_Tree_node@U?$pair@$$CBHV?$basic_string@DU?$char_traits@D@std@@V?$allocator@D@2@@std@@@std@@PEAX@1@PEAU21@AEAU?$pair@$$CBHV?$basic_string@DU?$char_traits@D@std@@V?$allocator@D@2@@std@@@1@@Z 0000000180013350 f i out_saitek.obj
 0001:00012350       ??$_Buynode_if_nil@AEAU?$pair@$$CBV?$basic_string@DU?$char_traits@D@std@@V?$allocator@D@2@@std@@PEAVfms_fp_item_t@@@std@@@?$_Tree@V?$_Tmap_traits@V?$basic_string@DU?$char_traits@D@std@@V?$allocator@D@2@@std@@PEAVfms_fp_item_t@@U?$less@V?$basic_string@DU?$char_traits@D@std@@V?$allocator@D@2@@std@@@2@V?$allocator@U?$pair@$$CBV?$basic_string@DU?$char_traits@D@std@@V?$allocator@D@2@@std@@PEAVfms_fp_item_t@@@std@@@2@$0A@@std@@@std@@IEAAPEAU?$_Tree_node@U?$pair@$$CBV?$basic_string@DU?$char_traits@D@std@@V?$allocator@D@2@@std@@PEAVfms_fp_item_t@@@std@@PEAX@1@PEAU21@AEAU?$pair@$$CBV?$basic_string@DU?$char_traits@D@std@@V?$allocator@D@2@@std@@PEAVfms_fp_item_t@@@1@@Z 0000000180013350 f i fms_fp.obj
 0001:00012350       ??$_Buynode_if_nil@AEAU?$pair@$$CBV?$basic_string@DU?$char_traits@D@std@@V?$allocator@D@2@@std@@M@std@@@?$_Tree@V?$_Tmap_traits@V?$basic_string@DU?$char_traits@D@std@@V?$allocator@D@2@@std@@MU?$less@V?$basic_string@DU?$char_traits@D@std@@V?$allocator@D@2@@std@@@2@V?$allocator@U?$pair@$$CBV?$basic_string@DU?$char_traits@D@std@@V?$allocator@D@2@@std@@M@std@@@2@$0A@@std@@@std@@IEAAPEAU?$_Tree_node@U?$pair@$$CBV?$basic_string@DU?$char_traits@D@std@@V?$allocator@D@2@@std@@M@std@@PEAX@1@PEAU21@AEAU?$pair@$$CBV?$basic_string@DU?$char_traits@D@std@@V?$allocator@D@2@@std@@M@1@@Z 0000000180013350 f i mfdpage_fms.obj
 0001:00012350       ??$_Buynode_if_nil@AEAU?$pair@$$CBV?$basic_string@DU?$char_traits@D@std@@V?$allocator@D@2@@std@@V12@@std@@@?$_Tree@V?$_Tmap_traits@V?$basic_string@DU?$char_traits@D@std@@V?$allocator@D@2@@std@@V12@U?$less@V?$basic_string@DU?$char_traits@D@std@@V?$allocator@D@2@@std@@@2@V?$allocator@U?$pair@$$CBV?$basic_string@DU?$char_traits@D@std@@V?$allocator@D@2@@std@@V12@@std@@@2@$0A@@std@@@std@@IEAAPEAU?$_Tree_node@U?$pair@$$CBV?$basic_string@DU?$char_traits@D@std@@V?$allocator@D@2@@std@@V12@@std@@PEAX@1@PEAU21@AEAU?$pair@$$CBV?$basic_string@DU?$char_traits@D@std@@V?$allocator@D@2@@std@@V12@@1@@Z 0000000180013350 f i tools.obj
 0001:00012350       ??$_Buynode_if_nil@AEAU?$pair@$$CBV?$basic_string@DU?$char_traits@D@std@@V?$allocator@D@2@@std@@PEAVfms_config_item_t@@@std@@@?$_Tree@V?$_Tmap_traits@V?$basic_string@DU?$char_traits@D@std@@V?$allocator@D@2@@std@@PEAVfms_config_item_t@@U?$less@V?$basic_string@DU?$char_traits@D@std@@V?$allocator@D@2@@std@@@2@V?$allocator@U?$pair@$$CBV?$basic_string@DU?$char_traits@D@std@@V?$allocator@D@2@@std@@PEAVfms_config_item_t@@@std@@@2@$0A@@std@@@std@@IEAAPEAU?$_Tree_node@U?$pair@$$CBV?$basic_string@DU?$char_traits@D@std@@V?$allocator@D@2@@std@@PEAVfms_config_item_t@@@std@@PEAX@1@PEAU21@AEAU?$pair@$$CBV?$basic_string@DU?$char_traits@D@std@@V?$allocator@D@2@@std@@PEAVfms_config_item_t@@@1@@Z 0000000180013350 f i fms_config.obj
 0001:00012350       ??$_Buynode_if_nil@AEAU?$pair@$$CBV?$basic_string@DU?$char_traits@D@std@@V?$allocator@D@2@@std@@D@std@@@?$_Tree@V?$_Tmap_traits@V?$basic_string@DU?$char_traits@D@std@@V?$allocator@D@2@@std@@DU?$less@V?$basic_string@DU?$char_traits@D@std@@V?$allocator@D@2@@std@@@2@V?$allocator@U?$pair@$$CBV?$basic_string@DU?$char_traits@D@std@@V?$allocator@D@2@@std@@D@std@@@2@$0A@@std@@@std@@IEAAPEAU?$_Tree_node@U?$pair@$$CBV?$basic_string@DU?$char_traits@D@std@@V?$allocator@D@2@@std@@D@std@@PEAX@1@PEAU21@AEAU?$pair@$$CBV?$basic_string@DU?$char_traits@D@std@@V?$allocator@D@2@@std@@D@1@@Z 0000000180013350 f i mfdpage.obj
 0001:00012350       ??$_Buynode_if_nil@AEAU?$pair@$$CBHPEAVobject_t@@@std@@@?$_Tree@V?$_Tmap_traits@HPEAVobject_t@@U?$less@H@std@@V?$allocator@U?$pair@$$CBHPEAVobject_t@@@std@@@3@$0A@@std@@@std@@IEAAPEAU?$_Tree_node@U?$pair@$$CBHPEAVobject_t@@@std@@PEAX@1@PEAU21@AEAU?$pair@$$CBHPEAVobject_t@@@1@@Z 0000000180013350 f i mfdpage.obj
 0001:00012350       ??$_Buynode_if_nil@AEAU?$pair@$$CBV?$basic_string@DU?$char_traits@D@std@@V?$allocator@D@2@@std@@H@std@@@?$_Tree@V?$_Tmap_traits@V?$basic_string@DU?$char_traits@D@std@@V?$allocator@D@2@@std@@HU?$less@V?$basic_string@DU?$char_traits@D@std@@V?$allocator@D@2@@std@@@2@V?$allocator@U?$pair@$$CBV?$basic_string@DU?$char_traits@D@std@@V?$allocator@D@2@@std@@H@std@@@2@$0A@@std@@@std@@IEAAPEAU?$_Tree_node@U?$pair@$$CBV?$basic_string@DU?$char_traits@D@std@@V?$allocator@D@2@@std@@H@std@@PEAX@1@PEAU21@AEAU?$pair@$$CBV?$basic_string@DU?$char_traits@D@std@@V?$allocator@D@2@@std@@H@1@@Z 0000000180013350 f i mfdpage.obj
 0001:00012350       ??$_Buynode_if_nil@AEAU?$pair@$$CBHM@std@@@?$_Tree@V?$_Tmap_traits@HMU?$less@H@std@@V?$allocator@U?$pair@$$CBHM@std@@@2@$0A@@std@@@std@@IEAAPEAU?$_Tree_node@U?$pair@$$CBHM@std@@PEAX@1@PEAU21@AEAU?$pair@$$CBHM@1@@Z 0000000180013350 f i fms_config.obj
 0001:00012370       ??$_Copy@U?$integral_constant@_N$0A@@std@@@?$_Tree@V?$_Tmap_traits@HPEAVobject_t@@U?$less@H@std@@V?$allocator@U?$pair@$$CBHPEAVobject_t@@@std@@@3@$0A@@std@@@std@@IEAAXAEBV01@U?$integral_constant@_N$0A@@1@@Z 0000000180013370 f i mfdpage.obj
 0001:00012470       ??$_Copy_nodes@U?$integral_constant@_N$0A@@std@@@?$_Tree@V?$_Tmap_traits@HPEAVobject_t@@U?$less@H@std@@V?$allocator@U?$pair@$$CBHPEAVobject_t@@@std@@@3@$0A@@std@@@std@@IEAAPEAU?$_Tree_node@U?$pair@$$CBHPEAVobject_t@@@std@@PEAX@1@PEAU21@0U?$integral_constant@_N$0A@@1@@Z 0000000180013470 f i mfdpage.obj
 0001:000125d0       ??$_Copy_or_move@U?$integral_constant@_N$0A@@std@@U?$integral_constant@_N$00@2@U12@H@?$_Tree@V?$_Tmap_traits@HPEAVobject_t@@U?$less@H@std@@V?$allocator@U?$pair@$$CBHPEAVobject_t@@@std@@@3@$0A@@std@@@std@@IEAAPEAU?$_Tree_node@U?$pair@$$CBHPEAVobject_t@@@std@@PEAX@1@PEAU21@U?$integral_constant@_N$0A@@1@U?$integral_constant@_N$00@1@1H@Z 00000001800135d0 f i mfdpage.obj
 0001:00012610       ??$_Insert_at@AEAU?$pair@$$CBHPEAVobject_t@@@std@@PEAU?$_Tree_node@U?$pair@$$CBHPEAVobject_t@@@std@@PEAX@2@@?$_Tree@V?$_Tmap_traits@HPEAVobject_t@@U?$less@H@std@@V?$allocator@U?$pair@$$CBHPEAVobject_t@@@std@@@3@$0A@@std@@@std@@IEAA?AV?$_Tree_iterator@V?$_Tree_val@U?$_Tree_simple_types@U?$pair@$$CBHPEAVobject_t@@@std@@@std@@@std@@@1@_NPEAU?$_Tree_node@U?$pair@$$CBHPEAVobject_t@@@std@@PEAX@1@AEAU?$pair@$$CBHPEAVobject_t@@@1@1@Z 0000000180013610 f i mfdpage.obj
 0001:00012610       ??$_Insert_at@AEAU?$pair@$$CBHPEAVfms_fp_item_t@@@std@@PEAU?$_Tree_node@U?$pair@$$CBHPEAVfms_fp_item_t@@@std@@PEAX@2@@?$_Tree@V?$_Tmap_traits@HPEAVfms_fp_item_t@@U?$less@H@std@@V?$allocator@U?$pair@$$CBHPEAVfms_fp_item_t@@@std@@@3@$0A@@std@@@std@@IEAA?AV?$_Tree_iterator@V?$_Tree_val@U?$_Tree_simple_types@U?$pair@$$CBHPEAVfms_fp_item_t@@@std@@@std@@@std@@@1@_NPEAU?$_Tree_node@U?$pair@$$CBHPEAVfms_fp_item_t@@@std@@PEAX@1@AEAU?$pair@$$CBHPEAVfms_fp_item_t@@@1@1@Z 0000000180013610 f i mfdpage_fms.obj
 0001:00012a40       ??$_Insert_hint@AEAU?$pair@$$CBHPEAVobject_t@@@std@@PEAU?$_Tree_node@U?$pair@$$CBHPEAVobject_t@@@std@@PEAX@2@@?$_Tree@V?$_Tmap_traits@HPEAVobject_t@@U?$less@H@std@@V?$allocator@U?$pair@$$CBHPEAVobject_t@@@std@@@3@$0A@@std@@@std@@IEAA?AV?$_Tree_iterator@V?$_Tree_val@U?$_Tree_simple_types@U?$pair@$$CBHPEAVobject_t@@@std@@@std@@@std@@@1@V?$_Tree_const_iterator@V?$_Tree_val@U?$_Tree_simple_types@U?$pair@$$CBHPEAVobject_t@@@std@@@std@@@std@@@1@AEAU?$pair@$$CBHPEAVobject_t@@@1@PEAU?$_Tree_node@U?$pair@$$CBHPEAVobject_t@@@std@@PEAX@1@@Z 0000000180013a40 f i mfdpage.obj
 0001:000137d0       ??$_Insert_hint@AEAU?$pair@$$CBV?$basic_string@DU?$char_traits@D@std@@V?$allocator@D@2@@std@@D@std@@PEAU?$_Tree_node@U?$pair@$$CBV?$basic_string@DU?$char_traits@D@std@@V?$allocator@D@2@@std@@D@std@@PEAX@2@@?$_Tree@V?$_Tmap_traits@V?$basic_string@DU?$char_traits@D@std@@V?$allocator@D@2@@std@@DU?$less@V?$basic_string@DU?$char_traits@D@std@@V?$allocator@D@2@@std@@@2@V?$allocator@U?$pair@$$CBV?$basic_string@DU?$char_traits@D@std@@V?$allocator@D@2@@std@@D@std@@@2@$0A@@std@@@std@@IEAA?AV?$_Tree_iterator@V?$_Tree_val@U?$_Tree_simple_types@U?$pair@$$CBV?$basic_string@DU?$char_traits@D@std@@V?$allocator@D@2@@std@@D@std@@@std@@@std@@@1@V?$_Tree_const_iterator@V?$_Tree_val@U?$_Tree_simple_types@U?$pair@$$CBV?$basic_string@DU?$char_traits@D@std@@V?$allocator@D@2@@std@@D@std@@@std@@@std@@@1@AEAU?$pair@$$CBV?$basic_string@DU?$char_traits@D@std@@V?$allocator@D@2@@std@@D@1@PEAU?$_Tree_node@U?$pair@$$CBV?$basic_string@DU?$char_traits@D@std@@V?$allocator@D@2@@std@@D@std@@PEAX@1@@Z 00000001800147d0 f i mfdpage.obj
 0001:00014560       ??$_Insert_hint@AEAU?$pair@$$CBV?$basic_string@DU?$char_traits@D@std@@V?$allocator@D@2@@std@@H@std@@PEAU?$_Tree_node@U?$pair@$$CBV?$basic_string@DU?$char_traits@D@std@@V?$allocator@D@2@@std@@H@std@@PEAX@2@@?$_Tree@V?$_Tmap_traits@V?$basic_string@DU?$char_traits@D@std@@V?$allocator@D@2@@std@@HU?$less@V?$basic_string@DU?$char_traits@D@std@@V?$allocator@D@2@@std@@@2@V?$allocator@U?$pair@$$CBV?$basic_string@DU?$char_traits@D@std@@V?$allocator@D@2@@std@@H@std@@@2@$0A@@std@@@std@@IEAA?AV?$_Tree_iterator@V?$_Tree_val@U?$_Tree_simple_types@U?$pair@$$CBV?$basic_string@DU?$char_traits@D@std@@V?$allocator@D@2@@std@@H@std@@@std@@@std@@@1@V?$_Tree_const_iterator@V?$_Tree_val@U?$_Tree_simple_types@U?$pair@$$CBV?$basic_string@DU?$char_traits@D@std@@V?$allocator@D@2@@std@@H@std@@@std@@@std@@@1@AEAU?$pair@$$CBV?$basic_string@DU?$char_traits@D@std@@V?$allocator@D@2@@std@@H@1@PEAU?$_Tree_node@U?$pair@$$CBV?$basic_string@DU?$char_traits@D@std@@V?$allocator@D@2@@std@@H@std@@PEAX@1@@Z 0000000180015560 f i mfdpage.obj
 0001:000152f0       ??$_Insert_nohint@AEAU?$pair@$$CBHPEAVobject_t@@@std@@PEAU?$_Tree_node@U?$pair@$$CBHPEAVobject_t@@@std@@PEAX@2@@?$_Tree@V?$_Tmap_traits@HPEAVobject_t@@U?$less@H@std@@V?$allocator@U?$pair@$$CBHPEAVobject_t@@@std@@@3@$0A@@std@@@std@@IEAA?AU?$pair@V?$_Tree_iterator@V?$_Tree_val@U?$_Tree_simple_types@U?$pair@$$CBHPEAVobject_t@@@std@@@std@@@std@@@std@@_N@1@_NAEAU?$pair@$$CBHPEAVobject_t@@@1@PEAU?$_Tree_node@U?$pair@$$CBHPEAVobject_t@@@std@@PEAX@1@@Z 00000001800162f0 f i mfdpage.obj
 0001:000156e0       ??$_Insert_nohint@AEAU?$pair@$$CBV?$basic_string@DU?$char_traits@D@std@@V?$allocator@D@2@@std@@D@std@@PEAU?$_Tree_node@U?$pair@$$CBV?$basic_string@DU?$char_traits@D@std@@V?$allocator@D@2@@std@@D@std@@PEAX@2@@?$_Tree@V?$_Tmap_traits@V?$basic_string@DU?$char_traits@D@std@@V?$allocator@D@2@@std@@DU?$less@V?$basic_string@DU?$char_traits@D@std@@V?$allocator@D@2@@std@@@2@V?$allocator@U?$pair@$$CBV?$basic_string@DU?$char_traits@D@std@@V?$allocator@D@2@@std@@D@std@@@2@$0A@@std@@@std@@IEAA?AU?$pair@V?$_Tree_iterator@V?$_Tree_val@U?$_Tree_simple_types@U?$pair@$$CBV?$basic_string@DU?$char_traits@D@std@@V?$allocator@D@2@@std@@D@std@@@std@@@std@@@std@@_N@1@_NAEAU?$pair@$$CBV?$basic_string@DU?$char_traits@D@std@@V?$allocator@D@2@@std@@D@1@PEAU?$_Tree_node@U?$pair@$$CBV?$basic_string@DU?$char_traits@D@std@@V?$allocator@D@2@@std@@D@std@@PEAX@1@@Z 00000001800166e0 f i mfdpage.obj
 0001:00015ad0       ??$_Insert_nohint@AEAU?$pair@$$CBV?$basic_string@DU?$char_traits@D@std@@V?$allocator@D@2@@std@@H@std@@PEAU?$_Tree_node@U?$pair@$$CBV?$basic_string@DU?$char_traits@D@std@@V?$allocator@D@2@@std@@H@std@@PEAX@2@@?$_Tree@V?$_Tmap_traits@V?$basic_string@DU?$char_traits@D@std@@V?$allocator@D@2@@std@@HU?$less@V?$basic_string@DU?$char_traits@D@std@@V?$allocator@D@2@@std@@@2@V?$allocator@U?$pair@$$CBV?$basic_string@DU?$char_traits@D@std@@V?$allocator@D@2@@std@@H@std@@@2@$0A@@std@@@std@@IEAA?AU?$pair@V?$_Tree_iterator@V?$_Tree_val@U?$_Tree_simple_types@U?$pair@$$CBV?$basic_string@DU?$char_traits@D@std@@V?$allocator@D@2@@std@@H@std@@@std@@@std@@@std@@_N@1@_NAEAU?$pair@$$CBV?$basic_string@DU?$char_traits@D@std@@V?$allocator@D@2@@std@@H@1@PEAU?$_Tree_node@U?$pair@$$CBV?$basic_string@DU?$char_traits@D@std@@V?$allocator@D@2@@std@@H@std@@PEAX@1@@Z 0000000180016ad0 f i mfdpage.obj
 0001:00015ec0       ??$assign@V?$_String_iterator@V?$_String_val@U?$_Simple_types@D@std@@@std@@@std@@@?$basic_string@DU?$char_traits@D@std@@V?$allocator@D@2@@std@@QEAAAEAV01@V?$_String_iterator@V?$_String_val@U?$_Simple_types@D@std@@@std@@@1@0@Z 0000000180016ec0 f i mfdpage.obj
 0001:00015f30       ??$construct@U?$pair@$$CBHPEAVobject_t@@@std@@AEAU12@@?$_Wrap_alloc@V?$allocator@U?$_Tree_node@U?$pair@$$CBHPEAVobject_t@@@std@@PEAX@std@@@std@@@std@@QEAAXPEAU?$pair@$$CBHPEAVobject_t@@@1@AEAU21@@Z 0000000180016f30 f i mfdpage.obj
 0001:00015f70       ??$construct@U?$pair@$$CBHPEAVobject_t@@@std@@AEAU12@@?$allocator@U?$_Tree_node@U?$pair@$$CBHPEAVobject_t@@@std@@PEAX@std@@@std@@QEAAXPEAU?$pair@$$CBHPEAVobject_t@@@1@AEAU21@@Z 0000000180016f70 f i mfdpage.obj
 0001:00015fe0       ??$construct@U?$pair@$$CBHPEAVobject_t@@@std@@AEAU12@@?$allocator_traits@V?$allocator@U?$_Tree_node@U?$pair@$$CBHPEAVobject_t@@@std@@PEAX@std@@@std@@@std@@SAXAEAV?$allocator@U?$_Tree_node@U?$pair@$$CBHPEAVobject_t@@@std@@PEAX@std@@@1@PEAU?$pair@$$CBHPEAVobject_t@@@1@AEAU31@@Z 0000000180016fe0 f i mfdpage.obj
 0001:00016020       ??$construct@U?$pair@$$CBV?$basic_string@DU?$char_traits@D@std@@V?$allocator@D@2@@std@@D@std@@AEBUpiecewise_construct_t@2@V?$tuple@$$QEAV?$basic_string@DU?$char_traits@D@std@@V?$allocator@D@2@@std@@@2@V?$tuple@$$$V@2@@?$_Wrap_alloc@V?$allocator@U?$_Tree_node@U?$pair@$$CBV?$basic_string@DU?$char_traits@D@std@@V?$allocator@D@2@@std@@D@std@@PEAX@std@@@std@@@std@@QEAAXPEAU?$pair@$$CBV?$basic_string@DU?$char_traits@D@std@@V?$allocator@D@2@@std@@D@1@AEBUpiecewise_construct_t@1@$$QEAV?$tuple@$$QEAV?$basic_string@DU?$char_traits@D@std@@V?$allocator@D@2@@std@@@1@$$QEAV?$tuple@$$$V@1@@Z 0000000180017020 f i mfdpage.obj
 0001:00016090       ??$construct@U?$pair@$$CBV?$basic_string@DU?$char_traits@D@std@@V?$allocator@D@2@@std@@D@std@@AEBUpiecewise_construct_t@2@V?$tuple@$$QEAV?$basic_string@DU?$char_traits@D@std@@V?$allocator@D@2@@std@@@2@V?$tuple@$$$V@2@@?$allocator@U?$_Tree_node@U?$pair@$$CBV?$basic_string@DU?$char_traits@D@std@@V?$allocator@D@2@@std@@D@std@@PEAX@std@@@std@@QEAAXPEAU?$pair@$$CBV?$basic_string@DU?$char_traits@D@std@@V?$allocator@D@2@@std@@D@1@AEBUpiecewise_construct_t@1@$$QEAV?$tuple@$$QEAV?$basic_string@DU?$char_traits@D@std@@V?$allocator@D@2@@std@@@1@$$QEAV?$tuple@$$$V@1@@Z 0000000180017090 f i mfdpage.obj
 0001:00016160       ??$construct@U?$pair@$$CBV?$basic_string@DU?$char_traits@D@std@@V?$allocator@D@2@@std@@D@std@@AEBUpiecewise_construct_t@2@V?$tuple@$$QEAV?$basic_string@DU?$char_traits@D@std@@V?$allocator@D@2@@std@@@2@V?$tuple@$$$V@2@@?$allocator_traits@V?$allocator@U?$_Tree_node@U?$pair@$$CBV?$basic_string@DU?$char_traits@D@std@@V?$allocator@D@2@@std@@D@std@@PEAX@std@@@std@@@std@@SAXAEAV?$allocator@U?$_Tree_node@U?$pair@$$CBV?$basic_string@DU?$char_traits@D@std@@V?$allocator@D@2@@std@@D@std@@PEAX@std@@@1@PEAU?$pair@$$CBV?$basic_string@DU?$char_traits@D@std@@V?$allocator@D@2@@std@@D@1@AEBUpiecewise_construct_t@1@$$QEAV?$tuple@$$QEAV?$basic_string@DU?$char_traits@D@std@@V?$allocator@D@2@@std@@@1@$$QEAV?$tuple@$$$V@1@@Z 0000000180017160 f i mfdpage.obj
 0001:000161d0       ??$construct@U?$pair@$$CBV?$basic_string@DU?$char_traits@D@std@@V?$allocator@D@2@@std@@H@std@@AEBUpiecewise_construct_t@2@V?$tuple@$$QEAV?$basic_string@DU?$char_traits@D@std@@V?$allocator@D@2@@std@@@2@V?$tuple@$$$V@2@@?$_Wrap_alloc@V?$allocator@U?$_Tree_node@U?$pair@$$CBV?$basic_string@DU?$char_traits@D@std@@V?$allocator@D@2@@std@@H@std@@PEAX@std@@@std@@@std@@QEAAXPEAU?$pair@$$CBV?$basic_string@DU?$char_traits@D@std@@V?$allocator@D@2@@std@@H@1@AEBUpiecewise_construct_t@1@$$QEAV?$tuple@$$QEAV?$basic_string@DU?$char_traits@D@std@@V?$allocator@D@2@@std@@@1@$$QEAV?$tuple@$$$V@1@@Z 00000001800171d0 f i mfdpage.obj
 0001:00016240       ??$construct@U?$pair@$$CBV?$basic_string@DU?$char_traits@D@std@@V?$allocator@D@2@@std@@H@std@@AEBUpiecewise_construct_t@2@V?$tuple@$$QEAV?$basic_string@DU?$char_traits@D@std@@V?$allocator@D@2@@std@@@2@V?$tuple@$$$V@2@@?$allocator@U?$_Tree_node@U?$pair@$$CBV?$basic_string@DU?$char_traits@D@std@@V?$allocator@D@2@@std@@H@std@@PEAX@std@@@std@@QEAAXPEAU?$pair@$$CBV?$basic_string@DU?$char_traits@D@std@@V?$allocator@D@2@@std@@H@1@AEBUpiecewise_construct_t@1@$$QEAV?$tuple@$$QEAV?$basic_string@DU?$char_traits@D@std@@V?$allocator@D@2@@std@@@1@$$QEAV?$tuple@$$$V@1@@Z 0000000180017240 f i mfdpage.obj
 0001:00016310       ??$construct@U?$pair@$$CBV?$basic_string@DU?$char_traits@D@std@@V?$allocator@D@2@@std@@H@std@@AEBUpiecewise_construct_t@2@V?$tuple@$$QEAV?$basic_string@DU?$char_traits@D@std@@V?$allocator@D@2@@std@@@2@V?$tuple@$$$V@2@@?$allocator_traits@V?$allocator@U?$_Tree_node@U?$pair@$$CBV?$basic_string@DU?$char_traits@D@std@@V?$allocator@D@2@@std@@H@std@@PEAX@std@@@std@@@std@@SAXAEAV?$allocator@U?$_Tree_node@U?$pair@$$CBV?$basic_string@DU?$char_traits@D@std@@V?$allocator@D@2@@std@@H@std@@PEAX@std@@@1@PEAU?$pair@$$CBV?$basic_string@DU?$char_traits@D@std@@V?$allocator@D@2@@std@@H@1@AEBUpiecewise_construct_t@1@$$QEAV?$tuple@$$QEAV?$basic_string@DU?$char_traits@D@std@@V?$allocator@D@2@@std@@@1@$$QEAV?$tuple@$$$V@1@@Z 0000000180017310 f i mfdpage.obj
 0001:00016380       ??$construct@U?$pair@$$CBV?$basic_string@DU?$char_traits@D@std@@V?$allocator@D@2@@std@@V12@@std@@AEBUpiecewise_construct_t@2@V?$tuple@AEBV?$basic_string@DU?$char_traits@D@std@@V?$allocator@D@2@@std@@@2@V?$tuple@$$$V@2@@?$_Wrap_alloc@V?$allocator@U?$_Tree_node@U?$pair@$$CBV?$basic_string@DU?$char_traits@D@std@@V?$allocator@D@2@@std@@V12@@std@@PEAX@std@@@std@@@std@@QEAAXPEAU?$pair@$$CBV?$basic_string@DU?$char_traits@D@std@@V?$allocator@D@2@@std@@V12@@1@AEBUpiecewise_construct_t@1@$$QEAV?$tuple@AEBV?$basic_string@DU?$char_traits@D@std@@V?$allocator@D@2@@std@@@1@$$QEAV?$tuple@$$$V@1@@Z 0000000180017380 f i mfdpage.obj
 0001:000163f0       ??$construct@U?$pair@$$CBV?$basic_string@DU?$char_traits@D@std@@V?$allocator@D@2@@std@@V12@@std@@AEBUpiecewise_construct_t@2@V?$tuple@AEBV?$basic_string@DU?$char_traits@D@std@@V?$allocator@D@2@@std@@@2@V?$tuple@$$$V@2@@?$allocator@U?$_Tree_node@U?$pair@$$CBV?$basic_string@DU?$char_traits@D@std@@V?$allocator@D@2@@std@@V12@@std@@PEAX@std@@@std@@QEAAXPEAU?$pair@$$CBV?$basic_string@DU?$char_traits@D@std@@V?$allocator@D@2@@std@@V12@@1@AEBUpiecewise_construct_t@1@$$QEAV?$tuple@AEBV?$basic_string@DU?$char_traits@D@std@@V?$allocator@D@2@@std@@@1@$$QEAV?$tuple@$$$V@1@@Z 00000001800173f0 f i mfdpage.obj
 0001:000164c0       ??$construct@U?$pair@$$CBV?$basic_string@DU?$char_traits@D@std@@V?$allocator@D@2@@std@@V12@@std@@AEBUpiecewise_construct_t@2@V?$tuple@AEBV?$basic_string@DU?$char_traits@D@std@@V?$allocator@D@2@@std@@@2@V?$tuple@$$$V@2@@?$allocator_traits@V?$allocator@U?$_Tree_node@U?$pair@$$CBV?$basic_string@DU?$char_traits@D@std@@V?$allocator@D@2@@std@@V12@@std@@PEAX@std@@@std@@@std@@SAXAEAV?$allocator@U?$_Tree_node@U?$pair@$$CBV?$basic_string@DU?$char_traits@D@std@@V?$allocator@D@2@@std@@V12@@std@@PEAX@std@@@1@PEAU?$pair@$$CBV?$basic_string@DU?$char_traits@D@std@@V?$allocator@D@2@@std@@V12@@1@AEBUpiecewise_construct_t@1@$$QEAV?$tuple@AEBV?$basic_string@DU?$char_traits@D@std@@V?$allocator@D@2@@std@@@1@$$QEAV?$tuple@$$$V@1@@Z 00000001800174c0 f i mfdpage.obj
 0001:00016530       ??$destroy@PEAU?$_Tree_node@U?$pair@$$CBV?$basic_string@DU?$char_traits@D@std@@V?$allocator@D@2@@std@@D@std@@PEAX@std@@@?$_Wrap_alloc@V?$allocator@U?$_Tree_node@U?$pair@$$CBV?$basic_string@DU?$char_traits@D@std@@V?$allocator@D@2@@std@@D@std@@PEAX@std@@@std@@@std@@QEAAXPEAPEAU?$_Tree_node@U?$pair@$$CBV?$basic_string@DU?$char_traits@D@std@@V?$allocator@D@2@@std@@D@std@@PEAX@1@@Z 0000000180017530 f i mfdpage.obj
 0001:00016530       ??$destroy@PEAD@?$_Wrap_alloc@V?$allocator@D@std@@@std@@QEAAXPEAPEAD@Z 0000000180017530 f i main.obj
 0001:00016530       ??$destroy@PEAU?$_Tree_node@U?$pair@$$CBHPEAVobject_t@@@std@@PEAX@std@@@?$_Wrap_alloc@V?$allocator@U?$_Tree_node@U?$pair@$$CBHPEAVobject_t@@@std@@PEAX@std@@@std@@@std@@QEAAXPEAPEAU?$_Tree_node@U?$pair@$$CBHPEAVobject_t@@@std@@PEAX@1@@Z 0000000180017530 f i mfdpage.obj
 0001:00016530       ??$destroy@PEAU?$_Tree_node@U?$pair@$$CBV?$basic_string@DU?$char_traits@D@std@@V?$allocator@D@2@@std@@M@std@@PEAX@std@@@?$_Wrap_alloc@V?$allocator@U?$_Tree_node@U?$pair@$$CBV?$basic_string@DU?$char_traits@D@std@@V?$allocator@D@2@@std@@M@std@@PEAX@std@@@std@@@std@@QEAAXPEAPEAU?$_Tree_node@U?$pair@$$CBV?$basic_string@DU?$char_traits@D@std@@V?$allocator@D@2@@std@@M@std@@PEAX@1@@Z 0000000180017530 f i mfdpage_fms.obj
 0001:00016530       ??$destroy@U?$pair@$$CBHM@std@@@?$_Wrap_alloc@V?$allocator@U?$_Tree_node@U?$pair@$$CBHM@std@@PEAX@std@@@std@@@std@@QEAAXPEAU?$pair@$$CBHM@1@@Z 0000000180017530 f i fms_config.obj
 0001:00016530       ??$destroy@U?$pair@$$CBHPEAVobject_t@@@std@@@?$_Wrap_alloc@V?$allocator@U?$_Tree_node@U?$pair@$$CBHPEAVobject_t@@@std@@PEAX@std@@@std@@@std@@QEAAXPEAU?$pair@$$CBHPEAVobject_t@@@1@@Z 0000000180017530 f i mfdpage.obj
 0001:00016530       ??$destroy@PEAVobject_t@@@?$_Wrap_alloc@V?$allocator@U?$_Tree_node@PEAVobject_t@@PEAX@std@@@std@@@std@@QEAAXPEAPEAVobject_t@@@Z 0000000180017530 f i data.obj
 0001:00016530       ??$destroy@PEAU?$_Tree_node@U?$pair@$$CBV?$basic_string@DU?$char_traits@D@std@@V?$allocator@D@2@@std@@H@std@@PEAX@std@@@?$_Wrap_alloc@V?$allocator@U?$_Tree_node@U?$pair@$$CBV?$basic_string@DU?$char_traits@D@std@@V?$allocator@D@2@@std@@H@std@@PEAX@std@@@std@@@std@@QEAAXPEAPEAU?$_Tree_node@U?$pair@$$CBV?$basic_string@DU?$char_traits@D@std@@V?$allocator@D@2@@std@@H@std@@PEAX@1@@Z 0000000180017530 f i mfdpage.obj
 0001:00016530       ??$destroy@PEAU?$_Tree_node@U?$pair@$$CBV?$basic_string@DU?$char_traits@D@std@@V?$allocator@D@2@@std@@PEAVfms_fp_item_t@@@std@@PEAX@std@@@?$_Wrap_alloc@V?$allocator@U?$_Tree_node@U?$pair@$$CBV?$basic_string@DU?$char_traits@D@std@@V?$allocator@D@2@@std@@PEAVfms_fp_item_t@@@std@@PEAX@std@@@std@@@std@@QEAAXPEAPEAU?$_Tree_node@U?$pair@$$CBV?$basic_string@DU?$char_traits@D@std@@V?$allocator@D@2@@std@@PEAVfms_fp_item_t@@@std@@PEAX@1@@Z 0000000180017530 f i fms_fp.obj
 0001:00016530       ??$destroy@PEAU?$_Tree_node@U?$pair@$$CBV?$basic_string@DU?$char_traits@D@std@@V?$allocator@D@2@@std@@PEAVfms_config_item_t@@@std@@PEAX@std@@@?$_Wrap_alloc@V?$allocator@U?$_Tree_node@U?$pair@$$CBV?$basic_string@DU?$char_traits@D@std@@V?$allocator@D@2@@std@@PEAVfms_config_item_t@@@std@@PEAX@std@@@std@@@std@@QEAAXPEAPEAU?$_Tree_node@U?$pair@$$CBV?$basic_string@DU?$char_traits@D@std@@V?$allocator@D@2@@std@@PEAVfms_config_item_t@@@std@@PEAX@1@@Z 0000000180017530 f i fms_config.obj
 0001:00016530       ??$destroy@PEAVmfdpage_t@@@?$_Wrap_alloc@V?$allocator@U?$_Tree_node@PEAVmfdpage_t@@PEAX@std@@@std@@@std@@QEAAXPEAPEAVmfdpage_t@@@Z 0000000180017530 f i in.obj
 0001:00016530       ??$destroy@PEAU?$_Tree_node@PEAVobject_t@@PEAX@std@@@?$_Wrap_alloc@V?$allocator@U?$_Tree_node@PEAVobject_t@@PEAX@std@@@std@@@std@@QEAAXPEAPEAU?$_Tree_node@PEAVobject_t@@PEAX@1@@Z 0000000180017530 f i data.obj
 0001:00016530       ??$destroy@PEAU?$_Tree_node@PEAVlistener_t@@PEAX@std@@@?$_Wrap_alloc@V?$allocator@U?$_Tree_node@PEAVlistener_t@@PEAX@std@@@std@@@std@@QEAAXPEAPEAU?$_Tree_node@PEAVlistener_t@@PEAX@1@@Z 0000000180017530 f i data.obj
 0001:00016530       ??$destroy@PEAU?$_Tree_node@PEAVmfdpage_t@@PEAX@std@@@?$_Wrap_alloc@V?$allocator@U?$_Tree_node@PEAVmfdpage_t@@PEAX@std@@@std@@@std@@QEAAXPEAPEAU?$_Tree_node@PEAVmfdpage_t@@PEAX@1@@Z 0000000180017530 f i in.obj
 0001:00016530       ??$destroy@PEAU?$_Tree_node@U?$pair@$$CBHV?$basic_string@DU?$char_traits@D@std@@V?$allocator@D@2@@std@@@std@@PEAX@std@@@?$_Wrap_alloc@V?$allocator@U?$_Tree_node@U?$pair@$$CBHV?$basic_string@DU?$char_traits@D@std@@V?$allocator@D@2@@std@@@std@@PEAX@std@@@std@@@std@@QEAAXPEAPEAU?$_Tree_node@U?$pair@$$CBHV?$basic_string@DU?$char_traits@D@std@@V?$allocator@D@2@@std@@@std@@PEAX@1@@Z 0000000180017530 f i out_saitek.obj
 0001:00016530       ??$destroy@PEAU?$_Tree_node@U?$pair@$$CBV?$basic_string@DU?$char_traits@D@std@@V?$allocator@D@2@@std@@V12@@std@@PEAX@std@@@?$_Wrap_alloc@V?$allocator@U?$_Tree_node@U?$pair@$$CBV?$basic_string@DU?$char_traits@D@std@@V?$allocator@D@2@@std@@V12@@std@@PEAX@std@@@std@@@std@@QEAAXPEAPEAU?$_Tree_node@U?$pair@$$CBV?$basic_string@DU?$char_traits@D@std@@V?$allocator@D@2@@std@@V12@@std@@PEAX@1@@Z 0000000180017530 f i tools.obj
 0001:00016530       ??$destroy@PEAU?$_Tree_node@U?$pair@$$CBHM@std@@PEAX@std@@@?$_Wrap_alloc@V?$allocator@U?$_Tree_node@U?$pair@$$CBHM@std@@PEAX@std@@@std@@@std@@QEAAXPEAPEAU?$_Tree_node@U?$pair@$$CBHM@std@@PEAX@1@@Z 0000000180017530 f i fms_config.obj
 0001:00016530       ??$destroy@PEAU?$_Tree_node@U?$pair@$$CBHPEAVfms_fp_item_t@@@std@@PEAX@std@@@?$_Wrap_alloc@V?$allocator@U?$_Tree_node@U?$pair@$$CBHPEAVfms_fp_item_t@@@std@@PEAX@std@@@std@@@std@@QEAAXPEAPEAU?$_Tree_node@U?$pair@$$CBHPEAVfms_fp_item_t@@@std@@PEAX@1@@Z 0000000180017530 f i mfdpage_fms.obj
 0001:00016530       ??$destroy@PEAVlistener_t@@@?$_Wrap_alloc@V?$allocator@U?$_Tree_node@PEAVlistener_t@@PEAX@std@@@std@@@std@@QEAAXPEAPEAVlistener_t@@@Z 0000000180017530 f i data.obj
 0001:00016530       ??$destroy@U?$pair@$$CBHPEAVfms_fp_item_t@@@std@@@?$_Wrap_alloc@V?$allocator@U?$_Tree_node@U?$pair@$$CBHPEAVfms_fp_item_t@@@std@@PEAX@std@@@std@@@std@@QEAAXPEAU?$pair@$$CBHPEAVfms_fp_item_t@@@1@@Z 0000000180017530 f i mfdpage_fms.obj
 0001:00016560       ??$destroy@PEAU?$_Tree_node@U?$pair@$$CBV?$basic_string@DU?$char_traits@D@std@@V?$allocator@D@2@@std@@M@std@@PEAX@std@@@?$allocator_traits@V?$allocator@U?$_Tree_node@U?$pair@$$CBV?$basic_string@DU?$char_traits@D@std@@V?$allocator@D@2@@std@@M@std@@PEAX@std@@@std@@@std@@SAXAEAV?$allocator@U?$_Tree_node@U?$pair@$$CBV?$basic_string@DU?$char_traits@D@std@@V?$allocator@D@2@@std@@M@std@@PEAX@std@@@1@PEAPEAU?$_Tree_node@U?$pair@$$CBV?$basic_string@DU?$char_traits@D@std@@V?$allocator@D@2@@std@@M@std@@PEAX@1@@Z 0000000180017560 f i mfdpage_fms.obj
 0001:00016560       ??$destroy@PEAD@?$allocator_traits@V?$allocator@D@std@@@std@@SAXAEAV?$allocator@D@1@PEAPEAD@Z 0000000180017560 f i main.obj
 0001:00016560       ??$destroy@PEAVlistener_t@@@?$allocator_traits@V?$allocator@U?$_Tree_node@PEAVlistener_t@@PEAX@std@@@std@@@std@@SAXAEAV?$allocator@U?$_Tree_node@PEAVlistener_t@@PEAX@std@@@1@PEAPEAVlistener_t@@@Z 0000000180017560 f i data.obj
 0001:00016560       ??$destroy@PEAU?$_Tree_node@U?$pair@$$CBV?$basic_string@DU?$char_traits@D@std@@V?$allocator@D@2@@std@@V12@@std@@PEAX@std@@@?$allocator_traits@V?$allocator@U?$_Tree_node@U?$pair@$$CBV?$basic_string@DU?$char_traits@D@std@@V?$allocator@D@2@@std@@V12@@std@@PEAX@std@@@std@@@std@@SAXAEAV?$allocator@U?$_Tree_node@U?$pair@$$CBV?$basic_string@DU?$char_traits@D@std@@V?$allocator@D@2@@std@@V12@@std@@PEAX@std@@@1@PEAPEAU?$_Tree_node@U?$pair@$$CBV?$basic_string@DU?$char_traits@D@std@@V?$allocator@D@2@@std@@V12@@std@@PEAX@1@@Z 0000000180017560 f i tools.obj
 0001:00016560       ??$destroy@PEAU?$_Tree_node@U?$pair@$$CBHPEAVobject_t@@@std@@PEAX@std@@@?$allocator_traits@V?$allocator@U?$_Tree_node@U?$pair@$$CBHPEAVobject_t@@@std@@PEAX@std@@@std@@@std@@SAXAEAV?$allocator@U?$_Tree_node@U?$pair@$$CBHPEAVobject_t@@@std@@PEAX@std@@@1@PEAPEAU?$_Tree_node@U?$pair@$$CBHPEAVobject_t@@@std@@PEAX@1@@Z 0000000180017560 f i mfdpage.obj
 0001:00016560       ??$destroy@PEAU?$_Tree_node@U?$pair@$$CBV?$basic_string@DU?$char_traits@D@std@@V?$allocator@D@2@@std@@PEAVfms_config_item_t@@@std@@PEAX@std@@@?$allocator_traits@V?$allocator@U?$_Tree_node@U?$pair@$$CBV?$basic_string@DU?$char_traits@D@std@@V?$allocator@D@2@@std@@PEAVfms_config_item_t@@@std@@PEAX@std@@@std@@@std@@SAXAEAV?$allocator@U?$_Tree_node@U?$pair@$$CBV?$basic_string@DU?$char_traits@D@std@@V?$allocator@D@2@@std@@PEAVfms_config_item_t@@@std@@PEAX@std@@@1@PEAPEAU?$_Tree_node@U?$pair@$$CBV?$basic_string@DU?$char_traits@D@std@@V?$allocator@D@2@@std@@PEAVfms_config_item_t@@@std@@PEAX@1@@Z 0000000180017560 f i fms_config.obj
 0001:00016560       ??$destroy@PEAU?$_Tree_node@U?$pair@$$CBHPEAVfms_fp_item_t@@@std@@PEAX@std@@@?$allocator_traits@V?$allocator@U?$_Tree_node@U?$pair@$$CBHPEAVfms_fp_item_t@@@std@@PEAX@std@@@std@@@std@@SAXAEAV?$allocator@U?$_Tree_node@U?$pair@$$CBHPEAVfms_fp_item_t@@@std@@PEAX@std@@@1@PEAPEAU?$_Tree_node@U?$pair@$$CBHPEAVfms_fp_item_t@@@std@@PEAX@1@@Z 0000000180017560 f i mfdpage_fms.obj
 0001:00016560       ??$destroy@PEAVobject_t@@@?$allocator_traits@V?$allocator@U?$_Tree_node@PEAVobject_t@@PEAX@std@@@std@@@std@@SAXAEAV?$allocator@U?$_Tree_node@PEAVobject_t@@PEAX@std@@@1@PEAPEAVobject_t@@@Z 0000000180017560 f i data.obj
 0001:00016560       ??$destroy@PEAU?$_Tree_node@U?$pair@$$CBHM@std@@PEAX@std@@@?$allocator_traits@V?$allocator@U?$_Tree_node@U?$pair@$$CBHM@std@@PEAX@std@@@std@@@std@@SAXAEAV?$allocator@U?$_Tree_node@U?$pair@$$CBHM@std@@PEAX@std@@@1@PEAPEAU?$_Tree_node@U?$pair@$$CBHM@std@@PEAX@1@@Z 0000000180017560 f i fms_config.obj
 0001:00016560       ??$destroy@PEAU?$_Tree_node@U?$pair@$$CBV?$basic_string@DU?$char_traits@D@std@@V?$allocator@D@2@@std@@H@std@@PEAX@std@@@?$allocator_traits@V?$allocator@U?$_Tree_node@U?$pair@$$CBV?$basic_string@DU?$char_traits@D@std@@V?$allocator@D@2@@std@@H@std@@PEAX@std@@@std@@@std@@SAXAEAV?$allocator@U?$_Tree_node@U?$pair@$$CBV?$basic_string@DU?$char_traits@D@std@@V?$allocator@D@2@@std@@H@std@@PEAX@std@@@1@PEAPEAU?$_Tree_node@U?$pair@$$CBV?$basic_string@DU?$char_traits@D@std@@V?$allocator@D@2@@std@@H@std@@PEAX@1@@Z 0000000180017560 f i mfdpage.obj
 0001:00016560       ??$destroy@PEAU?$_Tree_node@PEAVlistener_t@@PEAX@std@@@?$allocator_traits@V?$allocator@U?$_Tree_node@PEAVlistener_t@@PEAX@std@@@std@@@std@@SAXAEAV?$allocator@U?$_Tree_node@PEAVlistener_t@@PEAX@std@@@1@PEAPEAU?$_Tree_node@PEAVlistener_t@@PEAX@1@@Z 0000000180017560 f i data.obj
 0001:00016560       ??$destroy@U?$pair@$$CBHM@std@@@?$allocator_traits@V?$allocator@U?$_Tree_node@U?$pair@$$CBHM@std@@PEAX@std@@@std@@@std@@SAXAEAV?$allocator@U?$_Tree_node@U?$pair@$$CBHM@std@@PEAX@std@@@1@PEAU?$pair@$$CBHM@1@@Z 0000000180017560 f i fms_config.obj
 0001:00016560       ??$destroy@PEAU?$_Tree_node@U?$pair@$$CBV?$basic_string@DU?$char_traits@D@std@@V?$allocator@D@2@@std@@D@std@@PEAX@std@@@?$allocator_traits@V?$allocator@U?$_Tree_node@U?$pair@$$CBV?$basic_string@DU?$char_traits@D@std@@V?$allocator@D@2@@std@@D@std@@PEAX@std@@@std@@@std@@SAXAEAV?$allocator@U?$_Tree_node@U?$pair@$$CBV?$basic_string@DU?$char_traits@D@std@@V?$allocator@D@2@@std@@D@std@@PEAX@std@@@1@PEAPEAU?$_Tree_node@U?$pair@$$CBV?$basic_string@DU?$char_traits@D@std@@V?$allocator@D@2@@std@@D@std@@PEAX@1@@Z 0000000180017560 f i mfdpage.obj
 0001:00016560       ??$destroy@PEAU?$_Tree_node@U?$pair@$$CBHV?$basic_string@DU?$char_traits@D@std@@V?$allocator@D@2@@std@@@std@@PEAX@std@@@?$allocator_traits@V?$allocator@U?$_Tree_node@U?$pair@$$CBHV?$basic_string@DU?$char_traits@D@std@@V?$allocator@D@2@@std@@@std@@PEAX@std@@@std@@@std@@SAXAEAV?$allocator@U?$_Tree_node@U?$pair@$$CBHV?$basic_string@DU?$char_traits@D@std@@V?$allocator@D@2@@std@@@std@@PEAX@std@@@1@PEAPEAU?$_Tree_node@U?$pair@$$CBHV?$basic_string@DU?$char_traits@D@std@@V?$allocator@D@2@@std@@@std@@PEAX@1@@Z 0000000180017560 f i out_saitek.obj
 0001:00016560       ??$destroy@PEAU?$_Tree_node@PEAVobject_t@@PEAX@std@@@?$allocator_traits@V?$allocator@U?$_Tree_node@PEAVobject_t@@PEAX@std@@@std@@@std@@SAXAEAV?$allocator@U?$_Tree_node@PEAVobject_t@@PEAX@std@@@1@PEAPEAU?$_Tree_node@PEAVobject_t@@PEAX@1@@Z 0000000180017560 f i data.obj
 0001:00016560       ??$destroy@PEAU?$_Tree_node@PEAVmfdpage_t@@PEAX@std@@@?$allocator_traits@V?$allocator@U?$_Tree_node@PEAVmfdpage_t@@PEAX@std@@@std@@@std@@SAXAEAV?$allocator@U?$_Tree_node@PEAVmfdpage_t@@PEAX@std@@@1@PEAPEAU?$_Tree_node@PEAVmfdpage_t@@PEAX@1@@Z 0000000180017560 f i in.obj
 0001:00016560       ??$destroy@PEAVmfdpage_t@@@?$allocator_traits@V?$allocator@U?$_Tree_node@PEAVmfdpage_t@@PEAX@std@@@std@@@std@@SAXAEAV?$allocator@U?$_Tree_node@PEAVmfdpage_t@@PEAX@std@@@1@PEAPEAVmfdpage_t@@@Z 0000000180017560 f i in.obj
 0001:00016560       ??$destroy@PEAU?$_Tree_node@U?$pair@$$CBV?$basic_string@DU?$char_traits@D@std@@V?$allocator@D@2@@std@@PEAVfms_fp_item_t@@@std@@PEAX@std@@@?$allocator_traits@V?$allocator@U?$_Tree_node@U?$pair@$$CBV?$basic_string@DU?$char_traits@D@std@@V?$allocator@D@2@@std@@PEAVfms_fp_item_t@@@std@@PEAX@std@@@std@@@std@@SAXAEAV?$allocator@U?$_Tree_node@U?$pair@$$CBV?$basic_string@DU?$char_traits@D@std@@V?$allocator@D@2@@std@@PEAVfms_fp_item_t@@@std@@PEAX@std@@@1@PEAPEAU?$_Tree_node@U?$pair@$$CBV?$basic_string@DU?$char_traits@D@std@@V?$allocator@D@2@@std@@PEAVfms_fp_item_t@@@std@@PEAX@1@@Z 0000000180017560 f i fms_fp.obj
 0001:00016560       ??$destroy@U?$pair@$$CBHPEAVfms_fp_item_t@@@std@@@?$allocator_traits@V?$allocator@U?$_Tree_node@U?$pair@$$CBHPEAVfms_fp_item_t@@@std@@PEAX@std@@@std@@@std@@SAXAEAV?$allocator@U?$_Tree_node@U?$pair@$$CBHPEAVfms_fp_item_t@@@std@@PEAX@std@@@1@PEAU?$pair@$$CBHPEAVfms_fp_item_t@@@1@@Z 0000000180017560 f i mfdpage_fms.obj
 0001:00016560       ??$destroy@U?$pair@$$CBHPEAVobject_t@@@std@@@?$allocator_traits@V?$allocator@U?$_Tree_node@U?$pair@$$CBHPEAVobject_t@@@std@@PEAX@std@@@std@@@std@@SAXAEAV?$allocator@U?$_Tree_node@U?$pair@$$CBHPEAVobject_t@@@std@@PEAX@std@@@1@PEAU?$pair@$$CBHPEAVobject_t@@@1@@Z 0000000180017560 f i mfdpage.obj
 0001:00016590       ??$destroy@U?$pair@$$CBV?$basic_string@DU?$char_traits@D@std@@V?$allocator@D@2@@std@@D@std@@@?$_Wrap_alloc@V?$allocator@U?$_Tree_node@U?$pair@$$CBV?$basic_string@DU?$char_traits@D@std@@V?$allocator@D@2@@std@@D@std@@PEAX@std@@@std@@@std@@QEAAXPEAU?$pair@$$CBV?$basic_string@DU?$char_traits@D@std@@V?$allocator@D@2@@std@@D@1@@Z 0000000180017590 f i mfdpage.obj
 0001:00016590       ??$destroy@U?$pair@$$CBV?$basic_string@DU?$char_traits@D@std@@V?$allocator@D@2@@std@@PEAVfms_config_item_t@@@std@@@?$_Wrap_alloc@V?$allocator@U?$_Tree_node@U?$pair@$$CBV?$basic_string@DU?$char_traits@D@std@@V?$allocator@D@2@@std@@PEAVfms_config_item_t@@@std@@PEAX@std@@@std@@@std@@QEAAXPEAU?$pair@$$CBV?$basic_string@DU?$char_traits@D@std@@V?$allocator@D@2@@std@@PEAVfms_config_item_t@@@1@@Z 0000000180017590 f i fms_config.obj
 0001:00016590       ??$destroy@U?$pair@$$CBV?$basic_string@DU?$char_traits@D@std@@V?$allocator@D@2@@std@@PEAVfms_fp_item_t@@@std@@@?$_Wrap_alloc@V?$allocator@U?$_Tree_node@U?$pair@$$CBV?$basic_string@DU?$char_traits@D@std@@V?$allocator@D@2@@std@@PEAVfms_fp_item_t@@@std@@PEAX@std@@@std@@@std@@QEAAXPEAU?$pair@$$CBV?$basic_string@DU?$char_traits@D@std@@V?$allocator@D@2@@std@@PEAVfms_fp_item_t@@@1@@Z 0000000180017590 f i fms_fp.obj
 0001:00016590       ??$destroy@U?$pair@$$CBV?$basic_string@DU?$char_traits@D@std@@V?$allocator@D@2@@std@@H@std@@@?$_Wrap_alloc@V?$allocator@U?$_Tree_node@U?$pair@$$CBV?$basic_string@DU?$char_traits@D@std@@V?$allocator@D@2@@std@@H@std@@PEAX@std@@@std@@@std@@QEAAXPEAU?$pair@$$CBV?$basic_string@DU?$char_traits@D@std@@V?$allocator@D@2@@std@@H@1@@Z 0000000180017590 f i mfdpage.obj
 0001:00016590       ??$destroy@U?$pair@$$CBV?$basic_string@DU?$char_traits@D@std@@V?$allocator@D@2@@std@@M@std@@@?$_Wrap_alloc@V?$allocator@U?$_Tree_node@U?$pair@$$CBV?$basic_string@DU?$char_traits@D@std@@V?$allocator@D@2@@std@@M@std@@PEAX@std@@@std@@@std@@QEAAXPEAU?$pair@$$CBV?$basic_string@DU?$char_traits@D@std@@V?$allocator@D@2@@std@@M@1@@Z 0000000180017590 f i mfdpage_fms.obj
 0001:000165c0       ??$destroy@U?$pair@$$CBV?$basic_string@DU?$char_traits@D@std@@V?$allocator@D@2@@std@@H@std@@@?$allocator@U?$_Tree_node@U?$pair@$$CBV?$basic_string@DU?$char_traits@D@std@@V?$allocator@D@2@@std@@H@std@@PEAX@std@@@std@@QEAAXPEAU?$pair@$$CBV?$basic_string@DU?$char_traits@D@std@@V?$allocator@D@2@@std@@H@1@@Z 00000001800175c0 f i mfdpage.obj
 0001:000165c0       ??$destroy@U?$pair@$$CBV?$basic_string@DU?$char_traits@D@std@@V?$allocator@D@2@@std@@PEAVfms_fp_item_t@@@std@@@?$allocator@U?$_Tree_node@U?$pair@$$CBV?$basic_string@DU?$char_traits@D@std@@V?$allocator@D@2@@std@@PEAVfms_fp_item_t@@@std@@PEAX@std@@@std@@QEAAXPEAU?$pair@$$CBV?$basic_string@DU?$char_traits@D@std@@V?$allocator@D@2@@std@@PEAVfms_fp_item_t@@@1@@Z 00000001800175c0 f i fms_fp.obj
 0001:000165c0       ??$destroy@U?$pair@$$CBV?$basic_string@DU?$char_traits@D@std@@V?$allocator@D@2@@std@@D@std@@@?$allocator@U?$_Tree_node@U?$pair@$$CBV?$basic_string@DU?$char_traits@D@std@@V?$allocator@D@2@@std@@D@std@@PEAX@std@@@std@@QEAAXPEAU?$pair@$$CBV?$basic_string@DU?$char_traits@D@std@@V?$allocator@D@2@@std@@D@1@@Z 00000001800175c0 f i mfdpage.obj
 0001:000165c0       ??$destroy@U?$pair@$$CBV?$basic_string@DU?$char_traits@D@std@@V?$allocator@D@2@@std@@PEAVfms_config_item_t@@@std@@@?$allocator@U?$_Tree_node@U?$pair@$$CBV?$basic_string@DU?$char_traits@D@std@@V?$allocator@D@2@@std@@PEAVfms_config_item_t@@@std@@PEAX@std@@@std@@QEAAXPEAU?$pair@$$CBV?$basic_string@DU?$char_traits@D@std@@V?$allocator@D@2@@std@@PEAVfms_config_item_t@@@1@@Z 00000001800175c0 f i fms_config.obj
 0001:000165c0       ??$destroy@U?$pair@$$CBV?$basic_string@DU?$char_traits@D@std@@V?$allocator@D@2@@std@@M@std@@@?$allocator@U?$_Tree_node@U?$pair@$$CBV?$basic_string@DU?$char_traits@D@std@@V?$allocator@D@2@@std@@M@std@@PEAX@std@@@std@@QEAAXPEAU?$pair@$$CBV?$basic_string@DU?$char_traits@D@std@@V?$allocator@D@2@@std@@M@1@@Z 00000001800175c0 f i mfdpage_fms.obj
 0001:000165e0       ??$emplace_hint@AEBUpiecewise_construct_t@std@@V?$tuple@$$QEAV?$basic_string@DU?$char_traits@D@std@@V?$allocator@D@2@@std@@@2@V?$tuple@$$$V@2@@?$_Tree@V?$_Tmap_traits@V?$basic_string@DU?$char_traits@D@std@@V?$allocator@D@2@@std@@DU?$less@V?$basic_string@DU?$char_traits@D@std@@V?$allocator@D@2@@std@@@2@V?$allocator@U?$pair@$$CBV?$basic_string@DU?$char_traits@D@std@@V?$allocator@D@2@@std@@D@std@@@2@$0A@@std@@@std@@QEAA?AV?$_Tree_iterator@V?$_Tree_val@U?$_Tree_simple_types@U?$pair@$$CBV?$basic_string@DU?$char_traits@D@std@@V?$allocator@D@2@@std@@D@std@@@std@@@std@@@1@V?$_Tree_const_iterator@V?$_Tree_val@U?$_Tree_simple_types@U?$pair@$$CBV?$basic_string@DU?$char_traits@D@std@@V?$allocator@D@2@@std@@D@std@@@std@@@std@@@1@AEBUpiecewise_construct_t@1@$$QEAV?$tuple@$$QEAV?$basic_string@DU?$char_traits@D@std@@V?$allocator@D@2@@std@@@1@$$QEAV?$tuple@$$$V@1@@Z 00000001800175e0 f i mfdpage.obj
 0001:00016680       ??$emplace_hint@AEBUpiecewise_construct_t@std@@V?$tuple@$$QEAV?$basic_string@DU?$char_traits@D@std@@V?$allocator@D@2@@std@@@2@V?$tuple@$$$V@2@@?$_Tree@V?$_Tmap_traits@V?$basic_string@DU?$char_traits@D@std@@V?$allocator@D@2@@std@@HU?$less@V?$basic_string@DU?$char_traits@D@std@@V?$allocator@D@2@@std@@@2@V?$allocator@U?$pair@$$CBV?$basic_string@DU?$char_traits@D@std@@V?$allocator@D@2@@std@@H@std@@@2@$0A@@std@@@std@@QEAA?AV?$_Tree_iterator@V?$_Tree_val@U?$_Tree_simple_types@U?$pair@$$CBV?$basic_string@DU?$char_traits@D@std@@V?$allocator@D@2@@std@@H@std@@@std@@@std@@@1@V?$_Tree_const_iterator@V?$_Tree_val@U?$_Tree_simple_types@U?$pair@$$CBV?$basic_string@DU?$char_traits@D@std@@V?$allocator@D@2@@std@@H@std@@@std@@@std@@@1@AEBUpiecewise_construct_t@1@$$QEAV?$tuple@$$QEAV?$basic_string@DU?$char_traits@D@std@@V?$allocator@D@2@@std@@@1@$$QEAV?$tuple@$$$V@1@@Z 0000000180017680 f i mfdpage.obj
 0001:00016720       ??$emplace_hint@AEBUpiecewise_construct_t@std@@V?$tuple@AEBH@2@V?$tuple@$$$V@2@@?$_Tree@V?$_Tmap_traits@HPEAVobject_t@@U?$less@H@std@@V?$allocator@U?$pair@$$CBHPEAVobject_t@@@std@@@3@$0A@@std@@@std@@QEAA?AV?$_Tree_iterator@V?$_Tree_val@U?$_Tree_simple_types@U?$pair@$$CBHPEAVobject_t@@@std@@@std@@@std@@@1@V?$_Tree_const_iterator@V?$_Tree_val@U?$_Tree_simple_types@U?$pair@$$CBHPEAVobject_t@@@std@@@std@@@std@@@1@AEBUpiecewise_construct_t@1@$$QEAV?$tuple@AEBH@1@$$QEAV?$tuple@$$$V@1@@Z 0000000180017720 f i mfdpage.obj
 0001:000167c0       ??$emplace_hint@AEBUpiecewise_construct_t@std@@V?$tuple@AEBV?$basic_string@DU?$char_traits@D@std@@V?$allocator@D@2@@std@@@2@V?$tuple@$$$V@2@@?$_Tree@V?$_Tmap_traits@V?$basic_string@DU?$char_traits@D@std@@V?$allocator@D@2@@std@@V12@U?$less@V?$basic_string@DU?$char_traits@D@std@@V?$allocator@D@2@@std@@@2@V?$allocator@U?$pair@$$CBV?$basic_string@DU?$char_traits@D@std@@V?$allocator@D@2@@std@@V12@@std@@@2@$0A@@std@@@std@@QEAA?AV?$_Tree_iterator@V?$_Tree_val@U?$_Tree_simple_types@U?$pair@$$CBV?$basic_string@DU?$char_traits@D@std@@V?$allocator@D@2@@std@@V12@@std@@@std@@@std@@@1@V?$_Tree_const_iterator@V?$_Tree_val@U?$_Tree_simple_types@U?$pair@$$CBV?$basic_string@DU?$char_traits@D@std@@V?$allocator@D@2@@std@@V12@@std@@@std@@@std@@@1@AEBUpiecewise_construct_t@1@$$QEAV?$tuple@AEBV?$basic_string@DU?$char_traits@D@std@@V?$allocator@D@2@@std@@@1@$$QEAV?$tuple@$$$V@1@@Z 00000001800177c0 f i mfdpage.obj
 0001:00016860       ??$forward_as_tuple@AEBH@std@@YA?AV?$tuple@AEBH@0@AEBH@Z 0000000180017860 f i out_saitek.obj
 0001:00016860       ??$forward_as_tuple@AEBV?$basic_string@DU?$char_traits@D@std@@V?$allocator@D@2@@std@@@std@@YA?AV?$tuple@AEBV?$basic_string@DU?$char_traits@D@std@@V?$allocator@D@2@@std@@@0@AEBV?$basic_string@DU?$char_traits@D@std@@V?$allocator@D@2@@0@@Z 0000000180017860 f i mfdpage.obj
 0001:00016890       ??$getline@DU?$char_traits@D@std@@V?$allocator@D@2@@std@@YAAEAV?$basic_istream@DU?$char_traits@D@std@@@0@$$QEAV10@AEAV?$basic_string@DU?$char_traits@D@std@@V?$allocator@D@2@@0@D@Z 0000000180017890 f i mfdpage.obj
 0001:00016a90       ??$getline@DU?$char_traits@D@std@@V?$allocator@D@2@@std@@YAAEAV?$basic_istream@DU?$char_traits@D@std@@@0@AEAV10@AEAV?$basic_string@DU?$char_traits@D@std@@V?$allocator@D@2@@0@D@Z 0000000180017a90 f i mfdpage.obj
 0001:00016ad0       ??0?$_String_const_iterator@V?$_String_val@U?$_Simple_types@D@std@@@std@@@std@@QEAA@PEBDPEBU_Container_base0@1@@Z 0000000180017ad0 f i mfdpage.obj
 0001:00016b10       ??0?$_String_iterator@V?$_String_val@U?$_Simple_types@D@std@@@std@@@std@@QEAA@PEADPEBU_Container_base0@1@@Z 0000000180017b10 f i mfdpage.obj
 0001:00016b50       ??0?$_Tree@V?$_Tmap_traits@HPEAVobject_t@@U?$less@H@std@@V?$allocator@U?$pair@$$CBHPEAVobject_t@@@std@@@3@$0A@@std@@@std@@QEAA@AEBU?$less@H@1@AEBV?$allocator@U?$pair@$$CBHPEAVobject_t@@@std@@@1@@Z 0000000180017b50 f i mfdpage.obj
 0001:00016b90       ??0?$_Tree@V?$_Tmap_traits@HPEAVobject_t@@U?$less@H@std@@V?$allocator@U?$pair@$$CBHPEAVobject_t@@@std@@@3@$0A@@std@@@std@@QEAA@AEBV01@AEBV?$allocator@U?$pair@$$CBHPEAVobject_t@@@std@@@1@@Z 0000000180017b90 f i mfdpage.obj
 0001:00016c10       ??0?$_Tree@V?$_Tmap_traits@V?$basic_string@DU?$char_traits@D@std@@V?$allocator@D@2@@std@@HU?$less@V?$basic_string@DU?$char_traits@D@std@@V?$allocator@D@2@@std@@@2@V?$allocator@U?$pair@$$CBV?$basic_string@DU?$char_traits@D@std@@V?$allocator@D@2@@std@@H@std@@@2@$0A@@std@@@std@@QEAA@AEBU?$less@V?$basic_string@DU?$char_traits@D@std@@V?$allocator@D@2@@std@@@1@AEBV?$allocator@U?$pair@$$CBV?$basic_string@DU?$char_traits@D@std@@V?$allocator@D@2@@std@@H@std@@@1@@Z 0000000180017c10 f i mfdpage.obj
 0001:00016c50       ??0?$_Tree_alloc@$0A@U?$_Tree_base_types@U?$pair@$$CBHPEAVobject_t@@@std@@V?$allocator@U?$pair@$$CBHPEAVobject_t@@@std@@@2@@std@@@std@@QEAA@AEBV?$allocator@U?$pair@$$CBHPEAVobject_t@@@std@@@1@@Z 0000000180017c50 f i mfdpage.obj
 0001:00016c90       ??0?$_Tree_alloc@$0A@U?$_Tree_base_types@U?$pair@$$CBV?$basic_string@DU?$char_traits@D@std@@V?$allocator@D@2@@std@@H@std@@V?$allocator@U?$pair@$$CBV?$basic_string@DU?$char_traits@D@std@@V?$allocator@D@2@@std@@H@std@@@2@@std@@@std@@QEAA@AEBV?$allocator@U?$pair@$$CBV?$basic_string@DU?$char_traits@D@std@@V?$allocator@D@2@@std@@H@std@@@1@@Z 0000000180017c90 f i mfdpage.obj
 0001:00016cd0       ??0?$_Tree_buy@U?$pair@$$CBHPEAVobject_t@@@std@@V?$allocator@U?$pair@$$CBHPEAVobject_t@@@std@@@2@@std@@QEAA@AEBV?$allocator@U?$pair@$$CBHPEAVobject_t@@@std@@@1@@Z 0000000180017cd0 f i mfdpage.obj
 0001:00016d00       ??0?$_Tree_buy@U?$pair@$$CBV?$basic_string@DU?$char_traits@D@std@@V?$allocator@D@2@@std@@H@std@@V?$allocator@U?$pair@$$CBV?$basic_string@DU?$char_traits@D@std@@V?$allocator@D@2@@std@@H@std@@@2@@std@@QEAA@AEBV?$allocator@U?$pair@$$CBV?$basic_string@DU?$char_traits@D@std@@V?$allocator@D@2@@std@@H@std@@@1@@Z 0000000180017d00 f i mfdpage.obj
 0001:00016d30       ??0?$_Tree_comp@$0A@V?$_Tmap_traits@HPEAVobject_t@@U?$less@H@std@@V?$allocator@U?$pair@$$CBHPEAVobject_t@@@std@@@3@$0A@@std@@@std@@QEAA@AEBU?$less@H@1@AEBV?$allocator@U?$pair@$$CBHPEAVobject_t@@@std@@@1@@Z 0000000180017d30 f i mfdpage.obj
 0001:00016d60       ??0?$_Tree_comp@$0A@V?$_Tmap_traits@V?$basic_string@DU?$char_traits@D@std@@V?$allocator@D@2@@std@@HU?$less@V?$basic_string@DU?$char_traits@D@std@@V?$allocator@D@2@@std@@@2@V?$allocator@U?$pair@$$CBV?$basic_string@DU?$char_traits@D@std@@V?$allocator@D@2@@std@@H@std@@@2@$0A@@std@@@std@@QEAA@AEBU?$less@V?$basic_string@DU?$char_traits@D@std@@V?$allocator@D@2@@std@@@1@AEBV?$allocator@U?$pair@$$CBV?$basic_string@DU?$char_traits@D@std@@V?$allocator@D@2@@std@@H@std@@@1@@Z 0000000180017d60 f i mfdpage.obj
 0001:00016d90       ??0?$_Tree_unchecked_const_iterator@V?$_Tree_val@U?$_Tree_simple_types@U?$pair@$$CBHM@std@@@std@@@std@@U_Iterator_base0@2@@std@@QEAA@XZ 0000000180017d90 f i fms_config.obj
 0001:00016d90       ??0?$_Tree_unchecked_const_iterator@V?$_Tree_val@U?$_Tree_simple_types@U?$pair@$$CBHPEAVobject_t@@@std@@@std@@@std@@U_Iterator_base0@2@@std@@QEAA@XZ 0000000180017d90 f i mfdpage.obj
 0001:00016d90       ??0?$_Tree_unchecked_const_iterator@V?$_Tree_val@U?$_Tree_simple_types@U?$pair@$$CBHV?$basic_string@DU?$char_traits@D@std@@V?$allocator@D@2@@std@@@std@@@std@@@std@@U_Iterator_base0@2@@std@@QEAA@XZ 0000000180017d90 f i out_saitek.obj
 0001:00016d90       ??0?$_Tree_unchecked_const_iterator@V?$_Tree_val@U?$_Tree_simple_types@U?$pair@$$CBV?$basic_string@DU?$char_traits@D@std@@V?$allocator@D@2@@std@@PEAVfms_config_item_t@@@std@@@std@@@std@@U_Iterator_base0@2@@std@@QEAA@XZ 0000000180017d90 f i fms_config.obj
 0001:00016d90       ??0?$_Tree_unchecked_const_iterator@V?$_Tree_val@U?$_Tree_simple_types@U?$pair@$$CBV?$basic_string@DU?$char_traits@D@std@@V?$allocator@D@2@@std@@V12@@std@@@std@@@std@@U_Iterator_base0@2@@std@@QEAA@XZ 0000000180017d90 f i tools.obj
 0001:00016d90       ??0?$_Tree_unchecked_const_iterator@V?$_Tree_val@U?$_Tree_simple_types@U?$pair@$$CBV?$basic_string@DU?$char_traits@D@std@@V?$allocator@D@2@@std@@PEAVfms_fp_item_t@@@std@@@std@@@std@@U_Iterator_base0@2@@std@@QEAA@XZ 0000000180017d90 f i fms_fp.obj
 0001:00016d90       ??0?$_Tree_unchecked_const_iterator@V?$_Tree_val@U?$_Tree_simple_types@U?$pair@$$CBV?$basic_string@DU?$char_traits@D@std@@V?$allocator@D@2@@std@@M@std@@@std@@@std@@U_Iterator_base0@2@@std@@QEAA@XZ 0000000180017d90 f i mfdpage_fms.obj
 0001:00016d90       ??0?$_Tree_unchecked_const_iterator@V?$_Tree_val@U?$_Tree_simple_types@U?$pair@$$CBHPEAVfms_fp_item_t@@@std@@@std@@@std@@U_Iterator_base0@2@@std@@QEAA@XZ 0000000180017d90 f i mfdpage_fms.obj
 0001:00016d90       ??0?$_Tree_unchecked_const_iterator@V?$_Tree_val@U?$_Tree_simple_types@U?$pair@$$CBV?$basic_string@DU?$char_traits@D@std@@V?$allocator@D@2@@std@@H@std@@@std@@@std@@U_Iterator_base0@2@@std@@QEAA@XZ 0000000180017d90 f i mfdpage.obj
 0001:00016d90       ??0?$_Tree_unchecked_const_iterator@V?$_Tree_val@U?$_Tree_simple_types@U?$pair@$$CBV?$basic_string@DU?$char_traits@D@std@@V?$allocator@D@2@@std@@D@std@@@std@@@std@@U_Iterator_base0@2@@std@@QEAA@XZ 0000000180017d90 f i mfdpage.obj
 0001:00016db0       ??0?$basic_stringbuf@DU?$char_traits@D@std@@V?$allocator@D@2@@std@@QEAA@AEBV?$basic_string@DU?$char_traits@D@std@@V?$allocator@D@2@@1@H@Z 0000000180017db0 f i mfdpage.obj
 0001:00016e40       ??0?$basic_stringstream@DU?$char_traits@D@std@@V?$allocator@D@2@@std@@QEAA@AEBV?$basic_string@DU?$char_traits@D@std@@V?$allocator@D@2@@1@H@Z 0000000180017e40 f i mfdpage.obj
 0001:00016f30       ??0?$map@HPEAVobject_t@@U?$less@H@std@@V?$allocator@U?$pair@$$CBHPEAVobject_t@@@std@@@3@@std@@QEAA@AEBV01@@Z 0000000180017f30 f i mfdpage.obj
 0001:00016f90       ??0?$map@HPEAVobject_t@@U?$less@H@std@@V?$allocator@U?$pair@$$CBHPEAVobject_t@@@std@@@3@@std@@QEAA@XZ 0000000180017f90 f i mfdpage.obj
 0001:00016fc0       ??0?$map@V?$basic_string@DU?$char_traits@D@std@@V?$allocator@D@2@@std@@HU?$less@V?$basic_string@DU?$char_traits@D@std@@V?$allocator@D@2@@std@@@2@V?$allocator@U?$pair@$$CBV?$basic_string@DU?$char_traits@D@std@@V?$allocator@D@2@@std@@H@std@@@2@@std@@QEAA@XZ 0000000180017fc0 f i mfdpage.obj
 0001:00016ff0       ??0?$tuple@AEBV?$basic_string@DU?$char_traits@D@std@@V?$allocator@D@2@@std@@@std@@QEAA@AEBV?$basic_string@DU?$char_traits@D@std@@V?$allocator@D@2@@1@@Z 0000000180017ff0 f i mfdpage.obj
 0001:00016ff0       ??0?$tuple@AEBH@std@@QEAA@AEBH@Z 0000000180017ff0 f i out_saitek.obj
 0001:00017030       ??0_Sentry_base@?$basic_istream@DU?$char_traits@D@std@@@std@@QEAA@AEAV12@@Z 0000000180018030 f i mfdpage.obj
 0001:000170d0       ??0listener_t@@QEAA@XZ     00000001800180d0 f i mfdpage.obj
 0001:000170f0       ??0sentry@?$basic_istream@DU?$char_traits@D@std@@@std@@QEAA@AEAV12@_N@Z 00000001800180f0 f i mfdpage.obj
 0001:00017140       ??1?$_Tree@V?$_Tmap_traits@HV?$basic_string@DU?$char_traits@D@std@@V?$allocator@D@2@@std@@U?$less@H@2@V?$allocator@U?$pair@$$CBHV?$basic_string@DU?$char_traits@D@std@@V?$allocator@D@2@@std@@@std@@@2@$0A@@std@@@std@@QEAA@XZ 0000000180018140 f i mfdpage.obj
 0001:00017170       ??1?$basic_stringstream@DU?$char_traits@D@std@@V?$allocator@D@2@@std@@UEAA@XZ 0000000180018170 f i mfdpage.obj
 0001:00017200       ??1?$map@HV?$basic_string@DU?$char_traits@D@std@@V?$allocator@D@2@@std@@U?$less@H@2@V?$allocator@U?$pair@$$CBHV?$basic_string@DU?$char_traits@D@std@@V?$allocator@D@2@@std@@@std@@@2@@std@@QEAA@XZ 0000000180018200 f i mfdpage.obj
 0001:00017220       ??1?$pair@$$CBV?$basic_string@DU?$char_traits@D@std@@V?$allocator@D@2@@std@@D@std@@QEAA@XZ 0000000180018220 f i mfdpage.obj
 0001:00017220       ??1?$pair@$$CBV?$basic_string@DU?$char_traits@D@std@@V?$allocator@D@2@@std@@H@std@@QEAA@XZ 0000000180018220 f i mfdpage.obj
 0001:00017220       ??1?$pair@$$CBV?$basic_string@DU?$char_traits@D@std@@V?$allocator@D@2@@std@@PEAVfms_fp_item_t@@@std@@QEAA@XZ 0000000180018220 f i fms_fp.obj
 0001:00017220       ??1?$pair@$$CBV?$basic_string@DU?$char_traits@D@std@@V?$allocator@D@2@@std@@M@std@@QEAA@XZ 0000000180018220 f i mfdpage_fms.obj
 0001:00017220       ??1?$pair@$$CBV?$basic_string@DU?$char_traits@D@std@@V?$allocator@D@2@@std@@PEAVfms_config_item_t@@@std@@QEAA@XZ 0000000180018220 f i fms_config.obj
 0001:00017240       ??1_Sentry_base@?$basic_istream@DU?$char_traits@D@std@@@std@@QEAA@XZ 0000000180018240 f i mfdpage.obj
 0001:000172d0       ??1listener_t@@UEAA@XZ     00000001800182d0 f i mfdpage.obj
 0001:000172f0       ??1sentry@?$basic_istream@DU?$char_traits@D@std@@@std@@QEAA@XZ 00000001800182f0 f i mfdpage.obj
 0001:00017310       ??4?$basic_string@DU?$char_traits@D@std@@V?$allocator@D@2@@std@@QEAAAEAV01@$$QEAV01@@Z 0000000180018310 f i mfdpage.obj
 0001:00017400       ??8?$_String_const_iterator@V?$_String_val@U?$_Simple_types@D@std@@@std@@@std@@QEBA_NAEBV01@@Z 0000000180018400 f i mfdpage.obj
 0001:00017450       ??9?$_Tree_const_iterator@V?$_Tree_val@U?$_Tree_simple_types@U?$pair@$$CBV?$basic_string@DU?$char_traits@D@std@@V?$allocator@D@2@@std@@PEAVfms_fp_item_t@@@std@@@std@@@std@@@std@@QEBA_NAEBV01@@Z 0000000180018450 f i fms_fp.obj
 0001:00017450       ??9?$_Tree_const_iterator@V?$_Tree_val@U?$_Tree_simple_types@U?$pair@$$CBV?$basic_string@DU?$char_traits@D@std@@V?$allocator@D@2@@std@@M@std@@@std@@@std@@@std@@QEBA_NAEBV01@@Z 0000000180018450 f i fms_config.obj
 0001:00017450       ??9?$_Tree_const_iterator@V?$_Tree_val@U?$_Tree_simple_types@U?$pair@$$CBHPEAVfms_fp_item_t@@@std@@@std@@@std@@@std@@QEBA_NAEBV01@@Z 0000000180018450 f i fms_fp.obj
 0001:00017450       ??9?$_Tree_const_iterator@V?$_Tree_val@U?$_Tree_simple_types@U?$pair@$$CBHPEAVobject_t@@@std@@@std@@@std@@@std@@QEBA_NAEBV01@@Z 0000000180018450 f i mfdpage.obj
 0001:00017450       ??9?$_Tree_const_iterator@V?$_Tree_val@U?$_Tree_simple_types@U?$pair@$$CBHV?$basic_string@DU?$char_traits@D@std@@V?$allocator@D@2@@std@@@std@@@std@@@std@@@std@@QEBA_NAEBV01@@Z 0000000180018450 f i mfdpage.obj
 0001:00017450       ??9?$_Tree_const_iterator@V?$_Tree_val@U?$_Tree_simple_types@U?$pair@$$CBHM@std@@@std@@@std@@@std@@QEBA_NAEBV01@@Z 0000000180018450 f i fms_config.obj
 0001:00017450       ??9?$_Tree_const_iterator@V?$_Tree_val@U?$_Tree_simple_types@U?$pair@$$CBV?$basic_string@DU?$char_traits@D@std@@V?$allocator@D@2@@std@@PEAVfms_config_item_t@@@std@@@std@@@std@@@std@@QEBA_NAEBV01@@Z 0000000180018450 f i fms_config.obj
 0001:00017450       ??9?$_Tree_const_iterator@V?$_Tree_val@U?$_Tree_simple_types@U?$pair@$$CBV?$basic_string@DU?$char_traits@D@std@@V?$allocator@D@2@@std@@H@std@@@std@@@std@@@std@@QEBA_NAEBV01@@Z 0000000180018450 f i mfdpage.obj
 0001:00017450       ??9?$_Tree_const_iterator@V?$_Tree_val@U?$_Tree_simple_types@U?$pair@$$CBV?$basic_string@DU?$char_traits@D@std@@V?$allocator@D@2@@std@@V12@@std@@@std@@@std@@@std@@QEBA_NAEBV01@@Z 0000000180018450 f i tools.obj
 0001:00017450       ??9?$_Tree_const_iterator@V?$_Tree_val@U?$_Tree_simple_types@PEAVlistener_t@@@std@@@std@@@std@@QEBA_NAEBV01@@Z 0000000180018450 f i data.obj
 0001:00017450       ??9?$_Tree_const_iterator@V?$_Tree_val@U?$_Tree_simple_types@PEAVmfdpage_t@@@std@@@std@@@std@@QEBA_NAEBV01@@Z 0000000180018450 f i in.obj
 0001:00017450       ??9?$_Tree_const_iterator@V?$_Tree_val@U?$_Tree_simple_types@PEAVobject_t@@@std@@@std@@@std@@QEBA_NAEBV01@@Z 0000000180018450 f i data.obj
 0001:00017490       ??A?$map@HPEAVobject_t@@U?$less@H@std@@V?$allocator@U?$pair@$$CBHPEAVobject_t@@@std@@@3@@std@@QEAAAEAPEAVobject_t@@AEBH@Z 0000000180018490 f i mfdpage.obj
 0001:000175b0       ??A?$map@V?$basic_string@DU?$char_traits@D@std@@V?$allocator@D@2@@std@@DU?$less@V?$basic_string@DU?$char_traits@D@std@@V?$allocator@D@2@@std@@@2@V?$allocator@U?$pair@$$CBV?$basic_string@DU?$char_traits@D@std@@V?$allocator@D@2@@std@@D@std@@@2@@std@@QEAAAEAD$$QEAV?$basic_string@DU?$char_traits@D@std@@V?$allocator@D@2@@1@@Z 00000001800185b0 f i mfdpage.obj
 0001:000176d0       ??A?$map@V?$basic_string@DU?$char_traits@D@std@@V?$allocator@D@2@@std@@HU?$less@V?$basic_string@DU?$char_traits@D@std@@V?$allocator@D@2@@std@@@2@V?$allocator@U?$pair@$$CBV?$basic_string@DU?$char_traits@D@std@@V?$allocator@D@2@@std@@H@std@@@2@@std@@QEAAAEAH$$QEAV?$basic_string@DU?$char_traits@D@std@@V?$allocator@D@2@@1@@Z 00000001800186d0 f i mfdpage.obj
 0001:000177f0       ??A?$map@V?$basic_string@DU?$char_traits@D@std@@V?$allocator@D@2@@std@@V12@U?$less@V?$basic_string@DU?$char_traits@D@std@@V?$allocator@D@2@@std@@@2@V?$allocator@U?$pair@$$CBV?$basic_string@DU?$char_traits@D@std@@V?$allocator@D@2@@std@@V12@@std@@@2@@std@@QEAAAEAV?$basic_string@DU?$char_traits@D@std@@V?$allocator@D@2@@1@AEBV21@@Z 00000001800187f0 f i mfdpage.obj
 0001:00017910       ??Bsentry@?$basic_istream@DU?$char_traits@D@std@@@std@@QEBA_NXZ 0000000180018910 f i mfdpage.obj
 0001:00017920       ??C?$_Tree_iterator@V?$_Tree_val@U?$_Tree_simple_types@U?$pair@$$CBV?$basic_string@DU?$char_traits@D@std@@V?$allocator@D@2@@std@@PEAVfms_fp_item_t@@@std@@@std@@@std@@@std@@QEBAPEAU?$pair@$$CBV?$basic_string@DU?$char_traits@D@std@@V?$allocator@D@2@@std@@PEAVfms_fp_item_t@@@1@XZ 0000000180018920 f i fms_fp.obj
 0001:00017920       ??C?$_Tree_iterator@V?$_Tree_val@U?$_Tree_simple_types@U?$pair@$$CBV?$basic_string@DU?$char_traits@D@std@@V?$allocator@D@2@@std@@D@std@@@std@@@std@@@std@@QEBAPEAU?$pair@$$CBV?$basic_string@DU?$char_traits@D@std@@V?$allocator@D@2@@std@@D@1@XZ 0000000180018920 f i mfdpage.obj
 0001:00017920       ??C?$_Tree_iterator@V?$_Tree_val@U?$_Tree_simple_types@U?$pair@$$CBV?$basic_string@DU?$char_traits@D@std@@V?$allocator@D@2@@std@@H@std@@@std@@@std@@@std@@QEBAPEAU?$pair@$$CBV?$basic_string@DU?$char_traits@D@std@@V?$allocator@D@2@@std@@H@1@XZ 0000000180018920 f i mfdpage.obj
 0001:00017920       ??C?$_Tree_iterator@V?$_Tree_val@U?$_Tree_simple_types@U?$pair@$$CBV?$basic_string@DU?$char_traits@D@std@@V?$allocator@D@2@@std@@PEAVfms_config_item_t@@@std@@@std@@@std@@@std@@QEBAPEAU?$pair@$$CBV?$basic_string@DU?$char_traits@D@std@@V?$allocator@D@2@@std@@PEAVfms_config_item_t@@@1@XZ 0000000180018920 f i fms_config.obj
 0001:00017920       ??C?$_Tree_iterator@V?$_Tree_val@U?$_Tree_simple_types@U?$pair@$$CBHV?$basic_string@DU?$char_traits@D@std@@V?$allocator@D@2@@std@@@std@@@std@@@std@@@std@@QEBAPEAU?$pair@$$CBHV?$basic_string@DU?$char_traits@D@std@@V?$allocator@D@2@@std@@@1@XZ 0000000180018920 f i out_saitek.obj
 0001:00017920       ??C?$_Tree_iterator@V?$_Tree_val@U?$_Tree_simple_types@U?$pair@$$CBV?$basic_string@DU?$char_traits@D@std@@V?$allocator@D@2@@std@@V12@@std@@@std@@@std@@@std@@QEBAPEAU?$pair@$$CBV?$basic_string@DU?$char_traits@D@std@@V?$allocator@D@2@@std@@V12@@1@XZ 0000000180018920 f i tools.obj
 0001:00017920       ??C?$_Tree_iterator@V?$_Tree_val@U?$_Tree_simple_types@U?$pair@$$CBHPEAVobject_t@@@std@@@std@@@std@@@std@@QEBAPEAU?$pair@$$CBHPEAVobject_t@@@1@XZ 0000000180018920 f i mfdpage.obj
 0001:00017920       ??C?$_Tree_iterator@V?$_Tree_val@U?$_Tree_simple_types@U?$pair@$$CBHPEAVfms_fp_item_t@@@std@@@std@@@std@@@std@@QEBAPEAU?$pair@$$CBHPEAVfms_fp_item_t@@@1@XZ 0000000180018920 f i mfdpage_fms.obj
 0001:00017920       ??C?$_Tree_iterator@V?$_Tree_val@U?$_Tree_simple_types@U?$pair@$$CBV?$basic_string@DU?$char_traits@D@std@@V?$allocator@D@2@@std@@M@std@@@std@@@std@@@std@@QEBAPEAU?$pair@$$CBV?$basic_string@DU?$char_traits@D@std@@V?$allocator@D@2@@std@@M@1@XZ 0000000180018920 f i mfdpage_fms.obj
 0001:00017940       ??D?$_String_iterator@V?$_String_val@U?$_Simple_types@D@std@@@std@@@std@@QEBAAEADXZ 0000000180018940 f i mfdpage.obj
 0001:00017960       ??F?$_Tree_const_iterator@V?$_Tree_val@U?$_Tree_simple_types@U?$pair@$$CBHV?$basic_string@DU?$char_traits@D@std@@V?$allocator@D@2@@std@@@std@@@std@@@std@@@std@@QEAAAEAV01@XZ 0000000180018960 f i out_saitek.obj
 0001:00017960       ??F?$_Tree_const_iterator@V?$_Tree_val@U?$_Tree_simple_types@U?$pair@$$CBV?$basic_string@DU?$char_traits@D@std@@V?$allocator@D@2@@std@@PEAVfms_fp_item_t@@@std@@@std@@@std@@@std@@QEAAAEAV01@XZ 0000000180018960 f i fms_fp.obj
 0001:00017960       ??F?$_Tree_const_iterator@V?$_Tree_val@U?$_Tree_simple_types@PEAVlistener_t@@@std@@@std@@@std@@QEAAAEAV01@XZ 0000000180018960 f i data.obj
 0001:00017960       ??F?$_Tree_const_iterator@V?$_Tree_val@U?$_Tree_simple_types@U?$pair@$$CBV?$basic_string@DU?$char_traits@D@std@@V?$allocator@D@2@@std@@D@std@@@std@@@std@@@std@@QEAAAEAV01@XZ 0000000180018960 f i mfdpage.obj
 0001:00017960       ??F?$_Tree_const_iterator@V?$_Tree_val@U?$_Tree_simple_types@U?$pair@$$CBV?$basic_string@DU?$char_traits@D@std@@V?$allocator@D@2@@std@@H@std@@@std@@@std@@@std@@QEAAAEAV01@XZ 0000000180018960 f i mfdpage.obj
 0001:00017960       ??F?$_Tree_const_iterator@V?$_Tree_val@U?$_Tree_simple_types@U?$pair@$$CBHPEAVfms_fp_item_t@@@std@@@std@@@std@@@std@@QEAAAEAV01@XZ 0000000180018960 f i mfdpage_fms.obj
 0001:00017960       ??F?$_Tree_const_iterator@V?$_Tree_val@U?$_Tree_simple_types@PEAVobject_t@@@std@@@std@@@std@@QEAAAEAV01@XZ 0000000180018960 f i data.obj
 0001:00017960       ??F?$_Tree_const_iterator@V?$_Tree_val@U?$_Tree_simple_types@U?$pair@$$CBHPEAVobject_t@@@std@@@std@@@std@@@std@@QEAAAEAV01@XZ 0000000180018960 f i mfdpage.obj
 0001:00017960       ??F?$_Tree_const_iterator@V?$_Tree_val@U?$_Tree_simple_types@U?$pair@$$CBV?$basic_string@DU?$char_traits@D@std@@V?$allocator@D@2@@std@@V12@@std@@@std@@@std@@@std@@QEAAAEAV01@XZ 0000000180018960 f i tools.obj
 0001:00017960       ??F?$_Tree_const_iterator@V?$_Tree_val@U?$_Tree_simple_types@U?$pair@$$CBV?$basic_string@DU?$char_traits@D@std@@V?$allocator@D@2@@std@@PEAVfms_config_item_t@@@std@@@std@@@std@@@std@@QEAAAEAV01@XZ 0000000180018960 f i fms_config.obj
 0001:00017960       ??F?$_Tree_const_iterator@V?$_Tree_val@U?$_Tree_simple_types@U?$pair@$$CBV?$basic_string@DU?$char_traits@D@std@@V?$allocator@D@2@@std@@M@std@@@std@@@std@@@std@@QEAAAEAV01@XZ 0000000180018960 f i mfdpage_fms.obj
 0001:00017960       ??F?$_Tree_const_iterator@V?$_Tree_val@U?$_Tree_simple_types@PEAVmfdpage_t@@@std@@@std@@@std@@QEAAAEAV01@XZ 0000000180018960 f i in.obj
 0001:00017960       ??F?$_Tree_const_iterator@V?$_Tree_val@U?$_Tree_simple_types@U?$pair@$$CBHM@std@@@std@@@std@@@std@@QEAAAEAV01@XZ 0000000180018960 f i fms_config.obj
 0001:00017980       ??F?$_Tree_iterator@V?$_Tree_val@U?$_Tree_simple_types@U?$pair@$$CBV?$basic_string@DU?$char_traits@D@std@@V?$allocator@D@2@@std@@D@std@@@std@@@std@@@std@@QEAAAEAV01@XZ 0000000180018980 f i mfdpage.obj
 0001:00017980       ??F?$_Tree_iterator@V?$_Tree_val@U?$_Tree_simple_types@U?$pair@$$CBHPEAVfms_fp_item_t@@@std@@@std@@@std@@@std@@QEAAAEAV01@XZ 0000000180018980 f i mfdpage_fms.obj
 0001:00017980       ??F?$_Tree_iterator@V?$_Tree_val@U?$_Tree_simple_types@U?$pair@$$CBV?$basic_string@DU?$char_traits@D@std@@V?$allocator@D@2@@std@@PEAVfms_fp_item_t@@@std@@@std@@@std@@@std@@QEAAAEAV01@XZ 0000000180018980 f i fms_fp.obj
 0001:00017980       ??F?$_Tree_iterator@V?$_Tree_val@U?$_Tree_simple_types@U?$pair@$$CBHPEAVobject_t@@@std@@@std@@@std@@@std@@QEAAAEAV01@XZ 0000000180018980 f i mfdpage.obj
 0001:00017980       ??F?$_Tree_iterator@V?$_Tree_val@U?$_Tree_simple_types@U?$pair@$$CBV?$basic_string@DU?$char_traits@D@std@@V?$allocator@D@2@@std@@PEAVfms_config_item_t@@@std@@@std@@@std@@@std@@QEAAAEAV01@XZ 0000000180018980 f i fms_config.obj
 0001:00017980       ??F?$_Tree_iterator@V?$_Tree_val@U?$_Tree_simple_types@U?$pair@$$CBV?$basic_string@DU?$char_traits@D@std@@V?$allocator@D@2@@std@@V12@@std@@@std@@@std@@@std@@QEAAAEAV01@XZ 0000000180018980 f i tools.obj
 0001:00017980       ??F?$_Tree_iterator@V?$_Tree_val@U?$_Tree_simple_types@U?$pair@$$CBHV?$basic_string@DU?$char_traits@D@std@@V?$allocator@D@2@@std@@@std@@@std@@@std@@@std@@QEAAAEAV01@XZ 0000000180018980 f i out_saitek.obj
 0001:00017980       ??F?$_Tree_iterator@V?$_Tree_val@U?$_Tree_simple_types@U?$pair@$$CBV?$basic_string@DU?$char_traits@D@std@@V?$allocator@D@2@@std@@H@std@@@std@@@std@@@std@@QEAAAEAV01@XZ 0000000180018980 f i mfdpage.obj
 0001:00017980       ??F?$_Tree_iterator@V?$_Tree_val@U?$_Tree_simple_types@U?$pair@$$CBHM@std@@@std@@@std@@@std@@QEAAAEAV01@XZ 0000000180018980 f i fms_config.obj
 0001:00017980       ??F?$_Tree_iterator@V?$_Tree_val@U?$_Tree_simple_types@U?$pair@$$CBV?$basic_string@DU?$char_traits@D@std@@V?$allocator@D@2@@std@@M@std@@@std@@@std@@@std@@QEAAAEAV01@XZ 0000000180018980 f i mfdpage_fms.obj
 0001:000179a0       ??F?$_Tree_unchecked_const_iterator@V?$_Tree_val@U?$_Tree_simple_types@U?$pair@$$CBV?$basic_string@DU?$char_traits@D@std@@V?$allocator@D@2@@std@@V12@@std@@@std@@@std@@U_Iterator_base0@2@@std@@QEAAAEAV01@XZ 00000001800189a0 f i tools.obj
 0001:000179a0       ??F?$_Tree_unchecked_const_iterator@V?$_Tree_val@U?$_Tree_simple_types@PEAVlistener_t@@@std@@@std@@U_Iterator_base0@2@@std@@QEAAAEAV01@XZ 00000001800189a0 f i data.obj
 0001:000179a0       ??F?$_Tree_unchecked_const_iterator@V?$_Tree_val@U?$_Tree_simple_types@U?$pair@$$CBHPEAVfms_fp_item_t@@@std@@@std@@@std@@U_Iterator_base0@2@@std@@QEAAAEAV01@XZ 00000001800189a0 f i mfdpage_fms.obj
 0001:000179a0       ??F?$_Tree_unchecked_const_iterator@V?$_Tree_val@U?$_Tree_simple_types@U?$pair@$$CBHV?$basic_string@DU?$char_traits@D@std@@V?$allocator@D@2@@std@@@std@@@std@@@std@@U_Iterator_base0@2@@std@@QEAAAEAV01@XZ 00000001800189a0 f i out_saitek.obj
 0001:000179a0       ??F?$_Tree_unchecked_const_iterator@V?$_Tree_val@U?$_Tree_simple_types@U?$pair@$$CBV?$basic_string@DU?$char_traits@D@std@@V?$allocator@D@2@@std@@PEAVfms_config_item_t@@@std@@@std@@@std@@U_Iterator_base0@2@@std@@QEAAAEAV01@XZ 00000001800189a0 f i fms_config.obj
 0001:000179a0       ??F?$_Tree_unchecked_const_iterator@V?$_Tree_val@U?$_Tree_simple_types@PEAVobject_t@@@std@@@std@@U_Iterator_base0@2@@std@@QEAAAEAV01@XZ 00000001800189a0 f i data.obj
 0001:000179a0       ??F?$_Tree_unchecked_const_iterator@V?$_Tree_val@U?$_Tree_simple_types@PEAVmfdpage_t@@@std@@@std@@U_Iterator_base0@2@@std@@QEAAAEAV01@XZ 00000001800189a0 f i in.obj
 0001:000179a0       ??F?$_Tree_unchecked_const_iterator@V?$_Tree_val@U?$_Tree_simple_types@U?$pair@$$CBV?$basic_string@DU?$char_traits@D@std@@V?$allocator@D@2@@std@@D@std@@@std@@@std@@U_Iterator_base0@2@@std@@QEAAAEAV01@XZ 00000001800189a0 f i mfdpage.obj
 0001:000179a0       ??F?$_Tree_unchecked_const_iterator@V?$_Tree_val@U?$_Tree_simple_types@U?$pair@$$CBV?$basic_string@DU?$char_traits@D@std@@V?$allocator@D@2@@std@@H@std@@@std@@@std@@U_Iterator_base0@2@@std@@QEAAAEAV01@XZ 00000001800189a0 f i mfdpage.obj
 0001:000179a0       ??F?$_Tree_unchecked_const_iterator@V?$_Tree_val@U?$_Tree_simple_types@U?$pair@$$CBHM@std@@@std@@@std@@U_Iterator_base0@2@@std@@QEAAAEAV01@XZ 00000001800189a0 f i fms_config.obj
 0001:000179a0       ??F?$_Tree_unchecked_const_iterator@V?$_Tree_val@U?$_Tree_simple_types@U?$pair@$$CBHPEAVobject_t@@@std@@@std@@@std@@U_Iterator_base0@2@@std@@QEAAAEAV01@XZ 00000001800189a0 f i mfdpage.obj
 0001:000179a0       ??F?$_Tree_unchecked_const_iterator@V?$_Tree_val@U?$_Tree_simple_types@U?$pair@$$CBV?$basic_string@DU?$char_traits@D@std@@V?$allocator@D@2@@std@@M@std@@@std@@@std@@U_Iterator_base0@2@@std@@QEAAAEAV01@XZ 00000001800189a0 f i mfdpage_fms.obj
 0001:000179a0       ??F?$_Tree_unchecked_const_iterator@V?$_Tree_val@U?$_Tree_simple_types@U?$pair@$$CBV?$basic_string@DU?$char_traits@D@std@@V?$allocator@D@2@@std@@PEAVfms_fp_item_t@@@std@@@std@@@std@@U_Iterator_base0@2@@std@@QEAAAEAV01@XZ 00000001800189a0 f i fms_fp.obj
 0001:00017a90       ??G?$_String_const_iterator@V?$_String_val@U?$_Simple_types@D@std@@@std@@@std@@QEBA_JAEBV01@@Z 0000000180018a90 f i mfdpage.obj
 0001:00017ad0       ??G?$_String_iterator@V?$_String_val@U?$_Simple_types@D@std@@@std@@@std@@QEBA_JAEBV?$_String_const_iterator@V?$_String_val@U?$_Simple_types@D@std@@@std@@@1@@Z 0000000180018ad0 f i mfdpage.obj
 0001:00017b00       ??Y?$basic_string@DU?$char_traits@D@std@@V?$allocator@D@2@@std@@QEAAAEAV01@D@Z 0000000180018b00 f i mfdpage.obj
 0001:00017b30       ??_D?$basic_stringstream@DU?$char_traits@D@std@@V?$allocator@D@2@@std@@QEAAXXZ 0000000180018b30 f i mfdpage.obj
 0001:00017b68       ??_E?$basic_stringstream@DU?$char_traits@D@std@@V?$allocator@D@2@@std@@$4PPPPPPPM@A@EAAPEAXI@Z 0000000180018b68 f i mfdpage.obj
 0001:00017b80       ??_E?$basic_stringstream@DU?$char_traits@D@std@@V?$allocator@D@2@@std@@UEAAPEAXI@Z 0000000180018b80 f i mfdpage.obj
 0001:00017b80       ??_G?$basic_stringstream@DU?$char_traits@D@std@@V?$allocator@D@2@@std@@UEAAPEAXI@Z 0000000180018b80 f i mfdpage.obj
 0001:00017bd0       ??_G?$pair@$$CBV?$basic_string@DU?$char_traits@D@std@@V?$allocator@D@2@@std@@H@std@@QEAAPEAXI@Z 0000000180018bd0 f i mfdpage.obj
 0001:00017bd0       ??_G?$pair@$$CBV?$basic_string@DU?$char_traits@D@std@@V?$allocator@D@2@@std@@PEAVfms_config_item_t@@@std@@QEAAPEAXI@Z 0000000180018bd0 f i fms_config.obj
 0001:00017bd0       ??_G?$pair@$$CBV?$basic_string@DU?$char_traits@D@std@@V?$allocator@D@2@@std@@PEAVfms_fp_item_t@@@std@@QEAAPEAXI@Z 0000000180018bd0 f i fms_fp.obj
 0001:00017bd0       ??_G?$pair@$$CBV?$basic_string@DU?$char_traits@D@std@@V?$allocator@D@2@@std@@D@std@@QEAAPEAXI@Z 0000000180018bd0 f i mfdpage.obj
 0001:00017bd0       ??_G?$pair@$$CBV?$basic_string@DU?$char_traits@D@std@@V?$allocator@D@2@@std@@M@std@@QEAAPEAXI@Z 0000000180018bd0 f i mfdpage_fms.obj
 0001:00017c10       ??_Glistener_t@@UEAAPEAXI@Z 0000000180018c10 f i mfdpage.obj
 0001:00017c10       ??_Elistener_t@@UEAAPEAXI@Z 0000000180018c10 f i mfdpage.obj
 0001:00017c50       ??_Emfdpage_t@@UEAAPEAXI@Z 0000000180018c50 f i mfdpage.obj
 0001:00017c50       ??_Gmfdpage_t@@UEAAPEAXI@Z 0000000180018c50 f i mfdpage.obj
 0001:00017c90       ?_Buyheadnode@?$_Tree_alloc@$0A@U?$_Tree_base_types@U?$pair@$$CBHPEAVobject_t@@@std@@V?$allocator@U?$pair@$$CBHPEAVobject_t@@@std@@@2@@std@@@std@@QEAAPEAU?$_Tree_node@U?$pair@$$CBHPEAVobject_t@@@std@@PEAX@2@XZ 0000000180018c90 f i mfdpage.obj
 0001:00017da0       ?_Buyheadnode@?$_Tree_alloc@$0A@U?$_Tree_base_types@U?$pair@$$CBV?$basic_string@DU?$char_traits@D@std@@V?$allocator@D@2@@std@@H@std@@V?$allocator@U?$pair@$$CBV?$basic_string@DU?$char_traits@D@std@@V?$allocator@D@2@@std@@H@std@@@2@@std@@@std@@QEAAPEAU?$_Tree_node@U?$pair@$$CBV?$basic_string@DU?$char_traits@D@std@@V?$allocator@D@2@@std@@H@std@@PEAX@2@XZ 0000000180018da0 f i mfdpage.obj
 0001:00017eb0       ?_Buynode0@?$_Tree_buy@U?$pair@$$CBHPEAVobject_t@@@std@@V?$allocator@U?$pair@$$CBHPEAVobject_t@@@std@@@2@@std@@QEAAPEAU?$_Tree_node@U?$pair@$$CBHPEAVobject_t@@@std@@PEAX@2@XZ 0000000180018eb0 f i mfdpage.obj
 0001:00017fb0       ?_Buynode0@?$_Tree_buy@U?$pair@$$CBV?$basic_string@DU?$char_traits@D@std@@V?$allocator@D@2@@std@@D@std@@V?$allocator@U?$pair@$$CBV?$basic_string@DU?$char_traits@D@std@@V?$allocator@D@2@@std@@D@std@@@2@@std@@QEAAPEAU?$_Tree_node@U?$pair@$$CBV?$basic_string@DU?$char_traits@D@std@@V?$allocator@D@2@@std@@D@std@@PEAX@2@XZ 0000000180018fb0 f i mfdpage.obj
 0001:000180b0       ?_Buynode0@?$_Tree_buy@U?$pair@$$CBV?$basic_string@DU?$char_traits@D@std@@V?$allocator@D@2@@std@@H@std@@V?$allocator@U?$pair@$$CBV?$basic_string@DU?$char_traits@D@std@@V?$allocator@D@2@@std@@H@std@@@2@@std@@QEAAPEAU?$_Tree_node@U?$pair@$$CBV?$basic_string@DU?$char_traits@D@std@@V?$allocator@D@2@@std@@H@std@@PEAX@2@XZ 00000001800190b0 f i mfdpage.obj
 0001:000181b0       ?_Chassign@?$basic_string@DU?$char_traits@D@std@@V?$allocator@D@2@@std@@QEAAX_K0D@Z 00000001800191b0 f i mfdpage.obj
 0001:00018220       ?_Erase@?$_Tree@V?$_Tmap_traits@HV?$basic_string@DU?$char_traits@D@std@@V?$allocator@D@2@@std@@U?$less@H@2@V?$allocator@U?$pair@$$CBHV?$basic_string@DU?$char_traits@D@std@@V?$allocator@D@2@@std@@@std@@@2@$0A@@std@@@std@@IEAAXPEAU?$_Tree_node@U?$pair@$$CBHV?$basic_string@DU?$char_traits@D@std@@V?$allocator@D@2@@std@@@std@@PEAX@2@@Z 0000000180019220 f i mfdpage.obj
 0001:000182f0       ?_Lbound@?$_Tree@V?$_Tmap_traits@HPEAVfms_fp_item_t@@U?$less@H@std@@V?$allocator@U?$pair@$$CBHPEAVfms_fp_item_t@@@std@@@3@$0A@@std@@@std@@IEAAPEAU?$_Tree_node@U?$pair@$$CBHPEAVfms_fp_item_t@@@std@@PEAX@2@AEBH@Z 00000001800192f0 f i mfdpage_fms.obj
 0001:000182f0       ?_Lbound@?$_Tree@V?$_Tmap_traits@HV?$basic_string@DU?$char_traits@D@std@@V?$allocator@D@2@@std@@U?$less@H@2@V?$allocator@U?$pair@$$CBHV?$basic_string@DU?$char_traits@D@std@@V?$allocator@D@2@@std@@@std@@@2@$0A@@std@@@std@@IEAAPEAU?$_Tree_node@U?$pair@$$CBHV?$basic_string@DU?$char_traits@D@std@@V?$allocator@D@2@@std@@@std@@PEAX@2@AEBH@Z 00000001800192f0 f i out_saitek.obj
 0001:000182f0       ?_Lbound@?$_Tree@V?$_Tmap_traits@HPEAVobject_t@@U?$less@H@std@@V?$allocator@U?$pair@$$CBHPEAVobject_t@@@std@@@3@$0A@@std@@@std@@IEAAPEAU?$_Tree_node@U?$pair@$$CBHPEAVobject_t@@@std@@PEAX@2@AEBH@Z 00000001800192f0 f i mfdpage.obj
 0001:000183b0       ?_Lbound@?$_Tree@V?$_Tmap_traits@V?$basic_string@DU?$char_traits@D@std@@V?$allocator@D@2@@std@@MU?$less@V?$basic_string@DU?$char_traits@D@std@@V?$allocator@D@2@@std@@@2@V?$allocator@U?$pair@$$CBV?$basic_string@DU?$char_traits@D@std@@V?$allocator@D@2@@std@@M@std@@@2@$0A@@std@@@std@@IEAAPEAU?$_Tree_node@U?$pair@$$CBV?$basic_string@DU?$char_traits@D@std@@V?$allocator@D@2@@std@@M@std@@PEAX@2@AEBV?$basic_string@DU?$char_traits@D@std@@V?$allocator@D@2@@2@@Z 00000001800193b0 f i mfdpage_fms.obj
 0001:000183b0       ?_Lbound@?$_Tree@V?$_Tmap_traits@V?$basic_string@DU?$char_traits@D@std@@V?$allocator@D@2@@std@@V12@U?$less@V?$basic_string@DU?$char_traits@D@std@@V?$allocator@D@2@@std@@@2@V?$allocator@U?$pair@$$CBV?$basic_string@DU?$char_traits@D@std@@V?$allocator@D@2@@std@@V12@@std@@@2@$0A@@std@@@std@@IEAAPEAU?$_Tree_node@U?$pair@$$CBV?$basic_string@DU?$char_traits@D@std@@V?$allocator@D@2@@std@@V12@@std@@PEAX@2@AEBV?$basic_string@DU?$char_traits@D@std@@V?$allocator@D@2@@2@@Z 00000001800193b0 f i tools.obj
 0001:000183b0       ?_Lbound@?$_Tree@V?$_Tmap_traits@V?$basic_string@DU?$char_traits@D@std@@V?$allocator@D@2@@std@@PEAVfms_config_item_t@@U?$less@V?$basic_string@DU?$char_traits@D@std@@V?$allocator@D@2@@std@@@2@V?$allocator@U?$pair@$$CBV?$basic_string@DU?$char_traits@D@std@@V?$allocator@D@2@@std@@PEAVfms_config_item_t@@@std@@@2@$0A@@std@@@std@@IEAAPEAU?$_Tree_node@U?$pair@$$CBV?$basic_string@DU?$char_traits@D@std@@V?$allocator@D@2@@std@@PEAVfms_config_item_t@@@std@@PEAX@2@AEBV?$basic_string@DU?$char_traits@D@std@@V?$allocator@D@2@@2@@Z 00000001800193b0 f i fms_config.obj
 0001:000183b0       ?_Lbound@?$_Tree@V?$_Tmap_traits@V?$basic_string@DU?$char_traits@D@std@@V?$allocator@D@2@@std@@HU?$less@V?$basic_string@DU?$char_traits@D@std@@V?$allocator@D@2@@std@@@2@V?$allocator@U?$pair@$$CBV?$basic_string@DU?$char_traits@D@std@@V?$allocator@D@2@@std@@H@std@@@2@$0A@@std@@@std@@IEAAPEAU?$_Tree_node@U?$pair@$$CBV?$basic_string@DU?$char_traits@D@std@@V?$allocator@D@2@@std@@H@std@@PEAX@2@AEBV?$basic_string@DU?$char_traits@D@std@@V?$allocator@D@2@@2@@Z 00000001800193b0 f i mfdpage.obj
 0001:000183b0       ?_Lbound@?$_Tree@V?$_Tmap_traits@V?$basic_string@DU?$char_traits@D@std@@V?$allocator@D@2@@std@@PEAVfms_fp_item_t@@U?$less@V?$basic_string@DU?$char_traits@D@std@@V?$allocator@D@2@@std@@@2@V?$allocator@U?$pair@$$CBV?$basic_string@DU?$char_traits@D@std@@V?$allocator@D@2@@std@@PEAVfms_fp_item_t@@@std@@@2@$0A@@std@@@std@@IEAAPEAU?$_Tree_node@U?$pair@$$CBV?$basic_string@DU?$char_traits@D@std@@V?$allocator@D@2@@std@@PEAVfms_fp_item_t@@@std@@PEAX@2@AEBV?$basic_string@DU?$char_traits@D@std@@V?$allocator@D@2@@2@@Z 00000001800193b0 f i fms_fp.obj
 0001:000183b0       ?_Lbound@?$_Tree@V?$_Tmap_traits@V?$basic_string@DU?$char_traits@D@std@@V?$allocator@D@2@@std@@DU?$less@V?$basic_string@DU?$char_traits@D@std@@V?$allocator@D@2@@std@@@2@V?$allocator@U?$pair@$$CBV?$basic_string@DU?$char_traits@D@std@@V?$allocator@D@2@@std@@D@std@@@2@$0A@@std@@@std@@IEAAPEAU?$_Tree_node@U?$pair@$$CBV?$basic_string@DU?$char_traits@D@std@@V?$allocator@D@2@@std@@D@std@@PEAX@2@AEBV?$basic_string@DU?$char_traits@D@std@@V?$allocator@D@2@@2@@Z 00000001800193b0 f i mfdpage.obj
 0001:00018470       ?_Max@?$_Tree_val@U?$_Tree_simple_types@U?$pair@$$CBHV?$basic_string@DU?$char_traits@D@std@@V?$allocator@D@2@@std@@@std@@@std@@@std@@SAPEAU?$_Tree_node@U?$pair@$$CBHV?$basic_string@DU?$char_traits@D@std@@V?$allocator@D@2@@std@@@std@@PEAX@2@PEAU32@@Z 0000000180019470 f i out_saitek.obj
 0001:00018470       ?_Max@?$_Tree_val@U?$_Tree_simple_types@U?$pair@$$CBHPEAVfms_fp_item_t@@@std@@@std@@@std@@SAPEAU?$_Tree_node@U?$pair@$$CBHPEAVfms_fp_item_t@@@std@@PEAX@2@PEAU32@@Z 0000000180019470 f i mfdpage_fms.obj
 0001:00018470       ?_Max@?$_Tree_val@U?$_Tree_simple_types@U?$pair@$$CBV?$basic_string@DU?$char_traits@D@std@@V?$allocator@D@2@@std@@H@std@@@std@@@std@@SAPEAU?$_Tree_node@U?$pair@$$CBV?$basic_string@DU?$char_traits@D@std@@V?$allocator@D@2@@std@@H@std@@PEAX@2@PEAU32@@Z 0000000180019470 f i mfdpage.obj
 0001:00018470       ?_Max@?$_Tree_val@U?$_Tree_simple_types@PEAVobject_t@@@std@@@std@@SAPEAU?$_Tree_node@PEAVobject_t@@PEAX@2@PEAU32@@Z 0000000180019470 f i data.obj
 0001:00018470       ?_Max@?$_Tree_val@U?$_Tree_simple_types@PEAVmfdpage_t@@@std@@@std@@SAPEAU?$_Tree_node@PEAVmfdpage_t@@PEAX@2@PEAU32@@Z 0000000180019470 f i in.obj
 0001:00018470       ?_Max@?$_Tree_val@U?$_Tree_simple_types@U?$pair@$$CBV?$basic_string@DU?$char_traits@D@std@@V?$allocator@D@2@@std@@D@std@@@std@@@std@@SAPEAU?$_Tree_node@U?$pair@$$CBV?$basic_string@DU?$char_traits@D@std@@V?$allocator@D@2@@std@@D@std@@PEAX@2@PEAU32@@Z 0000000180019470 f i mfdpage.obj
 0001:00018470       ?_Max@?$_Tree_val@U?$_Tree_simple_types@U?$pair@$$CBV?$basic_string@DU?$char_traits@D@std@@V?$allocator@D@2@@std@@V12@@std@@@std@@@std@@SAPEAU?$_Tree_node@U?$pair@$$CBV?$basic_string@DU?$char_traits@D@std@@V?$allocator@D@2@@std@@V12@@std@@PEAX@2@PEAU32@@Z 0000000180019470 f i tools.obj
 0001:00018470       ?_Max@?$_Tree_val@U?$_Tree_simple_types@U?$pair@$$CBV?$basic_string@DU?$char_traits@D@std@@V?$allocator@D@2@@std@@M@std@@@std@@@std@@SAPEAU?$_Tree_node@U?$pair@$$CBV?$basic_string@DU?$char_traits@D@std@@V?$allocator@D@2@@std@@M@std@@PEAX@2@PEAU32@@Z 0000000180019470 f i mfdpage_fms.obj
 0001:00018470       ?_Max@?$_Tree_val@U?$_Tree_simple_types@PEAVlistener_t@@@std@@@std@@SAPEAU?$_Tree_node@PEAVlistener_t@@PEAX@2@PEAU32@@Z 0000000180019470 f i data.obj
 0001:00018470       ?_Max@?$_Tree_val@U?$_Tree_simple_types@U?$pair@$$CBHPEAVobject_t@@@std@@@std@@@std@@SAPEAU?$_Tree_node@U?$pair@$$CBHPEAVobject_t@@@std@@PEAX@2@PEAU32@@Z 0000000180019470 f i mfdpage.obj
 0001:00018470       ?_Max@?$_Tree_val@U?$_Tree_simple_types@U?$pair@$$CBHM@std@@@std@@@std@@SAPEAU?$_Tree_node@U?$pair@$$CBHM@std@@PEAX@2@PEAU32@@Z 0000000180019470 f i fms_config.obj
 0001:00018470       ?_Max@?$_Tree_val@U?$_Tree_simple_types@U?$pair@$$CBV?$basic_string@DU?$char_traits@D@std@@V?$allocator@D@2@@std@@PEAVfms_config_item_t@@@std@@@std@@@std@@SAPEAU?$_Tree_node@U?$pair@$$CBV?$basic_string@DU?$char_traits@D@std@@V?$allocator@D@2@@std@@PEAVfms_config_item_t@@@std@@PEAX@2@PEAU32@@Z 0000000180019470 f i fms_config.obj
 0001:00018470       ?_Max@?$_Tree_val@U?$_Tree_simple_types@U?$pair@$$CBV?$basic_string@DU?$char_traits@D@std@@V?$allocator@D@2@@std@@PEAVfms_fp_item_t@@@std@@@std@@@std@@SAPEAU?$_Tree_node@U?$pair@$$CBV?$basic_string@DU?$char_traits@D@std@@V?$allocator@D@2@@std@@PEAVfms_fp_item_t@@@std@@PEAX@2@PEAU32@@Z 0000000180019470 f i fms_fp.obj
 0001:000184b0       ?_Myval@?$_Tree_val@U?$_Tree_simple_types@U?$pair@$$CBHPEAVfms_fp_item_t@@@std@@@std@@@std@@SAAEAU?$pair@$$CBHPEAVfms_fp_item_t@@@2@PEAU?$_Tree_node@U?$pair@$$CBHPEAVfms_fp_item_t@@@std@@PEAX@2@@Z 00000001800194b0 f i mfdpage_fms.obj
 0001:000184b0       ?_Myval@?$_Tree_val@U?$_Tree_simple_types@U?$pair@$$CBHPEAVobject_t@@@std@@@std@@@std@@SAAEAU?$pair@$$CBHPEAVobject_t@@@2@PEAU?$_Tree_node@U?$pair@$$CBHPEAVobject_t@@@std@@PEAX@2@@Z 00000001800194b0 f i mfdpage.obj
 0001:000184b0       ?_Myval@?$_Tree_val@U?$_Tree_simple_types@U?$pair@$$CBV?$basic_string@DU?$char_traits@D@std@@V?$allocator@D@2@@std@@PEAVfms_fp_item_t@@@std@@@std@@@std@@SAAEAU?$pair@$$CBV?$basic_string@DU?$char_traits@D@std@@V?$allocator@D@2@@std@@PEAVfms_fp_item_t@@@2@PEAU?$_Tree_node@U?$pair@$$CBV?$basic_string@DU?$char_traits@D@std@@V?$allocator@D@2@@std@@PEAVfms_fp_item_t@@@std@@PEAX@2@@Z 00000001800194b0 f i fms_fp.obj
 0001:000184b0       ?_Myval@?$_Tree_val@U?$_Tree_simple_types@U?$pair@$$CBV?$basic_string@DU?$char_traits@D@std@@V?$allocator@D@2@@std@@D@std@@@std@@@std@@SAAEAU?$pair@$$CBV?$basic_string@DU?$char_traits@D@std@@V?$allocator@D@2@@std@@D@2@PEAU?$_Tree_node@U?$pair@$$CBV?$basic_string@DU?$char_traits@D@std@@V?$allocator@D@2@@std@@D@std@@PEAX@2@@Z 00000001800194b0 f i mfdpage.obj
 0001:000184b0       ?_Myval@?$_Tree_val@U?$_Tree_simple_types@PEAVmfdpage_t@@@std@@@std@@SAAEAPEAVmfdpage_t@@PEAU?$_Tree_node@PEAVmfdpage_t@@PEAX@2@@Z 00000001800194b0 f i in.obj
 0001:000184b0       ?_Myval@?$_Tree_val@U?$_Tree_simple_types@U?$pair@$$CBV?$basic_string@DU?$char_traits@D@std@@V?$allocator@D@2@@std@@M@std@@@std@@@std@@SAAEAU?$pair@$$CBV?$basic_string@DU?$char_traits@D@std@@V?$allocator@D@2@@std@@M@2@PEAU?$_Tree_node@U?$pair@$$CBV?$basic_string@DU?$char_traits@D@std@@V?$allocator@D@2@@std@@M@std@@PEAX@2@@Z 00000001800194b0 f i mfdpage_fms.obj
 0001:000184b0       ?_Myval@?$_Tree_val@U?$_Tree_simple_types@U?$pair@$$CBV?$basic_string@DU?$char_traits@D@std@@V?$allocator@D@2@@std@@PEAVfms_config_item_t@@@std@@@std@@@std@@SAAEAU?$pair@$$CBV?$basic_string@DU?$char_traits@D@std@@V?$allocator@D@2@@std@@PEAVfms_config_item_t@@@2@PEAU?$_Tree_node@U?$pair@$$CBV?$basic_string@DU?$char_traits@D@std@@V?$allocator@D@2@@std@@PEAVfms_config_item_t@@@std@@PEAX@2@@Z 00000001800194b0 f i fms_config.obj
 0001:000184b0       ?_Myval@?$_Tree_val@U?$_Tree_simple_types@PEAVlistener_t@@@std@@@std@@SAAEAPEAVlistener_t@@PEAU?$_Tree_node@PEAVlistener_t@@PEAX@2@@Z 00000001800194b0 f i data.obj
 0001:000184b0       ?_Myval@?$_Tree_val@U?$_Tree_simple_types@PEAVobject_t@@@std@@@std@@SAAEAPEAVobject_t@@PEAU?$_Tree_node@PEAVobject_t@@PEAX@2@@Z 00000001800194b0 f i data.obj
 0001:000184b0       ?_Myval@?$_Tree_val@U?$_Tree_simple_types@U?$pair@$$CBV?$basic_string@DU?$char_traits@D@std@@V?$allocator@D@2@@std@@V12@@std@@@std@@@std@@SAAEAU?$pair@$$CBV?$basic_string@DU?$char_traits@D@std@@V?$allocator@D@2@@std@@V12@@2@PEAU?$_Tree_node@U?$pair@$$CBV?$basic_string@DU?$char_traits@D@std@@V?$allocator@D@2@@std@@V12@@std@@PEAX@2@@Z 00000001800194b0 f i tools.obj
 0001:000184b0       ?_Myval@?$_Tree_val@U?$_Tree_simple_types@U?$pair@$$CBHV?$basic_string@DU?$char_traits@D@std@@V?$allocator@D@2@@std@@@std@@@std@@@std@@SAAEAU?$pair@$$CBHV?$basic_string@DU?$char_traits@D@std@@V?$allocator@D@2@@std@@@2@PEAU?$_Tree_node@U?$pair@$$CBHV?$basic_string@DU?$char_traits@D@std@@V?$allocator@D@2@@std@@@std@@PEAX@2@@Z 00000001800194b0 f i out_saitek.obj
 0001:000184b0       ?_Myval@?$_Tree_val@U?$_Tree_simple_types@U?$pair@$$CBV?$basic_string@DU?$char_traits@D@std@@V?$allocator@D@2@@std@@H@std@@@std@@@std@@SAAEAU?$pair@$$CBV?$basic_string@DU?$char_traits@D@std@@V?$allocator@D@2@@std@@H@2@PEAU?$_Tree_node@U?$pair@$$CBV?$basic_string@DU?$char_traits@D@std@@V?$allocator@D@2@@std@@H@std@@PEAX@2@@Z 00000001800194b0 f i mfdpage.obj
 0001:000184c0       ?_Pdif@?$basic_string@DU?$char_traits@D@std@@V?$allocator@D@2@@std@@SA_KV?$_String_const_iterator@V?$_String_val@U?$_Simple_types@D@std@@@std@@@2@0@Z 00000001800194c0 f i mfdpage.obj
 0001:00018500       ?_Rmost@?$_Tree@V?$_Tmap_traits@V?$basic_string@DU?$char_traits@D@std@@V?$allocator@D@2@@std@@DU?$less@V?$basic_string@DU?$char_traits@D@std@@V?$allocator@D@2@@std@@@2@V?$allocator@U?$pair@$$CBV?$basic_string@DU?$char_traits@D@std@@V?$allocator@D@2@@std@@D@std@@@2@$0A@@std@@@std@@IEBAAEAPEAU?$_Tree_node@U?$pair@$$CBV?$basic_string@DU?$char_traits@D@std@@V?$allocator@D@2@@std@@D@std@@PEAX@2@XZ 0000000180019500 f i mfdpage.obj
 0001:00018500       ?_Rmost@?$_Tree@V?$_Tmap_traits@HPEAVobject_t@@U?$less@H@std@@V?$allocator@U?$pair@$$CBHPEAVobject_t@@@std@@@3@$0A@@std@@@std@@IEBAAEAPEAU?$_Tree_node@U?$pair@$$CBHPEAVobject_t@@@std@@PEAX@2@XZ 0000000180019500 f i mfdpage.obj
 0001:00018500       ?_Rmost@?$_Tree@V?$_Tmap_traits@HPEAVfms_fp_item_t@@U?$less@H@std@@V?$allocator@U?$pair@$$CBHPEAVfms_fp_item_t@@@std@@@3@$0A@@std@@@std@@IEBAAEAPEAU?$_Tree_node@U?$pair@$$CBHPEAVfms_fp_item_t@@@std@@PEAX@2@XZ 0000000180019500 f i mfdpage_fms.obj
 0001:00018500       ?_Rmost@?$_Tree@V?$_Tset_traits@PEAVobject_t@@U?$less@PEAVobject_t@@@std@@V?$allocator@PEAVobject_t@@@3@$0A@@std@@@std@@IEBAAEAPEAU?$_Tree_node@PEAVobject_t@@PEAX@2@XZ 0000000180019500 f i data.obj
 0001:00018500       ?_Rmost@?$_Tree@V?$_Tmap_traits@HMU?$less@H@std@@V?$allocator@U?$pair@$$CBHM@std@@@2@$0A@@std@@@std@@IEBAAEAPEAU?$_Tree_node@U?$pair@$$CBHM@std@@PEAX@2@XZ 0000000180019500 f i fms_config.obj
 0001:00018500       ?_Rmost@?$_Tree@V?$_Tmap_traits@HV?$basic_string@DU?$char_traits@D@std@@V?$allocator@D@2@@std@@U?$less@H@2@V?$allocator@U?$pair@$$CBHV?$basic_string@DU?$char_traits@D@std@@V?$allocator@D@2@@std@@@std@@@2@$0A@@std@@@std@@IEBAAEAPEAU?$_Tree_node@U?$pair@$$CBHV?$basic_string@DU?$char_traits@D@std@@V?$allocator@D@2@@std@@@std@@PEAX@2@XZ 0000000180019500 f i out_saitek.obj
 0001:00018500       ?_Rmost@?$_Tree@V?$_Tmap_traits@V?$basic_string@DU?$char_traits@D@std@@V?$allocator@D@2@@std@@PEAVfms_fp_item_t@@U?$less@V?$basic_string@DU?$char_traits@D@std@@V?$allocator@D@2@@std@@@2@V?$allocator@U?$pair@$$CBV?$basic_string@DU?$char_traits@D@std@@V?$allocator@D@2@@std@@PEAVfms_fp_item_t@@@std@@@2@$0A@@std@@@std@@IEBAAEAPEAU?$_Tree_node@U?$pair@$$CBV?$basic_string@DU?$char_traits@D@std@@V?$allocator@D@2@@std@@PEAVfms_fp_item_t@@@std@@PEAX@2@XZ 0000000180019500 f i fms_fp.obj
 0001:00018500       ?_Rmost@?$_Tree@V?$_Tmap_traits@V?$basic_string@DU?$char_traits@D@std@@V?$allocator@D@2@@std@@PEAVfms_config_item_t@@U?$less@V?$basic_string@DU?$char_traits@D@std@@V?$allocator@D@2@@std@@@2@V?$allocator@U?$pair@$$CBV?$basic_string@DU?$char_traits@D@std@@V?$allocator@D@2@@std@@PEAVfms_config_item_t@@@std@@@2@$0A@@std@@@std@@IEBAAEAPEAU?$_Tree_node@U?$pair@$$CBV?$basic_string@DU?$char_traits@D@std@@V?$allocator@D@2@@std@@PEAVfms_config_item_t@@@std@@PEAX@2@XZ 0000000180019500 f i fms_config.obj
 0001:00018500       ?_Rmost@?$_Tree@V?$_Tset_traits@PEAVlistener_t@@U?$less@PEAVlistener_t@@@std@@V?$allocator@PEAVlistener_t@@@3@$0A@@std@@@std@@IEBAAEAPEAU?$_Tree_node@PEAVlistener_t@@PEAX@2@XZ 0000000180019500 f i data.obj
 0001:00018500       ?_Rmost@?$_Tree@V?$_Tset_traits@PEAVmfdpage_t@@U?$less@PEAVmfdpage_t@@@std@@V?$allocator@PEAVmfdpage_t@@@3@$0A@@std@@@std@@IEBAAEAPEAU?$_Tree_node@PEAVmfdpage_t@@PEAX@2@XZ 0000000180019500 f i in.obj
 0001:00018500       ?_Rmost@?$_Tree@V?$_Tmap_traits@V?$basic_string@DU?$char_traits@D@std@@V?$allocator@D@2@@std@@V12@U?$less@V?$basic_string@DU?$char_traits@D@std@@V?$allocator@D@2@@std@@@2@V?$allocator@U?$pair@$$CBV?$basic_string@DU?$char_traits@D@std@@V?$allocator@D@2@@std@@V12@@std@@@2@$0A@@std@@@std@@IEBAAEAPEAU?$_Tree_node@U?$pair@$$CBV?$basic_string@DU?$char_traits@D@std@@V?$allocator@D@2@@std@@V12@@std@@PEAX@2@XZ 0000000180019500 f i tools.obj
 0001:00018500       ?_Rmost@?$_Tree@V?$_Tmap_traits@V?$basic_string@DU?$char_traits@D@std@@V?$allocator@D@2@@std@@MU?$less@V?$basic_string@DU?$char_traits@D@std@@V?$allocator@D@2@@std@@@2@V?$allocator@U?$pair@$$CBV?$basic_string@DU?$char_traits@D@std@@V?$allocator@D@2@@std@@M@std@@@2@$0A@@std@@@std@@IEBAAEAPEAU?$_Tree_node@U?$pair@$$CBV?$basic_string@DU?$char_traits@D@std@@V?$allocator@D@2@@std@@M@std@@PEAX@2@XZ 0000000180019500 f i mfdpage_fms.obj
 0001:00018500       ?_Rmost@?$_Tree@V?$_Tmap_traits@V?$basic_string@DU?$char_traits@D@std@@V?$allocator@D@2@@std@@HU?$less@V?$basic_string@DU?$char_traits@D@std@@V?$allocator@D@2@@std@@@2@V?$allocator@U?$pair@$$CBV?$basic_string@DU?$char_traits@D@std@@V?$allocator@D@2@@std@@H@std@@@2@$0A@@std@@@std@@IEBAAEAPEAU?$_Tree_node@U?$pair@$$CBV?$basic_string@DU?$char_traits@D@std@@V?$allocator@D@2@@std@@H@std@@PEAX@2@XZ 0000000180019500 f i mfdpage.obj
 0001:00018520       ?_Tidy@?$_Tree@V?$_Tmap_traits@HV?$basic_string@DU?$char_traits@D@std@@V?$allocator@D@2@@std@@U?$less@H@2@V?$allocator@U?$pair@$$CBHV?$basic_string@DU?$char_traits@D@std@@V?$allocator@D@2@@std@@@std@@@2@$0A@@std@@@std@@IEAAXXZ 0000000180019520 f i mfdpage.obj
 0001:00018580       ?allocate@?$_Wrap_alloc@V?$allocator@U?$_Tree_node@U?$pair@$$CBV?$basic_string@DU?$char_traits@D@std@@V?$allocator@D@2@@std@@M@std@@PEAX@std@@@std@@@std@@QEAAPEAU?$_Tree_node@U?$pair@$$CBV?$basic_string@DU?$char_traits@D@std@@V?$allocator@D@2@@std@@M@std@@PEAX@2@_K@Z 0000000180019580 f i mfdpage_fms.obj
 0001:00018580       ?allocate@?$_Wrap_alloc@V?$allocator@U?$_Tree_node@U?$pair@$$CBHV?$basic_string@DU?$char_traits@D@std@@V?$allocator@D@2@@std@@@std@@PEAX@std@@@std@@@std@@QEAAPEAU?$_Tree_node@U?$pair@$$CBHV?$basic_string@DU?$char_traits@D@std@@V?$allocator@D@2@@std@@@std@@PEAX@2@_K@Z 0000000180019580 f i out_saitek.obj
 0001:00018580       ?allocate@?$_Wrap_alloc@V?$allocator@U?$_Tree_node@U?$pair@$$CBV?$basic_string@DU?$char_traits@D@std@@V?$allocator@D@2@@std@@PEAVfms_config_item_t@@@std@@PEAX@std@@@std@@@std@@QEAAPEAU?$_Tree_node@U?$pair@$$CBV?$basic_string@DU?$char_traits@D@std@@V?$allocator@D@2@@std@@PEAVfms_config_item_t@@@std@@PEAX@2@_K@Z 0000000180019580 f i fms_config.obj
 0001:00018580       ?allocate@?$_Wrap_alloc@V?$allocator@U?$_Tree_node@U?$pair@$$CBV?$basic_string@DU?$char_traits@D@std@@V?$allocator@D@2@@std@@PEAVfms_fp_item_t@@@std@@PEAX@std@@@std@@@std@@QEAAPEAU?$_Tree_node@U?$pair@$$CBV?$basic_string@DU?$char_traits@D@std@@V?$allocator@D@2@@std@@PEAVfms_fp_item_t@@@std@@PEAX@2@_K@Z 0000000180019580 f i fms_fp.obj
 0001:00018580       ?allocate@?$_Wrap_alloc@V?$allocator@U?$_Tree_node@U?$pair@$$CBV?$basic_string@DU?$char_traits@D@std@@V?$allocator@D@2@@std@@H@std@@PEAX@std@@@std@@@std@@QEAAPEAU?$_Tree_node@U?$pair@$$CBV?$basic_string@DU?$char_traits@D@std@@V?$allocator@D@2@@std@@H@std@@PEAX@2@_K@Z 0000000180019580 f i mfdpage.obj
 0001:00018580       ?allocate@?$_Wrap_alloc@V?$allocator@U?$_Tree_node@U?$pair@$$CBV?$basic_string@DU?$char_traits@D@std@@V?$allocator@D@2@@std@@D@std@@PEAX@std@@@std@@@std@@QEAAPEAU?$_Tree_node@U?$pair@$$CBV?$basic_string@DU?$char_traits@D@std@@V?$allocator@D@2@@std@@D@std@@PEAX@2@_K@Z 0000000180019580 f i mfdpage.obj
 0001:000185b0       ?append@?$basic_string@DU?$char_traits@D@std@@V?$allocator@D@2@@std@@QEAAAEAV12@_KD@Z 00000001800195b0 f i mfdpage.obj
 0001:00018660       ?assign@?$char_traits@D@std@@SAPEADPEAD_KD@Z 0000000180019660 f i mfdpage.obj
 0001:00018690       ?begin@?$basic_string@DU?$char_traits@D@std@@V?$allocator@D@2@@std@@QEAA?AV?$_String_iterator@V?$_String_val@U?$_Simple_types@D@std@@@std@@@2@XZ 0000000180019690 f i mfdpage.obj
 0001:000186d0       ?clear@?$_Tree@V?$_Tmap_traits@HV?$basic_string@DU?$char_traits@D@std@@V?$allocator@D@2@@std@@U?$less@H@2@V?$allocator@U?$pair@$$CBHV?$basic_string@DU?$char_traits@D@std@@V?$allocator@D@2@@std@@@std@@@2@$0A@@std@@@std@@QEAAXXZ 00000001800196d0 f i mfdpage.obj
 0001:00018750       ?end@?$basic_string@DU?$char_traits@D@std@@V?$allocator@D@2@@std@@QEAA?AV?$_String_iterator@V?$_String_val@U?$_Simple_types@D@std@@@std@@@2@XZ 0000000180019750 f i mfdpage.obj
 0001:00018790       ?erase@?$_Tree@V?$_Tmap_traits@HV?$basic_string@DU?$char_traits@D@std@@V?$allocator@D@2@@std@@U?$less@H@2@V?$allocator@U?$pair@$$CBHV?$basic_string@DU?$char_traits@D@std@@V?$allocator@D@2@@std@@@std@@@2@$0A@@std@@@std@@QEAA?AV?$_Tree_iterator@V?$_Tree_val@U?$_Tree_simple_types@U?$pair@$$CBHV?$basic_string@DU?$char_traits@D@std@@V?$allocator@D@2@@std@@@std@@@std@@@std@@@2@V?$_Tree_const_iterator@V?$_Tree_val@U?$_Tree_simple_types@U?$pair@$$CBHV?$basic_string@DU?$char_traits@D@std@@V?$allocator@D@2@@std@@@std@@@std@@@std@@@2@0@Z 0000000180019790 f i mfdpage.obj
 0001:00018870       ?erase@?$_Tree@V?$_Tmap_traits@HV?$basic_string@DU?$char_traits@D@std@@V?$allocator@D@2@@std@@U?$less@H@2@V?$allocator@U?$pair@$$CBHV?$basic_string@DU?$char_traits@D@std@@V?$allocator@D@2@@std@@@std@@@2@$0A@@std@@@std@@QEAA?AV?$_Tree_iterator@V?$_Tree_val@U?$_Tree_simple_types@U?$pair@$$CBHV?$basic_string@DU?$char_traits@D@std@@V?$allocator@D@2@@std@@@std@@@std@@@std@@@2@V?$_Tree_const_iterator@V?$_Tree_val@U?$_Tree_simple_types@U?$pair@$$CBHV?$basic_string@DU?$char_traits@D@std@@V?$allocator@D@2@@std@@@std@@@std@@@std@@@2@@Z 0000000180019870 f i mfdpage.obj
 0001:000190b0       ?find@?$basic_string@DU?$char_traits@D@std@@V?$allocator@D@2@@std@@QEBA_KPEBD_K1@Z 000000018001a0b0 f i mfdpage.obj
 0001:000191f0       ?find@?$basic_string@DU?$char_traits@D@std@@V?$allocator@D@2@@std@@QEBA_KPEBD_K@Z 000000018001a1f0 f i mfdpage.obj
 0001:00019230       ?find@?$char_traits@D@std@@SAPEBDPEBD_KAEBD@Z 000000018001a230 f i mfdpage.obj
 0001:00019280       ?key_comp@?$_Tree@V?$_Tmap_traits@V?$basic_string@DU?$char_traits@D@std@@V?$allocator@D@2@@std@@V12@U?$less@V?$basic_string@DU?$char_traits@D@std@@V?$allocator@D@2@@std@@@2@V?$allocator@U?$pair@$$CBV?$basic_string@DU?$char_traits@D@std@@V?$allocator@D@2@@std@@V12@@std@@@2@$0A@@std@@@std@@QEBA?AU?$less@V?$basic_string@DU?$char_traits@D@std@@V?$allocator@D@2@@std@@@2@XZ 000000018001a280 f i config.obj
 0001:00019280       ?key_comp@?$_Tree@V?$_Tmap_traits@HPEAVobject_t@@U?$less@H@std@@V?$allocator@U?$pair@$$CBHPEAVobject_t@@@std@@@3@$0A@@std@@@std@@QEBA?AU?$less@H@2@XZ 000000018001a280 f i mfdpage.obj
 0001:000192b0       ?lower_bound@?$_Tree@V?$_Tmap_traits@HPEAVfms_fp_item_t@@U?$less@H@std@@V?$allocator@U?$pair@$$CBHPEAVfms_fp_item_t@@@std@@@3@$0A@@std@@@std@@QEAA?AV?$_Tree_iterator@V?$_Tree_val@U?$_Tree_simple_types@U?$pair@$$CBHPEAVfms_fp_item_t@@@std@@@std@@@std@@@2@AEBH@Z 000000018001a2b0 f i mfdpage_fms.obj
 0001:000192b0       ?lower_bound@?$_Tree@V?$_Tmap_traits@HPEAVobject_t@@U?$less@H@std@@V?$allocator@U?$pair@$$CBHPEAVobject_t@@@std@@@3@$0A@@std@@@std@@QEAA?AV?$_Tree_iterator@V?$_Tree_val@U?$_Tree_simple_types@U?$pair@$$CBHPEAVobject_t@@@std@@@std@@@std@@@2@AEBH@Z 000000018001a2b0 f i mfdpage.obj
 0001:000192b0       ?lower_bound@?$_Tree@V?$_Tmap_traits@HV?$basic_string@DU?$char_traits@D@std@@V?$allocator@D@2@@std@@U?$less@H@2@V?$allocator@U?$pair@$$CBHV?$basic_string@DU?$char_traits@D@std@@V?$allocator@D@2@@std@@@std@@@2@$0A@@std@@@std@@QEAA?AV?$_Tree_iterator@V?$_Tree_val@U?$_Tree_simple_types@U?$pair@$$CBHV?$basic_string@DU?$char_traits@D@std@@V?$allocator@D@2@@std@@@std@@@std@@@std@@@2@AEBH@Z 000000018001a2b0 f i out_saitek.obj
 0001:000192f0       ?lower_bound@?$_Tree@V?$_Tmap_traits@V?$basic_string@DU?$char_traits@D@std@@V?$allocator@D@2@@std@@PEAVfms_fp_item_t@@U?$less@V?$basic_string@DU?$char_traits@D@std@@V?$allocator@D@2@@std@@@2@V?$allocator@U?$pair@$$CBV?$basic_string@DU?$char_traits@D@std@@V?$allocator@D@2@@std@@PEAVfms_fp_item_t@@@std@@@2@$0A@@std@@@std@@QEAA?AV?$_Tree_iterator@V?$_Tree_val@U?$_Tree_simple_types@U?$pair@$$CBV?$basic_string@DU?$char_traits@D@std@@V?$allocator@D@2@@std@@PEAVfms_fp_item_t@@@std@@@std@@@std@@@2@AEBV?$basic_string@DU?$char_traits@D@std@@V?$allocator@D@2@@2@@Z 000000018001a2f0 f i fms_fp.obj
 0001:000192f0       ?lower_bound@?$_Tree@V?$_Tmap_traits@V?$basic_string@DU?$char_traits@D@std@@V?$allocator@D@2@@std@@PEAVfms_config_item_t@@U?$less@V?$basic_string@DU?$char_traits@D@std@@V?$allocator@D@2@@std@@@2@V?$allocator@U?$pair@$$CBV?$basic_string@DU?$char_traits@D@std@@V?$allocator@D@2@@std@@PEAVfms_config_item_t@@@std@@@2@$0A@@std@@@std@@QEAA?AV?$_Tree_iterator@V?$_Tree_val@U?$_Tree_simple_types@U?$pair@$$CBV?$basic_string@DU?$char_traits@D@std@@V?$allocator@D@2@@std@@PEAVfms_config_item_t@@@std@@@std@@@std@@@2@AEBV?$basic_string@DU?$char_traits@D@std@@V?$allocator@D@2@@2@@Z 000000018001a2f0 f i fms_config.obj
 0001:000192f0       ?lower_bound@?$_Tree@V?$_Tmap_traits@V?$basic_string@DU?$char_traits@D@std@@V?$allocator@D@2@@std@@MU?$less@V?$basic_string@DU?$char_traits@D@std@@V?$allocator@D@2@@std@@@2@V?$allocator@U?$pair@$$CBV?$basic_string@DU?$char_traits@D@std@@V?$allocator@D@2@@std@@M@std@@@2@$0A@@std@@@std@@QEAA?AV?$_Tree_iterator@V?$_Tree_val@U?$_Tree_simple_types@U?$pair@$$CBV?$basic_string@DU?$char_traits@D@std@@V?$allocator@D@2@@std@@M@std@@@std@@@std@@@2@AEBV?$basic_string@DU?$char_traits@D@std@@V?$allocator@D@2@@2@@Z 000000018001a2f0 f i mfdpage_fms.obj
 0001:000192f0       ?lower_bound@?$_Tree@V?$_Tmap_traits@V?$basic_string@DU?$char_traits@D@std@@V?$allocator@D@2@@std@@V12@U?$less@V?$basic_string@DU?$char_traits@D@std@@V?$allocator@D@2@@std@@@2@V?$allocator@U?$pair@$$CBV?$basic_string@DU?$char_traits@D@std@@V?$allocator@D@2@@std@@V12@@std@@@2@$0A@@std@@@std@@QEAA?AV?$_Tree_iterator@V?$_Tree_val@U?$_Tree_simple_types@U?$pair@$$CBV?$basic_string@DU?$char_traits@D@std@@V?$allocator@D@2@@std@@V12@@std@@@std@@@std@@@2@AEBV?$basic_string@DU?$char_traits@D@std@@V?$allocator@D@2@@2@@Z 000000018001a2f0 f i tools.obj
 0001:000192f0       ?lower_bound@?$_Tree@V?$_Tmap_traits@V?$basic_string@DU?$char_traits@D@std@@V?$allocator@D@2@@std@@HU?$less@V?$basic_string@DU?$char_traits@D@std@@V?$allocator@D@2@@std@@@2@V?$allocator@U?$pair@$$CBV?$basic_string@DU?$char_traits@D@std@@V?$allocator@D@2@@std@@H@std@@@2@$0A@@std@@@std@@QEAA?AV?$_Tree_iterator@V?$_Tree_val@U?$_Tree_simple_types@U?$pair@$$CBV?$basic_string@DU?$char_traits@D@std@@V?$allocator@D@2@@std@@H@std@@@std@@@std@@@2@AEBV?$basic_string@DU?$char_traits@D@std@@V?$allocator@D@2@@2@@Z 000000018001a2f0 f i mfdpage.obj
 0001:000192f0       ?lower_bound@?$_Tree@V?$_Tmap_traits@V?$basic_string@DU?$char_traits@D@std@@V?$allocator@D@2@@std@@DU?$less@V?$basic_string@DU?$char_traits@D@std@@V?$allocator@D@2@@std@@@2@V?$allocator@U?$pair@$$CBV?$basic_string@DU?$char_traits@D@std@@V?$allocator@D@2@@std@@D@std@@@2@$0A@@std@@@std@@QEAA?AV?$_Tree_iterator@V?$_Tree_val@U?$_Tree_simple_types@U?$pair@$$CBV?$basic_string@DU?$char_traits@D@std@@V?$allocator@D@2@@std@@D@std@@@std@@@std@@@2@AEBV?$basic_string@DU?$char_traits@D@std@@V?$allocator@D@2@@2@@Z 000000018001a2f0 f i mfdpage.obj
 0001:00019330       ?max_size@?$_Tree@V?$_Tmap_traits@V?$basic_string@DU?$char_traits@D@std@@V?$allocator@D@2@@std@@MU?$less@V?$basic_string@DU?$char_traits@D@std@@V?$allocator@D@2@@std@@@2@V?$allocator@U?$pair@$$CBV?$basic_string@DU?$char_traits@D@std@@V?$allocator@D@2@@std@@M@std@@@2@$0A@@std@@@std@@QEBA_KXZ 000000018001a330 f i mfdpage_fms.obj
 0001:00019330       ?max_size@?$_Tree@V?$_Tmap_traits@V?$basic_string@DU?$char_traits@D@std@@V?$allocator@D@2@@std@@PEAVfms_config_item_t@@U?$less@V?$basic_string@DU?$char_traits@D@std@@V?$allocator@D@2@@std@@@2@V?$allocator@U?$pair@$$CBV?$basic_string@DU?$char_traits@D@std@@V?$allocator@D@2@@std@@PEAVfms_config_item_t@@@std@@@2@$0A@@std@@@std@@QEBA_KXZ 000000018001a330 f i fms_config.obj
 0001:00019330       ?max_size@?$_Tree@V?$_Tmap_traits@HV?$basic_string@DU?$char_traits@D@std@@V?$allocator@D@2@@std@@U?$less@H@2@V?$allocator@U?$pair@$$CBHV?$basic_string@DU?$char_traits@D@std@@V?$allocator@D@2@@std@@@std@@@2@$0A@@std@@@std@@QEBA_KXZ 000000018001a330 f i out_saitek.obj
 0001:00019330       ?max_size@?$_Tree@V?$_Tmap_traits@V?$basic_string@DU?$char_traits@D@std@@V?$allocator@D@2@@std@@PEAVfms_fp_item_t@@U?$less@V?$basic_string@DU?$char_traits@D@std@@V?$allocator@D@2@@std@@@2@V?$allocator@U?$pair@$$CBV?$basic_string@DU?$char_traits@D@std@@V?$allocator@D@2@@std@@PEAVfms_fp_item_t@@@std@@@2@$0A@@std@@@std@@QEBA_KXZ 000000018001a330 f i fms_fp.obj
 0001:00019330       ?max_size@?$_Tree@V?$_Tmap_traits@V?$basic_string@DU?$char_traits@D@std@@V?$allocator@D@2@@std@@HU?$less@V?$basic_string@DU?$char_traits@D@std@@V?$allocator@D@2@@std@@@2@V?$allocator@U?$pair@$$CBV?$basic_string@DU?$char_traits@D@std@@V?$allocator@D@2@@std@@H@std@@@2@$0A@@std@@@std@@QEBA_KXZ 000000018001a330 f i mfdpage.obj
 0001:00019330       ?max_size@?$_Tree@V?$_Tmap_traits@V?$basic_string@DU?$char_traits@D@std@@V?$allocator@D@2@@std@@DU?$less@V?$basic_string@DU?$char_traits@D@std@@V?$allocator@D@2@@std@@@2@V?$allocator@U?$pair@$$CBV?$basic_string@DU?$char_traits@D@std@@V?$allocator@D@2@@std@@D@std@@@2@$0A@@std@@@std@@QEBA_KXZ 000000018001a330 f i mfdpage.obj
 0001:00019360       ?max_size@?$_Wrap_alloc@V?$allocator@U?$_Tree_node@U?$pair@$$CBHPEAVobject_t@@@std@@PEAX@std@@@std@@@std@@QEBA_KXZ 000000018001a360 f i mfdpage.obj
 0001:00019360       ?max_size@?$_Wrap_alloc@V?$allocator@U?$_Tree_node@U?$pair@$$CBHPEAVfms_fp_item_t@@@std@@PEAX@std@@@std@@@std@@QEBA_KXZ 000000018001a360 f i mfdpage_fms.obj
 0001:00019380       ?max_size@?$_Wrap_alloc@V?$allocator@U?$_Tree_node@U?$pair@$$CBV?$basic_string@DU?$char_traits@D@std@@V?$allocator@D@2@@std@@H@std@@PEAX@std@@@std@@@std@@QEBA_KXZ 000000018001a380 f i mfdpage.obj
 0001:00019380       ?max_size@?$_Wrap_alloc@V?$allocator@U?$_Tree_node@U?$pair@$$CBV?$basic_string@DU?$char_traits@D@std@@V?$allocator@D@2@@std@@M@std@@PEAX@std@@@std@@@std@@QEBA_KXZ 000000018001a380 f i mfdpage_fms.obj
 0001:00019380       ?max_size@?$_Wrap_alloc@V?$allocator@U?$_Tree_node@U?$pair@$$CBV?$basic_string@DU?$char_traits@D@std@@V?$allocator@D@2@@std@@D@std@@PEAX@std@@@std@@@std@@QEBA_KXZ 000000018001a380 f i mfdpage.obj
 0001:00019380       ?max_size@?$_Wrap_alloc@V?$allocator@U?$_Tree_node@U?$pair@$$CBV?$basic_string@DU?$char_traits@D@std@@V?$allocator@D@2@@std@@PEAVfms_config_item_t@@@std@@PEAX@std@@@std@@@std@@QEBA_KXZ 000000018001a380 f i fms_config.obj
 0001:00019380       ?max_size@?$_Wrap_alloc@V?$allocator@U?$_Tree_node@U?$pair@$$CBHV?$basic_string@DU?$char_traits@D@std@@V?$allocator@D@2@@std@@@std@@PEAX@std@@@std@@@std@@QEBA_KXZ 000000018001a380 f i out_saitek.obj
 0001:00019380       ?max_size@?$_Wrap_alloc@V?$allocator@U?$_Tree_node@U?$pair@$$CBV?$basic_string@DU?$char_traits@D@std@@V?$allocator@D@2@@std@@PEAVfms_fp_item_t@@@std@@PEAX@std@@@std@@@std@@QEBA_KXZ 000000018001a380 f i fms_fp.obj
 0001:000193a0       ?max_size@?$allocator@U?$_Tree_node@U?$pair@$$CBHPEAVobject_t@@@std@@PEAX@std@@@std@@QEBA_KXZ 000000018001a3a0 f i mfdpage.obj
 0001:000193a0       ?max_size@?$allocator@U?$_Tree_node@U?$pair@$$CBHPEAVfms_fp_item_t@@@std@@PEAX@std@@@std@@QEBA_KXZ 000000018001a3a0 f i mfdpage_fms.obj
 0001:000193b0       ?pointer_to@?$pointer_traits@PEAU?$pair@$$CBV?$basic_string@DU?$char_traits@D@std@@V?$allocator@D@2@@std@@PEAVfms_config_item_t@@@std@@@std@@SAPEAU?$pair@$$CBV?$basic_string@DU?$char_traits@D@std@@V?$allocator@D@2@@std@@PEAVfms_config_item_t@@@2@AEAU32@@Z 000000018001a3b0 f i fms_config.obj
 0001:000193b0       ?pointer_to@?$pointer_traits@PEAU?$pair@$$CBV?$basic_string@DU?$char_traits@D@std@@V?$allocator@D@2@@std@@M@std@@@std@@SAPEAU?$pair@$$CBV?$basic_string@DU?$char_traits@D@std@@V?$allocator@D@2@@std@@M@2@AEAU32@@Z 000000018001a3b0 f i mfdpage_fms.obj
 0001:000193b0       ?pointer_to@?$pointer_traits@PEAU?$pair@$$CBV?$basic_string@DU?$char_traits@D@std@@V?$allocator@D@2@@std@@PEAVfms_fp_item_t@@@std@@@std@@SAPEAU?$pair@$$CBV?$basic_string@DU?$char_traits@D@std@@V?$allocator@D@2@@std@@PEAVfms_fp_item_t@@@2@AEAU32@@Z 000000018001a3b0 f i fms_fp.obj
 0001:000193b0       ?pointer_to@?$pointer_traits@PEAU?$pair@$$CBHPEAVobject_t@@@std@@@std@@SAPEAU?$pair@$$CBHPEAVobject_t@@@2@AEAU32@@Z 000000018001a3b0 f i mfdpage.obj
 0001:000193b0       ?pointer_to@?$pointer_traits@PEAU?$pair@$$CBHPEAVfms_fp_item_t@@@std@@@std@@SAPEAU?$pair@$$CBHPEAVfms_fp_item_t@@@2@AEAU32@@Z 000000018001a3b0 f i mfdpage_fms.obj
 0001:000193b0       ?pointer_to@?$pointer_traits@PEAU?$pair@$$CBV?$basic_string@DU?$char_traits@D@std@@V?$allocator@D@2@@std@@H@std@@@std@@SAPEAU?$pair@$$CBV?$basic_string@DU?$char_traits@D@std@@V?$allocator@D@2@@std@@H@2@AEAU32@@Z 000000018001a3b0 f i mfdpage.obj
 0001:000193b0       ?pointer_to@?$pointer_traits@PEAU?$pair@$$CBV?$basic_string@DU?$char_traits@D@std@@V?$allocator@D@2@@std@@D@std@@@std@@SAPEAU?$pair@$$CBV?$basic_string@DU?$char_traits@D@std@@V?$allocator@D@2@@std@@D@2@AEAU32@@Z 000000018001a3b0 f i mfdpage.obj
 0001:000193b0       ?pointer_to@?$pointer_traits@PEAU?$pair@$$CBV?$basic_string@DU?$char_traits@D@std@@V?$allocator@D@2@@std@@V12@@std@@@std@@SAPEAU?$pair@$$CBV?$basic_string@DU?$char_traits@D@std@@V?$allocator@D@2@@std@@V12@@2@AEAU32@@Z 000000018001a3b0 f i tools.obj
 0001:000193b0       ?pointer_to@?$pointer_traits@PEAU?$pair@$$CBHM@std@@@std@@SAPEAU?$pair@$$CBHM@2@AEAU32@@Z 000000018001a3b0 f i fms_config.obj
 0001:000193b0       ?pointer_to@?$pointer_traits@PEAU?$pair@$$CBHV?$basic_string@DU?$char_traits@D@std@@V?$allocator@D@2@@std@@@std@@@std@@SAPEAU?$pair@$$CBHV?$basic_string@DU?$char_traits@D@std@@V?$allocator@D@2@@std@@@2@AEAU32@@Z 000000018001a3b0 f i out_saitek.obj
 0001:000193d0       ?replace@?$basic_string@DU?$char_traits@D@std@@V?$allocator@D@2@@std@@QEAAAEAV12@V?$_String_const_iterator@V?$_String_val@U?$_Simple_types@D@std@@@std@@@2@0V?$_String_iterator@V?$_String_val@U?$_Simple_types@D@std@@@std@@@2@1@Z 000000018001a3d0 f i mfdpage.obj
 0001:00019510       ?replace@?$basic_string@DU?$char_traits@D@std@@V?$allocator@D@2@@std@@QEAAAEAV12@_K0AEBV12@00@Z 000000018001a510 f i mfdpage.obj
 0001:00019ac0       ?replace@?$basic_string@DU?$char_traits@D@std@@V?$allocator@D@2@@std@@QEAAAEAV12@_K0PEBD0@Z 000000018001aac0 f i mfdpage.obj
 0001:00019d00       ?select_on_container_copy_construction@?$_Wrap_alloc@V?$allocator@U?$_Tree_node@U?$pair@$$CBV?$basic_string@DU?$char_traits@D@std@@V?$allocator@D@2@@std@@V12@@std@@PEAX@std@@@std@@@std@@QEBA?AU12@XZ 000000018001ad00 f i config.obj
 0001:00019d00       ?select_on_container_copy_construction@?$_Wrap_alloc@V?$allocator@D@std@@@std@@QEBA?AU12@XZ 000000018001ad00 f i out_saitek.obj
 0001:00019d00       ?select_on_container_copy_construction@?$_Wrap_alloc@V?$allocator@U?$_Tree_node@U?$pair@$$CBHPEAVobject_t@@@std@@PEAX@std@@@std@@@std@@QEBA?AU12@XZ 000000018001ad00 f i mfdpage.obj
 0001:00019d40       ?select_on_container_copy_construction@?$allocator@U?$_Tree_node@U?$pair@$$CBV?$basic_string@DU?$char_traits@D@std@@V?$allocator@D@2@@std@@V12@@std@@PEAX@std@@@std@@QEBA?AV12@XZ 000000018001ad40 f i config.obj
 0001:00019d40       ?select_on_container_copy_construction@?$allocator@D@std@@QEBA?AV12@XZ 000000018001ad40 f i out_saitek.obj
 0001:00019d40       ?select_on_container_copy_construction@?$allocator@U?$_Tree_node@U?$pair@$$CBHPEAVobject_t@@@std@@PEAX@std@@@std@@QEBA?AV12@XZ 000000018001ad40 f i mfdpage.obj
 0001:00019d70       ?select_on_container_copy_construction@?$allocator_traits@V?$allocator@U?$_Tree_node@U?$pair@$$CBV?$basic_string@DU?$char_traits@D@std@@V?$allocator@D@2@@std@@V12@@std@@PEAX@std@@@std@@@std@@SA?AV?$allocator@U?$_Tree_node@U?$pair@$$CBV?$basic_string@DU?$char_traits@D@std@@V?$allocator@D@2@@std@@V12@@std@@PEAX@std@@@2@AEBV32@@Z 000000018001ad70 f i config.obj
 0001:00019d70       ?select_on_container_copy_construction@?$allocator_traits@V?$allocator@U?$_Tree_node@U?$pair@$$CBHPEAVobject_t@@@std@@PEAX@std@@@std@@@std@@SA?AV?$allocator@U?$_Tree_node@U?$pair@$$CBHPEAVobject_t@@@std@@PEAX@std@@@2@AEBV32@@Z 000000018001ad70 f i mfdpage.obj
 0001:00019d70       ?select_on_container_copy_construction@?$allocator_traits@V?$allocator@D@std@@@std@@SA?AV?$allocator@D@2@AEBV32@@Z 000000018001ad70 f i out_saitek.obj
 0001:00019da0       ??0mfdpage_fms_t@@QEAA@V?$basic_string@DU?$char_traits@D@std@@V?$allocator@D@2@@std@@@Z 000000018001ada0 f   mfdpage_fms.obj
 0001:00019e20       ??0mfdpage_fms_t@@QEAA@V?$basic_string@DU?$char_traits@D@std@@V?$allocator@D@2@@std@@PEAVfms_t@@@Z 000000018001ae20 f   mfdpage_fms.obj
 0001:00019ec0       ?get_template@mfdpage_fms_t@@UEAA?AV?$basic_string@DU?$char_traits@D@std@@V?$allocator@D@2@@std@@V23@AEAV?$map@HV?$basic_string@DU?$char_traits@D@std@@V?$allocator@D@2@@std@@U?$less@H@2@V?$allocator@U?$pair@$$CBHV?$basic_string@DU?$char_traits@D@std@@V?$allocator@D@2@@std@@@std@@@2@@3@@Z 000000018001aec0 f   mfdpage_fms.obj
 0001:0001a090       ?do_refresh@mfdpage_fms_t@@UEAAXPEAVobject_t@@@Z 000000018001b090 f   mfdpage_fms.obj
 0001:0001a230       ?refresh_interval@mfdpage_fms_t@@UEAAHV?$basic_string@DU?$char_traits@D@std@@V?$allocator@D@2@@std@@@Z 000000018001b230 f   mfdpage_fms.obj
 0001:0001a260       ?refresh_template@mfdpage_fms_t@@UEAA?AV?$basic_string@DU?$char_traits@D@std@@V?$allocator@D@2@@std@@V23@V?$map@HPEAVobject_t@@U?$less@H@std@@V?$allocator@U?$pair@$$CBHPEAVobject_t@@@std@@@3@@3@0@Z 000000018001b260 f   mfdpage_fms.obj
 0001:0001af50       ??$?0$$QEAH$$$V@?$pair@$$CBHPEAVobject_t@@@std@@QEAA@Upiecewise_construct_t@1@V?$tuple@$$QEAH@1@V?$tuple@$$$V@1@@Z 000000018001bf50 f i mfdpage_fms.obj
 0001:0001af50       ??$?0AEBH$$$V@?$pair@$$CBHPEAVobject_t@@@std@@QEAA@Upiecewise_construct_t@1@V?$tuple@AEBH@1@V?$tuple@$$$V@1@@Z 000000018001bf50 f i mfdpage.obj
 0001:0001af50       ??$?0$$QEAH$$$V@?$pair@$$CBHPEAVfms_fp_item_t@@@std@@QEAA@Upiecewise_construct_t@1@V?$tuple@$$QEAH@1@V?$tuple@$$$V@1@@Z 000000018001bf50 f i mfdpage_fms.obj
 0001:0001af50       ??$?0AEBH$$$V@?$pair@$$CBHPEAVfms_fp_item_t@@@std@@QEAA@Upiecewise_construct_t@1@V?$tuple@AEBH@1@V?$tuple@$$$V@1@@Z 000000018001bf50 f i mfdpage_fms.obj
 0001:0001afc0       ??$?0$$QEAH$$$V@?$pair@$$CBHV?$basic_string@DU?$char_traits@D@std@@V?$allocator@D@2@@std@@@std@@QEAA@Upiecewise_construct_t@1@V?$tuple@$$QEAH@1@V?$tuple@$$$V@1@@Z 000000018001bfc0 f i mfdpage_fms.obj
 0001:0001afc0       ??$?0AEBH$$$V@?$pair@$$CBHV?$basic_string@DU?$char_traits@D@std@@V?$allocator@D@2@@std@@@std@@QEAA@Upiecewise_construct_t@1@V?$tuple@AEBH@1@V?$tuple@$$$V@1@@Z 000000018001bfc0 f i out_saitek.obj
 0001:0001b030       ??$?0$$QEAV?$basic_string@DU?$char_traits@D@std@@V?$allocator@D@2@@std@@$$$V@?$pair@$$CBV?$basic_string@DU?$char_traits@D@std@@V?$allocator@D@2@@std@@M@std@@QEAA@Upiecewise_construct_t@1@V?$tuple@$$QEAV?$basic_string@DU?$char_traits@D@std@@V?$allocator@D@2@@std@@@1@V?$tuple@$$$V@1@@Z 000000018001c030 f i mfdpage_fms.obj
 0001:0001b0a0       ??$?0V?$tuple@AEBH@std@@V?$tuple@$$$V@1@$0A@$S@?$pair@$$CBHPEAVobject_t@@@std@@QEAA@AEAV?$tuple@AEBH@1@AEAV?$tuple@$$$V@1@U?$_Arg_idx@$0A@@1@U?$_Arg_idx@$S@1@@Z 000000018001c0a0 f i mfdpage.obj
 0001:0001b0a0       ??$?0V?$tuple@$$QEAH@std@@V?$tuple@$$$V@1@$0A@$S@?$pair@$$CBHPEAVfms_fp_item_t@@@std@@QEAA@AEAV?$tuple@$$QEAH@1@AEAV?$tuple@$$$V@1@U?$_Arg_idx@$0A@@1@U?$_Arg_idx@$S@1@@Z 000000018001c0a0 f i mfdpage_fms.obj
 0001:0001b0a0       ??$?0V?$tuple@$$QEAH@std@@V?$tuple@$$$V@1@$0A@$S@?$pair@$$CBHPEAVobject_t@@@std@@QEAA@AEAV?$tuple@$$QEAH@1@AEAV?$tuple@$$$V@1@U?$_Arg_idx@$0A@@1@U?$_Arg_idx@$S@1@@Z 000000018001c0a0 f i mfdpage_fms.obj
 0001:0001b0a0       ??$?0V?$tuple@AEBH@std@@V?$tuple@$$$V@1@$0A@$S@?$pair@$$CBHPEAVfms_fp_item_t@@@std@@QEAA@AEAV?$tuple@AEBH@1@AEAV?$tuple@$$$V@1@U?$_Arg_idx@$0A@@1@U?$_Arg_idx@$S@1@@Z 000000018001c0a0 f i mfdpage_fms.obj
 0001:0001b0f0       ??$?0V?$tuple@AEBH@std@@V?$tuple@$$$V@1@$0A@$S@?$pair@$$CBHV?$basic_string@DU?$char_traits@D@std@@V?$allocator@D@2@@std@@@std@@QEAA@AEAV?$tuple@AEBH@1@AEAV?$tuple@$$$V@1@U?$_Arg_idx@$0A@@1@U?$_Arg_idx@$S@1@@Z 000000018001c0f0 f i out_saitek.obj
 0001:0001b0f0       ??$?0V?$tuple@$$QEAH@std@@V?$tuple@$$$V@1@$0A@$S@?$pair@$$CBHV?$basic_string@DU?$char_traits@D@std@@V?$allocator@D@2@@std@@@std@@QEAA@AEAV?$tuple@$$QEAH@1@AEAV?$tuple@$$$V@1@U?$_Arg_idx@$0A@@1@U?$_Arg_idx@$S@1@@Z 000000018001c0f0 f i mfdpage_fms.obj
 0001:0001b140       ??$?0V?$tuple@$$QEAV?$basic_string@DU?$char_traits@D@std@@V?$allocator@D@2@@std@@@std@@V?$tuple@$$$V@1@$0A@$S@?$pair@$$CBV?$basic_string@DU?$char_traits@D@std@@V?$allocator@D@2@@std@@M@std@@QEAA@AEAV?$tuple@$$QEAV?$basic_string@DU?$char_traits@D@std@@V?$allocator@D@2@@std@@@1@AEAV?$tuple@$$$V@1@U?$_Arg_idx@$0A@@1@U?$_Arg_idx@$S@1@@Z 000000018001c140 f i mfdpage_fms.obj
 0001:0001b190       ??$_Allocate@U?$_Tree_node@U?$pair@$$CBHPEAVfms_fp_item_t@@@std@@PEAX@std@@@std@@YAPEAU?$_Tree_node@U?$pair@$$CBHPEAVfms_fp_item_t@@@std@@PEAX@0@_KPEAU10@@Z 000000018001c190 f i mfdpage_fms.obj
 0001:0001b190       ??$_Allocate@U?$_Tree_node@U?$pair@$$CBHPEAVobject_t@@@std@@PEAX@std@@@std@@YAPEAU?$_Tree_node@U?$pair@$$CBHPEAVobject_t@@@std@@PEAX@0@_KPEAU10@@Z 000000018001c190 f i mfdpage.obj
 0001:0001b1f0       ??$_Buynode@AEBUpiecewise_construct_t@std@@V?$tuple@$$QEAH@2@V?$tuple@$$$V@2@@?$_Tree_buy@U?$pair@$$CBHPEAVfms_fp_item_t@@@std@@V?$allocator@U?$pair@$$CBHPEAVfms_fp_item_t@@@std@@@2@@std@@QEAAPEAU?$_Tree_node@U?$pair@$$CBHPEAVfms_fp_item_t@@@std@@PEAX@1@AEBUpiecewise_construct_t@1@$$QEAV?$tuple@$$QEAH@1@$$QEAV?$tuple@$$$V@1@@Z 000000018001c1f0 f i mfdpage_fms.obj
 0001:0001b2e0       ??$_Buynode@AEBUpiecewise_construct_t@std@@V?$tuple@$$QEAH@2@V?$tuple@$$$V@2@@?$_Tree_buy@U?$pair@$$CBHPEAVobject_t@@@std@@V?$allocator@U?$pair@$$CBHPEAVobject_t@@@std@@@2@@std@@QEAAPEAU?$_Tree_node@U?$pair@$$CBHPEAVobject_t@@@std@@PEAX@1@AEBUpiecewise_construct_t@1@$$QEAV?$tuple@$$QEAH@1@$$QEAV?$tuple@$$$V@1@@Z 000000018001c2e0 f i mfdpage_fms.obj
 0001:0001b3d0       ??$_Buynode@AEBUpiecewise_construct_t@std@@V?$tuple@$$QEAH@2@V?$tuple@$$$V@2@@?$_Tree_buy@U?$pair@$$CBHV?$basic_string@DU?$char_traits@D@std@@V?$allocator@D@2@@std@@@std@@V?$allocator@U?$pair@$$CBHV?$basic_string@DU?$char_traits@D@std@@V?$allocator@D@2@@std@@@std@@@2@@std@@QEAAPEAU?$_Tree_node@U?$pair@$$CBHV?$basic_string@DU?$char_traits@D@std@@V?$allocator@D@2@@std@@@std@@PEAX@1@AEBUpiecewise_construct_t@1@$$QEAV?$tuple@$$QEAH@1@$$QEAV?$tuple@$$$V@1@@Z 000000018001c3d0 f i mfdpage_fms.obj
 0001:0001b4c0       ??$_Buynode@AEBUpiecewise_construct_t@std@@V?$tuple@$$QEAV?$basic_string@DU?$char_traits@D@std@@V?$allocator@D@2@@std@@@2@V?$tuple@$$$V@2@@?$_Tree_buy@U?$pair@$$CBV?$basic_string@DU?$char_traits@D@std@@V?$allocator@D@2@@std@@M@std@@V?$allocator@U?$pair@$$CBV?$basic_string@DU?$char_traits@D@std@@V?$allocator@D@2@@std@@M@std@@@2@@std@@QEAAPEAU?$_Tree_node@U?$pair@$$CBV?$basic_string@DU?$char_traits@D@std@@V?$allocator@D@2@@std@@M@std@@PEAX@1@AEBUpiecewise_construct_t@1@$$QEAV?$tuple@$$QEAV?$basic_string@DU?$char_traits@D@std@@V?$allocator@D@2@@std@@@1@$$QEAV?$tuple@$$$V@1@@Z 000000018001c4c0 f i mfdpage_fms.obj
 0001:0001b5b0       ??$_Buynode@AEBUpiecewise_construct_t@std@@V?$tuple@AEBH@2@V?$tuple@$$$V@2@@?$_Tree_buy@U?$pair@$$CBHPEAVfms_fp_item_t@@@std@@V?$allocator@U?$pair@$$CBHPEAVfms_fp_item_t@@@std@@@2@@std@@QEAAPEAU?$_Tree_node@U?$pair@$$CBHPEAVfms_fp_item_t@@@std@@PEAX@1@AEBUpiecewise_construct_t@1@$$QEAV?$tuple@AEBH@1@$$QEAV?$tuple@$$$V@1@@Z 000000018001c5b0 f i mfdpage_fms.obj
 0001:0001b6a0       ??$_Insert_hint@AEAU?$pair@$$CBHPEAVfms_fp_item_t@@@std@@PEAU?$_Tree_node@U?$pair@$$CBHPEAVfms_fp_item_t@@@std@@PEAX@2@@?$_Tree@V?$_Tmap_traits@HPEAVfms_fp_item_t@@U?$less@H@std@@V?$allocator@U?$pair@$$CBHPEAVfms_fp_item_t@@@std@@@3@$0A@@std@@@std@@IEAA?AV?$_Tree_iterator@V?$_Tree_val@U?$_Tree_simple_types@U?$pair@$$CBHPEAVfms_fp_item_t@@@std@@@std@@@std@@@1@V?$_Tree_const_iterator@V?$_Tree_val@U?$_Tree_simple_types@U?$pair@$$CBHPEAVfms_fp_item_t@@@std@@@std@@@std@@@1@AEAU?$pair@$$CBHPEAVfms_fp_item_t@@@1@PEAU?$_Tree_node@U?$pair@$$CBHPEAVfms_fp_item_t@@@std@@PEAX@1@@Z 000000018001c6a0 f i mfdpage_fms.obj
 0001:0001c430       ??$_Insert_hint@AEAU?$pair@$$CBV?$basic_string@DU?$char_traits@D@std@@V?$allocator@D@2@@std@@M@std@@PEAU?$_Tree_node@U?$pair@$$CBV?$basic_string@DU?$char_traits@D@std@@V?$allocator@D@2@@std@@M@std@@PEAX@2@@?$_Tree@V?$_Tmap_traits@V?$basic_string@DU?$char_traits@D@std@@V?$allocator@D@2@@std@@MU?$less@V?$basic_string@DU?$char_traits@D@std@@V?$allocator@D@2@@std@@@2@V?$allocator@U?$pair@$$CBV?$basic_string@DU?$char_traits@D@std@@V?$allocator@D@2@@std@@M@std@@@2@$0A@@std@@@std@@IEAA?AV?$_Tree_iterator@V?$_Tree_val@U?$_Tree_simple_types@U?$pair@$$CBV?$basic_string@DU?$char_traits@D@std@@V?$allocator@D@2@@std@@M@std@@@std@@@std@@@1@V?$_Tree_const_iterator@V?$_Tree_val@U?$_Tree_simple_types@U?$pair@$$CBV?$basic_string@DU?$char_traits@D@std@@V?$allocator@D@2@@std@@M@std@@@std@@@std@@@1@AEAU?$pair@$$CBV?$basic_string@DU?$char_traits@D@std@@V?$allocator@D@2@@std@@M@1@PEAU?$_Tree_node@U?$pair@$$CBV?$basic_string@DU?$char_traits@D@std@@V?$allocator@D@2@@std@@M@std@@PEAX@1@@Z 000000018001d430 f i mfdpage_fms.obj
 0001:0001d1c0       ??$_Insert_nohint@AEAU?$pair@$$CBHPEAVfms_fp_item_t@@@std@@PEAU?$_Tree_node@U?$pair@$$CBHPEAVfms_fp_item_t@@@std@@PEAX@2@@?$_Tree@V?$_Tmap_traits@HPEAVfms_fp_item_t@@U?$less@H@std@@V?$allocator@U?$pair@$$CBHPEAVfms_fp_item_t@@@std@@@3@$0A@@std@@@std@@IEAA?AU?$pair@V?$_Tree_iterator@V?$_Tree_val@U?$_Tree_simple_types@U?$pair@$$CBHPEAVfms_fp_item_t@@@std@@@std@@@std@@@std@@_N@1@_NAEAU?$pair@$$CBHPEAVfms_fp_item_t@@@1@PEAU?$_Tree_node@U?$pair@$$CBHPEAVfms_fp_item_t@@@std@@PEAX@1@@Z 000000018001e1c0 f i mfdpage_fms.obj
 0001:0001d5b0       ??$_Insert_nohint@AEAU?$pair@$$CBV?$basic_string@DU?$char_traits@D@std@@V?$allocator@D@2@@std@@M@std@@PEAU?$_Tree_node@U?$pair@$$CBV?$basic_string@DU?$char_traits@D@std@@V?$allocator@D@2@@std@@M@std@@PEAX@2@@?$_Tree@V?$_Tmap_traits@V?$basic_string@DU?$char_traits@D@std@@V?$allocator@D@2@@std@@MU?$less@V?$basic_string@DU?$char_traits@D@std@@V?$allocator@D@2@@std@@@2@V?$allocator@U?$pair@$$CBV?$basic_string@DU?$char_traits@D@std@@V?$allocator@D@2@@std@@M@std@@@2@$0A@@std@@@std@@IEAA?AU?$pair@V?$_Tree_iterator@V?$_Tree_val@U?$_Tree_simple_types@U?$pair@$$CBV?$basic_string@DU?$char_traits@D@std@@V?$allocator@D@2@@std@@M@std@@@std@@@std@@@std@@_N@1@_NAEAU?$pair@$$CBV?$basic_string@DU?$char_traits@D@std@@V?$allocator@D@2@@std@@M@1@PEAU?$_Tree_node@U?$pair@$$CBV?$basic_string@DU?$char_traits@D@std@@V?$allocator@D@2@@std@@M@std@@PEAX@1@@Z 000000018001e5b0 f i mfdpage_fms.obj
 0001:0001d9a0       ??$construct@U?$pair@$$CBHPEAVfms_fp_item_t@@@std@@AEBUpiecewise_construct_t@2@V?$tuple@AEBH@2@V?$tuple@$$$V@2@@?$_Wrap_alloc@V?$allocator@U?$_Tree_node@U?$pair@$$CBHPEAVfms_fp_item_t@@@std@@PEAX@std@@@std@@@std@@QEAAXPEAU?$pair@$$CBHPEAVfms_fp_item_t@@@1@AEBUpiecewise_construct_t@1@$$QEAV?$tuple@AEBH@1@$$QEAV?$tuple@$$$V@1@@Z 000000018001e9a0 f i mfdpage_fms.obj
 0001:0001d9a0       ??$construct@U?$pair@$$CBHPEAVfms_fp_item_t@@@std@@AEBUpiecewise_construct_t@2@V?$tuple@$$QEAH@2@V?$tuple@$$$V@2@@?$_Wrap_alloc@V?$allocator@U?$_Tree_node@U?$pair@$$CBHPEAVfms_fp_item_t@@@std@@PEAX@std@@@std@@@std@@QEAAXPEAU?$pair@$$CBHPEAVfms_fp_item_t@@@1@AEBUpiecewise_construct_t@1@$$QEAV?$tuple@$$QEAH@1@$$QEAV?$tuple@$$$V@1@@Z 000000018001e9a0 f i mfdpage_fms.obj
 0001:0001d9a0       ??$construct@U?$pair@$$CBHPEAVobject_t@@@std@@AEBUpiecewise_construct_t@2@V?$tuple@AEBH@2@V?$tuple@$$$V@2@@?$_Wrap_alloc@V?$allocator@U?$_Tree_node@U?$pair@$$CBHPEAVobject_t@@@std@@PEAX@std@@@std@@@std@@QEAAXPEAU?$pair@$$CBHPEAVobject_t@@@1@AEBUpiecewise_construct_t@1@$$QEAV?$tuple@AEBH@1@$$QEAV?$tuple@$$$V@1@@Z 000000018001e9a0 f i mfdpage.obj
 0001:0001d9a0       ??$construct@U?$pair@$$CBHPEAVobject_t@@@std@@AEBUpiecewise_construct_t@2@V?$tuple@$$QEAH@2@V?$tuple@$$$V@2@@?$_Wrap_alloc@V?$allocator@U?$_Tree_node@U?$pair@$$CBHPEAVobject_t@@@std@@PEAX@std@@@std@@@std@@QEAAXPEAU?$pair@$$CBHPEAVobject_t@@@1@AEBUpiecewise_construct_t@1@$$QEAV?$tuple@$$QEAH@1@$$QEAV?$tuple@$$$V@1@@Z 000000018001e9a0 f i mfdpage_fms.obj
 0001:0001da10       ??$construct@U?$pair@$$CBHPEAVfms_fp_item_t@@@std@@AEBUpiecewise_construct_t@2@V?$tuple@$$QEAH@2@V?$tuple@$$$V@2@@?$allocator@U?$_Tree_node@U?$pair@$$CBHPEAVfms_fp_item_t@@@std@@PEAX@std@@@std@@QEAAXPEAU?$pair@$$CBHPEAVfms_fp_item_t@@@1@AEBUpiecewise_construct_t@1@$$QEAV?$tuple@$$QEAH@1@$$QEAV?$tuple@$$$V@1@@Z 000000018001ea10 f i mfdpage_fms.obj
 0001:0001da10       ??$construct@U?$pair@$$CBHPEAVfms_fp_item_t@@@std@@AEBUpiecewise_construct_t@2@V?$tuple@AEBH@2@V?$tuple@$$$V@2@@?$allocator@U?$_Tree_node@U?$pair@$$CBHPEAVfms_fp_item_t@@@std@@PEAX@std@@@std@@QEAAXPEAU?$pair@$$CBHPEAVfms_fp_item_t@@@1@AEBUpiecewise_construct_t@1@$$QEAV?$tuple@AEBH@1@$$QEAV?$tuple@$$$V@1@@Z 000000018001ea10 f i mfdpage_fms.obj
 0001:0001da10       ??$construct@U?$pair@$$CBHPEAVobject_t@@@std@@AEBUpiecewise_construct_t@2@V?$tuple@$$QEAH@2@V?$tuple@$$$V@2@@?$allocator@U?$_Tree_node@U?$pair@$$CBHPEAVobject_t@@@std@@PEAX@std@@@std@@QEAAXPEAU?$pair@$$CBHPEAVobject_t@@@1@AEBUpiecewise_construct_t@1@$$QEAV?$tuple@$$QEAH@1@$$QEAV?$tuple@$$$V@1@@Z 000000018001ea10 f i mfdpage_fms.obj
 0001:0001da10       ??$construct@U?$pair@$$CBHPEAVobject_t@@@std@@AEBUpiecewise_construct_t@2@V?$tuple@AEBH@2@V?$tuple@$$$V@2@@?$allocator@U?$_Tree_node@U?$pair@$$CBHPEAVobject_t@@@std@@PEAX@std@@@std@@QEAAXPEAU?$pair@$$CBHPEAVobject_t@@@1@AEBUpiecewise_construct_t@1@$$QEAV?$tuple@AEBH@1@$$QEAV?$tuple@$$$V@1@@Z 000000018001ea10 f i mfdpage.obj
 0001:0001dae0       ??$construct@U?$pair@$$CBHPEAVfms_fp_item_t@@@std@@AEBUpiecewise_construct_t@2@V?$tuple@AEBH@2@V?$tuple@$$$V@2@@?$allocator_traits@V?$allocator@U?$_Tree_node@U?$pair@$$CBHPEAVfms_fp_item_t@@@std@@PEAX@std@@@std@@@std@@SAXAEAV?$allocator@U?$_Tree_node@U?$pair@$$CBHPEAVfms_fp_item_t@@@std@@PEAX@std@@@1@PEAU?$pair@$$CBHPEAVfms_fp_item_t@@@1@AEBUpiecewise_construct_t@1@$$QEAV?$tuple@AEBH@1@$$QEAV?$tuple@$$$V@1@@Z 000000018001eae0 f i mfdpage_fms.obj
 0001:0001dae0       ??$construct@U?$pair@$$CBHPEAVfms_fp_item_t@@@std@@AEBUpiecewise_construct_t@2@V?$tuple@$$QEAH@2@V?$tuple@$$$V@2@@?$allocator_traits@V?$allocator@U?$_Tree_node@U?$pair@$$CBHPEAVfms_fp_item_t@@@std@@PEAX@std@@@std@@@std@@SAXAEAV?$allocator@U?$_Tree_node@U?$pair@$$CBHPEAVfms_fp_item_t@@@std@@PEAX@std@@@1@PEAU?$pair@$$CBHPEAVfms_fp_item_t@@@1@AEBUpiecewise_construct_t@1@$$QEAV?$tuple@$$QEAH@1@$$QEAV?$tuple@$$$V@1@@Z 000000018001eae0 f i mfdpage_fms.obj
 0001:0001dae0       ??$construct@U?$pair@$$CBHPEAVobject_t@@@std@@AEBUpiecewise_construct_t@2@V?$tuple@$$QEAH@2@V?$tuple@$$$V@2@@?$allocator_traits@V?$allocator@U?$_Tree_node@U?$pair@$$CBHPEAVobject_t@@@std@@PEAX@std@@@std@@@std@@SAXAEAV?$allocator@U?$_Tree_node@U?$pair@$$CBHPEAVobject_t@@@std@@PEAX@std@@@1@PEAU?$pair@$$CBHPEAVobject_t@@@1@AEBUpiecewise_construct_t@1@$$QEAV?$tuple@$$QEAH@1@$$QEAV?$tuple@$$$V@1@@Z 000000018001eae0 f i mfdpage_fms.obj
 0001:0001dae0       ??$construct@U?$pair@$$CBHPEAVobject_t@@@std@@AEBUpiecewise_construct_t@2@V?$tuple@AEBH@2@V?$tuple@$$$V@2@@?$allocator_traits@V?$allocator@U?$_Tree_node@U?$pair@$$CBHPEAVobject_t@@@std@@PEAX@std@@@std@@@std@@SAXAEAV?$allocator@U?$_Tree_node@U?$pair@$$CBHPEAVobject_t@@@std@@PEAX@std@@@1@PEAU?$pair@$$CBHPEAVobject_t@@@1@AEBUpiecewise_construct_t@1@$$QEAV?$tuple@AEBH@1@$$QEAV?$tuple@$$$V@1@@Z 000000018001eae0 f i mfdpage.obj
 0001:0001db50       ??$construct@U?$pair@$$CBV?$basic_string@DU?$char_traits@D@std@@V?$allocator@D@2@@std@@M@std@@AEBUpiecewise_construct_t@2@V?$tuple@$$QEAV?$basic_string@DU?$char_traits@D@std@@V?$allocator@D@2@@std@@@2@V?$tuple@$$$V@2@@?$_Wrap_alloc@V?$allocator@U?$_Tree_node@U?$pair@$$CBV?$basic_string@DU?$char_traits@D@std@@V?$allocator@D@2@@std@@M@std@@PEAX@std@@@std@@@std@@QEAAXPEAU?$pair@$$CBV?$basic_string@DU?$char_traits@D@std@@V?$allocator@D@2@@std@@M@1@AEBUpiecewise_construct_t@1@$$QEAV?$tuple@$$QEAV?$basic_string@DU?$char_traits@D@std@@V?$allocator@D@2@@std@@@1@$$QEAV?$tuple@$$$V@1@@Z 000000018001eb50 f i mfdpage_fms.obj
 0001:0001dbc0       ??$construct@U?$pair@$$CBV?$basic_string@DU?$char_traits@D@std@@V?$allocator@D@2@@std@@M@std@@AEBUpiecewise_construct_t@2@V?$tuple@$$QEAV?$basic_string@DU?$char_traits@D@std@@V?$allocator@D@2@@std@@@2@V?$tuple@$$$V@2@@?$allocator@U?$_Tree_node@U?$pair@$$CBV?$basic_string@DU?$char_traits@D@std@@V?$allocator@D@2@@std@@M@std@@PEAX@std@@@std@@QEAAXPEAU?$pair@$$CBV?$basic_string@DU?$char_traits@D@std@@V?$allocator@D@2@@std@@M@1@AEBUpiecewise_construct_t@1@$$QEAV?$tuple@$$QEAV?$basic_string@DU?$char_traits@D@std@@V?$allocator@D@2@@std@@@1@$$QEAV?$tuple@$$$V@1@@Z 000000018001ebc0 f i mfdpage_fms.obj
 0001:0001dc90       ??$construct@U?$pair@$$CBV?$basic_string@DU?$char_traits@D@std@@V?$allocator@D@2@@std@@M@std@@AEBUpiecewise_construct_t@2@V?$tuple@$$QEAV?$basic_string@DU?$char_traits@D@std@@V?$allocator@D@2@@std@@@2@V?$tuple@$$$V@2@@?$allocator_traits@V?$allocator@U?$_Tree_node@U?$pair@$$CBV?$basic_string@DU?$char_traits@D@std@@V?$allocator@D@2@@std@@M@std@@PEAX@std@@@std@@@std@@SAXAEAV?$allocator@U?$_Tree_node@U?$pair@$$CBV?$basic_string@DU?$char_traits@D@std@@V?$allocator@D@2@@std@@M@std@@PEAX@std@@@1@PEAU?$pair@$$CBV?$basic_string@DU?$char_traits@D@std@@V?$allocator@D@2@@std@@M@1@AEBUpiecewise_construct_t@1@$$QEAV?$tuple@$$QEAV?$basic_string@DU?$char_traits@D@std@@V?$allocator@D@2@@std@@@1@$$QEAV?$tuple@$$$V@1@@Z 000000018001ec90 f i mfdpage_fms.obj
 0001:0001dd00       ??$emplace_hint@AEBUpiecewise_construct_t@std@@V?$tuple@$$QEAH@2@V?$tuple@$$$V@2@@?$_Tree@V?$_Tmap_traits@HPEAVfms_fp_item_t@@U?$less@H@std@@V?$allocator@U?$pair@$$CBHPEAVfms_fp_item_t@@@std@@@3@$0A@@std@@@std@@QEAA?AV?$_Tree_iterator@V?$_Tree_val@U?$_Tree_simple_types@U?$pair@$$CBHPEAVfms_fp_item_t@@@std@@@std@@@std@@@1@V?$_Tree_const_iterator@V?$_Tree_val@U?$_Tree_simple_types@U?$pair@$$CBHPEAVfms_fp_item_t@@@std@@@std@@@std@@@1@AEBUpiecewise_construct_t@1@$$QEAV?$tuple@$$QEAH@1@$$QEAV?$tuple@$$$V@1@@Z 000000018001ed00 f i mfdpage_fms.obj
 0001:0001dda0       ??$emplace_hint@AEBUpiecewise_construct_t@std@@V?$tuple@$$QEAH@2@V?$tuple@$$$V@2@@?$_Tree@V?$_Tmap_traits@HPEAVobject_t@@U?$less@H@std@@V?$allocator@U?$pair@$$CBHPEAVobject_t@@@std@@@3@$0A@@std@@@std@@QEAA?AV?$_Tree_iterator@V?$_Tree_val@U?$_Tree_simple_types@U?$pair@$$CBHPEAVobject_t@@@std@@@std@@@std@@@1@V?$_Tree_const_iterator@V?$_Tree_val@U?$_Tree_simple_types@U?$pair@$$CBHPEAVobject_t@@@std@@@std@@@std@@@1@AEBUpiecewise_construct_t@1@$$QEAV?$tuple@$$QEAH@1@$$QEAV?$tuple@$$$V@1@@Z 000000018001eda0 f i mfdpage_fms.obj
 0001:0001de40       ??$emplace_hint@AEBUpiecewise_construct_t@std@@V?$tuple@$$QEAH@2@V?$tuple@$$$V@2@@?$_Tree@V?$_Tmap_traits@HV?$basic_string@DU?$char_traits@D@std@@V?$allocator@D@2@@std@@U?$less@H@2@V?$allocator@U?$pair@$$CBHV?$basic_string@DU?$char_traits@D@std@@V?$allocator@D@2@@std@@@std@@@2@$0A@@std@@@std@@QEAA?AV?$_Tree_iterator@V?$_Tree_val@U?$_Tree_simple_types@U?$pair@$$CBHV?$basic_string@DU?$char_traits@D@std@@V?$allocator@D@2@@std@@@std@@@std@@@std@@@1@V?$_Tree_const_iterator@V?$_Tree_val@U?$_Tree_simple_types@U?$pair@$$CBHV?$basic_string@DU?$char_traits@D@std@@V?$allocator@D@2@@std@@@std@@@std@@@std@@@1@AEBUpiecewise_construct_t@1@$$QEAV?$tuple@$$QEAH@1@$$QEAV?$tuple@$$$V@1@@Z 000000018001ee40 f i mfdpage_fms.obj
 0001:0001dee0       ??$emplace_hint@AEBUpiecewise_construct_t@std@@V?$tuple@$$QEAV?$basic_string@DU?$char_traits@D@std@@V?$allocator@D@2@@std@@@2@V?$tuple@$$$V@2@@?$_Tree@V?$_Tmap_traits@V?$basic_string@DU?$char_traits@D@std@@V?$allocator@D@2@@std@@MU?$less@V?$basic_string@DU?$char_traits@D@std@@V?$allocator@D@2@@std@@@2@V?$allocator@U?$pair@$$CBV?$basic_string@DU?$char_traits@D@std@@V?$allocator@D@2@@std@@M@std@@@2@$0A@@std@@@std@@QEAA?AV?$_Tree_iterator@V?$_Tree_val@U?$_Tree_simple_types@U?$pair@$$CBV?$basic_string@DU?$char_traits@D@std@@V?$allocator@D@2@@std@@M@std@@@std@@@std@@@1@V?$_Tree_const_iterator@V?$_Tree_val@U?$_Tree_simple_types@U?$pair@$$CBV?$basic_string@DU?$char_traits@D@std@@V?$allocator@D@2@@std@@M@std@@@std@@@std@@@1@AEBUpiecewise_construct_t@1@$$QEAV?$tuple@$$QEAV?$basic_string@DU?$char_traits@D@std@@V?$allocator@D@2@@std@@@1@$$QEAV?$tuple@$$$V@1@@Z 000000018001eee0 f i mfdpage_fms.obj
 0001:0001df80       ??$emplace_hint@AEBUpiecewise_construct_t@std@@V?$tuple@AEBH@2@V?$tuple@$$$V@2@@?$_Tree@V?$_Tmap_traits@HPEAVfms_fp_item_t@@U?$less@H@std@@V?$allocator@U?$pair@$$CBHPEAVfms_fp_item_t@@@std@@@3@$0A@@std@@@std@@QEAA?AV?$_Tree_iterator@V?$_Tree_val@U?$_Tree_simple_types@U?$pair@$$CBHPEAVfms_fp_item_t@@@std@@@std@@@std@@@1@V?$_Tree_const_iterator@V?$_Tree_val@U?$_Tree_simple_types@U?$pair@$$CBHPEAVfms_fp_item_t@@@std@@@std@@@std@@@1@AEBUpiecewise_construct_t@1@$$QEAV?$tuple@AEBH@1@$$QEAV?$tuple@$$$V@1@@Z 000000018001ef80 f i mfdpage_fms.obj
 0001:0001e020       ??0?$_Tree@V?$_Tmap_traits@V?$basic_string@DU?$char_traits@D@std@@V?$allocator@D@2@@std@@DU?$less@V?$basic_string@DU?$char_traits@D@std@@V?$allocator@D@2@@std@@@2@V?$allocator@U?$pair@$$CBV?$basic_string@DU?$char_traits@D@std@@V?$allocator@D@2@@std@@D@std@@@2@$0A@@std@@@std@@QEAA@AEBU?$less@V?$basic_string@DU?$char_traits@D@std@@V?$allocator@D@2@@std@@@1@AEBV?$allocator@U?$pair@$$CBV?$basic_string@DU?$char_traits@D@std@@V?$allocator@D@2@@std@@D@std@@@1@@Z 000000018001f020 f i mfdpage_fms.obj
 0001:0001e060       ??0?$_Tree_alloc@$0A@U?$_Tree_base_types@U?$pair@$$CBV?$basic_string@DU?$char_traits@D@std@@V?$allocator@D@2@@std@@D@std@@V?$allocator@U?$pair@$$CBV?$basic_string@DU?$char_traits@D@std@@V?$allocator@D@2@@std@@D@std@@@2@@std@@@std@@QEAA@AEBV?$allocator@U?$pair@$$CBV?$basic_string@DU?$char_traits@D@std@@V?$allocator@D@2@@std@@D@std@@@1@@Z 000000018001f060 f i mfdpage_fms.obj
 0001:0001e0a0       ??0?$_Tree_buy@U?$pair@$$CBV?$basic_string@DU?$char_traits@D@std@@V?$allocator@D@2@@std@@D@std@@V?$allocator@U?$pair@$$CBV?$basic_string@DU?$char_traits@D@std@@V?$allocator@D@2@@std@@D@std@@@2@@std@@QEAA@AEBV?$allocator@U?$pair@$$CBV?$basic_string@DU?$char_traits@D@std@@V?$allocator@D@2@@std@@D@std@@@1@@Z 000000018001f0a0 f i mfdpage_fms.obj
 0001:0001e0d0       ??0?$_Tree_comp@$0A@V?$_Tmap_traits@V?$basic_string@DU?$char_traits@D@std@@V?$allocator@D@2@@std@@DU?$less@V?$basic_string@DU?$char_traits@D@std@@V?$allocator@D@2@@std@@@2@V?$allocator@U?$pair@$$CBV?$basic_string@DU?$char_traits@D@std@@V?$allocator@D@2@@std@@D@std@@@2@$0A@@std@@@std@@QEAA@AEBU?$less@V?$basic_string@DU?$char_traits@D@std@@V?$allocator@D@2@@std@@@1@AEBV?$allocator@U?$pair@$$CBV?$basic_string@DU?$char_traits@D@std@@V?$allocator@D@2@@std@@D@std@@@1@@Z 000000018001f0d0 f i mfdpage_fms.obj
 0001:0001e100       ??0?$map@V?$basic_string@DU?$char_traits@D@std@@V?$allocator@D@2@@std@@DU?$less@V?$basic_string@DU?$char_traits@D@std@@V?$allocator@D@2@@std@@@2@V?$allocator@U?$pair@$$CBV?$basic_string@DU?$char_traits@D@std@@V?$allocator@D@2@@std@@D@std@@@2@@std@@QEAA@XZ 000000018001f100 f i mfdpage_fms.obj
 0001:0001e130       ??0mfdpage_type_t@@QEAA@XZ 000000018001f130 f i mfdpage_fms.obj
 0001:0001e180       ??4?$basic_string@DU?$char_traits@D@std@@V?$allocator@D@2@@std@@QEAAAEAV01@PEBD@Z 000000018001f180 f i mfdpage_fms.obj
 0001:0001e1b0       ??A?$map@HPEAVfms_fp_item_t@@U?$less@H@std@@V?$allocator@U?$pair@$$CBHPEAVfms_fp_item_t@@@std@@@3@@std@@QEAAAEAPEAVfms_fp_item_t@@$$QEAH@Z 000000018001f1b0 f i mfdpage_fms.obj
 0001:0001e2d0       ??A?$map@HPEAVfms_fp_item_t@@U?$less@H@std@@V?$allocator@U?$pair@$$CBHPEAVfms_fp_item_t@@@std@@@3@@std@@QEAAAEAPEAVfms_fp_item_t@@AEBH@Z 000000018001f2d0 f i mfdpage_fms.obj
 0001:0001e3f0       ??A?$map@HPEAVobject_t@@U?$less@H@std@@V?$allocator@U?$pair@$$CBHPEAVobject_t@@@std@@@3@@std@@QEAAAEAPEAVobject_t@@$$QEAH@Z 000000018001f3f0 f i mfdpage_fms.obj
 0001:0001e510       ??A?$map@HV?$basic_string@DU?$char_traits@D@std@@V?$allocator@D@2@@std@@U?$less@H@2@V?$allocator@U?$pair@$$CBHV?$basic_string@DU?$char_traits@D@std@@V?$allocator@D@2@@std@@@std@@@2@@std@@QEAAAEAV?$basic_string@DU?$char_traits@D@std@@V?$allocator@D@2@@1@$$QEAH@Z 000000018001f510 f i mfdpage_fms.obj
 0001:0001e630       ??A?$map@V?$basic_string@DU?$char_traits@D@std@@V?$allocator@D@2@@std@@MU?$less@V?$basic_string@DU?$char_traits@D@std@@V?$allocator@D@2@@std@@@2@V?$allocator@U?$pair@$$CBV?$basic_string@DU?$char_traits@D@std@@V?$allocator@D@2@@std@@M@std@@@2@@std@@QEAAAEAM$$QEAV?$basic_string@DU?$char_traits@D@std@@V?$allocator@D@2@@1@@Z 000000018001f630 f i mfdpage_fms.obj
 0001:0001e750       ??D?$_Tree_iterator@V?$_Tree_val@U?$_Tree_simple_types@U?$pair@$$CBHV?$basic_string@DU?$char_traits@D@std@@V?$allocator@D@2@@std@@@std@@@std@@@std@@@std@@QEBAAEAU?$pair@$$CBHV?$basic_string@DU?$char_traits@D@std@@V?$allocator@D@2@@std@@@1@XZ 000000018001f750 f i out_saitek.obj
 0001:0001e750       ??D?$_Tree_iterator@V?$_Tree_val@U?$_Tree_simple_types@U?$pair@$$CBHPEAVobject_t@@@std@@@std@@@std@@@std@@QEBAAEAU?$pair@$$CBHPEAVobject_t@@@1@XZ 000000018001f750 f i mfdpage.obj
 0001:0001e750       ??D?$_Tree_iterator@V?$_Tree_val@U?$_Tree_simple_types@U?$pair@$$CBV?$basic_string@DU?$char_traits@D@std@@V?$allocator@D@2@@std@@D@std@@@std@@@std@@@std@@QEBAAEAU?$pair@$$CBV?$basic_string@DU?$char_traits@D@std@@V?$allocator@D@2@@std@@D@1@XZ 000000018001f750 f i mfdpage.obj
 0001:0001e750       ??D?$_Tree_iterator@V?$_Tree_val@U?$_Tree_simple_types@U?$pair@$$CBV?$basic_string@DU?$char_traits@D@std@@V?$allocator@D@2@@std@@PEAVfms_fp_item_t@@@std@@@std@@@std@@@std@@QEBAAEAU?$pair@$$CBV?$basic_string@DU?$char_traits@D@std@@V?$allocator@D@2@@std@@PEAVfms_fp_item_t@@@1@XZ 000000018001f750 f i fms_fp.obj
 0001:0001e750       ??D?$_Tree_iterator@V?$_Tree_val@U?$_Tree_simple_types@U?$pair@$$CBV?$basic_string@DU?$char_traits@D@std@@V?$allocator@D@2@@std@@M@std@@@std@@@std@@@std@@QEBAAEAU?$pair@$$CBV?$basic_string@DU?$char_traits@D@std@@V?$allocator@D@2@@std@@M@1@XZ 000000018001f750 f i mfdpage_fms.obj
 0001:0001e750       ??D?$_Tree_iterator@V?$_Tree_val@U?$_Tree_simple_types@U?$pair@$$CBHPEAVfms_fp_item_t@@@std@@@std@@@std@@@std@@QEBAAEAU?$pair@$$CBHPEAVfms_fp_item_t@@@1@XZ 000000018001f750 f i mfdpage_fms.obj
 0001:0001e750       ??D?$_Tree_iterator@V?$_Tree_val@U?$_Tree_simple_types@U?$pair@$$CBV?$basic_string@DU?$char_traits@D@std@@V?$allocator@D@2@@std@@H@std@@@std@@@std@@@std@@QEBAAEAU?$pair@$$CBV?$basic_string@DU?$char_traits@D@std@@V?$allocator@D@2@@std@@H@1@XZ 000000018001f750 f i mfdpage.obj
 0001:0001e750       ??D?$_Tree_iterator@V?$_Tree_val@U?$_Tree_simple_types@U?$pair@$$CBV?$basic_string@DU?$char_traits@D@std@@V?$allocator@D@2@@std@@PEAVfms_config_item_t@@@std@@@std@@@std@@@std@@QEBAAEAU?$pair@$$CBV?$basic_string@DU?$char_traits@D@std@@V?$allocator@D@2@@std@@PEAVfms_config_item_t@@@1@XZ 000000018001f750 f i fms_config.obj
 0001:0001e750       ??D?$_Tree_iterator@V?$_Tree_val@U?$_Tree_simple_types@U?$pair@$$CBV?$basic_string@DU?$char_traits@D@std@@V?$allocator@D@2@@std@@V12@@std@@@std@@@std@@@std@@QEBAAEAU?$pair@$$CBV?$basic_string@DU?$char_traits@D@std@@V?$allocator@D@2@@std@@V12@@1@XZ 000000018001f750 f i tools.obj
 0001:0001e770       ?_Buyheadnode@?$_Tree_alloc@$0A@U?$_Tree_base_types@U?$pair@$$CBV?$basic_string@DU?$char_traits@D@std@@V?$allocator@D@2@@std@@D@std@@V?$allocator@U?$pair@$$CBV?$basic_string@DU?$char_traits@D@std@@V?$allocator@D@2@@std@@D@std@@@2@@std@@@std@@QEAAPEAU?$_Tree_node@U?$pair@$$CBV?$basic_string@DU?$char_traits@D@std@@V?$allocator@D@2@@std@@D@std@@PEAX@2@XZ 000000018001f770 f i mfdpage_fms.obj
 0001:0001e880       ?_Buynode0@?$_Tree_buy@U?$pair@$$CBHPEAVfms_fp_item_t@@@std@@V?$allocator@U?$pair@$$CBHPEAVfms_fp_item_t@@@std@@@2@@std@@QEAAPEAU?$_Tree_node@U?$pair@$$CBHPEAVfms_fp_item_t@@@std@@PEAX@2@XZ 000000018001f880 f i mfdpage_fms.obj
 0001:0001e980       ?_Buynode0@?$_Tree_buy@U?$pair@$$CBV?$basic_string@DU?$char_traits@D@std@@V?$allocator@D@2@@std@@M@std@@V?$allocator@U?$pair@$$CBV?$basic_string@DU?$char_traits@D@std@@V?$allocator@D@2@@std@@M@std@@@2@@std@@QEAAPEAU?$_Tree_node@U?$pair@$$CBV?$basic_string@DU?$char_traits@D@std@@V?$allocator@D@2@@std@@M@std@@PEAX@2@XZ 000000018001f980 f i mfdpage_fms.obj
 0001:0001ea80       ?_Color@?$_Tree_val@U?$_Tree_simple_types@PEAVobject_t@@@std@@@std@@SAAEADPEAU?$_Tree_node@PEAVobject_t@@PEAX@2@@Z 000000018001fa80 f i data.obj
 0001:0001ea80       ?_Color@?$_Tree_val@U?$_Tree_simple_types@U?$pair@$$CBV?$basic_string@DU?$char_traits@D@std@@V?$allocator@D@2@@std@@H@std@@@std@@@std@@SAAEADPEAU?$_Tree_node@U?$pair@$$CBV?$basic_string@DU?$char_traits@D@std@@V?$allocator@D@2@@std@@H@std@@PEAX@2@@Z 000000018001fa80 f i mfdpage.obj
 0001:0001ea80       ?_Color@?$_Tree_val@U?$_Tree_simple_types@U?$pair@$$CBV?$basic_string@DU?$char_traits@D@std@@V?$allocator@D@2@@std@@D@std@@@std@@@std@@SAAEADPEAU?$_Tree_node@U?$pair@$$CBV?$basic_string@DU?$char_traits@D@std@@V?$allocator@D@2@@std@@D@std@@PEAX@2@@Z 000000018001fa80 f i mfdpage.obj
 0001:0001ea80       ?_Color@?$_Tree_val@U?$_Tree_simple_types@U?$pair@$$CBV?$basic_string@DU?$char_traits@D@std@@V?$allocator@D@2@@std@@V12@@std@@@std@@@std@@SAAEADPEAU?$_Tree_node@U?$pair@$$CBV?$basic_string@DU?$char_traits@D@std@@V?$allocator@D@2@@std@@V12@@std@@PEAX@2@@Z 000000018001fa80 f i tools.obj
 0001:0001ea80       ?_Color@?$_Tree_val@U?$_Tree_simple_types@U?$pair@$$CBHPEAVfms_fp_item_t@@@std@@@std@@@std@@SAAEADPEAU?$_Tree_node@U?$pair@$$CBHPEAVfms_fp_item_t@@@std@@PEAX@2@@Z 000000018001fa80 f i mfdpage_fms.obj
 0001:0001ea80       ?_Color@?$_Tree_val@U?$_Tree_simple_types@U?$pair@$$CBV?$basic_string@DU?$char_traits@D@std@@V?$allocator@D@2@@std@@M@std@@@std@@@std@@SAAEADPEAU?$_Tree_node@U?$pair@$$CBV?$basic_string@DU?$char_traits@D@std@@V?$allocator@D@2@@std@@M@std@@PEAX@2@@Z 000000018001fa80 f i mfdpage_fms.obj
 0001:0001ea80       ?_Color@?$_Tree_val@U?$_Tree_simple_types@U?$pair@$$CBV?$basic_string@DU?$char_traits@D@std@@V?$allocator@D@2@@std@@PEAVfms_config_item_t@@@std@@@std@@@std@@SAAEADPEAU?$_Tree_node@U?$pair@$$CBV?$basic_string@DU?$char_traits@D@std@@V?$allocator@D@2@@std@@PEAVfms_config_item_t@@@std@@PEAX@2@@Z 000000018001fa80 f i fms_config.obj
 0001:0001ea80       ?_Color@?$_Tree_val@U?$_Tree_simple_types@PEAVlistener_t@@@std@@@std@@SAAEADPEAU?$_Tree_node@PEAVlistener_t@@PEAX@2@@Z 000000018001fa80 f i data.obj
 0001:0001ea80       ?_Color@?$_Tree_val@U?$_Tree_simple_types@PEAVmfdpage_t@@@std@@@std@@SAAEADPEAU?$_Tree_node@PEAVmfdpage_t@@PEAX@2@@Z 000000018001fa80 f i in.obj
 0001:0001ea80       ?_Color@?$_Tree_val@U?$_Tree_simple_types@U?$pair@$$CBV?$basic_string@DU?$char_traits@D@std@@V?$allocator@D@2@@std@@PEAVfms_fp_item_t@@@std@@@std@@@std@@SAAEADPEAU?$_Tree_node@U?$pair@$$CBV?$basic_string@DU?$char_traits@D@std@@V?$allocator@D@2@@std@@PEAVfms_fp_item_t@@@std@@PEAX@2@@Z 000000018001fa80 f i fms_fp.obj
 0001:0001ea80       ?_Color@?$_Tree_val@U?$_Tree_simple_types@U?$pair@$$CBHM@std@@@std@@@std@@SAAEADPEAU?$_Tree_node@U?$pair@$$CBHM@std@@PEAX@2@@Z 000000018001fa80 f i fms_config.obj
 0001:0001ea80       ?_Color@?$_Tree_val@U?$_Tree_simple_types@U?$pair@$$CBHV?$basic_string@DU?$char_traits@D@std@@V?$allocator@D@2@@std@@@std@@@std@@@std@@SAAEADPEAU?$_Tree_node@U?$pair@$$CBHV?$basic_string@DU?$char_traits@D@std@@V?$allocator@D@2@@std@@@std@@PEAX@2@@Z 000000018001fa80 f i out_saitek.obj
 0001:0001ea80       ?_Color@?$_Tree_val@U?$_Tree_simple_types@U?$pair@$$CBHPEAVobject_t@@@std@@@std@@@std@@SAAEADPEAU?$_Tree_node@U?$pair@$$CBHPEAVobject_t@@@std@@PEAX@2@@Z 000000018001fa80 f i mfdpage.obj
 0001:0001ea90       ?_Destroy_if_not_nil@?$_Tree@V?$_Tmap_traits@HPEAVobject_t@@U?$less@H@std@@V?$allocator@U?$pair@$$CBHPEAVobject_t@@@std@@@3@$0A@@std@@@std@@IEAAXPEAU?$_Tree_node@U?$pair@$$CBHPEAVobject_t@@@std@@PEAX@2@@Z 000000018001fa90 f i mfdpage.obj
 0001:0001ea90       ?_Destroy_if_not_nil@?$_Tree@V?$_Tmap_traits@HPEAVfms_fp_item_t@@U?$less@H@std@@V?$allocator@U?$pair@$$CBHPEAVfms_fp_item_t@@@std@@@3@$0A@@std@@@std@@IEAAXPEAU?$_Tree_node@U?$pair@$$CBHPEAVfms_fp_item_t@@@std@@PEAX@2@@Z 000000018001fa90 f i mfdpage_fms.obj
 0001:0001eb00       ?_Key@?$_Tree@V?$_Tset_traits@PEAVlistener_t@@U?$less@PEAVlistener_t@@@std@@V?$allocator@PEAVlistener_t@@@3@$0A@@std@@@std@@IEBAAEBQEAVlistener_t@@PEAU?$_Tree_node@PEAVlistener_t@@PEAX@2@@Z 000000018001fb00 f i data.obj
 0001:0001eb00       ?_Key@?$_Tree@V?$_Tmap_traits@V?$basic_string@DU?$char_traits@D@std@@V?$allocator@D@2@@std@@MU?$less@V?$basic_string@DU?$char_traits@D@std@@V?$allocator@D@2@@std@@@2@V?$allocator@U?$pair@$$CBV?$basic_string@DU?$char_traits@D@std@@V?$allocator@D@2@@std@@M@std@@@2@$0A@@std@@@std@@IEBAAEBV?$basic_string@DU?$char_traits@D@std@@V?$allocator@D@2@@2@PEAU?$_Tree_node@U?$pair@$$CBV?$basic_string@DU?$char_traits@D@std@@V?$allocator@D@2@@std@@M@std@@PEAX@2@@Z 000000018001fb00 f i mfdpage_fms.obj
 0001:0001eb00       ?_Key@?$_Tree@V?$_Tmap_traits@V?$basic_string@DU?$char_traits@D@std@@V?$allocator@D@2@@std@@V12@U?$less@V?$basic_string@DU?$char_traits@D@std@@V?$allocator@D@2@@std@@@2@V?$allocator@U?$pair@$$CBV?$basic_string@DU?$char_traits@D@std@@V?$allocator@D@2@@std@@V12@@std@@@2@$0A@@std@@@std@@IEBAAEBV?$basic_string@DU?$char_traits@D@std@@V?$allocator@D@2@@2@PEAU?$_Tree_node@U?$pair@$$CBV?$basic_string@DU?$char_traits@D@std@@V?$allocator@D@2@@std@@V12@@std@@PEAX@2@@Z 000000018001fb00 f i tools.obj
 0001:0001eb00       ?_Key@?$_Tree@V?$_Tmap_traits@HV?$basic_string@DU?$char_traits@D@std@@V?$allocator@D@2@@std@@U?$less@H@2@V?$allocator@U?$pair@$$CBHV?$basic_string@DU?$char_traits@D@std@@V?$allocator@D@2@@std@@@std@@@2@$0A@@std@@@std@@IEBAAEBHPEAU?$_Tree_node@U?$pair@$$CBHV?$basic_string@DU?$char_traits@D@std@@V?$allocator@D@2@@std@@@std@@PEAX@2@@Z 000000018001fb00 f i out_saitek.obj
 0001:0001eb00       ?_Key@?$_Tree@V?$_Tmap_traits@HPEAVfms_fp_item_t@@U?$less@H@std@@V?$allocator@U?$pair@$$CBHPEAVfms_fp_item_t@@@std@@@3@$0A@@std@@@std@@IEBAAEBHPEAU?$_Tree_node@U?$pair@$$CBHPEAVfms_fp_item_t@@@std@@PEAX@2@@Z 000000018001fb00 f i mfdpage_fms.obj
 0001:0001eb00       ?_Key@?$_Tree@V?$_Tset_traits@PEAVmfdpage_t@@U?$less@PEAVmfdpage_t@@@std@@V?$allocator@PEAVmfdpage_t@@@3@$0A@@std@@@std@@IEBAAEBQEAVmfdpage_t@@PEAU?$_Tree_node@PEAVmfdpage_t@@PEAX@2@@Z 000000018001fb00 f i in.obj
 0001:0001eb00       ?_Key@?$_Tree@V?$_Tmap_traits@V?$basic_string@DU?$char_traits@D@std@@V?$allocator@D@2@@std@@PEAVfms_config_item_t@@U?$less@V?$basic_string@DU?$char_traits@D@std@@V?$allocator@D@2@@std@@@2@V?$allocator@U?$pair@$$CBV?$basic_string@DU?$char_traits@D@std@@V?$allocator@D@2@@std@@PEAVfms_config_item_t@@@std@@@2@$0A@@std@@@std@@IEBAAEBV?$basic_string@DU?$char_traits@D@std@@V?$allocator@D@2@@2@PEAU?$_Tree_node@U?$pair@$$CBV?$basic_string@DU?$char_traits@D@std@@V?$allocator@D@2@@std@@PEAVfms_config_item_t@@@std@@PEAX@2@@Z 000000018001fb00 f i fms_config.obj
 0001:0001eb00       ?_Key@?$_Tree@V?$_Tmap_traits@V?$basic_string@DU?$char_traits@D@std@@V?$allocator@D@2@@std@@PEAVfms_fp_item_t@@U?$less@V?$basic_string@DU?$char_traits@D@std@@V?$allocator@D@2@@std@@@2@V?$allocator@U?$pair@$$CBV?$basic_string@DU?$char_traits@D@std@@V?$allocator@D@2@@std@@PEAVfms_fp_item_t@@@std@@@2@$0A@@std@@@std@@IEBAAEBV?$basic_string@DU?$char_traits@D@std@@V?$allocator@D@2@@2@PEAU?$_Tree_node@U?$pair@$$CBV?$basic_string@DU?$char_traits@D@std@@V?$allocator@D@2@@std@@PEAVfms_fp_item_t@@@std@@PEAX@2@@Z 000000018001fb00 f i fms_fp.obj
 0001:0001eb00       ?_Key@?$_Tree@V?$_Tset_traits@PEAVobject_t@@U?$less@PEAVobject_t@@@std@@V?$allocator@PEAVobject_t@@@3@$0A@@std@@@std@@IEBAAEBQEAVobject_t@@PEAU?$_Tree_node@PEAVobject_t@@PEAX@2@@Z 000000018001fb00 f i data.obj
 0001:0001eb00       ?_Key@?$_Tree@V?$_Tmap_traits@V?$basic_string@DU?$char_traits@D@std@@V?$allocator@D@2@@std@@DU?$less@V?$basic_string@DU?$char_traits@D@std@@V?$allocator@D@2@@std@@@2@V?$allocator@U?$pair@$$CBV?$basic_string@DU?$char_traits@D@std@@V?$allocator@D@2@@std@@D@std@@@2@$0A@@std@@@std@@IEBAAEBV?$basic_string@DU?$char_traits@D@std@@V?$allocator@D@2@@2@PEAU?$_Tree_node@U?$pair@$$CBV?$basic_string@DU?$char_traits@D@std@@V?$allocator@D@2@@std@@D@std@@PEAX@2@@Z 000000018001fb00 f i mfdpage.obj
 0001:0001eb00       ?_Key@?$_Tree@V?$_Tmap_traits@HPEAVobject_t@@U?$less@H@std@@V?$allocator@U?$pair@$$CBHPEAVobject_t@@@std@@@3@$0A@@std@@@std@@IEBAAEBHPEAU?$_Tree_node@U?$pair@$$CBHPEAVobject_t@@@std@@PEAX@2@@Z 000000018001fb00 f i mfdpage.obj
 0001:0001eb00       ?_Key@?$_Tree@V?$_Tmap_traits@V?$basic_string@DU?$char_traits@D@std@@V?$allocator@D@2@@std@@HU?$less@V?$basic_string@DU?$char_traits@D@std@@V?$allocator@D@2@@std@@@2@V?$allocator@U?$pair@$$CBV?$basic_string@DU?$char_traits@D@std@@V?$allocator@D@2@@std@@H@std@@@2@$0A@@std@@@std@@IEBAAEBV?$basic_string@DU?$char_traits@D@std@@V?$allocator@D@2@@2@PEAU?$_Tree_node@U?$pair@$$CBV?$basic_string@DU?$char_traits@D@std@@V?$allocator@D@2@@std@@H@std@@PEAX@2@@Z 000000018001fb00 f i mfdpage.obj
 0001:0001eb30       ?_Kfn@?$_Tree@V?$_Tmap_traits@V?$basic_string@DU?$char_traits@D@std@@V?$allocator@D@2@@std@@PEAVfms_config_item_t@@U?$less@V?$basic_string@DU?$char_traits@D@std@@V?$allocator@D@2@@std@@@2@V?$allocator@U?$pair@$$CBV?$basic_string@DU?$char_traits@D@std@@V?$allocator@D@2@@std@@PEAVfms_config_item_t@@@std@@@2@$0A@@std@@@std@@IEBAAEBV?$basic_string@DU?$char_traits@D@std@@V?$allocator@D@2@@2@AEBU?$pair@$$CBV?$basic_string@DU?$char_traits@D@std@@V?$allocator@D@2@@std@@PEAVfms_config_item_t@@@2@@Z 000000018001fb30 f i fms_config.obj
 0001:0001eb30       ?_Kfn@?$_Tree@V?$_Tset_traits@PEAVobject_t@@U?$less@PEAVobject_t@@@std@@V?$allocator@PEAVobject_t@@@3@$0A@@std@@@std@@IEBAAEBQEAVobject_t@@AEBQEAV3@@Z 000000018001fb30 f i data.obj
 0001:0001eb30       ?_Kfn@?$_Tree@V?$_Tmap_traits@HV?$basic_string@DU?$char_traits@D@std@@V?$allocator@D@2@@std@@U?$less@H@2@V?$allocator@U?$pair@$$CBHV?$basic_string@DU?$char_traits@D@std@@V?$allocator@D@2@@std@@@std@@@2@$0A@@std@@@std@@IEBAAEBHAEBU?$pair@$$CBHV?$basic_string@DU?$char_traits@D@std@@V?$allocator@D@2@@std@@@2@@Z 000000018001fb30 f i out_saitek.obj
 0001:0001eb30       ?_Kfn@?$_Tree@V?$_Tmap_traits@V?$basic_string@DU?$char_traits@D@std@@V?$allocator@D@2@@std@@V12@U?$less@V?$basic_string@DU?$char_traits@D@std@@V?$allocator@D@2@@std@@@2@V?$allocator@U?$pair@$$CBV?$basic_string@DU?$char_traits@D@std@@V?$allocator@D@2@@std@@V12@@std@@@2@$0A@@std@@@std@@IEBAAEBV?$basic_string@DU?$char_traits@D@std@@V?$allocator@D@2@@2@AEBU?$pair@$$CBV?$basic_string@DU?$char_traits@D@std@@V?$allocator@D@2@@std@@V12@@2@@Z 000000018001fb30 f i tools.obj
 0001:0001eb30       ?_Kfn@?$_Tree@V?$_Tmap_traits@V?$basic_string@DU?$char_traits@D@std@@V?$allocator@D@2@@std@@PEAVfms_fp_item_t@@U?$less@V?$basic_string@DU?$char_traits@D@std@@V?$allocator@D@2@@std@@@2@V?$allocator@U?$pair@$$CBV?$basic_string@DU?$char_traits@D@std@@V?$allocator@D@2@@std@@PEAVfms_fp_item_t@@@std@@@2@$0A@@std@@@std@@IEBAAEBV?$basic_string@DU?$char_traits@D@std@@V?$allocator@D@2@@2@AEBU?$pair@$$CBV?$basic_string@DU?$char_traits@D@std@@V?$allocator@D@2@@std@@PEAVfms_fp_item_t@@@2@@Z 000000018001fb30 f i fms_fp.obj
 0001:0001eb30       ?_Kfn@?$_Tree@V?$_Tset_traits@PEAVlistener_t@@U?$less@PEAVlistener_t@@@std@@V?$allocator@PEAVlistener_t@@@3@$0A@@std@@@std@@IEBAAEBQEAVlistener_t@@AEBQEAV3@@Z 000000018001fb30 f i data.obj
 0001:0001eb30       ?_Kfn@?$_Tree@V?$_Tmap_traits@V?$basic_string@DU?$char_traits@D@std@@V?$allocator@D@2@@std@@DU?$less@V?$basic_string@DU?$char_traits@D@std@@V?$allocator@D@2@@std@@@2@V?$allocator@U?$pair@$$CBV?$basic_string@DU?$char_traits@D@std@@V?$allocator@D@2@@std@@D@std@@@2@$0A@@std@@@std@@IEBAAEBV?$basic_string@DU?$char_traits@D@std@@V?$allocator@D@2@@2@AEBU?$pair@$$CBV?$basic_string@DU?$char_traits@D@std@@V?$allocator@D@2@@std@@D@2@@Z 000000018001fb30 f i mfdpage.obj
 0001:0001eb30       ?_Kfn@?$_Tree@V?$_Tmap_traits@HPEAVfms_fp_item_t@@U?$less@H@std@@V?$allocator@U?$pair@$$CBHPEAVfms_fp_item_t@@@std@@@3@$0A@@std@@@std@@IEBAAEBHAEBU?$pair@$$CBHPEAVfms_fp_item_t@@@2@@Z 000000018001fb30 f i mfdpage_fms.obj
 0001:0001eb30       ?_Kfn@?$_Tree@V?$_Tmap_traits@V?$basic_string@DU?$char_traits@D@std@@V?$allocator@D@2@@std@@MU?$less@V?$basic_string@DU?$char_traits@D@std@@V?$allocator@D@2@@std@@@2@V?$allocator@U?$pair@$$CBV?$basic_string@DU?$char_traits@D@std@@V?$allocator@D@2@@std@@M@std@@@2@$0A@@std@@@std@@IEBAAEBV?$basic_string@DU?$char_traits@D@std@@V?$allocator@D@2@@2@AEBU?$pair@$$CBV?$basic_string@DU?$char_traits@D@std@@V?$allocator@D@2@@std@@M@2@@Z 000000018001fb30 f i mfdpage_fms.obj
 0001:0001eb30       ?_Kfn@?$_Tree@V?$_Tmap_traits@HMU?$less@H@std@@V?$allocator@U?$pair@$$CBHM@std@@@2@$0A@@std@@@std@@IEBAAEBHAEBU?$pair@$$CBHM@2@@Z 000000018001fb30 f i fms_config.obj
 0001:0001eb30       ?_Kfn@?$_Tree@V?$_Tmap_traits@HPEAVobject_t@@U?$less@H@std@@V?$allocator@U?$pair@$$CBHPEAVobject_t@@@std@@@3@$0A@@std@@@std@@IEBAAEBHAEBU?$pair@$$CBHPEAVobject_t@@@2@@Z 000000018001fb30 f i mfdpage.obj
 0001:0001eb30       ?_Kfn@?$_Tree@V?$_Tset_traits@PEAVmfdpage_t@@U?$less@PEAVmfdpage_t@@@std@@V?$allocator@PEAVmfdpage_t@@@3@$0A@@std@@@std@@IEBAAEBQEAVmfdpage_t@@AEBQEAV3@@Z 000000018001fb30 f i in.obj
 0001:0001eb30       ?_Kfn@?$_Tree@V?$_Tmap_traits@V?$basic_string@DU?$char_traits@D@std@@V?$allocator@D@2@@std@@HU?$less@V?$basic_string@DU?$char_traits@D@std@@V?$allocator@D@2@@std@@@2@V?$allocator@U?$pair@$$CBV?$basic_string@DU?$char_traits@D@std@@V?$allocator@D@2@@std@@H@std@@@2@$0A@@std@@@std@@IEBAAEBV?$basic_string@DU?$char_traits@D@std@@V?$allocator@D@2@@2@AEBU?$pair@$$CBV?$basic_string@DU?$char_traits@D@std@@V?$allocator@D@2@@std@@H@2@@Z 000000018001fb30 f i mfdpage.obj
 0001:0001eb50       ?_Mynode@?$_Tree_unchecked_const_iterator@V?$_Tree_val@U?$_Tree_simple_types@PEAVmfdpage_t@@@std@@@std@@U_Iterator_base0@2@@std@@QEBAPEAU?$_Tree_node@PEAVmfdpage_t@@PEAX@2@XZ 000000018001fb50 f i in.obj
 0001:0001eb50       ?_Mynode@?$_Tree_unchecked_const_iterator@V?$_Tree_val@U?$_Tree_simple_types@U?$pair@$$CBV?$basic_string@DU?$char_traits@D@std@@V?$allocator@D@2@@std@@PEAVfms_fp_item_t@@@std@@@std@@@std@@U_Iterator_base0@2@@std@@QEBAPEAU?$_Tree_node@U?$pair@$$CBV?$basic_string@DU?$char_traits@D@std@@V?$allocator@D@2@@std@@PEAVfms_fp_item_t@@@std@@PEAX@2@XZ 000000018001fb50 f i fms_fp.obj
 0001:0001eb50       ?_Mynode@?$_Tree_unchecked_const_iterator@V?$_Tree_val@U?$_Tree_simple_types@U?$pair@$$CBV?$basic_string@DU?$char_traits@D@std@@V?$allocator@D@2@@std@@D@std@@@std@@@std@@U_Iterator_base0@2@@std@@QEBAPEAU?$_Tree_node@U?$pair@$$CBV?$basic_string@DU?$char_traits@D@std@@V?$allocator@D@2@@std@@D@std@@PEAX@2@XZ 000000018001fb50 f i mfdpage.obj
 0001:0001eb50       ?_Unchecked@?$_String_iterator@V?$_String_val@U?$_Simple_types@D@std@@@std@@@std@@QEBAPEADXZ 000000018001fb50 f i mfdpage_led.obj
 0001:0001eb50       ?_Mynode@?$_Tree_unchecked_const_iterator@V?$_Tree_val@U?$_Tree_simple_types@U?$pair@$$CBHPEAVobject_t@@@std@@@std@@@std@@U_Iterator_base0@2@@std@@QEBAPEAU?$_Tree_node@U?$pair@$$CBHPEAVobject_t@@@std@@PEAX@2@XZ 000000018001fb50 f i mfdpage.obj
 0001:0001eb50       ?_Mynode@?$_Tree_unchecked_const_iterator@V?$_Tree_val@U?$_Tree_simple_types@U?$pair@$$CBHM@std@@@std@@@std@@U_Iterator_base0@2@@std@@QEBAPEAU?$_Tree_node@U?$pair@$$CBHM@std@@PEAX@2@XZ 000000018001fb50 f i fms_config.obj
 0001:0001eb50       ?_Mynode@?$_Tree_unchecked_const_iterator@V?$_Tree_val@U?$_Tree_simple_types@U?$pair@$$CBHPEAVfms_fp_item_t@@@std@@@std@@@std@@U_Iterator_base0@2@@std@@QEBAPEAU?$_Tree_node@U?$pair@$$CBHPEAVfms_fp_item_t@@@std@@PEAX@2@XZ 000000018001fb50 f i mfdpage_fms.obj
 0001:0001eb50       ?_Mynode@?$_Tree_unchecked_const_iterator@V?$_Tree_val@U?$_Tree_simple_types@U?$pair@$$CBHV?$basic_string@DU?$char_traits@D@std@@V?$allocator@D@2@@std@@@std@@@std@@@std@@U_Iterator_base0@2@@std@@QEBAPEAU?$_Tree_node@U?$pair@$$CBHV?$basic_string@DU?$char_traits@D@std@@V?$allocator@D@2@@std@@@std@@PEAX@2@XZ 000000018001fb50 f i out_saitek.obj
 0001:0001eb50       ?_Mynode@?$_Tree_unchecked_const_iterator@V?$_Tree_val@U?$_Tree_simple_types@U?$pair@$$CBV?$basic_string@DU?$char_traits@D@std@@V?$allocator@D@2@@std@@PEAVfms_config_item_t@@@std@@@std@@@std@@U_Iterator_base0@2@@std@@QEBAPEAU?$_Tree_node@U?$pair@$$CBV?$basic_string@DU?$char_traits@D@std@@V?$allocator@D@2@@std@@PEAVfms_config_item_t@@@std@@PEAX@2@XZ 000000018001fb50 f i fms_config.obj
 0001:0001eb50       ??D?$_String_const_iterator@V?$_String_val@U?$_Simple_types@D@std@@@std@@@std@@QEBAAEBDXZ 000000018001fb50 f i mfdpage.obj
 0001:0001eb50       ?_Mynode@?$_Tree_unchecked_const_iterator@V?$_Tree_val@U?$_Tree_simple_types@PEAVlistener_t@@@std@@@std@@U_Iterator_base0@2@@std@@QEBAPEAU?$_Tree_node@PEAVlistener_t@@PEAX@2@XZ 000000018001fb50 f i data.obj
 0001:0001eb50       ?_Mynode@?$_Tree_unchecked_const_iterator@V?$_Tree_val@U?$_Tree_simple_types@PEAVobject_t@@@std@@@std@@U_Iterator_base0@2@@std@@QEBAPEAU?$_Tree_node@PEAVobject_t@@PEAX@2@XZ 000000018001fb50 f i data.obj
 0001:0001eb50       ?_Mynode@?$_Tree_unchecked_const_iterator@V?$_Tree_val@U?$_Tree_simple_types@U?$pair@$$CBV?$basic_string@DU?$char_traits@D@std@@V?$allocator@D@2@@std@@H@std@@@std@@@std@@U_Iterator_base0@2@@std@@QEBAPEAU?$_Tree_node@U?$pair@$$CBV?$basic_string@DU?$char_traits@D@std@@V?$allocator@D@2@@std@@H@std@@PEAX@2@XZ 000000018001fb50 f i mfdpage.obj
 0001:0001eb50       ?_Mynode@?$_Tree_unchecked_const_iterator@V?$_Tree_val@U?$_Tree_simple_types@U?$pair@$$CBV?$basic_string@DU?$char_traits@D@std@@V?$allocator@D@2@@std@@V12@@std@@@std@@@std@@U_Iterator_base0@2@@std@@QEBAPEAU?$_Tree_node@U?$pair@$$CBV?$basic_string@DU?$char_traits@D@std@@V?$allocator@D@2@@std@@V12@@std@@PEAX@2@XZ 000000018001fb50 f i tools.obj
 0001:0001eb50       ?_Mynode@?$_Tree_unchecked_const_iterator@V?$_Tree_val@U?$_Tree_simple_types@U?$pair@$$CBV?$basic_string@DU?$char_traits@D@std@@V?$allocator@D@2@@std@@M@std@@@std@@@std@@U_Iterator_base0@2@@std@@QEBAPEAU?$_Tree_node@U?$pair@$$CBV?$basic_string@DU?$char_traits@D@std@@V?$allocator@D@2@@std@@M@std@@PEAX@2@XZ 000000018001fb50 f i mfdpage_fms.obj
 0001:0001eb60       ?_Parent@?$_Tree_val@U?$_Tree_simple_types@PEAVobject_t@@@std@@@std@@SAAEAPEAU?$_Tree_node@PEAVobject_t@@PEAX@2@PEAU32@@Z 000000018001fb60 f i data.obj
 0001:0001eb60       ?_Parent@?$_Tree_val@U?$_Tree_simple_types@U?$pair@$$CBV?$basic_string@DU?$char_traits@D@std@@V?$allocator@D@2@@std@@H@std@@@std@@@std@@SAAEAPEAU?$_Tree_node@U?$pair@$$CBV?$basic_string@DU?$char_traits@D@std@@V?$allocator@D@2@@std@@H@std@@PEAX@2@PEAU32@@Z 000000018001fb60 f i mfdpage.obj
 0001:0001eb60       ?_Parent@?$_Tree_val@U?$_Tree_simple_types@U?$pair@$$CBV?$basic_string@DU?$char_traits@D@std@@V?$allocator@D@2@@std@@PEAVfms_fp_item_t@@@std@@@std@@@std@@SAAEAPEAU?$_Tree_node@U?$pair@$$CBV?$basic_string@DU?$char_traits@D@std@@V?$allocator@D@2@@std@@PEAVfms_fp_item_t@@@std@@PEAX@2@PEAU32@@Z 000000018001fb60 f i fms_fp.obj
 0001:0001eb60       ?_Parent@?$_Tree_val@U?$_Tree_simple_types@U?$pair@$$CBV?$basic_string@DU?$char_traits@D@std@@V?$allocator@D@2@@std@@PEAVfms_config_item_t@@@std@@@std@@@std@@SAAEAPEAU?$_Tree_node@U?$pair@$$CBV?$basic_string@DU?$char_traits@D@std@@V?$allocator@D@2@@std@@PEAVfms_config_item_t@@@std@@PEAX@2@PEAU32@@Z 000000018001fb60 f i fms_config.obj
 0001:0001eb60       ?_Parent@?$_Tree_val@U?$_Tree_simple_types@PEAVmfdpage_t@@@std@@@std@@SAAEAPEAU?$_Tree_node@PEAVmfdpage_t@@PEAX@2@PEAU32@@Z 000000018001fb60 f i in.obj
 0001:0001eb60       ?_Parent@?$_Tree_val@U?$_Tree_simple_types@U?$pair@$$CBHPEAVobject_t@@@std@@@std@@@std@@SAAEAPEAU?$_Tree_node@U?$pair@$$CBHPEAVobject_t@@@std@@PEAX@2@PEAU32@@Z 000000018001fb60 f i mfdpage.obj
 0001:0001eb60       ?_Parent@?$_Tree_val@U?$_Tree_simple_types@U?$pair@$$CBHV?$basic_string@DU?$char_traits@D@std@@V?$allocator@D@2@@std@@@std@@@std@@@std@@SAAEAPEAU?$_Tree_node@U?$pair@$$CBHV?$basic_string@DU?$char_traits@D@std@@V?$allocator@D@2@@std@@@std@@PEAX@2@PEAU32@@Z 000000018001fb60 f i out_saitek.obj
 0001:0001eb60       ?_Parent@?$_Tree_val@U?$_Tree_simple_types@U?$pair@$$CBHM@std@@@std@@@std@@SAAEAPEAU?$_Tree_node@U?$pair@$$CBHM@std@@PEAX@2@PEAU32@@Z 000000018001fb60 f i fms_config.obj
 0001:0001eb60       ?_Parent@?$_Tree_val@U?$_Tree_simple_types@PEAVlistener_t@@@std@@@std@@SAAEAPEAU?$_Tree_node@PEAVlistener_t@@PEAX@2@PEAU32@@Z 000000018001fb60 f i data.obj
 0001:0001eb60       ?_Parent@?$_Tree_val@U?$_Tree_simple_types@U?$pair@$$CBV?$basic_string@DU?$char_traits@D@std@@V?$allocator@D@2@@std@@D@std@@@std@@@std@@SAAEAPEAU?$_Tree_node@U?$pair@$$CBV?$basic_string@DU?$char_traits@D@std@@V?$allocator@D@2@@std@@D@std@@PEAX@2@PEAU32@@Z 000000018001fb60 f i mfdpage.obj
 0001:0001eb60       ?_Parent@?$_Tree_val@U?$_Tree_simple_types@U?$pair@$$CBHPEAVfms_fp_item_t@@@std@@@std@@@std@@SAAEAPEAU?$_Tree_node@U?$pair@$$CBHPEAVfms_fp_item_t@@@std@@PEAX@2@PEAU32@@Z 000000018001fb60 f i mfdpage_fms.obj
 0001:0001eb60       ?_Parent@?$_Tree_val@U?$_Tree_simple_types@U?$pair@$$CBV?$basic_string@DU?$char_traits@D@std@@V?$allocator@D@2@@std@@M@std@@@std@@@std@@SAAEAPEAU?$_Tree_node@U?$pair@$$CBV?$basic_string@DU?$char_traits@D@std@@V?$allocator@D@2@@std@@M@std@@PEAX@2@PEAU32@@Z 000000018001fb60 f i mfdpage_fms.obj
 0001:0001eb60       ?_Parent@?$_Tree_val@U?$_Tree_simple_types@U?$pair@$$CBV?$basic_string@DU?$char_traits@D@std@@V?$allocator@D@2@@std@@V12@@std@@@std@@@std@@SAAEAPEAU?$_Tree_node@U?$pair@$$CBV?$basic_string@DU?$char_traits@D@std@@V?$allocator@D@2@@std@@V12@@std@@PEAX@2@PEAU32@@Z 000000018001fb60 f i tools.obj
 0001:0001eb70       ?_Right@?$_Tree_val@U?$_Tree_simple_types@U?$pair@$$CBHV?$basic_string@DU?$char_traits@D@std@@V?$allocator@D@2@@std@@@std@@@std@@@std@@SAAEAPEAU?$_Tree_node@U?$pair@$$CBHV?$basic_string@DU?$char_traits@D@std@@V?$allocator@D@2@@std@@@std@@PEAX@2@PEAU32@@Z 000000018001fb70 f i out_saitek.obj
 0001:0001eb70       ?_Right@?$_Tree_val@U?$_Tree_simple_types@U?$pair@$$CBV?$basic_string@DU?$char_traits@D@std@@V?$allocator@D@2@@std@@M@std@@@std@@@std@@SAAEAPEAU?$_Tree_node@U?$pair@$$CBV?$basic_string@DU?$char_traits@D@std@@V?$allocator@D@2@@std@@M@std@@PEAX@2@PEAU32@@Z 000000018001fb70 f i mfdpage_fms.obj
 0001:0001eb70       ?_Right@?$_Tree_val@U?$_Tree_simple_types@U?$pair@$$CBV?$basic_string@DU?$char_traits@D@std@@V?$allocator@D@2@@std@@V12@@std@@@std@@@std@@SAAEAPEAU?$_Tree_node@U?$pair@$$CBV?$basic_string@DU?$char_traits@D@std@@V?$allocator@D@2@@std@@V12@@std@@PEAX@2@PEAU32@@Z 000000018001fb70 f i tools.obj
 0001:0001eb70       ?_Right@?$_Tree_val@U?$_Tree_simple_types@PEAVmfdpage_t@@@std@@@std@@SAAEAPEAU?$_Tree_node@PEAVmfdpage_t@@PEAX@2@PEAU32@@Z 000000018001fb70 f i in.obj
 0001:0001eb70       ?_Right@?$_Tree_val@U?$_Tree_simple_types@U?$pair@$$CBHPEAVobject_t@@@std@@@std@@@std@@SAAEAPEAU?$_Tree_node@U?$pair@$$CBHPEAVobject_t@@@std@@PEAX@2@PEAU32@@Z 000000018001fb70 f i mfdpage.obj
 0001:0001eb70       ?_Right@?$_Tree_val@U?$_Tree_simple_types@U?$pair@$$CBV?$basic_string@DU?$char_traits@D@std@@V?$allocator@D@2@@std@@H@std@@@std@@@std@@SAAEAPEAU?$_Tree_node@U?$pair@$$CBV?$basic_string@DU?$char_traits@D@std@@V?$allocator@D@2@@std@@H@std@@PEAX@2@PEAU32@@Z 000000018001fb70 f i mfdpage.obj
 0001:0001eb70       ?_Right@?$_Tree_val@U?$_Tree_simple_types@PEAVobject_t@@@std@@@std@@SAAEAPEAU?$_Tree_node@PEAVobject_t@@PEAX@2@PEAU32@@Z 000000018001fb70 f i data.obj
 0001:0001eb70       ?_Right@?$_Tree_val@U?$_Tree_simple_types@U?$pair@$$CBHM@std@@@std@@@std@@SAAEAPEAU?$_Tree_node@U?$pair@$$CBHM@std@@PEAX@2@PEAU32@@Z 000000018001fb70 f i fms_config.obj
 0001:0001eb70       ?_Right@?$_Tree_val@U?$_Tree_simple_types@U?$pair@$$CBHPEAVfms_fp_item_t@@@std@@@std@@@std@@SAAEAPEAU?$_Tree_node@U?$pair@$$CBHPEAVfms_fp_item_t@@@std@@PEAX@2@PEAU32@@Z 000000018001fb70 f i mfdpage_fms.obj
 0001:0001eb70       ?_Right@?$_Tree_val@U?$_Tree_simple_types@U?$pair@$$CBV?$basic_string@DU?$char_traits@D@std@@V?$allocator@D@2@@std@@PEAVfms_config_item_t@@@std@@@std@@@std@@SAAEAPEAU?$_Tree_node@U?$pair@$$CBV?$basic_string@DU?$char_traits@D@std@@V?$allocator@D@2@@std@@PEAVfms_config_item_t@@@std@@PEAX@2@PEAU32@@Z 000000018001fb70 f i fms_config.obj
 0001:0001eb70       ?_Right@?$_Tree_val@U?$_Tree_simple_types@U?$pair@$$CBV?$basic_string@DU?$char_traits@D@std@@V?$allocator@D@2@@std@@D@std@@@std@@@std@@SAAEAPEAU?$_Tree_node@U?$pair@$$CBV?$basic_string@DU?$char_traits@D@std@@V?$allocator@D@2@@std@@D@std@@PEAX@2@PEAU32@@Z 000000018001fb70 f i mfdpage.obj
 0001:0001eb70       ?_Right@?$_Tree_val@U?$_Tree_simple_types@U?$pair@$$CBV?$basic_string@DU?$char_traits@D@std@@V?$allocator@D@2@@std@@PEAVfms_fp_item_t@@@std@@@std@@@std@@SAAEAPEAU?$_Tree_node@U?$pair@$$CBV?$basic_string@DU?$char_traits@D@std@@V?$allocator@D@2@@std@@PEAVfms_fp_item_t@@@std@@PEAX@2@PEAU32@@Z 000000018001fb70 f i fms_fp.obj
 0001:0001eb70       ?_Right@?$_Tree_val@U?$_Tree_simple_types@PEAVlistener_t@@@std@@@std@@SAAEAPEAU?$_Tree_node@PEAVlistener_t@@PEAX@2@PEAU32@@Z 000000018001fb70 f i data.obj
 0001:0001eb80       ?allocate@?$_Wrap_alloc@V?$allocator@U?$_Tree_node@U?$pair@$$CBHPEAVobject_t@@@std@@PEAX@std@@@std@@@std@@QEAAPEAU?$_Tree_node@U?$pair@$$CBHPEAVobject_t@@@std@@PEAX@2@_K@Z 000000018001fb80 f i mfdpage.obj
 0001:0001eb80       ?allocate@?$_Wrap_alloc@V?$allocator@U?$_Tree_node@U?$pair@$$CBHPEAVfms_fp_item_t@@@std@@PEAX@std@@@std@@@std@@QEAAPEAU?$_Tree_node@U?$pair@$$CBHPEAVfms_fp_item_t@@@std@@PEAX@2@_K@Z 000000018001fb80 f i mfdpage_fms.obj
 0001:0001ebb0       ?allocate@?$allocator@U?$_Tree_node@U?$pair@$$CBHPEAVfms_fp_item_t@@@std@@PEAX@std@@@std@@QEAAPEAU?$_Tree_node@U?$pair@$$CBHPEAVfms_fp_item_t@@@std@@PEAX@2@_K@Z 000000018001fbb0 f i mfdpage_fms.obj
 0001:0001ebb0       ?allocate@?$allocator@U?$_Tree_node@U?$pair@$$CBHPEAVobject_t@@@std@@PEAX@std@@@std@@QEAAPEAU?$_Tree_node@U?$pair@$$CBHPEAVobject_t@@@std@@PEAX@2@_K@Z 000000018001fbb0 f i mfdpage.obj
 0001:0001ebd0       ?max_size@?$_Tree@V?$_Tmap_traits@HPEAVfms_fp_item_t@@U?$less@H@std@@V?$allocator@U?$pair@$$CBHPEAVfms_fp_item_t@@@std@@@3@$0A@@std@@@std@@QEBA_KXZ 000000018001fbd0 f i mfdpage_fms.obj
 0001:0001ebd0       ?max_size@?$_Tree@V?$_Tmap_traits@HPEAVobject_t@@U?$less@H@std@@V?$allocator@U?$pair@$$CBHPEAVobject_t@@@std@@@3@$0A@@std@@@std@@QEBA_KXZ 000000018001fbd0 f i mfdpage.obj
 0001:0001ec00       ?max_size@?$allocator_traits@V?$allocator@U?$_Tree_node@U?$pair@$$CBHPEAVfms_fp_item_t@@@std@@PEAX@std@@@std@@@std@@SA_KAEBV?$allocator@U?$_Tree_node@U?$pair@$$CBHPEAVfms_fp_item_t@@@std@@PEAX@std@@@2@@Z 000000018001fc00 f i mfdpage_fms.obj
 0001:0001ec00       ?max_size@?$allocator_traits@V?$allocator@U?$_Tree_node@U?$pair@$$CBHPEAVobject_t@@@std@@PEAX@std@@@std@@@std@@SA_KAEBV?$allocator@U?$_Tree_node@U?$pair@$$CBHPEAVobject_t@@@std@@PEAX@std@@@2@@Z 000000018001fc00 f i mfdpage.obj
 0001:0001ec20       ?max_size@?$allocator_traits@V?$allocator@U?$_Tree_node@U?$pair@$$CBV?$basic_string@DU?$char_traits@D@std@@V?$allocator@D@2@@std@@PEAVfms_config_item_t@@@std@@PEAX@std@@@std@@@std@@SA_KAEBV?$allocator@U?$_Tree_node@U?$pair@$$CBV?$basic_string@DU?$char_traits@D@std@@V?$allocator@D@2@@std@@PEAVfms_config_item_t@@@std@@PEAX@std@@@2@@Z 000000018001fc20 f i fms_config.obj
 0001:0001ec20       ?max_size@?$allocator_traits@V?$allocator@U?$_Tree_node@U?$pair@$$CBV?$basic_string@DU?$char_traits@D@std@@V?$allocator@D@2@@std@@M@std@@PEAX@std@@@std@@@std@@SA_KAEBV?$allocator@U?$_Tree_node@U?$pair@$$CBV?$basic_string@DU?$char_traits@D@std@@V?$allocator@D@2@@std@@M@std@@PEAX@std@@@2@@Z 000000018001fc20 f i mfdpage_fms.obj
 0001:0001ec20       ?max_size@?$allocator_traits@V?$allocator@U?$_Tree_node@U?$pair@$$CBV?$basic_string@DU?$char_traits@D@std@@V?$allocator@D@2@@std@@D@std@@PEAX@std@@@std@@@std@@SA_KAEBV?$allocator@U?$_Tree_node@U?$pair@$$CBV?$basic_string@DU?$char_traits@D@std@@V?$allocator@D@2@@std@@D@std@@PEAX@std@@@2@@Z 000000018001fc20 f i mfdpage.obj
 0001:0001ec20       ?max_size@?$allocator_traits@V?$allocator@U?$_Tree_node@U?$pair@$$CBV?$basic_string@DU?$char_traits@D@std@@V?$allocator@D@2@@std@@PEAVfms_fp_item_t@@@std@@PEAX@std@@@std@@@std@@SA_KAEBV?$allocator@U?$_Tree_node@U?$pair@$$CBV?$basic_string@DU?$char_traits@D@std@@V?$allocator@D@2@@std@@PEAVfms_fp_item_t@@@std@@PEAX@std@@@2@@Z 000000018001fc20 f i fms_fp.obj
 0001:0001ec20       ?max_size@?$allocator_traits@V?$allocator@U?$_Tree_node@U?$pair@$$CBV?$basic_string@DU?$char_traits@D@std@@V?$allocator@D@2@@std@@H@std@@PEAX@std@@@std@@@std@@SA_KAEBV?$allocator@U?$_Tree_node@U?$pair@$$CBV?$basic_string@DU?$char_traits@D@std@@V?$allocator@D@2@@std@@H@std@@PEAX@std@@@2@@Z 000000018001fc20 f i mfdpage.obj
 0001:0001ec20       ?max_size@?$allocator_traits@V?$allocator@U?$_Tree_node@U?$pair@$$CBHV?$basic_string@DU?$char_traits@D@std@@V?$allocator@D@2@@std@@@std@@PEAX@std@@@std@@@std@@SA_KAEBV?$allocator@U?$_Tree_node@U?$pair@$$CBHV?$basic_string@DU?$char_traits@D@std@@V?$allocator@D@2@@std@@@std@@PEAX@std@@@2@@Z 000000018001fc20 f i out_saitek.obj
 0001:0001ec40       ??0mfdpage_flight_t@@QEAA@V?$basic_string@DU?$char_traits@D@std@@V?$allocator@D@2@@std@@@Z 000000018001fc40 f   mfdpage_flight.obj
 0001:0001ecc0       ?get_template@mfdpage_flight_t@@UEAA?AV?$basic_string@DU?$char_traits@D@std@@V?$allocator@D@2@@std@@V23@AEAV?$map@HV?$basic_string@DU?$char_traits@D@std@@V?$allocator@D@2@@std@@U?$less@H@2@V?$allocator@U?$pair@$$CBHV?$basic_string@DU?$char_traits@D@std@@V?$allocator@D@2@@std@@@std@@@2@@3@@Z 000000018001fcc0 f   mfdpage_flight.obj
 0001:0001f470       ?do_refresh@mfdpage_flight_t@@UEAAXPEAVobject_t@@@Z 0000000180020470 f   mfdpage_flight.obj
 0001:0001f490       ?refresh_interval@mfdpage_flight_t@@UEAAHV?$basic_string@DU?$char_traits@D@std@@V?$allocator@D@2@@std@@@Z 0000000180020490 f   mfdpage_flight.obj
 0001:0001f4c0       ?refresh_template@mfdpage_flight_t@@UEAA?AV?$basic_string@DU?$char_traits@D@std@@V?$allocator@D@2@@std@@V23@V?$map@HPEAVobject_t@@U?$less@H@std@@V?$allocator@U?$pair@$$CBHPEAVobject_t@@@std@@@3@@3@0@Z 00000001800204c0 f   mfdpage_flight.obj
 0001:0001fe50       ?fabs@@YAMM@Z              0000000180020e50 f i mfdpage_flight.obj
 0001:0001fe70       ?find@?$basic_string@DU?$char_traits@D@std@@V?$allocator@D@2@@std@@QEBA_KD_K@Z 0000000180020e70 f i mfdpage_flight.obj
 0001:0001feb0       ?replace@?$basic_string@DU?$char_traits@D@std@@V?$allocator@D@2@@std@@QEAAAEAV12@_K0PEBD@Z 0000000180020eb0 f i mfdpage_flight.obj
 0001:0001ff00       fabsf                      0000000180020f00 f i mfdpage_flight.obj
 0001:0001ff60       ??0mfdpage_time_t@@QEAA@V?$basic_string@DU?$char_traits@D@std@@V?$allocator@D@2@@std@@@Z 0000000180020f60 f   mfdpage_time.obj
 0001:00020010       ?get_template@mfdpage_time_t@@UEAA?AV?$basic_string@DU?$char_traits@D@std@@V?$allocator@D@2@@std@@V23@AEAV?$map@HV?$basic_string@DU?$char_traits@D@std@@V?$allocator@D@2@@std@@U?$less@H@2@V?$allocator@U?$pair@$$CBHV?$basic_string@DU?$char_traits@D@std@@V?$allocator@D@2@@std@@@std@@@2@@3@@Z 0000000180021010 f   mfdpage_time.obj
 0001:00020080       ?do_refresh@mfdpage_time_t@@UEAAXPEAVobject_t@@@Z 0000000180021080 f   mfdpage_time.obj
 0001:000200f0       ?refresh_interval@mfdpage_time_t@@UEAAHV?$basic_string@DU?$char_traits@D@std@@V?$allocator@D@2@@std@@@Z 00000001800210f0 f   mfdpage_time.obj
 0001:00020120       ?refresh_template@mfdpage_time_t@@UEAA?AV?$basic_string@DU?$char_traits@D@std@@V?$allocator@D@2@@std@@V23@V?$map@HPEAVobject_t@@U?$less@H@std@@V?$allocator@U?$pair@$$CBHPEAVobject_t@@@std@@@3@@3@0@Z 0000000180021120 f   mfdpage_time.obj
 0001:000203b0       ??0mfdpage_weather_t@@QEAA@V?$basic_string@DU?$char_traits@D@std@@V?$allocator@D@2@@std@@@Z 00000001800213b0 f   mfdpage_weather.obj
 0001:00020430       ?get_template@mfdpage_weather_t@@UEAA?AV?$basic_string@DU?$char_traits@D@std@@V?$allocator@D@2@@std@@V23@AEAV?$map@HV?$basic_string@DU?$char_traits@D@std@@V?$allocator@D@2@@std@@U?$less@H@2@V?$allocator@U?$pair@$$CBHV?$basic_string@DU?$char_traits@D@std@@V?$allocator@D@2@@std@@@std@@@2@@3@@Z 0000000180021430 f   mfdpage_weather.obj
 0001:00020bf0       ?do_refresh@mfdpage_weather_t@@UEAAXPEAVobject_t@@@Z 0000000180021bf0 f   mfdpage_weather.obj
 0001:00020c10       ?refresh_interval@mfdpage_weather_t@@UEAAHV?$basic_string@DU?$char_traits@D@std@@V?$allocator@D@2@@std@@@Z 0000000180021c10 f   mfdpage_weather.obj
 0001:00020c40       ?refresh_template@mfdpage_weather_t@@UEAA?AV?$basic_string@DU?$char_traits@D@std@@V?$allocator@D@2@@std@@V23@V?$map@HPEAVobject_t@@U?$less@H@std@@V?$allocator@U?$pair@$$CBHPEAVobject_t@@@std@@@3@@3@0@Z 0000000180021c40 f   mfdpage_weather.obj
 0001:00021470       ??0mfdpage_std_t@@QEAA@V?$basic_string@DU?$char_traits@D@std@@V?$allocator@D@2@@std@@@Z 0000000180022470 f   mfdpage_std.obj
 0001:000214f0       ?get_template@mfdpage_std_t@@UEAA?AV?$basic_string@DU?$char_traits@D@std@@V?$allocator@D@2@@std@@V23@AEAV?$map@HV?$basic_string@DU?$char_traits@D@std@@V?$allocator@D@2@@std@@U?$less@H@2@V?$allocator@U?$pair@$$CBHV?$basic_string@DU?$char_traits@D@std@@V?$allocator@D@2@@std@@@std@@@2@@3@@Z 00000001800224f0 f   mfdpage_std.obj
 0001:00021990       ?do_refresh@mfdpage_std_t@@UEAAXPEAVobject_t@@@Z 0000000180022990 f   mfdpage_std.obj
 0001:000219b0       ?refresh_interval@mfdpage_std_t@@UEAAHV?$basic_string@DU?$char_traits@D@std@@V?$allocator@D@2@@std@@@Z 00000001800229b0 f   mfdpage_std.obj
 0001:00021a40       ?refresh_template@mfdpage_std_t@@UEAA?AV?$basic_string@DU?$char_traits@D@std@@V?$allocator@D@2@@std@@V23@V?$map@HPEAVobject_t@@U?$less@H@std@@V?$allocator@U?$pair@$$CBHPEAVobject_t@@@std@@@3@@3@0@Z 0000000180022a40 f   mfdpage_std.obj
 0001:00021e20       ??0mfdpage_led_t@@QEAA@V?$basic_string@DU?$char_traits@D@std@@V?$allocator@D@2@@std@@@Z 0000000180022e20 f   mfdpage_led.obj
 0001:00021eb0       ??0mfdpage_led_t@@QEAA@V?$basic_string@DU?$char_traits@D@std@@V?$allocator@D@2@@std@@PEAVout_t@@@Z 0000000180022eb0 f   mfdpage_led.obj
 0001:00021f50       ?get_template@mfdpage_led_t@@UEAA?AV?$basic_string@DU?$char_traits@D@std@@V?$allocator@D@2@@std@@V23@AEAV?$map@HV?$basic_string@DU?$char_traits@D@std@@V?$allocator@D@2@@std@@U?$less@H@2@V?$allocator@U?$pair@$$CBHV?$basic_string@DU?$char_traits@D@std@@V?$allocator@D@2@@std@@@std@@@2@@3@@Z 0000000180022f50 f   mfdpage_led.obj
 0001:000225b0       ?do_refresh@mfdpage_led_t@@UEAAXPEAVobject_t@@@Z 00000001800235b0 f   mfdpage_led.obj
 0001:00022e70       ?refresh_interval@mfdpage_led_t@@UEAAHV?$basic_string@DU?$char_traits@D@std@@V?$allocator@D@2@@std@@@Z 0000000180023e70 f   mfdpage_led.obj
 0001:00022ea0       ?refresh_template@mfdpage_led_t@@UEAA?AV?$basic_string@DU?$char_traits@D@std@@V?$allocator@D@2@@std@@V23@V?$map@HPEAVobject_t@@U?$less@H@std@@V?$allocator@U?$pair@$$CBHPEAVobject_t@@@std@@@3@@3@0@Z 0000000180023ea0 f   mfdpage_led.obj
 0001:00022f00       ?set_led_by_name@mfdpage_led_t@@AEAAXHPEBDH0ZZ 0000000180023f00 f   mfdpage_led.obj
 0001:00023910       ??$?0V?$basic_string@DU?$char_traits@D@std@@V?$allocator@D@2@@std@@V01@X@?$pair@$$CBV?$basic_string@DU?$char_traits@D@std@@V?$allocator@D@2@@std@@V12@@std@@QEAA@$$QEAV?$basic_string@DU?$char_traits@D@std@@V?$allocator@D@2@@1@0@Z 0000000180024910 f i mfdpage_led.obj
 0001:00023960       ??$_Buynode@V?$basic_string@DU?$char_traits@D@std@@V?$allocator@D@2@@std@@V12@@?$_Tree_buy@U?$pair@$$CBV?$basic_string@DU?$char_traits@D@std@@V?$allocator@D@2@@std@@V12@@std@@V?$allocator@U?$pair@$$CBV?$basic_string@DU?$char_traits@D@std@@V?$allocator@D@2@@std@@V12@@std@@@2@@std@@QEAAPEAU?$_Tree_node@U?$pair@$$CBV?$basic_string@DU?$char_traits@D@std@@V?$allocator@D@2@@std@@V12@@std@@PEAX@1@$$QEAV?$basic_string@DU?$char_traits@D@std@@V?$allocator@D@2@@1@0@Z 0000000180024960 f i mfdpage_led.obj
 0001:00023a20       ??$_Copy@U?$integral_constant@_N$00@std@@@?$_Tree@V?$_Tmap_traits@V?$basic_string@DU?$char_traits@D@std@@V?$allocator@D@2@@std@@V12@U?$less@V?$basic_string@DU?$char_traits@D@std@@V?$allocator@D@2@@std@@@2@V?$allocator@U?$pair@$$CBV?$basic_string@DU?$char_traits@D@std@@V?$allocator@D@2@@std@@V12@@std@@@2@$0A@@std@@@std@@IEAAXAEBV01@U?$integral_constant@_N$00@1@@Z 0000000180024a20 f i mfdpage_led.obj
 0001:00023b20       ??$_Copy_nodes@U?$integral_constant@_N$00@std@@@?$_Tree@V?$_Tmap_traits@V?$basic_string@DU?$char_traits@D@std@@V?$allocator@D@2@@std@@V12@U?$less@V?$basic_string@DU?$char_traits@D@std@@V?$allocator@D@2@@std@@@2@V?$allocator@U?$pair@$$CBV?$basic_string@DU?$char_traits@D@std@@V?$allocator@D@2@@std@@V12@@std@@@2@$0A@@std@@@std@@IEAAPEAU?$_Tree_node@U?$pair@$$CBV?$basic_string@DU?$char_traits@D@std@@V?$allocator@D@2@@std@@V12@@std@@PEAX@1@PEAU21@0U?$integral_constant@_N$00@1@@Z 0000000180024b20 f i mfdpage_led.obj
 0001:00023c80       ??$_Copy_or_move@H@?$_Tree@V?$_Tmap_traits@V?$basic_string@DU?$char_traits@D@std@@V?$allocator@D@2@@std@@V12@U?$less@V?$basic_string@DU?$char_traits@D@std@@V?$allocator@D@2@@std@@@2@V?$allocator@U?$pair@$$CBV?$basic_string@DU?$char_traits@D@std@@V?$allocator@D@2@@std@@V12@@std@@@2@$0A@@std@@@std@@IEAAPEAU?$_Tree_node@U?$pair@$$CBV?$basic_string@DU?$char_traits@D@std@@V?$allocator@D@2@@std@@V12@@std@@PEAX@1@PEAU21@U?$integral_constant@_N$00@1@1U?$integral_constant@_N$0A@@1@H@Z 0000000180024c80 f i mfdpage_led.obj
 0001:00023ce0       ??$_Swap_adl@PEAU?$_Tree_node@U?$pair@$$CBV?$basic_string@DU?$char_traits@D@std@@V?$allocator@D@2@@std@@V12@@std@@PEAX@std@@@std@@YAXAEAPEAU?$_Tree_node@U?$pair@$$CBV?$basic_string@DU?$char_traits@D@std@@V?$allocator@D@2@@std@@V12@@std@@PEAX@0@0@Z 0000000180024ce0 f i mfdpage_led.obj
 0001:00023d10       ??$_Transform@PEADV?$_String_iterator@V?$_String_val@U?$_Simple_types@D@std@@@std@@@std@@P6AHH@Z@std@@YA?AV?$_String_iterator@V?$_String_val@U?$_Simple_types@D@std@@@std@@@0@PEAD0V10@P6AHH@Z@Z 0000000180024d10 f i mfdpage_led.obj
 0001:00023d90       ??$_Unchecked@V?$_String_val@U?$_Simple_types@D@std@@@std@@@std@@YAPEADV?$_String_iterator@V?$_String_val@U?$_Simple_types@D@std@@@std@@@0@@Z 0000000180024d90 f i mfdpage_led.obj
 0001:00023db0       ??$construct@U?$pair@$$CBV?$basic_string@DU?$char_traits@D@std@@V?$allocator@D@2@@std@@V12@@std@@V?$basic_string@DU?$char_traits@D@std@@V?$allocator@D@2@@2@V32@@?$_Wrap_alloc@V?$allocator@U?$_Tree_node@U?$pair@$$CBV?$basic_string@DU?$char_traits@D@std@@V?$allocator@D@2@@std@@V12@@std@@PEAX@std@@@std@@@std@@QEAAXPEAU?$pair@$$CBV?$basic_string@DU?$char_traits@D@std@@V?$allocator@D@2@@std@@V12@@1@$$QEAV?$basic_string@DU?$char_traits@D@std@@V?$allocator@D@2@@1@1@Z 0000000180024db0 f i mfdpage_led.obj
 0001:00023e00       ??$construct@U?$pair@$$CBV?$basic_string@DU?$char_traits@D@std@@V?$allocator@D@2@@std@@V12@@std@@V?$basic_string@DU?$char_traits@D@std@@V?$allocator@D@2@@2@V32@@?$allocator@U?$_Tree_node@U?$pair@$$CBV?$basic_string@DU?$char_traits@D@std@@V?$allocator@D@2@@std@@V12@@std@@PEAX@std@@@std@@QEAAXPEAU?$pair@$$CBV?$basic_string@DU?$char_traits@D@std@@V?$allocator@D@2@@std@@V12@@1@$$QEAV?$basic_string@DU?$char_traits@D@std@@V?$allocator@D@2@@1@1@Z 0000000180024e00 f i mfdpage_led.obj
 0001:00023e80       ??$construct@U?$pair@$$CBV?$basic_string@DU?$char_traits@D@std@@V?$allocator@D@2@@std@@V12@@std@@V?$basic_string@DU?$char_traits@D@std@@V?$allocator@D@2@@2@V32@@?$allocator_traits@V?$allocator@U?$_Tree_node@U?$pair@$$CBV?$basic_string@DU?$char_traits@D@std@@V?$allocator@D@2@@std@@V12@@std@@PEAX@std@@@std@@@std@@SAXAEAV?$allocator@U?$_Tree_node@U?$pair@$$CBV?$basic_string@DU?$char_traits@D@std@@V?$allocator@D@2@@std@@V12@@std@@PEAX@std@@@1@PEAU?$pair@$$CBV?$basic_string@DU?$char_traits@D@std@@V?$allocator@D@2@@std@@V12@@1@$$QEAV?$basic_string@DU?$char_traits@D@std@@V?$allocator@D@2@@1@2@Z 0000000180024e80 f i mfdpage_led.obj
 0001:00023ed0       ??$swap@_K@std@@YAXAEA_K0@Z 0000000180024ed0 f i mfdpage_led.obj
 0001:00023ed0       ??$swap@PEAU?$_Tree_node@U?$pair@$$CBV?$basic_string@DU?$char_traits@D@std@@V?$allocator@D@2@@std@@V12@@std@@PEAX@std@@@std@@YAXAEAPEAU?$_Tree_node@U?$pair@$$CBV?$basic_string@DU?$char_traits@D@std@@V?$allocator@D@2@@std@@V12@@std@@PEAX@0@0@Z 0000000180024ed0 f i mfdpage_led.obj
 0001:00023f20       ??$transform@V?$_String_iterator@V?$_String_val@U?$_Simple_types@D@std@@@std@@@std@@V12@P6AHH@Z@std@@YA?AV?$_String_iterator@V?$_String_val@U?$_Simple_types@D@std@@@std@@@0@V10@00P6AHH@Z@Z 0000000180024f20 f i mfdpage_led.obj
 0001:00023fb0       ??0?$_Tree@V?$_Tmap_traits@V?$basic_string@DU?$char_traits@D@std@@V?$allocator@D@2@@std@@V12@U?$less@V?$basic_string@DU?$char_traits@D@std@@V?$allocator@D@2@@std@@@2@V?$allocator@U?$pair@$$CBV?$basic_string@DU?$char_traits@D@std@@V?$allocator@D@2@@std@@V12@@std@@@2@$0A@@std@@@std@@QEAA@AEBU?$less@V?$basic_string@DU?$char_traits@D@std@@V?$allocator@D@2@@std@@@1@AEBV?$allocator@U?$pair@$$CBV?$basic_string@DU?$char_traits@D@std@@V?$allocator@D@2@@std@@V12@@std@@@1@@Z 0000000180024fb0 f i mfdpage_led.obj
 0001:00023ff0       ??0?$_Tree_alloc@$0A@U?$_Tree_base_types@U?$pair@$$CBV?$basic_string@DU?$char_traits@D@std@@V?$allocator@D@2@@std@@V12@@std@@V?$allocator@U?$pair@$$CBV?$basic_string@DU?$char_traits@D@std@@V?$allocator@D@2@@std@@V12@@std@@@2@@std@@@std@@QEAA@AEBV?$allocator@U?$pair@$$CBV?$basic_string@DU?$char_traits@D@std@@V?$allocator@D@2@@std@@V12@@std@@@1@@Z 0000000180024ff0 f i mfdpage_led.obj
 0001:00024030       ??0?$_Tree_buy@U?$pair@$$CBV?$basic_string@DU?$char_traits@D@std@@V?$allocator@D@2@@std@@V12@@std@@V?$allocator@U?$pair@$$CBV?$basic_string@DU?$char_traits@D@std@@V?$allocator@D@2@@std@@V12@@std@@@2@@std@@QEAA@AEBV?$allocator@U?$pair@$$CBV?$basic_string@DU?$char_traits@D@std@@V?$allocator@D@2@@std@@V12@@std@@@1@@Z 0000000180025030 f i mfdpage_led.obj
 0001:00024060       ??0?$_Tree_comp@$0A@V?$_Tmap_traits@V?$basic_string@DU?$char_traits@D@std@@V?$allocator@D@2@@std@@V12@U?$less@V?$basic_string@DU?$char_traits@D@std@@V?$allocator@D@2@@std@@@2@V?$allocator@U?$pair@$$CBV?$basic_string@DU?$char_traits@D@std@@V?$allocator@D@2@@std@@V12@@std@@@2@$0A@@std@@@std@@QEAA@AEBU?$less@V?$basic_string@DU?$char_traits@D@std@@V?$allocator@D@2@@std@@@1@AEBV?$allocator@U?$pair@$$CBV?$basic_string@DU?$char_traits@D@std@@V?$allocator@D@2@@std@@V12@@std@@@1@@Z 0000000180025060 f i mfdpage_led.obj
 0001:00024090       ??0?$basic_string@DU?$char_traits@D@std@@V?$allocator@D@2@@std@@QEAA@AEBV01@_K1AEBV?$allocator@D@1@@Z 0000000180025090 f i mfdpage_led.obj
 0001:000240f0       ??0?$map@V?$basic_string@DU?$char_traits@D@std@@V?$allocator@D@2@@std@@V12@U?$less@V?$basic_string@DU?$char_traits@D@std@@V?$allocator@D@2@@std@@@2@V?$allocator@U?$pair@$$CBV?$basic_string@DU?$char_traits@D@std@@V?$allocator@D@2@@std@@V12@@std@@@2@@std@@QEAA@XZ 00000001800250f0 f i mfdpage_led.obj
 0001:00024120       ??4?$_Tree@V?$_Tmap_traits@V?$basic_string@DU?$char_traits@D@std@@V?$allocator@D@2@@std@@V12@U?$less@V?$basic_string@DU?$char_traits@D@std@@V?$allocator@D@2@@std@@@2@V?$allocator@U?$pair@$$CBV?$basic_string@DU?$char_traits@D@std@@V?$allocator@D@2@@std@@V12@@std@@@2@$0A@@std@@@std@@QEAAAEAV01@$$QEAV01@@Z 0000000180025120 f i mfdpage_led.obj
 0001:00024190       ??4?$map@V?$basic_string@DU?$char_traits@D@std@@V?$allocator@D@2@@std@@V12@U?$less@V?$basic_string@DU?$char_traits@D@std@@V?$allocator@D@2@@std@@@2@V?$allocator@U?$pair@$$CBV?$basic_string@DU?$char_traits@D@std@@V?$allocator@D@2@@std@@V12@@std@@@2@@std@@QEAAAEAV01@$$QEAV01@@Z 0000000180025190 f i mfdpage_led.obj
 0001:000241c0       ??9?$_String_const_iterator@V?$_String_val@U?$_Simple_types@D@std@@@std@@@std@@QEBA_NAEBV01@@Z 00000001800251c0 f i mfdpage_led.obj
 0001:00024200       ??E?$_String_const_iterator@V?$_String_val@U?$_Simple_types@D@std@@@std@@@std@@QEAAAEAV01@XZ 0000000180025200 f i mfdpage_led.obj
 0001:00024220       ??E?$_String_iterator@V?$_String_val@U?$_Simple_types@D@std@@@std@@@std@@QEAAAEAV01@XZ 0000000180025220 f i mfdpage_led.obj
 0001:00024240       ??Y?$basic_string@DU?$char_traits@D@std@@V?$allocator@D@2@@std@@QEAAAEAV01@PEBD@Z 0000000180025240 f i mfdpage_led.obj
 0001:00024270       ?_Assign_rv@?$_Tree@V?$_Tmap_traits@V?$basic_string@DU?$char_traits@D@std@@V?$allocator@D@2@@std@@V12@U?$less@V?$basic_string@DU?$char_traits@D@std@@V?$allocator@D@2@@std@@@2@V?$allocator@U?$pair@$$CBV?$basic_string@DU?$char_traits@D@std@@V?$allocator@D@2@@std@@V12@@std@@@2@$0A@@std@@@std@@QEAAX$$QEAV12@@Z 0000000180025270 f i mfdpage_led.obj
 0001:000242c0       ?_Assign_rv@?$_Tree@V?$_Tmap_traits@V?$basic_string@DU?$char_traits@D@std@@V?$allocator@D@2@@std@@V12@U?$less@V?$basic_string@DU?$char_traits@D@std@@V?$allocator@D@2@@std@@@2@V?$allocator@U?$pair@$$CBV?$basic_string@DU?$char_traits@D@std@@V?$allocator@D@2@@std@@V12@@std@@@2@$0A@@std@@@std@@QEAAX$$QEAV12@U?$integral_constant@_N$00@2@@Z 00000001800252c0 f i mfdpage_led.obj
 0001:00024330       ?_Assign_rv@?$_Tree@V?$_Tmap_traits@V?$basic_string@DU?$char_traits@D@std@@V?$allocator@D@2@@std@@V12@U?$less@V?$basic_string@DU?$char_traits@D@std@@V?$allocator@D@2@@std@@@2@V?$allocator@U?$pair@$$CBV?$basic_string@DU?$char_traits@D@std@@V?$allocator@D@2@@std@@V12@@std@@@2@$0A@@std@@@std@@QEAAX$$QEAV12@U?$integral_constant@_N$0A@@2@@Z 0000000180025330 f i mfdpage_led.obj
 0001:000243e0       ?_Buyheadnode@?$_Tree_alloc@$0A@U?$_Tree_base_types@U?$pair@$$CBV?$basic_string@DU?$char_traits@D@std@@V?$allocator@D@2@@std@@V12@@std@@V?$allocator@U?$pair@$$CBV?$basic_string@DU?$char_traits@D@std@@V?$allocator@D@2@@std@@V12@@std@@@2@@std@@@std@@QEAAPEAU?$_Tree_node@U?$pair@$$CBV?$basic_string@DU?$char_traits@D@std@@V?$allocator@D@2@@std@@V12@@std@@PEAX@2@XZ 00000001800253e0 f i mfdpage_led.obj
 0001:000244f0       ?append@?$basic_string@DU?$char_traits@D@std@@V?$allocator@D@2@@std@@QEAAAEAV12@AEBV12@_K1@Z 00000001800254f0 f i mfdpage_led.obj
 0001:00024600       ?append@?$basic_string@DU?$char_traits@D@std@@V?$allocator@D@2@@std@@QEAAAEAV12@PEBD@Z 0000000180025600 f i mfdpage_led.obj
 0001:00024630       ?append@?$basic_string@DU?$char_traits@D@std@@V?$allocator@D@2@@std@@QEAAAEAV12@PEBD_K@Z 0000000180025630 f i mfdpage_led.obj
 0001:00024730       ?get_allocator@?$_Tree@V?$_Tmap_traits@V?$basic_string@DU?$char_traits@D@std@@V?$allocator@D@2@@std@@V12@U?$less@V?$basic_string@DU?$char_traits@D@std@@V?$allocator@D@2@@std@@@2@V?$allocator@U?$pair@$$CBV?$basic_string@DU?$char_traits@D@std@@V?$allocator@D@2@@std@@V12@@std@@@2@$0A@@std@@@std@@QEBA?AV?$allocator@U?$pair@$$CBV?$basic_string@DU?$char_traits@D@std@@V?$allocator@D@2@@std@@V12@@std@@@2@XZ 0000000180025730 f i mfdpage_led.obj
 0001:00024730       ?get_allocator@?$basic_string@DU?$char_traits@D@std@@V?$allocator@D@2@@std@@QEBA?AV?$allocator@D@2@XZ 0000000180025730 f i data.obj
 0001:00024770       ?substr@?$basic_string@DU?$char_traits@D@std@@V?$allocator@D@2@@std@@QEBA?AV12@_K0@Z 0000000180025770 f i mfdpage_led.obj
 0001:000247c0       ??0fms_t@@QEAA@XZ          00000001800257c0 f   fms.obj
 0001:00024810       ??1fms_t@@QEAA@XZ          0000000180025810 f   fms.obj
 0001:00024900       ?refresh@fms_t@@QEAAXXZ    0000000180025900 f   fms.obj
 0001:00024b20       ?reset@fms_t@@QEAAXXZ      0000000180025b20 f   fms.obj
 0001:00024c60       ?load@fms_t@@QEAAXXZ       0000000180025c60 f   fms.obj
 0001:00024cc0       ?displayed_index@fms_t@@QEAAHXZ 0000000180025cc0 f   fms.obj
 0001:00024d20       ?entry_name@fms_t@@QEAA?AV?$basic_string@DU?$char_traits@D@std@@V?$allocator@D@2@@std@@H@Z 0000000180025d20 f   fms.obj
 0001:00024dc0       ?entry_type@fms_t@@QEAA?AV?$basic_string@DU?$char_traits@D@std@@V?$allocator@D@2@@std@@H@Z 0000000180025dc0 f   fms.obj
 0001:00024e60       ?distance_to_entry@fms_t@@QEAAMH@Z 0000000180025e60 f   fms.obj
 0001:00024fb0       ?remaining_distance_from_entry@fms_t@@QEAAMH@Z 0000000180025fb0 f   fms.obj
 0001:00025040       ?minutes_to_entry@fms_t@@QEAAMH@Z 0000000180026040 f   fms.obj
 0001:000251c0       ?time_to_entry@fms_t@@QEAA?AV?$basic_string@DU?$char_traits@D@std@@V?$allocator@D@2@@std@@H@Z 00000001800261c0 f   fms.obj
 0001:00025220       ?eta_to_entry@fms_t@@QEAA?AV?$basic_string@DU?$char_traits@D@std@@V?$allocator@D@2@@std@@HM@Z 0000000180026220 f   fms.obj
 0001:00025300       ?remaining_distance@fms_t@@QEAAMXZ 0000000180026300 f   fms.obj
 0001:00025330       ?remaining_time@fms_t@@QEAAMXZ 0000000180026330 f   fms.obj
 0001:00025360       ?flying_index@fms_t@@QEAAHXZ 0000000180026360 f   fms.obj
 0001:000253d0       ?percentage@fms_t@@QEAAMXZ 00000001800263d0 f   fms.obj
 0001:00025490       ?check_takeoff@fms_t@@QEAAXM@Z 0000000180026490 f   fms.obj
 0001:00025960       ?check_landing@fms_t@@QEAAXM@Z 0000000180026960 f   fms.obj
 0001:00025fa0       ?check_position@fms_t@@QEAAXXZ 0000000180026fa0 f   fms.obj
 0001:00026c90       ?check_gate_departure@fms_t@@QEAAXM@Z 0000000180027c90 f   fms.obj
 0001:000271a0       ?check_gate_arrival@fms_t@@QEAAXXZ 00000001800281a0 f   fms.obj
 0001:00027480       ?distance_to_current@fms_t@@AEAAMXZ 0000000180028480 f   fms.obj
 0001:000274f0       ?speed_to_current@fms_t@@AEAAMXZ 00000001800284f0 f   fms.obj
 0001:00027560       ?time_to_current@fms_t@@AEAAMXZ 0000000180028560 f   fms.obj
 0001:00027630       ??$?9DU?$char_traits@D@std@@V?$allocator@D@1@@std@@YA_NAEBV?$basic_string@DU?$char_traits@D@std@@V?$allocator@D@2@@0@PEBD@Z 0000000180028630 f i fms.obj
 0001:00027670       ??_Gfms_config_t@@QEAAPEAXI@Z 0000000180028670 f i fms.obj
 0001:000276b0       ??_Gfms_fp_t@@QEAAPEAXI@Z  00000001800286b0 f i fms.obj
 0001:000276f0       ??_Gfms_fuel_t@@QEAAPEAXI@Z 00000001800286f0 f i fms.obj
 0001:00027730       ??0fms_config_t@@QEAA@XZ   0000000180028730 f   fms_config.obj
 0001:000277b0       ??1fms_config_t@@QEAA@XZ   00000001800287b0 f   fms_config.obj
 0001:00027810       ?load@fms_config_t@@QEAAXXZ 0000000180028810 f   fms_config.obj
 0001:00027890       ?value_from_profile@fms_config_t@@QEAAMV?$basic_string@DU?$char_traits@D@std@@V?$allocator@D@2@@std@@H@Z 0000000180028890 f   fms_config.obj
 0001:00027b30       ?load_config@fms_config_t@@AEAAXXZ 0000000180028b30 f   fms_config.obj
 0001:00028250       ?load_profiles@fms_config_t@@AEAAXXZ 0000000180029250 f   fms_config.obj
 0001:00028560       ?load_profile@fms_config_t@@AEAAXV?$basic_string@DU?$char_traits@D@std@@V?$allocator@D@2@@std@@@Z 0000000180029560 f   fms_config.obj
 0001:00028800       ?reverse_profile@fms_config_t@@AEAAXV?$basic_string@DU?$char_traits@D@std@@V?$allocator@D@2@@std@@0@Z 0000000180029800 f   fms_config.obj
 0001:00028a10       ?combine_profile@fms_config_t@@AEAAXV?$basic_string@DU?$char_traits@D@std@@V?$allocator@D@2@@std@@00@Z 0000000180029a10 f   fms_config.obj
 0001:00028cf0       ?calculate_climb_desc@fms_config_t@@AEAAXXZ 0000000180029cf0 f   fms_config.obj
 0001:000290f0       ??0fms_config_item_t@@QEAA@XZ 000000018002a0f0 f   fms_config.obj
 0001:00029120       ??$?0AEBH$$$V@?$pair@$$CBHM@std@@QEAA@Upiecewise_construct_t@1@V?$tuple@AEBH@1@V?$tuple@$$$V@1@@Z 000000018002a120 f i fms_config.obj
 0001:00029190       ??$?0AEBV?$basic_string@DU?$char_traits@D@std@@V?$allocator@D@2@@std@@$$$V@?$pair@$$CBV?$basic_string@DU?$char_traits@D@std@@V?$allocator@D@2@@std@@PEAVfms_config_item_t@@@std@@QEAA@Upiecewise_construct_t@1@V?$tuple@AEBV?$basic_string@DU?$char_traits@D@std@@V?$allocator@D@2@@std@@@1@V?$tuple@$$$V@1@@Z 000000018002a190 f i fms_config.obj
 0001:00029190       ??$?0AEBV?$basic_string@DU?$char_traits@D@std@@V?$allocator@D@2@@std@@$$$V@?$pair@$$CBV?$basic_string@DU?$char_traits@D@std@@V?$allocator@D@2@@std@@PEAVfms_fp_item_t@@@std@@QEAA@Upiecewise_construct_t@1@V?$tuple@AEBV?$basic_string@DU?$char_traits@D@std@@V?$allocator@D@2@@std@@@1@V?$tuple@$$$V@1@@Z 000000018002a190 f i fms_fp.obj
 0001:00029200       ??$?0V?$tuple@AEBH@std@@V?$tuple@$$$V@1@$0A@$S@?$pair@$$CBHM@std@@QEAA@AEAV?$tuple@AEBH@1@AEAV?$tuple@$$$V@1@U?$_Arg_idx@$0A@@1@U?$_Arg_idx@$S@1@@Z 000000018002a200 f i fms_config.obj
 0001:00029250       ??$?0V?$tuple@AEBV?$basic_string@DU?$char_traits@D@std@@V?$allocator@D@2@@std@@@std@@V?$tuple@$$$V@1@$0A@$S@?$pair@$$CBV?$basic_string@DU?$char_traits@D@std@@V?$allocator@D@2@@std@@PEAVfms_config_item_t@@@std@@QEAA@AEAV?$tuple@AEBV?$basic_string@DU?$char_traits@D@std@@V?$allocator@D@2@@std@@@1@AEAV?$tuple@$$$V@1@U?$_Arg_idx@$0A@@1@U?$_Arg_idx@$S@1@@Z 000000018002a250 f i fms_config.obj
 0001:00029250       ??$?0V?$tuple@AEBV?$basic_string@DU?$char_traits@D@std@@V?$allocator@D@2@@std@@@std@@V?$tuple@$$$V@1@$0A@$S@?$pair@$$CBV?$basic_string@DU?$char_traits@D@std@@V?$allocator@D@2@@std@@PEAVfms_fp_item_t@@@std@@QEAA@AEAV?$tuple@AEBV?$basic_string@DU?$char_traits@D@std@@V?$allocator@D@2@@std@@@1@AEAV?$tuple@$$$V@1@U?$_Arg_idx@$0A@@1@U?$_Arg_idx@$S@1@@Z 000000018002a250 f i fms_fp.obj
 0001:000292a0       ??$_Buynode@AEBUpiecewise_construct_t@std@@V?$tuple@AEBH@2@V?$tuple@$$$V@2@@?$_Tree_buy@U?$pair@$$CBHM@std@@V?$allocator@U?$pair@$$CBHM@std@@@2@@std@@QEAAPEAU?$_Tree_node@U?$pair@$$CBHM@std@@PEAX@1@AEBUpiecewise_construct_t@1@$$QEAV?$tuple@AEBH@1@$$QEAV?$tuple@$$$V@1@@Z 000000018002a2a0 f i fms_config.obj
 0001:00029390       ??$_Buynode@AEBUpiecewise_construct_t@std@@V?$tuple@AEBV?$basic_string@DU?$char_traits@D@std@@V?$allocator@D@2@@std@@@2@V?$tuple@$$$V@2@@?$_Tree_buy@U?$pair@$$CBV?$basic_string@DU?$char_traits@D@std@@V?$allocator@D@2@@std@@PEAVfms_config_item_t@@@std@@V?$allocator@U?$pair@$$CBV?$basic_string@DU?$char_traits@D@std@@V?$allocator@D@2@@std@@PEAVfms_config_item_t@@@std@@@2@@std@@QEAAPEAU?$_Tree_node@U?$pair@$$CBV?$basic_string@DU?$char_traits@D@std@@V?$allocator@D@2@@std@@PEAVfms_config_item_t@@@std@@PEAX@1@AEBUpiecewise_construct_t@1@$$QEAV?$tuple@AEBV?$basic_string@DU?$char_traits@D@std@@V?$allocator@D@2@@std@@@1@$$QEAV?$tuple@$$$V@1@@Z 000000018002a390 f i fms_config.obj
 0001:00029480       ??$_Insert_at@AEAU?$pair@$$CBHM@std@@PEAU?$_Tree_node@U?$pair@$$CBHM@std@@PEAX@2@@?$_Tree@V?$_Tmap_traits@HMU?$less@H@std@@V?$allocator@U?$pair@$$CBHM@std@@@2@$0A@@std@@@std@@IEAA?AV?$_Tree_iterator@V?$_Tree_val@U?$_Tree_simple_types@U?$pair@$$CBHM@std@@@std@@@std@@@1@_NPEAU?$_Tree_node@U?$pair@$$CBHM@std@@PEAX@1@AEAU?$pair@$$CBHM@1@1@Z 000000018002a480 f i fms_config.obj
 0001:000298b0       ??$_Insert_at@AEAU?$pair@$$CBV?$basic_string@DU?$char_traits@D@std@@V?$allocator@D@2@@std@@D@std@@PEAU?$_Tree_node@U?$pair@$$CBV?$basic_string@DU?$char_traits@D@std@@V?$allocator@D@2@@std@@D@std@@PEAX@2@@?$_Tree@V?$_Tmap_traits@V?$basic_string@DU?$char_traits@D@std@@V?$allocator@D@2@@std@@DU?$less@V?$basic_string@DU?$char_traits@D@std@@V?$allocator@D@2@@std@@@2@V?$allocator@U?$pair@$$CBV?$basic_string@DU?$char_traits@D@std@@V?$allocator@D@2@@std@@D@std@@@2@$0A@@std@@@std@@IEAA?AV?$_Tree_iterator@V?$_Tree_val@U?$_Tree_simple_types@U?$pair@$$CBV?$basic_string@DU?$char_traits@D@std@@V?$allocator@D@2@@std@@D@std@@@std@@@std@@@1@_NPEAU?$_Tree_node@U?$pair@$$CBV?$basic_string@DU?$char_traits@D@std@@V?$allocator@D@2@@std@@D@std@@PEAX@1@AEAU?$pair@$$CBV?$basic_string@DU?$char_traits@D@std@@V?$allocator@D@2@@std@@D@1@1@Z 000000018002a8b0 f i mfdpage.obj
 0001:000298b0       ??$_Insert_at@AEAU?$pair@$$CBV?$basic_string@DU?$char_traits@D@std@@V?$allocator@D@2@@std@@PEAVfms_config_item_t@@@std@@PEAU?$_Tree_node@U?$pair@$$CBV?$basic_string@DU?$char_traits@D@std@@V?$allocator@D@2@@std@@PEAVfms_config_item_t@@@std@@PEAX@2@@?$_Tree@V?$_Tmap_traits@V?$basic_string@DU?$char_traits@D@std@@V?$allocator@D@2@@std@@PEAVfms_config_item_t@@U?$less@V?$basic_string@DU?$char_traits@D@std@@V?$allocator@D@2@@std@@@2@V?$allocator@U?$pair@$$CBV?$basic_string@DU?$char_traits@D@std@@V?$allocator@D@2@@std@@PEAVfms_config_item_t@@@std@@@2@$0A@@std@@@std@@IEAA?AV?$_Tree_iterator@V?$_Tree_val@U?$_Tree_simple_types@U?$pair@$$CBV?$basic_string@DU?$char_traits@D@std@@V?$allocator@D@2@@std@@PEAVfms_config_item_t@@@std@@@std@@@std@@@1@_NPEAU?$_Tree_node@U?$pair@$$CBV?$basic_string@DU?$char_traits@D@std@@V?$allocator@D@2@@std@@PEAVfms_config_item_t@@@std@@PEAX@1@AEAU?$pair@$$CBV?$basic_string@DU?$char_traits@D@std@@V?$allocator@D@2@@std@@PEAVfms_config_item_t@@@1@1@Z 000000018002a8b0 f i fms_config.obj
 0001:000298b0       ??$_Insert_at@AEAU?$pair@$$CBV?$basic_string@DU?$char_traits@D@std@@V?$allocator@D@2@@std@@H@std@@PEAU?$_Tree_node@U?$pair@$$CBV?$basic_string@DU?$char_traits@D@std@@V?$allocator@D@2@@std@@H@std@@PEAX@2@@?$_Tree@V?$_Tmap_traits@V?$basic_string@DU?$char_traits@D@std@@V?$allocator@D@2@@std@@HU?$less@V?$basic_string@DU?$char_traits@D@std@@V?$allocator@D@2@@std@@@2@V?$allocator@U?$pair@$$CBV?$basic_string@DU?$char_traits@D@std@@V?$allocator@D@2@@std@@H@std@@@2@$0A@@std@@@std@@IEAA?AV?$_Tree_iterator@V?$_Tree_val@U?$_Tree_simple_types@U?$pair@$$CBV?$basic_string@DU?$char_traits@D@std@@V?$allocator@D@2@@std@@H@std@@@std@@@std@@@1@_NPEAU?$_Tree_node@U?$pair@$$CBV?$basic_string@DU?$char_traits@D@std@@V?$allocator@D@2@@std@@H@std@@PEAX@1@AEAU?$pair@$$CBV?$basic_string@DU?$char_traits@D@std@@V?$allocator@D@2@@std@@H@1@1@Z 000000018002a8b0 f i mfdpage.obj
 0001:000298b0       ??$_Insert_at@AEAU?$pair@$$CBV?$basic_string@DU?$char_traits@D@std@@V?$allocator@D@2@@std@@PEAVfms_fp_item_t@@@std@@PEAU?$_Tree_node@U?$pair@$$CBV?$basic_string@DU?$char_traits@D@std@@V?$allocator@D@2@@std@@PEAVfms_fp_item_t@@@std@@PEAX@2@@?$_Tree@V?$_Tmap_traits@V?$basic_string@DU?$char_traits@D@std@@V?$allocator@D@2@@std@@PEAVfms_fp_item_t@@U?$less@V?$basic_string@DU?$char_traits@D@std@@V?$allocator@D@2@@std@@@2@V?$allocator@U?$pair@$$CBV?$basic_string@DU?$char_traits@D@std@@V?$allocator@D@2@@std@@PEAVfms_fp_item_t@@@std@@@2@$0A@@std@@@std@@IEAA?AV?$_Tree_iterator@V?$_Tree_val@U?$_Tree_simple_types@U?$pair@$$CBV?$basic_string@DU?$char_traits@D@std@@V?$allocator@D@2@@std@@PEAVfms_fp_item_t@@@std@@@std@@@std@@@1@_NPEAU?$_Tree_node@U?$pair@$$CBV?$basic_string@DU?$char_traits@D@std@@V?$allocator@D@2@@std@@PEAVfms_fp_item_t@@@std@@PEAX@1@AEAU?$pair@$$CBV?$basic_string@DU?$char_traits@D@std@@V?$allocator@D@2@@std@@PEAVfms_fp_item_t@@@1@1@Z 000000018002a8b0 f i fms_fp.obj
 0001:000298b0       ??$_Insert_at@AEAU?$pair@$$CBV?$basic_string@DU?$char_traits@D@std@@V?$allocator@D@2@@std@@M@std@@PEAU?$_Tree_node@U?$pair@$$CBV?$basic_string@DU?$char_traits@D@std@@V?$allocator@D@2@@std@@M@std@@PEAX@2@@?$_Tree@V?$_Tmap_traits@V?$basic_string@DU?$char_traits@D@std@@V?$allocator@D@2@@std@@MU?$less@V?$basic_string@DU?$char_traits@D@std@@V?$allocator@D@2@@std@@@2@V?$allocator@U?$pair@$$CBV?$basic_string@DU?$char_traits@D@std@@V?$allocator@D@2@@std@@M@std@@@2@$0A@@std@@@std@@IEAA?AV?$_Tree_iterator@V?$_Tree_val@U?$_Tree_simple_types@U?$pair@$$CBV?$basic_string@DU?$char_traits@D@std@@V?$allocator@D@2@@std@@M@std@@@std@@@std@@@1@_NPEAU?$_Tree_node@U?$pair@$$CBV?$basic_string@DU?$char_traits@D@std@@V?$allocator@D@2@@std@@M@std@@PEAX@1@AEAU?$pair@$$CBV?$basic_string@DU?$char_traits@D@std@@V?$allocator@D@2@@std@@M@1@1@Z 000000018002a8b0 f i mfdpage_fms.obj
 0001:00029ce0       ??$_Insert_hint@AEAU?$pair@$$CBHM@std@@PEAU?$_Tree_node@U?$pair@$$CBHM@std@@PEAX@2@@?$_Tree@V?$_Tmap_traits@HMU?$less@H@std@@V?$allocator@U?$pair@$$CBHM@std@@@2@$0A@@std@@@std@@IEAA?AV?$_Tree_iterator@V?$_Tree_val@U?$_Tree_simple_types@U?$pair@$$CBHM@std@@@std@@@std@@@1@V?$_Tree_const_iterator@V?$_Tree_val@U?$_Tree_simple_types@U?$pair@$$CBHM@std@@@std@@@std@@@1@AEAU?$pair@$$CBHM@1@PEAU?$_Tree_node@U?$pair@$$CBHM@std@@PEAX@1@@Z 000000018002ace0 f i fms_config.obj
 0001:0002aa70       ??$_Insert_hint@AEAU?$pair@$$CBV?$basic_string@DU?$char_traits@D@std@@V?$allocator@D@2@@std@@PEAVfms_config_item_t@@@std@@PEAU?$_Tree_node@U?$pair@$$CBV?$basic_string@DU?$char_traits@D@std@@V?$allocator@D@2@@std@@PEAVfms_config_item_t@@@std@@PEAX@2@@?$_Tree@V?$_Tmap_traits@V?$basic_string@DU?$char_traits@D@std@@V?$allocator@D@2@@std@@PEAVfms_config_item_t@@U?$less@V?$basic_string@DU?$char_traits@D@std@@V?$allocator@D@2@@std@@@2@V?$allocator@U?$pair@$$CBV?$basic_string@DU?$char_traits@D@std@@V?$allocator@D@2@@std@@PEAVfms_config_item_t@@@std@@@2@$0A@@std@@@std@@IEAA?AV?$_Tree_iterator@V?$_Tree_val@U?$_Tree_simple_types@U?$pair@$$CBV?$basic_string@DU?$char_traits@D@std@@V?$allocator@D@2@@std@@PEAVfms_config_item_t@@@std@@@std@@@std@@@1@V?$_Tree_const_iterator@V?$_Tree_val@U?$_Tree_simple_types@U?$pair@$$CBV?$basic_string@DU?$char_traits@D@std@@V?$allocator@D@2@@std@@PEAVfms_config_item_t@@@std@@@std@@@std@@@1@AEAU?$pair@$$CBV?$basic_string@DU?$char_traits@D@std@@V?$allocator@D@2@@std@@PEAVfms_config_item_t@@@1@PEAU?$_Tree_node@U?$pair@$$CBV?$basic_string@DU?$char_traits@D@std@@V?$allocator@D@2@@std@@PEAVfms_config_item_t@@@std@@PEAX@1@@Z 000000018002ba70 f i fms_config.obj
 0001:0002b800       ??$_Insert_nohint@AEAU?$pair@$$CBHM@std@@PEAU?$_Tree_node@U?$pair@$$CBHM@std@@PEAX@2@@?$_Tree@V?$_Tmap_traits@HMU?$less@H@std@@V?$allocator@U?$pair@$$CBHM@std@@@2@$0A@@std@@@std@@IEAA?AU?$pair@V?$_Tree_iterator@V?$_Tree_val@U?$_Tree_simple_types@U?$pair@$$CBHM@std@@@std@@@std@@@std@@_N@1@_NAEAU?$pair@$$CBHM@1@PEAU?$_Tree_node@U?$pair@$$CBHM@std@@PEAX@1@@Z 000000018002c800 f i fms_config.obj
 0001:0002bbf0       ??$_Insert_nohint@AEAU?$pair@$$CBV?$basic_string@DU?$char_traits@D@std@@V?$allocator@D@2@@std@@PEAVfms_config_item_t@@@std@@PEAU?$_Tree_node@U?$pair@$$CBV?$basic_string@DU?$char_traits@D@std@@V?$allocator@D@2@@std@@PEAVfms_config_item_t@@@std@@PEAX@2@@?$_Tree@V?$_Tmap_traits@V?$basic_string@DU?$char_traits@D@std@@V?$allocator@D@2@@std@@PEAVfms_config_item_t@@U?$less@V?$basic_string@DU?$char_traits@D@std@@V?$allocator@D@2@@std@@@2@V?$allocator@U?$pair@$$CBV?$basic_string@DU?$char_traits@D@std@@V?$allocator@D@2@@std@@PEAVfms_config_item_t@@@std@@@2@$0A@@std@@@std@@IEAA?AU?$pair@V?$_Tree_iterator@V?$_Tree_val@U?$_Tree_simple_types@U?$pair@$$CBV?$basic_string@DU?$char_traits@D@std@@V?$allocator@D@2@@std@@PEAVfms_config_item_t@@@std@@@std@@@std@@@std@@_N@1@_NAEAU?$pair@$$CBV?$basic_string@DU?$char_traits@D@std@@V?$allocator@D@2@@std@@PEAVfms_config_item_t@@@1@PEAU?$_Tree_node@U?$pair@$$CBV?$basic_string@DU?$char_traits@D@std@@V?$allocator@D@2@@std@@PEAVfms_config_item_t@@@std@@PEAX@1@@Z 000000018002cbf0 f i fms_config.obj
 0001:0002bfe0       ??$construct@U?$pair@$$CBHM@std@@AEBUpiecewise_construct_t@2@V?$tuple@AEBH@2@V?$tuple@$$$V@2@@?$_Wrap_alloc@V?$allocator@U?$_Tree_node@U?$pair@$$CBHM@std@@PEAX@std@@@std@@@std@@QEAAXPEAU?$pair@$$CBHM@1@AEBUpiecewise_construct_t@1@$$QEAV?$tuple@AEBH@1@$$QEAV?$tuple@$$$V@1@@Z 000000018002cfe0 f i fms_config.obj
 0001:0002c050       ??$construct@U?$pair@$$CBHM@std@@AEBUpiecewise_construct_t@2@V?$tuple@AEBH@2@V?$tuple@$$$V@2@@?$allocator@U?$_Tree_node@U?$pair@$$CBHM@std@@PEAX@std@@@std@@QEAAXPEAU?$pair@$$CBHM@1@AEBUpiecewise_construct_t@1@$$QEAV?$tuple@AEBH@1@$$QEAV?$tuple@$$$V@1@@Z 000000018002d050 f i fms_config.obj
 0001:0002c120       ??$construct@U?$pair@$$CBHM@std@@AEBUpiecewise_construct_t@2@V?$tuple@AEBH@2@V?$tuple@$$$V@2@@?$allocator_traits@V?$allocator@U?$_Tree_node@U?$pair@$$CBHM@std@@PEAX@std@@@std@@@std@@SAXAEAV?$allocator@U?$_Tree_node@U?$pair@$$CBHM@std@@PEAX@std@@@1@PEAU?$pair@$$CBHM@1@AEBUpiecewise_construct_t@1@$$QEAV?$tuple@AEBH@1@$$QEAV?$tuple@$$$V@1@@Z 000000018002d120 f i fms_config.obj
 0001:0002c190       ??$emplace_hint@AEBUpiecewise_construct_t@std@@V?$tuple@AEBH@2@V?$tuple@$$$V@2@@?$_Tree@V?$_Tmap_traits@HMU?$less@H@std@@V?$allocator@U?$pair@$$CBHM@std@@@2@$0A@@std@@@std@@QEAA?AV?$_Tree_iterator@V?$_Tree_val@U?$_Tree_simple_types@U?$pair@$$CBHM@std@@@std@@@std@@@1@V?$_Tree_const_iterator@V?$_Tree_val@U?$_Tree_simple_types@U?$pair@$$CBHM@std@@@std@@@std@@@1@AEBUpiecewise_construct_t@1@$$QEAV?$tuple@AEBH@1@$$QEAV?$tuple@$$$V@1@@Z 000000018002d190 f i fms_config.obj
 0001:0002c230       ??$emplace_hint@AEBUpiecewise_construct_t@std@@V?$tuple@AEBV?$basic_string@DU?$char_traits@D@std@@V?$allocator@D@2@@std@@@2@V?$tuple@$$$V@2@@?$_Tree@V?$_Tmap_traits@V?$basic_string@DU?$char_traits@D@std@@V?$allocator@D@2@@std@@PEAVfms_config_item_t@@U?$less@V?$basic_string@DU?$char_traits@D@std@@V?$allocator@D@2@@std@@@2@V?$allocator@U?$pair@$$CBV?$basic_string@DU?$char_traits@D@std@@V?$allocator@D@2@@std@@PEAVfms_config_item_t@@@std@@@2@$0A@@std@@@std@@QEAA?AV?$_Tree_iterator@V?$_Tree_val@U?$_Tree_simple_types@U?$pair@$$CBV?$basic_string@DU?$char_traits@D@std@@V?$allocator@D@2@@std@@PEAVfms_config_item_t@@@std@@@std@@@std@@@1@V?$_Tree_const_iterator@V?$_Tree_val@U?$_Tree_simple_types@U?$pair@$$CBV?$basic_string@DU?$char_traits@D@std@@V?$allocator@D@2@@std@@PEAVfms_config_item_t@@@std@@@std@@@std@@@1@AEBUpiecewise_construct_t@1@$$QEAV?$tuple@AEBV?$basic_string@DU?$char_traits@D@std@@V?$allocator@D@2@@std@@@1@$$QEAV?$tuple@$$$V@1@@Z 000000018002d230 f i fms_config.obj
 0001:0002c2d0       ??0?$_Tree@V?$_Tmap_traits@HMU?$less@H@std@@V?$allocator@U?$pair@$$CBHM@std@@@2@$0A@@std@@@std@@QEAA@AEBU?$less@H@1@AEBV?$allocator@U?$pair@$$CBHM@std@@@1@@Z 000000018002d2d0 f i fms_config.obj
 0001:0002c310       ??0?$_Tree@V?$_Tmap_traits@V?$basic_string@DU?$char_traits@D@std@@V?$allocator@D@2@@std@@MU?$less@V?$basic_string@DU?$char_traits@D@std@@V?$allocator@D@2@@std@@@2@V?$allocator@U?$pair@$$CBV?$basic_string@DU?$char_traits@D@std@@V?$allocator@D@2@@std@@M@std@@@2@$0A@@std@@@std@@QEAA@AEBU?$less@V?$basic_string@DU?$char_traits@D@std@@V?$allocator@D@2@@std@@@1@AEBV?$allocator@U?$pair@$$CBV?$basic_string@DU?$char_traits@D@std@@V?$allocator@D@2@@std@@M@std@@@1@@Z 000000018002d310 f i fms_config.obj
 0001:0002c350       ??0?$_Tree@V?$_Tmap_traits@V?$basic_string@DU?$char_traits@D@std@@V?$allocator@D@2@@std@@PEAVfms_config_item_t@@U?$less@V?$basic_string@DU?$char_traits@D@std@@V?$allocator@D@2@@std@@@2@V?$allocator@U?$pair@$$CBV?$basic_string@DU?$char_traits@D@std@@V?$allocator@D@2@@std@@PEAVfms_config_item_t@@@std@@@2@$0A@@std@@@std@@QEAA@AEBU?$less@V?$basic_string@DU?$char_traits@D@std@@V?$allocator@D@2@@std@@@1@AEBV?$allocator@U?$pair@$$CBV?$basic_string@DU?$char_traits@D@std@@V?$allocator@D@2@@std@@PEAVfms_config_item_t@@@std@@@1@@Z 000000018002d350 f i fms_config.obj
 0001:0002c390       ??0?$_Tree_alloc@$0A@U?$_Tree_base_types@U?$pair@$$CBHM@std@@V?$allocator@U?$pair@$$CBHM@std@@@2@@std@@@std@@QEAA@AEBV?$allocator@U?$pair@$$CBHM@std@@@1@@Z 000000018002d390 f i fms_config.obj
 0001:0002c3d0       ??0?$_Tree_alloc@$0A@U?$_Tree_base_types@U?$pair@$$CBV?$basic_string@DU?$char_traits@D@std@@V?$allocator@D@2@@std@@M@std@@V?$allocator@U?$pair@$$CBV?$basic_string@DU?$char_traits@D@std@@V?$allocator@D@2@@std@@M@std@@@2@@std@@@std@@QEAA@AEBV?$allocator@U?$pair@$$CBV?$basic_string@DU?$char_traits@D@std@@V?$allocator@D@2@@std@@M@std@@@1@@Z 000000018002d3d0 f i fms_config.obj
 0001:0002c410       ??0?$_Tree_alloc@$0A@U?$_Tree_base_types@U?$pair@$$CBV?$basic_string@DU?$char_traits@D@std@@V?$allocator@D@2@@std@@PEAVfms_config_item_t@@@std@@V?$allocator@U?$pair@$$CBV?$basic_string@DU?$char_traits@D@std@@V?$allocator@D@2@@std@@PEAVfms_config_item_t@@@std@@@2@@std@@@std@@QEAA@AEBV?$allocator@U?$pair@$$CBV?$basic_string@DU?$char_traits@D@std@@V?$allocator@D@2@@std@@PEAVfms_config_item_t@@@std@@@1@@Z 000000018002d410 f i fms_config.obj
 0001:0002c450       ??0?$_Tree_buy@U?$pair@$$CBHM@std@@V?$allocator@U?$pair@$$CBHM@std@@@2@@std@@QEAA@AEBV?$allocator@U?$pair@$$CBHM@std@@@1@@Z 000000018002d450 f i fms_config.obj
 0001:0002c480       ??0?$_Tree_buy@U?$pair@$$CBV?$basic_string@DU?$char_traits@D@std@@V?$allocator@D@2@@std@@M@std@@V?$allocator@U?$pair@$$CBV?$basic_string@DU?$char_traits@D@std@@V?$allocator@D@2@@std@@M@std@@@2@@std@@QEAA@AEBV?$allocator@U?$pair@$$CBV?$basic_string@DU?$char_traits@D@std@@V?$allocator@D@2@@std@@M@std@@@1@@Z 000000018002d480 f i fms_config.obj
 0001:0002c4b0       ??0?$_Tree_buy@U?$pair@$$CBV?$basic_string@DU?$char_traits@D@std@@V?$allocator@D@2@@std@@PEAVfms_config_item_t@@@std@@V?$allocator@U?$pair@$$CBV?$basic_string@DU?$char_traits@D@std@@V?$allocator@D@2@@std@@PEAVfms_config_item_t@@@std@@@2@@std@@QEAA@AEBV?$allocator@U?$pair@$$CBV?$basic_string@DU?$char_traits@D@std@@V?$allocator@D@2@@std@@PEAVfms_config_item_t@@@std@@@1@@Z 000000018002d4b0 f i fms_config.obj
 0001:0002c4e0       ??0?$_Tree_comp@$0A@V?$_Tmap_traits@HMU?$less@H@std@@V?$allocator@U?$pair@$$CBHM@std@@@2@$0A@@std@@@std@@QEAA@AEBU?$less@H@1@AEBV?$allocator@U?$pair@$$CBHM@std@@@1@@Z 000000018002d4e0 f i fms_config.obj
 0001:0002c510       ??0?$_Tree_comp@$0A@V?$_Tmap_traits@V?$basic_string@DU?$char_traits@D@std@@V?$allocator@D@2@@std@@MU?$less@V?$basic_string@DU?$char_traits@D@std@@V?$allocator@D@2@@std@@@2@V?$allocator@U?$pair@$$CBV?$basic_string@DU?$char_traits@D@std@@V?$allocator@D@2@@std@@M@std@@@2@$0A@@std@@@std@@QEAA@AEBU?$less@V?$basic_string@DU?$char_traits@D@std@@V?$allocator@D@2@@std@@@1@AEBV?$allocator@U?$pair@$$CBV?$basic_string@DU?$char_traits@D@std@@V?$allocator@D@2@@std@@M@std@@@1@@Z 000000018002d510 f i fms_config.obj
 0001:0002c540       ??0?$_Tree_comp@$0A@V?$_Tmap_traits@V?$basic_string@DU?$char_traits@D@std@@V?$allocator@D@2@@std@@PEAVfms_config_item_t@@U?$less@V?$basic_string@DU?$char_traits@D@std@@V?$allocator@D@2@@std@@@2@V?$allocator@U?$pair@$$CBV?$basic_string@DU?$char_traits@D@std@@V?$allocator@D@2@@std@@PEAVfms_config_item_t@@@std@@@2@$0A@@std@@@std@@QEAA@AEBU?$less@V?$basic_string@DU?$char_traits@D@std@@V?$allocator@D@2@@std@@@1@AEBV?$allocator@U?$pair@$$CBV?$basic_string@DU?$char_traits@D@std@@V?$allocator@D@2@@std@@PEAVfms_config_item_t@@@std@@@1@@Z 000000018002d540 f i fms_config.obj
 0001:0002c570       ??0?$_Tree_const_iterator@V?$_Tree_val@U?$_Tree_simple_types@U?$pair@$$CBV?$basic_string@DU?$char_traits@D@std@@V?$allocator@D@2@@std@@V12@@std@@@std@@@std@@@std@@QEAA@XZ 000000018002d570 f i tools.obj
 0001:0002c570       ??0?$_Tree_const_iterator@V?$_Tree_val@U?$_Tree_simple_types@U?$pair@$$CBHPEAVfms_fp_item_t@@@std@@@std@@@std@@@std@@QEAA@XZ 000000018002d570 f i mfdpage_fms.obj
 0001:0002c570       ??0?$_Tree_const_iterator@V?$_Tree_val@U?$_Tree_simple_types@U?$pair@$$CBHV?$basic_string@DU?$char_traits@D@std@@V?$allocator@D@2@@std@@@std@@@std@@@std@@@std@@QEAA@XZ 000000018002d570 f i out_saitek.obj
 0001:0002c570       ??0?$_Tree_const_iterator@V?$_Tree_val@U?$_Tree_simple_types@U?$pair@$$CBV?$basic_string@DU?$char_traits@D@std@@V?$allocator@D@2@@std@@M@std@@@std@@@std@@@std@@QEAA@XZ 000000018002d570 f i mfdpage_fms.obj
 0001:0002c570       ??0?$_Tree_const_iterator@V?$_Tree_val@U?$_Tree_simple_types@U?$pair@$$CBV?$basic_string@DU?$char_traits@D@std@@V?$allocator@D@2@@std@@H@std@@@std@@@std@@@std@@QEAA@XZ 000000018002d570 f i mfdpage.obj
 0001:0002c570       ??0?$_Tree_const_iterator@V?$_Tree_val@U?$_Tree_simple_types@U?$pair@$$CBHPEAVobject_t@@@std@@@std@@@std@@@std@@QEAA@XZ 000000018002d570 f i mfdpage.obj
 0001:0002c570       ??0?$_Tree_const_iterator@V?$_Tree_val@U?$_Tree_simple_types@U?$pair@$$CBV?$basic_string@DU?$char_traits@D@std@@V?$allocator@D@2@@std@@PEAVfms_config_item_t@@@std@@@std@@@std@@@std@@QEAA@XZ 000000018002d570 f i fms_config.obj
 0001:0002c570       ??0?$_Tree_const_iterator@V?$_Tree_val@U?$_Tree_simple_types@U?$pair@$$CBV?$basic_string@DU?$char_traits@D@std@@V?$allocator@D@2@@std@@PEAVfms_fp_item_t@@@std@@@std@@@std@@@std@@QEAA@XZ 000000018002d570 f i fms_fp.obj
 0001:0002c570       ??0?$_Tree_const_iterator@V?$_Tree_val@U?$_Tree_simple_types@U?$pair@$$CBHM@std@@@std@@@std@@@std@@QEAA@XZ 000000018002d570 f i fms_config.obj
 0001:0002c570       ??0?$_Tree_const_iterator@V?$_Tree_val@U?$_Tree_simple_types@U?$pair@$$CBV?$basic_string@DU?$char_traits@D@std@@V?$allocator@D@2@@std@@D@std@@@std@@@std@@@std@@QEAA@XZ 000000018002d570 f i mfdpage.obj
 0001:0002c590       ??0?$_Tree_iterator@V?$_Tree_val@U?$_Tree_simple_types@U?$pair@$$CBHM@std@@@std@@@std@@@std@@QEAA@PEAU?$_Tree_node@U?$pair@$$CBHM@std@@PEAX@1@PEBV?$_Tree_val@U?$_Tree_simple_types@U?$pair@$$CBHM@std@@@std@@@1@@Z 000000018002d590 f i fms_config.obj
 0001:0002c590       ??0?$_Tree_iterator@V?$_Tree_val@U?$_Tree_simple_types@U?$pair@$$CBV?$basic_string@DU?$char_traits@D@std@@V?$allocator@D@2@@std@@PEAVfms_config_item_t@@@std@@@std@@@std@@@std@@QEAA@PEAU?$_Tree_node@U?$pair@$$CBV?$basic_string@DU?$char_traits@D@std@@V?$allocator@D@2@@std@@PEAVfms_config_item_t@@@std@@PEAX@1@PEBV?$_Tree_val@U?$_Tree_simple_types@U?$pair@$$CBV?$basic_string@DU?$char_traits@D@std@@V?$allocator@D@2@@std@@PEAVfms_config_item_t@@@std@@@std@@@1@@Z 000000018002d590 f i fms_config.obj
 0001:0002c590       ??0?$_Tree_iterator@V?$_Tree_val@U?$_Tree_simple_types@U?$pair@$$CBHV?$basic_string@DU?$char_traits@D@std@@V?$allocator@D@2@@std@@@std@@@std@@@std@@@std@@QEAA@PEAU?$_Tree_node@U?$pair@$$CBHV?$basic_string@DU?$char_traits@D@std@@V?$allocator@D@2@@std@@@std@@PEAX@1@PEBV?$_Tree_val@U?$_Tree_simple_types@U?$pair@$$CBHV?$basic_string@DU?$char_traits@D@std@@V?$allocator@D@2@@std@@@std@@@std@@@1@@Z 000000018002d590 f i out_saitek.obj
 0001:0002c590       ??0?$_Tree_iterator@V?$_Tree_val@U?$_Tree_simple_types@U?$pair@$$CBV?$basic_string@DU?$char_traits@D@std@@V?$allocator@D@2@@std@@PEAVfms_fp_item_t@@@std@@@std@@@std@@@std@@QEAA@PEAU?$_Tree_node@U?$pair@$$CBV?$basic_string@DU?$char_traits@D@std@@V?$allocator@D@2@@std@@PEAVfms_fp_item_t@@@std@@PEAX@1@PEBV?$_Tree_val@U?$_Tree_simple_types@U?$pair@$$CBV?$basic_string@DU?$char_traits@D@std@@V?$allocator@D@2@@std@@PEAVfms_fp_item_t@@@std@@@std@@@1@@Z 000000018002d590 f i fms_fp.obj
 0001:0002c590       ??0?$_Tree_iterator@V?$_Tree_val@U?$_Tree_simple_types@U?$pair@$$CBV?$basic_string@DU?$char_traits@D@std@@V?$allocator@D@2@@std@@V12@@std@@@std@@@std@@@std@@QEAA@PEAU?$_Tree_node@U?$pair@$$CBV?$basic_string@DU?$char_traits@D@std@@V?$allocator@D@2@@std@@V12@@std@@PEAX@1@PEBV?$_Tree_val@U?$_Tree_simple_types@U?$pair@$$CBV?$basic_string@DU?$char_traits@D@std@@V?$allocator@D@2@@std@@V12@@std@@@std@@@1@@Z 000000018002d590 f i tools.obj
 0001:0002c590       ??0?$_Tree_iterator@V?$_Tree_val@U?$_Tree_simple_types@U?$pair@$$CBV?$basic_string@DU?$char_traits@D@std@@V?$allocator@D@2@@std@@D@std@@@std@@@std@@@std@@QEAA@PEAU?$_Tree_node@U?$pair@$$CBV?$basic_string@DU?$char_traits@D@std@@V?$allocator@D@2@@std@@D@std@@PEAX@1@PEBV?$_Tree_val@U?$_Tree_simple_types@U?$pair@$$CBV?$basic_string@DU?$char_traits@D@std@@V?$allocator@D@2@@std@@D@std@@@std@@@1@@Z 000000018002d590 f i mfdpage.obj
 0001:0002c590       ??0?$_Tree_iterator@V?$_Tree_val@U?$_Tree_simple_types@U?$pair@$$CBHPEAVfms_fp_item_t@@@std@@@std@@@std@@@std@@QEAA@PEAU?$_Tree_node@U?$pair@$$CBHPEAVfms_fp_item_t@@@std@@PEAX@1@PEBV?$_Tree_val@U?$_Tree_simple_types@U?$pair@$$CBHPEAVfms_fp_item_t@@@std@@@std@@@1@@Z 000000018002d590 f i mfdpage_fms.obj
 0001:0002c590       ??0?$_Tree_iterator@V?$_Tree_val@U?$_Tree_simple_types@U?$pair@$$CBV?$basic_string@DU?$char_traits@D@std@@V?$allocator@D@2@@std@@M@std@@@std@@@std@@@std@@QEAA@PEAU?$_Tree_node@U?$pair@$$CBV?$basic_string@DU?$char_traits@D@std@@V?$allocator@D@2@@std@@M@std@@PEAX@1@PEBV?$_Tree_val@U?$_Tree_simple_types@U?$pair@$$CBV?$basic_string@DU?$char_traits@D@std@@V?$allocator@D@2@@std@@M@std@@@std@@@1@@Z 000000018002d590 f i mfdpage_fms.obj
 0001:0002c590       ??0?$_Tree_iterator@V?$_Tree_val@U?$_Tree_simple_types@U?$pair@$$CBHPEAVobject_t@@@std@@@std@@@std@@@std@@QEAA@PEAU?$_Tree_node@U?$pair@$$CBHPEAVobject_t@@@std@@PEAX@1@PEBV?$_Tree_val@U?$_Tree_simple_types@U?$pair@$$CBHPEAVobject_t@@@std@@@std@@@1@@Z 000000018002d590 f i mfdpage.obj
 0001:0002c590       ??0?$_Tree_iterator@V?$_Tree_val@U?$_Tree_simple_types@U?$pair@$$CBV?$basic_string@DU?$char_traits@D@std@@V?$allocator@D@2@@std@@H@std@@@std@@@std@@@std@@QEAA@PEAU?$_Tree_node@U?$pair@$$CBV?$basic_string@DU?$char_traits@D@std@@V?$allocator@D@2@@std@@H@std@@PEAX@1@PEBV?$_Tree_val@U?$_Tree_simple_types@U?$pair@$$CBV?$basic_string@DU?$char_traits@D@std@@V?$allocator@D@2@@std@@H@std@@@std@@@1@@Z 000000018002d590 f i mfdpage.obj
 0001:0002c5d0       ??0?$_Wrap_alloc@V?$allocator@D@std@@@std@@QEAA@XZ 000000018002d5d0 f i main.obj
 0001:0002c5d0       ??0?$_Wrap_alloc@V?$allocator@U?$_Tree_node@U?$pair@$$CBV?$basic_string@DU?$char_traits@D@std@@V?$allocator@D@2@@std@@M@std@@PEAX@std@@@std@@@std@@QEAA@XZ 000000018002d5d0 f i mfdpage_fms.obj
 0001:0002c5d0       ??0?$_Wrap_alloc@V?$allocator@U?$_Tree_node@PEAVobject_t@@PEAX@std@@@std@@@std@@QEAA@XZ 000000018002d5d0 f i data.obj
 0001:0002c5d0       ??0?$_Wrap_alloc@V?$allocator@U?$_Tree_node@U?$pair@$$CBHPEAVobject_t@@@std@@PEAX@std@@@std@@@std@@QEAA@XZ 000000018002d5d0 f i mfdpage.obj
 0001:0002c5d0       ??0?$_Wrap_alloc@V?$allocator@U?$_Tree_node@U?$pair@$$CBV?$basic_string@DU?$char_traits@D@std@@V?$allocator@D@2@@std@@PEAVfms_config_item_t@@@std@@PEAX@std@@@std@@@std@@QEAA@XZ 000000018002d5d0 f i fms_config.obj
 0001:0002c5d0       ??0?$_Wrap_alloc@V?$allocator@U?$_Tree_node@U?$pair@$$CBV?$basic_string@DU?$char_traits@D@std@@V?$allocator@D@2@@std@@D@std@@PEAX@std@@@std@@@std@@QEAA@XZ 000000018002d5d0 f i mfdpage.obj
 0001:0002c5d0       ??0?$_Wrap_alloc@V?$allocator@U?$_Tree_node@U?$pair@$$CBHM@std@@PEAX@std@@@std@@@std@@QEAA@XZ 000000018002d5d0 f i fms_config.obj
 0001:0002c5d0       ??0?$_Wrap_alloc@V?$allocator@U?$_Tree_node@U?$pair@$$CBV?$basic_string@DU?$char_traits@D@std@@V?$allocator@D@2@@std@@V12@@std@@PEAX@std@@@std@@@std@@QEAA@XZ 000000018002d5d0 f i tools.obj
 0001:0002c5d0       ??0?$_Wrap_alloc@V?$allocator@U?$_Tree_node@PEAVmfdpage_t@@PEAX@std@@@std@@@std@@QEAA@XZ 000000018002d5d0 f i in.obj
 0001:0002c5d0       ??0?$_Wrap_alloc@V?$allocator@U?$_Tree_node@U?$pair@$$CBV?$basic_string@DU?$char_traits@D@std@@V?$allocator@D@2@@std@@PEAVfms_fp_item_t@@@std@@PEAX@std@@@std@@@std@@QEAA@XZ 000000018002d5d0 f i fms_fp.obj
 0001:0002c5d0       ??0?$_Wrap_alloc@V?$allocator@U?$_Tree_node@U?$pair@$$CBV?$basic_string@DU?$char_traits@D@std@@V?$allocator@D@2@@std@@H@std@@PEAX@std@@@std@@@std@@QEAA@XZ 000000018002d5d0 f i mfdpage.obj
 0001:0002c5d0       ??0?$_Wrap_alloc@V?$allocator@U?$_Tree_node@U?$pair@$$CBHV?$basic_string@DU?$char_traits@D@std@@V?$allocator@D@2@@std@@@std@@PEAX@std@@@std@@@std@@QEAA@XZ 000000018002d5d0 f i out_saitek.obj
 0001:0002c5d0       ??0?$_Wrap_alloc@V?$allocator@U?$_Tree_node@U?$pair@$$CBHPEAVfms_fp_item_t@@@std@@PEAX@std@@@std@@@std@@QEAA@XZ 000000018002d5d0 f i mfdpage_fms.obj
 0001:0002c5d0       ??0?$_Wrap_alloc@V?$allocator@U?$_Tree_node@PEAVlistener_t@@PEAX@std@@@std@@@std@@QEAA@XZ 000000018002d5d0 f i data.obj
 0001:0002c5f0       ??0?$map@HMU?$less@H@std@@V?$allocator@U?$pair@$$CBHM@std@@@2@@std@@QEAA@XZ 000000018002d5f0 f i fms_config.obj
 0001:0002c620       ??0?$map@V?$basic_string@DU?$char_traits@D@std@@V?$allocator@D@2@@std@@MU?$less@V?$basic_string@DU?$char_traits@D@std@@V?$allocator@D@2@@std@@@2@V?$allocator@U?$pair@$$CBV?$basic_string@DU?$char_traits@D@std@@V?$allocator@D@2@@std@@M@std@@@2@@std@@QEAA@XZ 000000018002d620 f i fms_config.obj
 0001:0002c650       ??0?$map@V?$basic_string@DU?$char_traits@D@std@@V?$allocator@D@2@@std@@PEAVfms_config_item_t@@U?$less@V?$basic_string@DU?$char_traits@D@std@@V?$allocator@D@2@@std@@@2@V?$allocator@U?$pair@$$CBV?$basic_string@DU?$char_traits@D@std@@V?$allocator@D@2@@std@@PEAVfms_config_item_t@@@std@@@2@@std@@QEAA@XZ 000000018002d650 f i fms_config.obj
 0001:0002c680       ??1?$_Tree@V?$_Tmap_traits@V?$basic_string@DU?$char_traits@D@std@@V?$allocator@D@2@@std@@MU?$less@V?$basic_string@DU?$char_traits@D@std@@V?$allocator@D@2@@std@@@2@V?$allocator@U?$pair@$$CBV?$basic_string@DU?$char_traits@D@std@@V?$allocator@D@2@@std@@M@std@@@2@$0A@@std@@@std@@QEAA@XZ 000000018002d680 f i fms_config.obj
 0001:0002c680       ??1?$_Tree@V?$_Tmap_traits@V?$basic_string@DU?$char_traits@D@std@@V?$allocator@D@2@@std@@PEAVfms_fp_item_t@@U?$less@V?$basic_string@DU?$char_traits@D@std@@V?$allocator@D@2@@std@@@2@V?$allocator@U?$pair@$$CBV?$basic_string@DU?$char_traits@D@std@@V?$allocator@D@2@@std@@PEAVfms_fp_item_t@@@std@@@2@$0A@@std@@@std@@QEAA@XZ 000000018002d680 f i fms_fp.obj
 0001:0002c680       ??1?$_Tree@V?$_Tmap_traits@V?$basic_string@DU?$char_traits@D@std@@V?$allocator@D@2@@std@@HU?$less@V?$basic_string@DU?$char_traits@D@std@@V?$allocator@D@2@@std@@@2@V?$allocator@U?$pair@$$CBV?$basic_string@DU?$char_traits@D@std@@V?$allocator@D@2@@std@@H@std@@@2@$0A@@std@@@std@@QEAA@XZ 000000018002d680 f i mfdpage.obj
 0001:0002c680       ??1?$_Tree@V?$_Tmap_traits@V?$basic_string@DU?$char_traits@D@std@@V?$allocator@D@2@@std@@PEAVfms_config_item_t@@U?$less@V?$basic_string@DU?$char_traits@D@std@@V?$allocator@D@2@@std@@@2@V?$allocator@U?$pair@$$CBV?$basic_string@DU?$char_traits@D@std@@V?$allocator@D@2@@std@@PEAVfms_config_item_t@@@std@@@2@$0A@@std@@@std@@QEAA@XZ 000000018002d680 f i fms_config.obj
 0001:0002c6b0       ??1?$_Tree_alloc@$0A@U?$_Tree_base_types@U?$pair@$$CBV?$basic_string@DU?$char_traits@D@std@@V?$allocator@D@2@@std@@V12@@std@@V?$allocator@U?$pair@$$CBV?$basic_string@DU?$char_traits@D@std@@V?$allocator@D@2@@std@@V12@@std@@@2@@std@@@std@@QEAA@XZ 000000018002d6b0 f i tools.obj
 0001:0002c6b0       ??1?$_Tree_alloc@$0A@U?$_Tree_base_types@U?$pair@$$CBV?$basic_string@DU?$char_traits@D@std@@V?$allocator@D@2@@std@@M@std@@V?$allocator@U?$pair@$$CBV?$basic_string@DU?$char_traits@D@std@@V?$allocator@D@2@@std@@M@std@@@2@@std@@@std@@QEAA@XZ 000000018002d6b0 f i fms_config.obj
 0001:0002c6b0       ??1?$_Tree_alloc@$0A@U?$_Tree_base_types@PEAVmfdpage_t@@V?$allocator@PEAVmfdpage_t@@@std@@@std@@@std@@QEAA@XZ 000000018002d6b0 f i in.obj
 0001:0002c6b0       ??1?$_Tree_alloc@$0A@U?$_Tree_base_types@PEAVobject_t@@V?$allocator@PEAVobject_t@@@std@@@std@@@std@@QEAA@XZ 000000018002d6b0 f i data.obj
 0001:0002c6b0       ??1?$_Tree_alloc@$0A@U?$_Tree_base_types@U?$pair@$$CBHPEAVfms_fp_item_t@@@std@@V?$allocator@U?$pair@$$CBHPEAVfms_fp_item_t@@@std@@@2@@std@@@std@@QEAA@XZ 000000018002d6b0 f i fms_fp.obj
 0001:0002c6b0       ??1?$_Tree_alloc@$0A@U?$_Tree_base_types@U?$pair@$$CBHPEAVobject_t@@@std@@V?$allocator@U?$pair@$$CBHPEAVobject_t@@@std@@@2@@std@@@std@@QEAA@XZ 000000018002d6b0 f i mfdpage.obj
 0001:0002c6b0       ??1?$_Tree_alloc@$0A@U?$_Tree_base_types@U?$pair@$$CBV?$basic_string@DU?$char_traits@D@std@@V?$allocator@D@2@@std@@PEAVfms_fp_item_t@@@std@@V?$allocator@U?$pair@$$CBV?$basic_string@DU?$char_traits@D@std@@V?$allocator@D@2@@std@@PEAVfms_fp_item_t@@@std@@@2@@std@@@std@@QEAA@XZ 000000018002d6b0 f i fms_fp.obj
 0001:0002c6b0       ??1?$_Tree_alloc@$0A@U?$_Tree_base_types@U?$pair@$$CBV?$basic_string@DU?$char_traits@D@std@@V?$allocator@D@2@@std@@H@std@@V?$allocator@U?$pair@$$CBV?$basic_string@DU?$char_traits@D@std@@V?$allocator@D@2@@std@@H@std@@@2@@std@@@std@@QEAA@XZ 000000018002d6b0 f i mfdpage.obj
 0001:0002c6b0       ??1?$_Tree_alloc@$0A@U?$_Tree_base_types@PEAVlistener_t@@V?$allocator@PEAVlistener_t@@@std@@@std@@@std@@QEAA@XZ 000000018002d6b0 f i data.obj
 0001:0002c6b0       ??1?$_Tree_alloc@$0A@U?$_Tree_base_types@U?$pair@$$CBHV?$basic_string@DU?$char_traits@D@std@@V?$allocator@D@2@@std@@@std@@V?$allocator@U?$pair@$$CBHV?$basic_string@DU?$char_traits@D@std@@V?$allocator@D@2@@std@@@std@@@2@@std@@@std@@QEAA@XZ 000000018002d6b0 f i mfdpage.obj
 0001:0002c6b0       ??1?$_Tree_alloc@$0A@U?$_Tree_base_types@U?$pair@$$CBV?$basic_string@DU?$char_traits@D@std@@V?$allocator@D@2@@std@@PEAVfms_config_item_t@@@std@@V?$allocator@U?$pair@$$CBV?$basic_string@DU?$char_traits@D@std@@V?$allocator@D@2@@std@@PEAVfms_config_item_t@@@std@@@2@@std@@@std@@QEAA@XZ 000000018002d6b0 f i fms_config.obj
 0001:0002c6d0       ??1?$_Tree_buy@U?$pair@$$CBV?$basic_string@DU?$char_traits@D@std@@V?$allocator@D@2@@std@@M@std@@V?$allocator@U?$pair@$$CBV?$basic_string@DU?$char_traits@D@std@@V?$allocator@D@2@@std@@M@std@@@2@@std@@QEAA@XZ 000000018002d6d0 f i fms_config.obj
 0001:0002c6d0       ??1?$_Tree_buy@PEAVlistener_t@@V?$allocator@PEAVlistener_t@@@std@@@std@@QEAA@XZ 000000018002d6d0 f i data.obj
 0001:0002c6d0       ??1?$_Tree_buy@PEAVobject_t@@V?$allocator@PEAVobject_t@@@std@@@std@@QEAA@XZ 000000018002d6d0 f i data.obj
 0001:0002c6d0       ??1?$_Tree_buy@U?$pair@$$CBHV?$basic_string@DU?$char_traits@D@std@@V?$allocator@D@2@@std@@@std@@V?$allocator@U?$pair@$$CBHV?$basic_string@DU?$char_traits@D@std@@V?$allocator@D@2@@std@@@std@@@2@@std@@QEAA@XZ 000000018002d6d0 f i mfdpage.obj
 0001:0002c6d0       ??1?$_Tree_buy@U?$pair@$$CBHPEAVobject_t@@@std@@V?$allocator@U?$pair@$$CBHPEAVobject_t@@@std@@@2@@std@@QEAA@XZ 000000018002d6d0 f i mfdpage.obj
 0001:0002c6d0       ??1?$_Tree_buy@U?$pair@$$CBV?$basic_string@DU?$char_traits@D@std@@V?$allocator@D@2@@std@@PEAVfms_fp_item_t@@@std@@V?$allocator@U?$pair@$$CBV?$basic_string@DU?$char_traits@D@std@@V?$allocator@D@2@@std@@PEAVfms_fp_item_t@@@std@@@2@@std@@QEAA@XZ 000000018002d6d0 f i fms_fp.obj
 0001:0002c6d0       ??1?$_Tree_buy@U?$pair@$$CBV?$basic_string@DU?$char_traits@D@std@@V?$allocator@D@2@@std@@PEAVfms_config_item_t@@@std@@V?$allocator@U?$pair@$$CBV?$basic_string@DU?$char_traits@D@std@@V?$allocator@D@2@@std@@PEAVfms_config_item_t@@@std@@@2@@std@@QEAA@XZ 000000018002d6d0 f i fms_config.obj
 0001:0002c6d0       ??1?$_Tree_buy@PEAVmfdpage_t@@V?$allocator@PEAVmfdpage_t@@@std@@@std@@QEAA@XZ 000000018002d6d0 f i in.obj
 0001:0002c6d0       ??1?$_Tree_buy@U?$pair@$$CBV?$basic_string@DU?$char_traits@D@std@@V?$allocator@D@2@@std@@H@std@@V?$allocator@U?$pair@$$CBV?$basic_string@DU?$char_traits@D@std@@V?$allocator@D@2@@std@@H@std@@@2@@std@@QEAA@XZ 000000018002d6d0 f i mfdpage.obj
 0001:0002c6d0       ??1?$_Tree_buy@U?$pair@$$CBV?$basic_string@DU?$char_traits@D@std@@V?$allocator@D@2@@std@@V12@@std@@V?$allocator@U?$pair@$$CBV?$basic_string@DU?$char_traits@D@std@@V?$allocator@D@2@@std@@V12@@std@@@2@@std@@QEAA@XZ 000000018002d6d0 f i tools.obj
 0001:0002c6d0       ??1?$_Tree_buy@U?$pair@$$CBHPEAVfms_fp_item_t@@@std@@V?$allocator@U?$pair@$$CBHPEAVfms_fp_item_t@@@std@@@2@@std@@QEAA@XZ 000000018002d6d0 f i fms_fp.obj
 0001:0002c6f0       ??1?$_Tree_comp@$0A@V?$_Tmap_traits@V?$basic_string@DU?$char_traits@D@std@@V?$allocator@D@2@@std@@PEAVfms_config_item_t@@U?$less@V?$basic_string@DU?$char_traits@D@std@@V?$allocator@D@2@@std@@@2@V?$allocator@U?$pair@$$CBV?$basic_string@DU?$char_traits@D@std@@V?$allocator@D@2@@std@@PEAVfms_config_item_t@@@std@@@2@$0A@@std@@@std@@QEAA@XZ 000000018002d6f0 f i fms_config.obj
 0001:0002c6f0       ??1?$_Tree_comp@$0A@V?$_Tset_traits@PEAVmfdpage_t@@U?$less@PEAVmfdpage_t@@@std@@V?$allocator@PEAVmfdpage_t@@@3@$0A@@std@@@std@@QEAA@XZ 000000018002d6f0 f i in.obj
 0001:0002c6f0       ??1?$_Tree_comp@$0A@V?$_Tmap_traits@V?$basic_string@DU?$char_traits@D@std@@V?$allocator@D@2@@std@@PEAVfms_fp_item_t@@U?$less@V?$basic_string@DU?$char_traits@D@std@@V?$allocator@D@2@@std@@@2@V?$allocator@U?$pair@$$CBV?$basic_string@DU?$char_traits@D@std@@V?$allocator@D@2@@std@@PEAVfms_fp_item_t@@@std@@@2@$0A@@std@@@std@@QEAA@XZ 000000018002d6f0 f i fms_fp.obj
 0001:0002c6f0       ??1?$_Tree_comp@$0A@V?$_Tmap_traits@V?$basic_string@DU?$char_traits@D@std@@V?$allocator@D@2@@std@@MU?$less@V?$basic_string@DU?$char_traits@D@std@@V?$allocator@D@2@@std@@@2@V?$allocator@U?$pair@$$CBV?$basic_string@DU?$char_traits@D@std@@V?$allocator@D@2@@std@@M@std@@@2@$0A@@std@@@std@@QEAA@XZ 000000018002d6f0 f i fms_config.obj
 0001:0002c6f0       ??1?$_Tree_comp@$0A@V?$_Tmap_traits@HPEAVfms_fp_item_t@@U?$less@H@std@@V?$allocator@U?$pair@$$CBHPEAVfms_fp_item_t@@@std@@@3@$0A@@std@@@std@@QEAA@XZ 000000018002d6f0 f i fms_fp.obj
 0001:0002c6f0       ??1?$_Tree_comp@$0A@V?$_Tset_traits@PEAVobject_t@@U?$less@PEAVobject_t@@@std@@V?$allocator@PEAVobject_t@@@3@$0A@@std@@@std@@QEAA@XZ 000000018002d6f0 f i data.obj
 0001:0002c6f0       ??1?$_Tree_comp@$0A@V?$_Tmap_traits@V?$basic_string@DU?$char_traits@D@std@@V?$allocator@D@2@@std@@HU?$less@V?$basic_string@DU?$char_traits@D@std@@V?$allocator@D@2@@std@@@2@V?$allocator@U?$pair@$$CBV?$basic_string@DU?$char_traits@D@std@@V?$allocator@D@2@@std@@H@std@@@2@$0A@@std@@@std@@QEAA@XZ 000000018002d6f0 f i mfdpage.obj
 0001:0002c6f0       ??1?$_Tree_comp@$0A@V?$_Tmap_traits@HPEAVobject_t@@U?$less@H@std@@V?$allocator@U?$pair@$$CBHPEAVobject_t@@@std@@@3@$0A@@std@@@std@@QEAA@XZ 000000018002d6f0 f i mfdpage.obj
 0001:0002c6f0       ??1?$_Tree_comp@$0A@V?$_Tset_traits@PEAVlistener_t@@U?$less@PEAVlistener_t@@@std@@V?$allocator@PEAVlistener_t@@@3@$0A@@std@@@std@@QEAA@XZ 000000018002d6f0 f i data.obj
 0001:0002c6f0       ??1?$_Tree_comp@$0A@V?$_Tmap_traits@HV?$basic_string@DU?$char_traits@D@std@@V?$allocator@D@2@@std@@U?$less@H@2@V?$allocator@U?$pair@$$CBHV?$basic_string@DU?$char_traits@D@std@@V?$allocator@D@2@@std@@@std@@@2@$0A@@std@@@std@@QEAA@XZ 000000018002d6f0 f i mfdpage.obj
 0001:0002c6f0       ??1?$_Tree_comp@$0A@V?$_Tmap_traits@V?$basic_string@DU?$char_traits@D@std@@V?$allocator@D@2@@std@@V12@U?$less@V?$basic_string@DU?$char_traits@D@std@@V?$allocator@D@2@@std@@@2@V?$allocator@U?$pair@$$CBV?$basic_string@DU?$char_traits@D@std@@V?$allocator@D@2@@std@@V12@@std@@@2@$0A@@std@@@std@@QEAA@XZ 000000018002d6f0 f i tools.obj
 0001:0002c710       ??1?$map@V?$basic_string@DU?$char_traits@D@std@@V?$allocator@D@2@@std@@HU?$less@V?$basic_string@DU?$char_traits@D@std@@V?$allocator@D@2@@std@@@2@V?$allocator@U?$pair@$$CBV?$basic_string@DU?$char_traits@D@std@@V?$allocator@D@2@@std@@H@std@@@2@@std@@QEAA@XZ 000000018002d710 f i mfdpage.obj
 0001:0002c710       ??1?$map@V?$basic_string@DU?$char_traits@D@std@@V?$allocator@D@2@@std@@MU?$less@V?$basic_string@DU?$char_traits@D@std@@V?$allocator@D@2@@std@@@2@V?$allocator@U?$pair@$$CBV?$basic_string@DU?$char_traits@D@std@@V?$allocator@D@2@@std@@M@std@@@2@@std@@QEAA@XZ 000000018002d710 f i fms_config.obj
 0001:0002c710       ??1?$map@V?$basic_string@DU?$char_traits@D@std@@V?$allocator@D@2@@std@@PEAVfms_fp_item_t@@U?$less@V?$basic_string@DU?$char_traits@D@std@@V?$allocator@D@2@@std@@@2@V?$allocator@U?$pair@$$CBV?$basic_string@DU?$char_traits@D@std@@V?$allocator@D@2@@std@@PEAVfms_fp_item_t@@@std@@@2@@std@@QEAA@XZ 000000018002d710 f i fms_fp.obj
 0001:0002c710       ??1?$map@V?$basic_string@DU?$char_traits@D@std@@V?$allocator@D@2@@std@@PEAVfms_config_item_t@@U?$less@V?$basic_string@DU?$char_traits@D@std@@V?$allocator@D@2@@std@@@2@V?$allocator@U?$pair@$$CBV?$basic_string@DU?$char_traits@D@std@@V?$allocator@D@2@@std@@PEAVfms_config_item_t@@@std@@@2@@std@@QEAA@XZ 000000018002d710 f i fms_config.obj
 0001:0002c730       ??A?$map@HMU?$less@H@std@@V?$allocator@U?$pair@$$CBHM@std@@@2@@std@@QEAAAEAMAEBH@Z 000000018002d730 f i fms_config.obj
 0001:0002c850       ??A?$map@V?$basic_string@DU?$char_traits@D@std@@V?$allocator@D@2@@std@@PEAVfms_config_item_t@@U?$less@V?$basic_string@DU?$char_traits@D@std@@V?$allocator@D@2@@std@@@2@V?$allocator@U?$pair@$$CBV?$basic_string@DU?$char_traits@D@std@@V?$allocator@D@2@@std@@PEAVfms_config_item_t@@@std@@@2@@std@@QEAAAEAPEAVfms_config_item_t@@AEBV?$basic_string@DU?$char_traits@D@std@@V?$allocator@D@2@@1@@Z 000000018002d850 f i fms_config.obj
 0001:0002c970       ??C?$_Tree_iterator@V?$_Tree_val@U?$_Tree_simple_types@U?$pair@$$CBHM@std@@@std@@@std@@@std@@QEBAPEAU?$pair@$$CBHM@1@XZ 000000018002d970 f i fms_config.obj
 0001:0002c990       ??D?$_Tree_const_iterator@V?$_Tree_val@U?$_Tree_simple_types@U?$pair@$$CBHM@std@@@std@@@std@@@std@@QEBAAEBU?$pair@$$CBHM@1@XZ 000000018002d990 f i fms_config.obj
 0001:0002c9b0       ??D?$_Tree_iterator@V?$_Tree_val@U?$_Tree_simple_types@U?$pair@$$CBHM@std@@@std@@@std@@@std@@QEBAAEAU?$pair@$$CBHM@1@XZ 000000018002d9b0 f i fms_config.obj
 0001:0002c9d0       ?_Buyheadnode@?$_Tree_alloc@$0A@U?$_Tree_base_types@U?$pair@$$CBHM@std@@V?$allocator@U?$pair@$$CBHM@std@@@2@@std@@@std@@QEAAPEAU?$_Tree_node@U?$pair@$$CBHM@std@@PEAX@2@XZ 000000018002d9d0 f i fms_config.obj
 0001:0002cae0       ?_Buyheadnode@?$_Tree_alloc@$0A@U?$_Tree_base_types@U?$pair@$$CBV?$basic_string@DU?$char_traits@D@std@@V?$allocator@D@2@@std@@M@std@@V?$allocator@U?$pair@$$CBV?$basic_string@DU?$char_traits@D@std@@V?$allocator@D@2@@std@@M@std@@@2@@std@@@std@@QEAAPEAU?$_Tree_node@U?$pair@$$CBV?$basic_string@DU?$char_traits@D@std@@V?$allocator@D@2@@std@@M@std@@PEAX@2@XZ 000000018002dae0 f i fms_config.obj
 0001:0002cbf0       ?_Buyheadnode@?$_Tree_alloc@$0A@U?$_Tree_base_types@U?$pair@$$CBV?$basic_string@DU?$char_traits@D@std@@V?$allocator@D@2@@std@@PEAVfms_config_item_t@@@std@@V?$allocator@U?$pair@$$CBV?$basic_string@DU?$char_traits@D@std@@V?$allocator@D@2@@std@@PEAVfms_config_item_t@@@std@@@2@@std@@@std@@QEAAPEAU?$_Tree_node@U?$pair@$$CBV?$basic_string@DU?$char_traits@D@std@@V?$allocator@D@2@@std@@PEAVfms_config_item_t@@@std@@PEAX@2@XZ 000000018002dbf0 f i fms_config.obj
 0001:0002cd00       ?_Buynode0@?$_Tree_buy@U?$pair@$$CBHM@std@@V?$allocator@U?$pair@$$CBHM@std@@@2@@std@@QEAAPEAU?$_Tree_node@U?$pair@$$CBHM@std@@PEAX@2@XZ 000000018002dd00 f i fms_config.obj
 0001:0002ce00       ?_Buynode0@?$_Tree_buy@U?$pair@$$CBV?$basic_string@DU?$char_traits@D@std@@V?$allocator@D@2@@std@@PEAVfms_config_item_t@@@std@@V?$allocator@U?$pair@$$CBV?$basic_string@DU?$char_traits@D@std@@V?$allocator@D@2@@std@@PEAVfms_config_item_t@@@std@@@2@@std@@QEAAPEAU?$_Tree_node@U?$pair@$$CBV?$basic_string@DU?$char_traits@D@std@@V?$allocator@D@2@@std@@PEAVfms_config_item_t@@@std@@PEAX@2@XZ 000000018002de00 f i fms_config.obj
 0001:0002cf00       ?_Destroy_if_not_nil@?$_Tree@V?$_Tmap_traits@HMU?$less@H@std@@V?$allocator@U?$pair@$$CBHM@std@@@2@$0A@@std@@@std@@IEAAXPEAU?$_Tree_node@U?$pair@$$CBHM@std@@PEAX@2@@Z 000000018002df00 f i fms_config.obj
 0001:0002cf70       ?_Destroy_if_not_nil@?$_Tree@V?$_Tmap_traits@V?$basic_string@DU?$char_traits@D@std@@V?$allocator@D@2@@std@@MU?$less@V?$basic_string@DU?$char_traits@D@std@@V?$allocator@D@2@@std@@@2@V?$allocator@U?$pair@$$CBV?$basic_string@DU?$char_traits@D@std@@V?$allocator@D@2@@std@@M@std@@@2@$0A@@std@@@std@@IEAAXPEAU?$_Tree_node@U?$pair@$$CBV?$basic_string@DU?$char_traits@D@std@@V?$allocator@D@2@@std@@M@std@@PEAX@2@@Z 000000018002df70 f i mfdpage_fms.obj
 0001:0002cf70       ?_Destroy_if_not_nil@?$_Tree@V?$_Tmap_traits@V?$basic_string@DU?$char_traits@D@std@@V?$allocator@D@2@@std@@HU?$less@V?$basic_string@DU?$char_traits@D@std@@V?$allocator@D@2@@std@@@2@V?$allocator@U?$pair@$$CBV?$basic_string@DU?$char_traits@D@std@@V?$allocator@D@2@@std@@H@std@@@2@$0A@@std@@@std@@IEAAXPEAU?$_Tree_node@U?$pair@$$CBV?$basic_string@DU?$char_traits@D@std@@V?$allocator@D@2@@std@@H@std@@PEAX@2@@Z 000000018002df70 f i mfdpage.obj
 0001:0002cf70       ?_Destroy_if_not_nil@?$_Tree@V?$_Tmap_traits@V?$basic_string@DU?$char_traits@D@std@@V?$allocator@D@2@@std@@PEAVfms_config_item_t@@U?$less@V?$basic_string@DU?$char_traits@D@std@@V?$allocator@D@2@@std@@@2@V?$allocator@U?$pair@$$CBV?$basic_string@DU?$char_traits@D@std@@V?$allocator@D@2@@std@@PEAVfms_config_item_t@@@std@@@2@$0A@@std@@@std@@IEAAXPEAU?$_Tree_node@U?$pair@$$CBV?$basic_string@DU?$char_traits@D@std@@V?$allocator@D@2@@std@@PEAVfms_config_item_t@@@std@@PEAX@2@@Z 000000018002df70 f i fms_config.obj
 0001:0002cf70       ?_Destroy_if_not_nil@?$_Tree@V?$_Tmap_traits@V?$basic_string@DU?$char_traits@D@std@@V?$allocator@D@2@@std@@DU?$less@V?$basic_string@DU?$char_traits@D@std@@V?$allocator@D@2@@std@@@2@V?$allocator@U?$pair@$$CBV?$basic_string@DU?$char_traits@D@std@@V?$allocator@D@2@@std@@D@std@@@2@$0A@@std@@@std@@IEAAXPEAU?$_Tree_node@U?$pair@$$CBV?$basic_string@DU?$char_traits@D@std@@V?$allocator@D@2@@std@@D@std@@PEAX@2@@Z 000000018002df70 f i mfdpage.obj
 0001:0002cf70       ?_Destroy_if_not_nil@?$_Tree@V?$_Tmap_traits@V?$basic_string@DU?$char_traits@D@std@@V?$allocator@D@2@@std@@PEAVfms_fp_item_t@@U?$less@V?$basic_string@DU?$char_traits@D@std@@V?$allocator@D@2@@std@@@2@V?$allocator@U?$pair@$$CBV?$basic_string@DU?$char_traits@D@std@@V?$allocator@D@2@@std@@PEAVfms_fp_item_t@@@std@@@2@$0A@@std@@@std@@IEAAXPEAU?$_Tree_node@U?$pair@$$CBV?$basic_string@DU?$char_traits@D@std@@V?$allocator@D@2@@std@@PEAVfms_fp_item_t@@@std@@PEAX@2@@Z 000000018002df70 f i fms_fp.obj
 0001:0002cfe0       ?_Erase@?$_Tree@V?$_Tmap_traits@V?$basic_string@DU?$char_traits@D@std@@V?$allocator@D@2@@std@@PEAVfms_fp_item_t@@U?$less@V?$basic_string@DU?$char_traits@D@std@@V?$allocator@D@2@@std@@@2@V?$allocator@U?$pair@$$CBV?$basic_string@DU?$char_traits@D@std@@V?$allocator@D@2@@std@@PEAVfms_fp_item_t@@@std@@@2@$0A@@std@@@std@@IEAAXPEAU?$_Tree_node@U?$pair@$$CBV?$basic_string@DU?$char_traits@D@std@@V?$allocator@D@2@@std@@PEAVfms_fp_item_t@@@std@@PEAX@2@@Z 000000018002dfe0 f i fms_fp.obj
 0001:0002cfe0       ?_Erase@?$_Tree@V?$_Tmap_traits@V?$basic_string@DU?$char_traits@D@std@@V?$allocator@D@2@@std@@HU?$less@V?$basic_string@DU?$char_traits@D@std@@V?$allocator@D@2@@std@@@2@V?$allocator@U?$pair@$$CBV?$basic_string@DU?$char_traits@D@std@@V?$allocator@D@2@@std@@H@std@@@2@$0A@@std@@@std@@IEAAXPEAU?$_Tree_node@U?$pair@$$CBV?$basic_string@DU?$char_traits@D@std@@V?$allocator@D@2@@std@@H@std@@PEAX@2@@Z 000000018002dfe0 f i mfdpage.obj
 0001:0002cfe0       ?_Erase@?$_Tree@V?$_Tmap_traits@V?$basic_string@DU?$char_traits@D@std@@V?$allocator@D@2@@std@@PEAVfms_config_item_t@@U?$less@V?$basic_string@DU?$char_traits@D@std@@V?$allocator@D@2@@std@@@2@V?$allocator@U?$pair@$$CBV?$basic_string@DU?$char_traits@D@std@@V?$allocator@D@2@@std@@PEAVfms_config_item_t@@@std@@@2@$0A@@std@@@std@@IEAAXPEAU?$_Tree_node@U?$pair@$$CBV?$basic_string@DU?$char_traits@D@std@@V?$allocator@D@2@@std@@PEAVfms_config_item_t@@@std@@PEAX@2@@Z 000000018002dfe0 f i fms_config.obj
 0001:0002cfe0       ?_Erase@?$_Tree@V?$_Tmap_traits@V?$basic_string@DU?$char_traits@D@std@@V?$allocator@D@2@@std@@MU?$less@V?$basic_string@DU?$char_traits@D@std@@V?$allocator@D@2@@std@@@2@V?$allocator@U?$pair@$$CBV?$basic_string@DU?$char_traits@D@std@@V?$allocator@D@2@@std@@M@std@@@2@$0A@@std@@@std@@IEAAXPEAU?$_Tree_node@U?$pair@$$CBV?$basic_string@DU?$char_traits@D@std@@V?$allocator@D@2@@std@@M@std@@PEAX@2@@Z 000000018002dfe0 f i fms_config.obj
 0001:0002d0b0       ??2@YAPEAX_KPEAX@Z         000000018002e0b0 f i main.obj
 0001:0002d0b0       ?_Getcomp@?$_Tree_comp@$0A@V?$_Tmap_traits@V?$basic_string@DU?$char_traits@D@std@@V?$allocator@D@2@@std@@MU?$less@V?$basic_string@DU?$char_traits@D@std@@V?$allocator@D@2@@std@@@2@V?$allocator@U?$pair@$$CBV?$basic_string@DU?$char_traits@D@std@@V?$allocator@D@2@@std@@M@std@@@2@$0A@@std@@@std@@QEBA?AU?$less@V?$basic_string@DU?$char_traits@D@std@@V?$allocator@D@2@@std@@@2@XZ 000000018002e0b0 f i mfdpage_fms.obj
 0001:0002d0b0       ?_Getcomp@?$_Tree_comp@$0A@V?$_Tmap_traits@HPEAVobject_t@@U?$less@H@std@@V?$allocator@U?$pair@$$CBHPEAVobject_t@@@std@@@3@$0A@@std@@@std@@QEBA?AU?$less@H@2@XZ 000000018002e0b0 f i mfdpage.obj
 0001:0002d0b0       ?_Getcomp@?$_Tree_comp@$0A@V?$_Tmap_traits@V?$basic_string@DU?$char_traits@D@std@@V?$allocator@D@2@@std@@HU?$less@V?$basic_string@DU?$char_traits@D@std@@V?$allocator@D@2@@std@@@2@V?$allocator@U?$pair@$$CBV?$basic_string@DU?$char_traits@D@std@@V?$allocator@D@2@@std@@H@std@@@2@$0A@@std@@@std@@QEBA?AU?$less@V?$basic_string@DU?$char_traits@D@std@@V?$allocator@D@2@@std@@@2@XZ 000000018002e0b0 f i mfdpage.obj
 0001:0002d0b0       ?_Getcomp@?$_Tree_comp@$0A@V?$_Tset_traits@PEAVobject_t@@U?$less@PEAVobject_t@@@std@@V?$allocator@PEAVobject_t@@@3@$0A@@std@@@std@@QEBA?AU?$less@PEAVobject_t@@@2@XZ 000000018002e0b0 f i data.obj
 0001:0002d0b0       ?_Getcomp@?$_Tree_comp@$0A@V?$_Tmap_traits@V?$basic_string@DU?$char_traits@D@std@@V?$allocator@D@2@@std@@DU?$less@V?$basic_string@DU?$char_traits@D@std@@V?$allocator@D@2@@std@@@2@V?$allocator@U?$pair@$$CBV?$basic_string@DU?$char_traits@D@std@@V?$allocator@D@2@@std@@D@std@@@2@$0A@@std@@@std@@QEBA?AU?$less@V?$basic_string@DU?$char_traits@D@std@@V?$allocator@D@2@@std@@@2@XZ 000000018002e0b0 f i mfdpage.obj
 0001:0002d0b0       ?_Getcomp@?$_Tree_comp@$0A@V?$_Tmap_traits@HV?$basic_string@DU?$char_traits@D@std@@V?$allocator@D@2@@std@@U?$less@H@2@V?$allocator@U?$pair@$$CBHV?$basic_string@DU?$char_traits@D@std@@V?$allocator@D@2@@std@@@std@@@2@$0A@@std@@@std@@QEBA?AU?$less@H@2@XZ 000000018002e0b0 f i out_saitek.obj
 0001:0002d0b0       ?_Getcomp@?$_Tree_comp@$0A@V?$_Tmap_traits@HMU?$less@H@std@@V?$allocator@U?$pair@$$CBHM@std@@@2@$0A@@std@@@std@@QEBA?AU?$less@H@2@XZ 000000018002e0b0 f i fms_config.obj
 0001:0002d0b0       ?_Getcomp@?$_Tree_comp@$0A@V?$_Tmap_traits@V?$basic_string@DU?$char_traits@D@std@@V?$allocator@D@2@@std@@PEAVfms_config_item_t@@U?$less@V?$basic_string@DU?$char_traits@D@std@@V?$allocator@D@2@@std@@@2@V?$allocator@U?$pair@$$CBV?$basic_string@DU?$char_traits@D@std@@V?$allocator@D@2@@std@@PEAVfms_config_item_t@@@std@@@2@$0A@@std@@@std@@QEBA?AU?$less@V?$basic_string@DU?$char_traits@D@std@@V?$allocator@D@2@@std@@@2@XZ 000000018002e0b0 f i fms_config.obj
 0001:0002d0b0       ?_Getcomp@?$_Tree_comp@$0A@V?$_Tset_traits@PEAVmfdpage_t@@U?$less@PEAVmfdpage_t@@@std@@V?$allocator@PEAVmfdpage_t@@@3@$0A@@std@@@std@@QEBA?AU?$less@PEAVmfdpage_t@@@2@XZ 000000018002e0b0 f i in.obj
 0001:0002d0b0       ?_Getcomp@?$_Tree_comp@$0A@V?$_Tset_traits@PEAVlistener_t@@U?$less@PEAVlistener_t@@@std@@V?$allocator@PEAVlistener_t@@@3@$0A@@std@@@std@@QEBA?AU?$less@PEAVlistener_t@@@2@XZ 000000018002e0b0 f i data.obj
 0001:0002d0b0       ?_Getcomp@?$_Tree_comp@$0A@V?$_Tmap_traits@HPEAVfms_fp_item_t@@U?$less@H@std@@V?$allocator@U?$pair@$$CBHPEAVfms_fp_item_t@@@std@@@3@$0A@@std@@@std@@QEBA?AU?$less@H@2@XZ 000000018002e0b0 f i mfdpage_fms.obj
 0001:0002d0b0       ?_Getcomp@?$_Tree_comp@$0A@V?$_Tmap_traits@V?$basic_string@DU?$char_traits@D@std@@V?$allocator@D@2@@std@@V12@U?$less@V?$basic_string@DU?$char_traits@D@std@@V?$allocator@D@2@@std@@@2@V?$allocator@U?$pair@$$CBV?$basic_string@DU?$char_traits@D@std@@V?$allocator@D@2@@std@@V12@@std@@@2@$0A@@std@@@std@@QEBA?AU?$less@V?$basic_string@DU?$char_traits@D@std@@V?$allocator@D@2@@std@@@2@XZ 000000018002e0b0 f i tools.obj
 0001:0002d0b0       ?_Getcomp@?$_Tree_comp@$0A@V?$_Tmap_traits@V?$basic_string@DU?$char_traits@D@std@@V?$allocator@D@2@@std@@PEAVfms_fp_item_t@@U?$less@V?$basic_string@DU?$char_traits@D@std@@V?$allocator@D@2@@std@@@2@V?$allocator@U?$pair@$$CBV?$basic_string@DU?$char_traits@D@std@@V?$allocator@D@2@@std@@PEAVfms_fp_item_t@@@std@@@2@$0A@@std@@@std@@QEBA?AU?$less@V?$basic_string@DU?$char_traits@D@std@@V?$allocator@D@2@@std@@@2@XZ 000000018002e0b0 f i fms_fp.obj
 0001:0002d0c0       ?_Key@?$_Tree@V?$_Tmap_traits@HMU?$less@H@std@@V?$allocator@U?$pair@$$CBHM@std@@@2@$0A@@std@@@std@@IEBAAEBHPEAU?$_Tree_node@U?$pair@$$CBHM@std@@PEAX@2@@Z 000000018002e0c0 f i fms_config.obj
 0001:0002d0f0       ?_Lbound@?$_Tree@V?$_Tmap_traits@HMU?$less@H@std@@V?$allocator@U?$pair@$$CBHM@std@@@2@$0A@@std@@@std@@IEAAPEAU?$_Tree_node@U?$pair@$$CBHM@std@@PEAX@2@AEBH@Z 000000018002e0f0 f i fms_config.obj
 0001:0002d1b0       ?_Myval@?$_Tree_val@U?$_Tree_simple_types@U?$pair@$$CBHM@std@@@std@@@std@@SAAEAU?$pair@$$CBHM@2@PEAU?$_Tree_node@U?$pair@$$CBHM@std@@PEAX@2@@Z 000000018002e1b0 f i fms_config.obj
 0001:0002d1c0       ?_Root@?$_Tree@V?$_Tmap_traits@V?$basic_string@DU?$char_traits@D@std@@V?$allocator@D@2@@std@@PEAVfms_fp_item_t@@U?$less@V?$basic_string@DU?$char_traits@D@std@@V?$allocator@D@2@@std@@@2@V?$allocator@U?$pair@$$CBV?$basic_string@DU?$char_traits@D@std@@V?$allocator@D@2@@std@@PEAVfms_fp_item_t@@@std@@@2@$0A@@std@@@std@@IEBAAEAPEAU?$_Tree_node@U?$pair@$$CBV?$basic_string@DU?$char_traits@D@std@@V?$allocator@D@2@@std@@PEAVfms_fp_item_t@@@std@@PEAX@2@XZ 000000018002e1c0 f i fms_fp.obj
 0001:0002d1c0       ?_Root@?$_Tree@V?$_Tset_traits@PEAVlistener_t@@U?$less@PEAVlistener_t@@@std@@V?$allocator@PEAVlistener_t@@@3@$0A@@std@@@std@@IEBAAEAPEAU?$_Tree_node@PEAVlistener_t@@PEAX@2@XZ 000000018002e1c0 f i data.obj
 0001:0002d1c0       ?_Root@?$_Tree@V?$_Tmap_traits@V?$basic_string@DU?$char_traits@D@std@@V?$allocator@D@2@@std@@MU?$less@V?$basic_string@DU?$char_traits@D@std@@V?$allocator@D@2@@std@@@2@V?$allocator@U?$pair@$$CBV?$basic_string@DU?$char_traits@D@std@@V?$allocator@D@2@@std@@M@std@@@2@$0A@@std@@@std@@IEBAAEAPEAU?$_Tree_node@U?$pair@$$CBV?$basic_string@DU?$char_traits@D@std@@V?$allocator@D@2@@std@@M@std@@PEAX@2@XZ 000000018002e1c0 f i mfdpage_fms.obj
 0001:0002d1c0       ?_Root@?$_Tree@V?$_Tmap_traits@HPEAVfms_fp_item_t@@U?$less@H@std@@V?$allocator@U?$pair@$$CBHPEAVfms_fp_item_t@@@std@@@3@$0A@@std@@@std@@IEBAAEAPEAU?$_Tree_node@U?$pair@$$CBHPEAVfms_fp_item_t@@@std@@PEAX@2@XZ 000000018002e1c0 f i mfdpage_fms.obj
 0001:0002d1c0       ?_Root@?$_Tree@V?$_Tmap_traits@V?$basic_string@DU?$char_traits@D@std@@V?$allocator@D@2@@std@@V12@U?$less@V?$basic_string@DU?$char_traits@D@std@@V?$allocator@D@2@@std@@@2@V?$allocator@U?$pair@$$CBV?$basic_string@DU?$char_traits@D@std@@V?$allocator@D@2@@std@@V12@@std@@@2@$0A@@std@@@std@@IEBAAEAPEAU?$_Tree_node@U?$pair@$$CBV?$basic_string@DU?$char_traits@D@std@@V?$allocator@D@2@@std@@V12@@std@@PEAX@2@XZ 000000018002e1c0 f i tools.obj
 0001:0002d1c0       ?_Root@?$_Tree@V?$_Tmap_traits@HPEAVobject_t@@U?$less@H@std@@V?$allocator@U?$pair@$$CBHPEAVobject_t@@@std@@@3@$0A@@std@@@std@@IEBAAEAPEAU?$_Tree_node@U?$pair@$$CBHPEAVobject_t@@@std@@PEAX@2@XZ 000000018002e1c0 f i mfdpage.obj
 0001:0002d1c0       ?_Root@?$_Tree@V?$_Tmap_traits@V?$basic_string@DU?$char_traits@D@std@@V?$allocator@D@2@@std@@HU?$less@V?$basic_string@DU?$char_traits@D@std@@V?$allocator@D@2@@std@@@2@V?$allocator@U?$pair@$$CBV?$basic_string@DU?$char_traits@D@std@@V?$allocator@D@2@@std@@H@std@@@2@$0A@@std@@@std@@IEBAAEAPEAU?$_Tree_node@U?$pair@$$CBV?$basic_string@DU?$char_traits@D@std@@V?$allocator@D@2@@std@@H@std@@PEAX@2@XZ 000000018002e1c0 f i mfdpage.obj
 0001:0002d1c0       ?_Root@?$_Tree@V?$_Tset_traits@PEAVobject_t@@U?$less@PEAVobject_t@@@std@@V?$allocator@PEAVobject_t@@@3@$0A@@std@@@std@@IEBAAEAPEAU?$_Tree_node@PEAVobject_t@@PEAX@2@XZ 000000018002e1c0 f i data.obj
 0001:0002d1c0       ?_Root@?$_Tree@V?$_Tset_traits@PEAVmfdpage_t@@U?$less@PEAVmfdpage_t@@@std@@V?$allocator@PEAVmfdpage_t@@@3@$0A@@std@@@std@@IEBAAEAPEAU?$_Tree_node@PEAVmfdpage_t@@PEAX@2@XZ 000000018002e1c0 f i in.obj
 0001:0002d1c0       ?_Root@?$_Tree@V?$_Tmap_traits@HV?$basic_string@DU?$char_traits@D@std@@V?$allocator@D@2@@std@@U?$less@H@2@V?$allocator@U?$pair@$$CBHV?$basic_string@DU?$char_traits@D@std@@V?$allocator@D@2@@std@@@std@@@2@$0A@@std@@@std@@IEBAAEAPEAU?$_Tree_node@U?$pair@$$CBHV?$basic_string@DU?$char_traits@D@std@@V?$allocator@D@2@@std@@@std@@PEAX@2@XZ 000000018002e1c0 f i out_saitek.obj
 0001:0002d1c0       ?_Root@?$_Tree@V?$_Tmap_traits@HMU?$less@H@std@@V?$allocator@U?$pair@$$CBHM@std@@@2@$0A@@std@@@std@@IEBAAEAPEAU?$_Tree_node@U?$pair@$$CBHM@std@@PEAX@2@XZ 000000018002e1c0 f i fms_config.obj
 0001:0002d1c0       ?_Root@?$_Tree@V?$_Tmap_traits@V?$basic_string@DU?$char_traits@D@std@@V?$allocator@D@2@@std@@DU?$less@V?$basic_string@DU?$char_traits@D@std@@V?$allocator@D@2@@std@@@2@V?$allocator@U?$pair@$$CBV?$basic_string@DU?$char_traits@D@std@@V?$allocator@D@2@@std@@D@std@@@2@$0A@@std@@@std@@IEBAAEAPEAU?$_Tree_node@U?$pair@$$CBV?$basic_string@DU?$char_traits@D@std@@V?$allocator@D@2@@std@@D@std@@PEAX@2@XZ 000000018002e1c0 f i mfdpage.obj
 0001:0002d1c0       ?_Root@?$_Tree@V?$_Tmap_traits@V?$basic_string@DU?$char_traits@D@std@@V?$allocator@D@2@@std@@PEAVfms_config_item_t@@U?$less@V?$basic_string@DU?$char_traits@D@std@@V?$allocator@D@2@@std@@@2@V?$allocator@U?$pair@$$CBV?$basic_string@DU?$char_traits@D@std@@V?$allocator@D@2@@std@@PEAVfms_config_item_t@@@std@@@2@$0A@@std@@@std@@IEBAAEAPEAU?$_Tree_node@U?$pair@$$CBV?$basic_string@DU?$char_traits@D@std@@V?$allocator@D@2@@std@@PEAVfms_config_item_t@@@std@@PEAX@2@XZ 000000018002e1c0 f i fms_config.obj
 0001:0002d1e0       ?_Rrotate@?$_Tree@V?$_Tset_traits@PEAVobject_t@@U?$less@PEAVobject_t@@@std@@V?$allocator@PEAVobject_t@@@3@$0A@@std@@@std@@IEAAXPEAU?$_Tree_node@PEAVobject_t@@PEAX@2@@Z 000000018002e1e0 f i data.obj
 0001:0002d1e0       ?_Rrotate@?$_Tree@V?$_Tset_traits@PEAVlistener_t@@U?$less@PEAVlistener_t@@@std@@V?$allocator@PEAVlistener_t@@@3@$0A@@std@@@std@@IEAAXPEAU?$_Tree_node@PEAVlistener_t@@PEAX@2@@Z 000000018002e1e0 f i data.obj
 0001:0002d1e0       ?_Rrotate@?$_Tree@V?$_Tset_traits@PEAVmfdpage_t@@U?$less@PEAVmfdpage_t@@@std@@V?$allocator@PEAVmfdpage_t@@@3@$0A@@std@@@std@@IEAAXPEAU?$_Tree_node@PEAVmfdpage_t@@PEAX@2@@Z 000000018002e1e0 f i in.obj
 0001:0002d1e0       ?_Rrotate@?$_Tree@V?$_Tmap_traits@V?$basic_string@DU?$char_traits@D@std@@V?$allocator@D@2@@std@@MU?$less@V?$basic_string@DU?$char_traits@D@std@@V?$allocator@D@2@@std@@@2@V?$allocator@U?$pair@$$CBV?$basic_string@DU?$char_traits@D@std@@V?$allocator@D@2@@std@@M@std@@@2@$0A@@std@@@std@@IEAAXPEAU?$_Tree_node@U?$pair@$$CBV?$basic_string@DU?$char_traits@D@std@@V?$allocator@D@2@@std@@M@std@@PEAX@2@@Z 000000018002e1e0 f i mfdpage_fms.obj
 0001:0002d1e0       ?_Rrotate@?$_Tree@V?$_Tmap_traits@V?$basic_string@DU?$char_traits@D@std@@V?$allocator@D@2@@std@@PEAVfms_fp_item_t@@U?$less@V?$basic_string@DU?$char_traits@D@std@@V?$allocator@D@2@@std@@@2@V?$allocator@U?$pair@$$CBV?$basic_string@DU?$char_traits@D@std@@V?$allocator@D@2@@std@@PEAVfms_fp_item_t@@@std@@@2@$0A@@std@@@std@@IEAAXPEAU?$_Tree_node@U?$pair@$$CBV?$basic_string@DU?$char_traits@D@std@@V?$allocator@D@2@@std@@PEAVfms_fp_item_t@@@std@@PEAX@2@@Z 000000018002e1e0 f i fms_fp.obj
 0001:0002d1e0       ?_Rrotate@?$_Tree@V?$_Tmap_traits@V?$basic_string@DU?$char_traits@D@std@@V?$allocator@D@2@@std@@V12@U?$less@V?$basic_string@DU?$char_traits@D@std@@V?$allocator@D@2@@std@@@2@V?$allocator@U?$pair@$$CBV?$basic_string@DU?$char_traits@D@std@@V?$allocator@D@2@@std@@V12@@std@@@2@$0A@@std@@@std@@IEAAXPEAU?$_Tree_node@U?$pair@$$CBV?$basic_string@DU?$char_traits@D@std@@V?$allocator@D@2@@std@@V12@@std@@PEAX@2@@Z 000000018002e1e0 f i tools.obj
 0001:0002d1e0       ?_Rrotate@?$_Tree@V?$_Tmap_traits@HPEAVfms_fp_item_t@@U?$less@H@std@@V?$allocator@U?$pair@$$CBHPEAVfms_fp_item_t@@@std@@@3@$0A@@std@@@std@@IEAAXPEAU?$_Tree_node@U?$pair@$$CBHPEAVfms_fp_item_t@@@std@@PEAX@2@@Z 000000018002e1e0 f i mfdpage_fms.obj
 0001:0002d1e0       ?_Rrotate@?$_Tree@V?$_Tmap_traits@V?$basic_string@DU?$char_traits@D@std@@V?$allocator@D@2@@std@@HU?$less@V?$basic_string@DU?$char_traits@D@std@@V?$allocator@D@2@@std@@@2@V?$allocator@U?$pair@$$CBV?$basic_string@DU?$char_traits@D@std@@V?$allocator@D@2@@std@@H@std@@@2@$0A@@std@@@std@@IEAAXPEAU?$_Tree_node@U?$pair@$$CBV?$basic_string@DU?$char_traits@D@std@@V?$allocator@D@2@@std@@H@std@@PEAX@2@@Z 000000018002e1e0 f i mfdpage.obj
 0001:0002d1e0       ?_Rrotate@?$_Tree@V?$_Tmap_traits@V?$basic_string@DU?$char_traits@D@std@@V?$allocator@D@2@@std@@DU?$less@V?$basic_string@DU?$char_traits@D@std@@V?$allocator@D@2@@std@@@2@V?$allocator@U?$pair@$$CBV?$basic_string@DU?$char_traits@D@std@@V?$allocator@D@2@@std@@D@std@@@2@$0A@@std@@@std@@IEAAXPEAU?$_Tree_node@U?$pair@$$CBV?$basic_string@DU?$char_traits@D@std@@V?$allocator@D@2@@std@@D@std@@PEAX@2@@Z 000000018002e1e0 f i mfdpage.obj
 0001:0002d1e0       ?_Rrotate@?$_Tree@V?$_Tmap_traits@HMU?$less@H@std@@V?$allocator@U?$pair@$$CBHM@std@@@2@$0A@@std@@@std@@IEAAXPEAU?$_Tree_node@U?$pair@$$CBHM@std@@PEAX@2@@Z 000000018002e1e0 f i fms_config.obj
 0001:0002d1e0       ?_Rrotate@?$_Tree@V?$_Tmap_traits@V?$basic_string@DU?$char_traits@D@std@@V?$allocator@D@2@@std@@PEAVfms_config_item_t@@U?$less@V?$basic_string@DU?$char_traits@D@std@@V?$allocator@D@2@@std@@@2@V?$allocator@U?$pair@$$CBV?$basic_string@DU?$char_traits@D@std@@V?$allocator@D@2@@std@@PEAVfms_config_item_t@@@std@@@2@$0A@@std@@@std@@IEAAXPEAU?$_Tree_node@U?$pair@$$CBV?$basic_string@DU?$char_traits@D@std@@V?$allocator@D@2@@std@@PEAVfms_config_item_t@@@std@@PEAX@2@@Z 000000018002e1e0 f i fms_config.obj
 0001:0002d1e0       ?_Rrotate@?$_Tree@V?$_Tmap_traits@HPEAVobject_t@@U?$less@H@std@@V?$allocator@U?$pair@$$CBHPEAVobject_t@@@std@@@3@$0A@@std@@@std@@IEAAXPEAU?$_Tree_node@U?$pair@$$CBHPEAVobject_t@@@std@@PEAX@2@@Z 000000018002e1e0 f i mfdpage.obj
 0001:0002d1e0       ?_Rrotate@?$_Tree@V?$_Tmap_traits@HV?$basic_string@DU?$char_traits@D@std@@V?$allocator@D@2@@std@@U?$less@H@2@V?$allocator@U?$pair@$$CBHV?$basic_string@DU?$char_traits@D@std@@V?$allocator@D@2@@std@@@std@@@2@$0A@@std@@@std@@IEAAXPEAU?$_Tree_node@U?$pair@$$CBHV?$basic_string@DU?$char_traits@D@std@@V?$allocator@D@2@@std@@@std@@PEAX@2@@Z 000000018002e1e0 f i out_saitek.obj
 0001:0002d320       ?_Tidy@?$_Tree@V?$_Tmap_traits@V?$basic_string@DU?$char_traits@D@std@@V?$allocator@D@2@@std@@PEAVfms_fp_item_t@@U?$less@V?$basic_string@DU?$char_traits@D@std@@V?$allocator@D@2@@std@@@2@V?$allocator@U?$pair@$$CBV?$basic_string@DU?$char_traits@D@std@@V?$allocator@D@2@@std@@PEAVfms_fp_item_t@@@std@@@2@$0A@@std@@@std@@IEAAXXZ 000000018002e320 f i fms_fp.obj
 0001:0002d320       ?_Tidy@?$_Tree@V?$_Tmap_traits@V?$basic_string@DU?$char_traits@D@std@@V?$allocator@D@2@@std@@HU?$less@V?$basic_string@DU?$char_traits@D@std@@V?$allocator@D@2@@std@@@2@V?$allocator@U?$pair@$$CBV?$basic_string@DU?$char_traits@D@std@@V?$allocator@D@2@@std@@H@std@@@2@$0A@@std@@@std@@IEAAXXZ 000000018002e320 f i mfdpage.obj
 0001:0002d320       ?_Tidy@?$_Tree@V?$_Tmap_traits@V?$basic_string@DU?$char_traits@D@std@@V?$allocator@D@2@@std@@MU?$less@V?$basic_string@DU?$char_traits@D@std@@V?$allocator@D@2@@std@@@2@V?$allocator@U?$pair@$$CBV?$basic_string@DU?$char_traits@D@std@@V?$allocator@D@2@@std@@M@std@@@2@$0A@@std@@@std@@IEAAXXZ 000000018002e320 f i fms_config.obj
 0001:0002d320       ?_Tidy@?$_Tree@V?$_Tmap_traits@V?$basic_string@DU?$char_traits@D@std@@V?$allocator@D@2@@std@@PEAVfms_config_item_t@@U?$less@V?$basic_string@DU?$char_traits@D@std@@V?$allocator@D@2@@std@@@2@V?$allocator@U?$pair@$$CBV?$basic_string@DU?$char_traits@D@std@@V?$allocator@D@2@@std@@PEAVfms_config_item_t@@@std@@@2@$0A@@std@@@std@@IEAAXXZ 000000018002e320 f i fms_config.obj
 0001:0002d380       ?allocate@?$_Wrap_alloc@V?$allocator@U?$_Tree_node@PEAVlistener_t@@PEAX@std@@@std@@@std@@QEAAPEAU?$_Tree_node@PEAVlistener_t@@PEAX@2@_K@Z 000000018002e380 f i data.obj
 0001:0002d380       ?allocate@?$_Wrap_alloc@V?$allocator@U?$_Tree_node@PEAVmfdpage_t@@PEAX@std@@@std@@@std@@QEAAPEAU?$_Tree_node@PEAVmfdpage_t@@PEAX@2@_K@Z 000000018002e380 f i in.obj
 0001:0002d380       ?allocate@?$_Wrap_alloc@V?$allocator@U?$_Tree_node@PEAVobject_t@@PEAX@std@@@std@@@std@@QEAAPEAU?$_Tree_node@PEAVobject_t@@PEAX@2@_K@Z 000000018002e380 f i data.obj
 0001:0002d380       ?allocate@?$_Wrap_alloc@V?$allocator@U?$_Tree_node@U?$pair@$$CBHM@std@@PEAX@std@@@std@@@std@@QEAAPEAU?$_Tree_node@U?$pair@$$CBHM@std@@PEAX@2@_K@Z 000000018002e380 f i fms_config.obj
 0001:0002d3b0       ?clear@?$_Tree@V?$_Tmap_traits@V?$basic_string@DU?$char_traits@D@std@@V?$allocator@D@2@@std@@PEAVfms_fp_item_t@@U?$less@V?$basic_string@DU?$char_traits@D@std@@V?$allocator@D@2@@std@@@2@V?$allocator@U?$pair@$$CBV?$basic_string@DU?$char_traits@D@std@@V?$allocator@D@2@@std@@PEAVfms_fp_item_t@@@std@@@2@$0A@@std@@@std@@QEAAXXZ 000000018002e3b0 f i fms_fp.obj
 0001:0002d3b0       ?clear@?$_Tree@V?$_Tmap_traits@V?$basic_string@DU?$char_traits@D@std@@V?$allocator@D@2@@std@@MU?$less@V?$basic_string@DU?$char_traits@D@std@@V?$allocator@D@2@@std@@@2@V?$allocator@U?$pair@$$CBV?$basic_string@DU?$char_traits@D@std@@V?$allocator@D@2@@std@@M@std@@@2@$0A@@std@@@std@@QEAAXXZ 000000018002e3b0 f i fms_config.obj
 0001:0002d3b0       ?clear@?$_Tree@V?$_Tmap_traits@V?$basic_string@DU?$char_traits@D@std@@V?$allocator@D@2@@std@@PEAVfms_config_item_t@@U?$less@V?$basic_string@DU?$char_traits@D@std@@V?$allocator@D@2@@std@@@2@V?$allocator@U?$pair@$$CBV?$basic_string@DU?$char_traits@D@std@@V?$allocator@D@2@@std@@PEAVfms_config_item_t@@@std@@@2@$0A@@std@@@std@@QEAAXXZ 000000018002e3b0 f i fms_config.obj
 0001:0002d3b0       ?clear@?$_Tree@V?$_Tmap_traits@V?$basic_string@DU?$char_traits@D@std@@V?$allocator@D@2@@std@@HU?$less@V?$basic_string@DU?$char_traits@D@std@@V?$allocator@D@2@@std@@@2@V?$allocator@U?$pair@$$CBV?$basic_string@DU?$char_traits@D@std@@V?$allocator@D@2@@std@@H@std@@@2@$0A@@std@@@std@@QEAAXXZ 000000018002e3b0 f i mfdpage.obj
 0001:0002d430       ?deallocate@?$_Wrap_alloc@V?$allocator@U?$_Tree_node@U?$pair@$$CBV?$basic_string@DU?$char_traits@D@std@@V?$allocator@D@2@@std@@D@std@@PEAX@std@@@std@@@std@@QEAAXPEAU?$_Tree_node@U?$pair@$$CBV?$basic_string@DU?$char_traits@D@std@@V?$allocator@D@2@@std@@D@std@@PEAX@2@_K@Z 000000018002e430 f i mfdpage.obj
 0001:0002d430       ?deallocate@?$_Wrap_alloc@V?$allocator@U?$_Tree_node@U?$pair@$$CBV?$basic_string@DU?$char_traits@D@std@@V?$allocator@D@2@@std@@PEAVfms_config_item_t@@@std@@PEAX@std@@@std@@@std@@QEAAXPEAU?$_Tree_node@U?$pair@$$CBV?$basic_string@DU?$char_traits@D@std@@V?$allocator@D@2@@std@@PEAVfms_config_item_t@@@std@@PEAX@2@_K@Z 000000018002e430 f i fms_config.obj
 0001:0002d430       ?deallocate@?$_Wrap_alloc@V?$allocator@U?$_Tree_node@U?$pair@$$CBV?$basic_string@DU?$char_traits@D@std@@V?$allocator@D@2@@std@@M@std@@PEAX@std@@@std@@@std@@QEAAXPEAU?$_Tree_node@U?$pair@$$CBV?$basic_string@DU?$char_traits@D@std@@V?$allocator@D@2@@std@@M@std@@PEAX@2@_K@Z 000000018002e430 f i mfdpage_fms.obj
 0001:0002d430       ?deallocate@?$_Wrap_alloc@V?$allocator@U?$_Tree_node@U?$pair@$$CBHM@std@@PEAX@std@@@std@@@std@@QEAAXPEAU?$_Tree_node@U?$pair@$$CBHM@std@@PEAX@2@_K@Z 000000018002e430 f i fms_config.obj
 0001:0002d430       ?deallocate@?$_Wrap_alloc@V?$allocator@D@std@@@std@@QEAAXPEAD_K@Z 000000018002e430 f i main.obj
 0001:0002d430       ?deallocate@?$_Wrap_alloc@V?$allocator@U?$_Tree_node@U?$pair@$$CBV?$basic_string@DU?$char_traits@D@std@@V?$allocator@D@2@@std@@PEAVfms_fp_item_t@@@std@@PEAX@std@@@std@@@std@@QEAAXPEAU?$_Tree_node@U?$pair@$$CBV?$basic_string@DU?$char_traits@D@std@@V?$allocator@D@2@@std@@PEAVfms_fp_item_t@@@std@@PEAX@2@_K@Z 000000018002e430 f i fms_fp.obj
 0001:0002d430       ?deallocate@?$_Wrap_alloc@V?$allocator@U?$_Tree_node@PEAVobject_t@@PEAX@std@@@std@@@std@@QEAAXPEAU?$_Tree_node@PEAVobject_t@@PEAX@2@_K@Z 000000018002e430 f i data.obj
 0001:0002d430       ?deallocate@?$_Wrap_alloc@V?$allocator@U?$_Tree_node@PEAVlistener_t@@PEAX@std@@@std@@@std@@QEAAXPEAU?$_Tree_node@PEAVlistener_t@@PEAX@2@_K@Z 000000018002e430 f i data.obj
 0001:0002d430       ?deallocate@?$_Wrap_alloc@V?$allocator@U?$_Tree_node@U?$pair@$$CBV?$basic_string@DU?$char_traits@D@std@@V?$allocator@D@2@@std@@V12@@std@@PEAX@std@@@std@@@std@@QEAAXPEAU?$_Tree_node@U?$pair@$$CBV?$basic_string@DU?$char_traits@D@std@@V?$allocator@D@2@@std@@V12@@std@@PEAX@2@_K@Z 000000018002e430 f i tools.obj
 0001:0002d430       ?deallocate@?$_Wrap_alloc@V?$allocator@U?$_Tree_node@U?$pair@$$CBHPEAVfms_fp_item_t@@@std@@PEAX@std@@@std@@@std@@QEAAXPEAU?$_Tree_node@U?$pair@$$CBHPEAVfms_fp_item_t@@@std@@PEAX@2@_K@Z 000000018002e430 f i mfdpage_fms.obj
 0001:0002d430       ?deallocate@?$_Wrap_alloc@V?$allocator@U?$_Tree_node@U?$pair@$$CBV?$basic_string@DU?$char_traits@D@std@@V?$allocator@D@2@@std@@H@std@@PEAX@std@@@std@@@std@@QEAAXPEAU?$_Tree_node@U?$pair@$$CBV?$basic_string@DU?$char_traits@D@std@@V?$allocator@D@2@@std@@H@std@@PEAX@2@_K@Z 000000018002e430 f i mfdpage.obj
 0001:0002d430       ?deallocate@?$_Wrap_alloc@V?$allocator@U?$_Tree_node@PEAVmfdpage_t@@PEAX@std@@@std@@@std@@QEAAXPEAU?$_Tree_node@PEAVmfdpage_t@@PEAX@2@_K@Z 000000018002e430 f i in.obj
 0001:0002d430       ?deallocate@?$_Wrap_alloc@V?$allocator@U?$_Tree_node@U?$pair@$$CBHPEAVobject_t@@@std@@PEAX@std@@@std@@@std@@QEAAXPEAU?$_Tree_node@U?$pair@$$CBHPEAVobject_t@@@std@@PEAX@2@_K@Z 000000018002e430 f i mfdpage.obj
 0001:0002d430       ?deallocate@?$_Wrap_alloc@V?$allocator@U?$_Tree_node@U?$pair@$$CBHV?$basic_string@DU?$char_traits@D@std@@V?$allocator@D@2@@std@@@std@@PEAX@std@@@std@@@std@@QEAAXPEAU?$_Tree_node@U?$pair@$$CBHV?$basic_string@DU?$char_traits@D@std@@V?$allocator@D@2@@std@@@std@@PEAX@2@_K@Z 000000018002e430 f i out_saitek.obj
 0001:0002d460       ?end@?$_Tree@V?$_Tmap_traits@V?$basic_string@DU?$char_traits@D@std@@V?$allocator@D@2@@std@@DU?$less@V?$basic_string@DU?$char_traits@D@std@@V?$allocator@D@2@@std@@@2@V?$allocator@U?$pair@$$CBV?$basic_string@DU?$char_traits@D@std@@V?$allocator@D@2@@std@@D@std@@@2@$0A@@std@@@std@@QEAA?AV?$_Tree_iterator@V?$_Tree_val@U?$_Tree_simple_types@U?$pair@$$CBV?$basic_string@DU?$char_traits@D@std@@V?$allocator@D@2@@std@@D@std@@@std@@@std@@@2@XZ 000000018002e460 f i mfdpage.obj
 0001:0002d460       ?end@?$_Tree@V?$_Tmap_traits@V?$basic_string@DU?$char_traits@D@std@@V?$allocator@D@2@@std@@MU?$less@V?$basic_string@DU?$char_traits@D@std@@V?$allocator@D@2@@std@@@2@V?$allocator@U?$pair@$$CBV?$basic_string@DU?$char_traits@D@std@@V?$allocator@D@2@@std@@M@std@@@2@$0A@@std@@@std@@QEAA?AV?$_Tree_iterator@V?$_Tree_val@U?$_Tree_simple_types@U?$pair@$$CBV?$basic_string@DU?$char_traits@D@std@@V?$allocator@D@2@@std@@M@std@@@std@@@std@@@2@XZ 000000018002e460 f i mfdpage_fms.obj
 0001:0002d460       ?end@?$_Tree@V?$_Tmap_traits@V?$basic_string@DU?$char_traits@D@std@@V?$allocator@D@2@@std@@PEAVfms_fp_item_t@@U?$less@V?$basic_string@DU?$char_traits@D@std@@V?$allocator@D@2@@std@@@2@V?$allocator@U?$pair@$$CBV?$basic_string@DU?$char_traits@D@std@@V?$allocator@D@2@@std@@PEAVfms_fp_item_t@@@std@@@2@$0A@@std@@@std@@QEAA?AV?$_Tree_iterator@V?$_Tree_val@U?$_Tree_simple_types@U?$pair@$$CBV?$basic_string@DU?$char_traits@D@std@@V?$allocator@D@2@@std@@PEAVfms_fp_item_t@@@std@@@std@@@std@@@2@XZ 000000018002e460 f i fms_fp.obj
 0001:0002d460       ?end@?$_Tree@V?$_Tmap_traits@HMU?$less@H@std@@V?$allocator@U?$pair@$$CBHM@std@@@2@$0A@@std@@@std@@QEAA?AV?$_Tree_iterator@V?$_Tree_val@U?$_Tree_simple_types@U?$pair@$$CBHM@std@@@std@@@std@@@2@XZ 000000018002e460 f i fms_config.obj
 0001:0002d460       ?end@?$_Tree@V?$_Tmap_traits@V?$basic_string@DU?$char_traits@D@std@@V?$allocator@D@2@@std@@HU?$less@V?$basic_string@DU?$char_traits@D@std@@V?$allocator@D@2@@std@@@2@V?$allocator@U?$pair@$$CBV?$basic_string@DU?$char_traits@D@std@@V?$allocator@D@2@@std@@H@std@@@2@$0A@@std@@@std@@QEAA?AV?$_Tree_iterator@V?$_Tree_val@U?$_Tree_simple_types@U?$pair@$$CBV?$basic_string@DU?$char_traits@D@std@@V?$allocator@D@2@@std@@H@std@@@std@@@std@@@2@XZ 000000018002e460 f i mfdpage.obj
 0001:0002d460       ?end@?$_Tree@V?$_Tmap_traits@HPEAVfms_fp_item_t@@U?$less@H@std@@V?$allocator@U?$pair@$$CBHPEAVfms_fp_item_t@@@std@@@3@$0A@@std@@@std@@QEAA?AV?$_Tree_iterator@V?$_Tree_val@U?$_Tree_simple_types@U?$pair@$$CBHPEAVfms_fp_item_t@@@std@@@std@@@std@@@2@XZ 000000018002e460 f i mfdpage_fms.obj
 0001:0002d460       ?end@?$_Tree@V?$_Tmap_traits@V?$basic_string@DU?$char_traits@D@std@@V?$allocator@D@2@@std@@PEAVfms_config_item_t@@U?$less@V?$basic_string@DU?$char_traits@D@std@@V?$allocator@D@2@@std@@@2@V?$allocator@U?$pair@$$CBV?$basic_string@DU?$char_traits@D@std@@V?$allocator@D@2@@std@@PEAVfms_config_item_t@@@std@@@2@$0A@@std@@@std@@QEAA?AV?$_Tree_iterator@V?$_Tree_val@U?$_Tree_simple_types@U?$pair@$$CBV?$basic_string@DU?$char_traits@D@std@@V?$allocator@D@2@@std@@PEAVfms_config_item_t@@@std@@@std@@@std@@@2@XZ 000000018002e460 f i fms_config.obj
 0001:0002d460       ?end@?$_Tree@V?$_Tmap_traits@HV?$basic_string@DU?$char_traits@D@std@@V?$allocator@D@2@@std@@U?$less@H@2@V?$allocator@U?$pair@$$CBHV?$basic_string@DU?$char_traits@D@std@@V?$allocator@D@2@@std@@@std@@@2@$0A@@std@@@std@@QEAA?AV?$_Tree_iterator@V?$_Tree_val@U?$_Tree_simple_types@U?$pair@$$CBHV?$basic_string@DU?$char_traits@D@std@@V?$allocator@D@2@@std@@@std@@@std@@@std@@@2@XZ 000000018002e460 f i out_saitek.obj
 0001:0002d460       ?end@?$_Tree@V?$_Tmap_traits@V?$basic_string@DU?$char_traits@D@std@@V?$allocator@D@2@@std@@V12@U?$less@V?$basic_string@DU?$char_traits@D@std@@V?$allocator@D@2@@std@@@2@V?$allocator@U?$pair@$$CBV?$basic_string@DU?$char_traits@D@std@@V?$allocator@D@2@@std@@V12@@std@@@2@$0A@@std@@@std@@QEAA?AV?$_Tree_iterator@V?$_Tree_val@U?$_Tree_simple_types@U?$pair@$$CBV?$basic_string@DU?$char_traits@D@std@@V?$allocator@D@2@@std@@V12@@std@@@std@@@std@@@2@XZ 000000018002e460 f i tools.obj
 0001:0002d460       ?end@?$_Tree@V?$_Tmap_traits@HPEAVobject_t@@U?$less@H@std@@V?$allocator@U?$pair@$$CBHPEAVobject_t@@@std@@@3@$0A@@std@@@std@@QEAA?AV?$_Tree_iterator@V?$_Tree_val@U?$_Tree_simple_types@U?$pair@$$CBHPEAVobject_t@@@std@@@std@@@std@@@2@XZ 000000018002e460 f i mfdpage.obj
 0001:0002d490       ?erase@?$_Tree@V?$_Tmap_traits@V?$basic_string@DU?$char_traits@D@std@@V?$allocator@D@2@@std@@MU?$less@V?$basic_string@DU?$char_traits@D@std@@V?$allocator@D@2@@std@@@2@V?$allocator@U?$pair@$$CBV?$basic_string@DU?$char_traits@D@std@@V?$allocator@D@2@@std@@M@std@@@2@$0A@@std@@@std@@QEAA?AV?$_Tree_iterator@V?$_Tree_val@U?$_Tree_simple_types@U?$pair@$$CBV?$basic_string@DU?$char_traits@D@std@@V?$allocator@D@2@@std@@M@std@@@std@@@std@@@2@V?$_Tree_const_iterator@V?$_Tree_val@U?$_Tree_simple_types@U?$pair@$$CBV?$basic_string@DU?$char_traits@D@std@@V?$allocator@D@2@@std@@M@std@@@std@@@std@@@2@0@Z 000000018002e490 f i fms_config.obj
 0001:0002d490       ?erase@?$_Tree@V?$_Tmap_traits@V?$basic_string@DU?$char_traits@D@std@@V?$allocator@D@2@@std@@PEAVfms_config_item_t@@U?$less@V?$basic_string@DU?$char_traits@D@std@@V?$allocator@D@2@@std@@@2@V?$allocator@U?$pair@$$CBV?$basic_string@DU?$char_traits@D@std@@V?$allocator@D@2@@std@@PEAVfms_config_item_t@@@std@@@2@$0A@@std@@@std@@QEAA?AV?$_Tree_iterator@V?$_Tree_val@U?$_Tree_simple_types@U?$pair@$$CBV?$basic_string@DU?$char_traits@D@std@@V?$allocator@D@2@@std@@PEAVfms_config_item_t@@@std@@@std@@@std@@@2@V?$_Tree_const_iterator@V?$_Tree_val@U?$_Tree_simple_types@U?$pair@$$CBV?$basic_string@DU?$char_traits@D@std@@V?$allocator@D@2@@std@@PEAVfms_config_item_t@@@std@@@std@@@std@@@2@0@Z 000000018002e490 f i fms_config.obj
 0001:0002d490       ?erase@?$_Tree@V?$_Tmap_traits@V?$basic_string@DU?$char_traits@D@std@@V?$allocator@D@2@@std@@HU?$less@V?$basic_string@DU?$char_traits@D@std@@V?$allocator@D@2@@std@@@2@V?$allocator@U?$pair@$$CBV?$basic_string@DU?$char_traits@D@std@@V?$allocator@D@2@@std@@H@std@@@2@$0A@@std@@@std@@QEAA?AV?$_Tree_iterator@V?$_Tree_val@U?$_Tree_simple_types@U?$pair@$$CBV?$basic_string@DU?$char_traits@D@std@@V?$allocator@D@2@@std@@H@std@@@std@@@std@@@2@V?$_Tree_const_iterator@V?$_Tree_val@U?$_Tree_simple_types@U?$pair@$$CBV?$basic_string@DU?$char_traits@D@std@@V?$allocator@D@2@@std@@H@std@@@std@@@std@@@2@0@Z 000000018002e490 f i mfdpage.obj
 0001:0002d490       ?erase@?$_Tree@V?$_Tmap_traits@V?$basic_string@DU?$char_traits@D@std@@V?$allocator@D@2@@std@@PEAVfms_fp_item_t@@U?$less@V?$basic_string@DU?$char_traits@D@std@@V?$allocator@D@2@@std@@@2@V?$allocator@U?$pair@$$CBV?$basic_string@DU?$char_traits@D@std@@V?$allocator@D@2@@std@@PEAVfms_fp_item_t@@@std@@@2@$0A@@std@@@std@@QEAA?AV?$_Tree_iterator@V?$_Tree_val@U?$_Tree_simple_types@U?$pair@$$CBV?$basic_string@DU?$char_traits@D@std@@V?$allocator@D@2@@std@@PEAVfms_fp_item_t@@@std@@@std@@@std@@@2@V?$_Tree_const_iterator@V?$_Tree_val@U?$_Tree_simple_types@U?$pair@$$CBV?$basic_string@DU?$char_traits@D@std@@V?$allocator@D@2@@std@@PEAVfms_fp_item_t@@@std@@@std@@@std@@@2@0@Z 000000018002e490 f i fms_fp.obj
 0001:0002d570       ?erase@?$_Tree@V?$_Tmap_traits@V?$basic_string@DU?$char_traits@D@std@@V?$allocator@D@2@@std@@PEAVfms_config_item_t@@U?$less@V?$basic_string@DU?$char_traits@D@std@@V?$allocator@D@2@@std@@@2@V?$allocator@U?$pair@$$CBV?$basic_string@DU?$char_traits@D@std@@V?$allocator@D@2@@std@@PEAVfms_config_item_t@@@std@@@2@$0A@@std@@@std@@QEAA?AV?$_Tree_iterator@V?$_Tree_val@U?$_Tree_simple_types@U?$pair@$$CBV?$basic_string@DU?$char_traits@D@std@@V?$allocator@D@2@@std@@PEAVfms_config_item_t@@@std@@@std@@@std@@@2@V?$_Tree_const_iterator@V?$_Tree_val@U?$_Tree_simple_types@U?$pair@$$CBV?$basic_string@DU?$char_traits@D@std@@V?$allocator@D@2@@std@@PEAVfms_config_item_t@@@std@@@std@@@std@@@2@@Z 000000018002e570 f i fms_config.obj
 0001:0002d570       ?erase@?$_Tree@V?$_Tmap_traits@V?$basic_string@DU?$char_traits@D@std@@V?$allocator@D@2@@std@@HU?$less@V?$basic_string@DU?$char_traits@D@std@@V?$allocator@D@2@@std@@@2@V?$allocator@U?$pair@$$CBV?$basic_string@DU?$char_traits@D@std@@V?$allocator@D@2@@std@@H@std@@@2@$0A@@std@@@std@@QEAA?AV?$_Tree_iterator@V?$_Tree_val@U?$_Tree_simple_types@U?$pair@$$CBV?$basic_string@DU?$char_traits@D@std@@V?$allocator@D@2@@std@@H@std@@@std@@@std@@@2@V?$_Tree_const_iterator@V?$_Tree_val@U?$_Tree_simple_types@U?$pair@$$CBV?$basic_string@DU?$char_traits@D@std@@V?$allocator@D@2@@std@@H@std@@@std@@@std@@@2@@Z 000000018002e570 f i mfdpage.obj
 0001:0002d570       ?erase@?$_Tree@V?$_Tmap_traits@V?$basic_string@DU?$char_traits@D@std@@V?$allocator@D@2@@std@@PEAVfms_fp_item_t@@U?$less@V?$basic_string@DU?$char_traits@D@std@@V?$allocator@D@2@@std@@@2@V?$allocator@U?$pair@$$CBV?$basic_string@DU?$char_traits@D@std@@V?$allocator@D@2@@std@@PEAVfms_fp_item_t@@@std@@@2@$0A@@std@@@std@@QEAA?AV?$_Tree_iterator@V?$_Tree_val@U?$_Tree_simple_types@U?$pair@$$CBV?$basic_string@DU?$char_traits@D@std@@V?$allocator@D@2@@std@@PEAVfms_fp_item_t@@@std@@@std@@@std@@@2@V?$_Tree_const_iterator@V?$_Tree_val@U?$_Tree_simple_types@U?$pair@$$CBV?$basic_string@DU?$char_traits@D@std@@V?$allocator@D@2@@std@@PEAVfms_fp_item_t@@@std@@@std@@@std@@@2@@Z 000000018002e570 f i fms_fp.obj
 0001:0002d570       ?erase@?$_Tree@V?$_Tmap_traits@V?$basic_string@DU?$char_traits@D@std@@V?$allocator@D@2@@std@@MU?$less@V?$basic_string@DU?$char_traits@D@std@@V?$allocator@D@2@@std@@@2@V?$allocator@U?$pair@$$CBV?$basic_string@DU?$char_traits@D@std@@V?$allocator@D@2@@std@@M@std@@@2@$0A@@std@@@std@@QEAA?AV?$_Tree_iterator@V?$_Tree_val@U?$_Tree_simple_types@U?$pair@$$CBV?$basic_string@DU?$char_traits@D@std@@V?$allocator@D@2@@std@@M@std@@@std@@@std@@@2@V?$_Tree_const_iterator@V?$_Tree_val@U?$_Tree_simple_types@U?$pair@$$CBV?$basic_string@DU?$char_traits@D@std@@V?$allocator@D@2@@std@@M@std@@@std@@@std@@@2@@Z 000000018002e570 f i fms_config.obj
 0001:0002ddb0       ?lower_bound@?$_Tree@V?$_Tmap_traits@HMU?$less@H@std@@V?$allocator@U?$pair@$$CBHM@std@@@2@$0A@@std@@@std@@QEAA?AV?$_Tree_iterator@V?$_Tree_val@U?$_Tree_simple_types@U?$pair@$$CBHM@std@@@std@@@std@@@2@AEBH@Z 000000018002edb0 f i fms_config.obj
 0001:0002ddf0       ?max_size@?$_Tree@V?$_Tmap_traits@HMU?$less@H@std@@V?$allocator@U?$pair@$$CBHM@std@@@2@$0A@@std@@@std@@QEBA_KXZ 000000018002edf0 f i fms_config.obj
 0001:0002ddf0       ?max_size@?$_Tree@V?$_Tset_traits@PEAVmfdpage_t@@U?$less@PEAVmfdpage_t@@@std@@V?$allocator@PEAVmfdpage_t@@@3@$0A@@std@@@std@@QEBA_KXZ 000000018002edf0 f i in.obj
 0001:0002ddf0       ?max_size@?$_Tree@V?$_Tset_traits@PEAVlistener_t@@U?$less@PEAVlistener_t@@@std@@V?$allocator@PEAVlistener_t@@@3@$0A@@std@@@std@@QEBA_KXZ 000000018002edf0 f i data.obj
 0001:0002ddf0       ?max_size@?$_Tree@V?$_Tset_traits@PEAVobject_t@@U?$less@PEAVobject_t@@@std@@V?$allocator@PEAVobject_t@@@3@$0A@@std@@@std@@QEBA_KXZ 000000018002edf0 f i data.obj
 0001:0002de20       ?max_size@?$allocator@U?$_Tree_node@PEAVobject_t@@PEAX@std@@@std@@QEBA_KXZ 000000018002ee20 f i data.obj
 0001:0002de20       ?max_size@?$allocator@U?$_Tree_node@PEAVlistener_t@@PEAX@std@@@std@@QEBA_KXZ 000000018002ee20 f i data.obj
 0001:0002de20       ?max_size@?$allocator@U?$_Tree_node@U?$pair@$$CBHM@std@@PEAX@std@@@std@@QEBA_KXZ 000000018002ee20 f i fms_config.obj
 0001:0002de20       ?max_size@?$allocator@U?$_Tree_node@PEAVmfdpage_t@@PEAX@std@@@std@@QEBA_KXZ 000000018002ee20 f i in.obj
 0001:0002de30       ??0fms_fuel_t@@QEAA@XZ     000000018002ee30 f   fms_fuel.obj
 0001:0002de70       ??0fms_fuel_t@@QEAA@PEAVfms_config_t@@@Z 000000018002ee70 f   fms_fuel.obj
 0001:0002ded0       ??1fms_fuel_t@@QEAA@XZ     000000018002eed0 f   fms_fuel.obj
 0001:0002dee0       ?load@fms_fuel_t@@QEAAXXZ  000000018002eee0 f   fms_fuel.obj
 0001:0002df20       ?remaining@fms_fuel_t@@QEAA?AV?$basic_string@DU?$char_traits@D@std@@V?$allocator@D@2@@std@@XZ 000000018002ef20 f   fms_fuel.obj
 0001:0002e040       ?fuel_flow@fms_fuel_t@@QEAAMXZ 000000018002f040 f   fms_fuel.obj
 0001:0002e0b0       ?num_engines@fms_fuel_t@@AEAAHXZ 000000018002f0b0 f   fms_fuel.obj
 0001:0002e110       ?lb_to_load@fms_fuel_t@@AEAAMXZ 000000018002f110 f   fms_fuel.obj
 0001:0002e420       ?fuel_on_board@fms_fuel_t@@AEAAMXZ 000000018002f420 f   fms_fuel.obj
 0001:0002e480       ??0fms_fp_t@@QEAA@XZ       000000018002f480 f   fms_fp.obj
 0001:0002e4f0       ??0fms_fp_t@@QEAA@PEAVfms_config_t@@@Z 000000018002f4f0 f   fms_fp.obj
 0001:0002e620       ??1fms_fp_t@@QEAA@XZ       000000018002f620 f   fms_fp.obj
 0001:0002e690       ?load@fms_fp_t@@QEAAXXZ    000000018002f690 f   fms_fp.obj
 0001:0002f680       ?status2string@fms_fp_t@@QEAA?AV?$basic_string@DU?$char_traits@D@std@@V?$allocator@D@2@@std@@H@Z 0000000180030680 f   fms_fp.obj
 0001:0002f820       ?has_changed@fms_fp_t@@QEAAHV?$basic_string@DU?$char_traits@D@std@@V?$allocator@D@2@@std@@@Z 0000000180030820 f   fms_fp.obj
 0001:0002fca0       ?update_expected_time@fms_fp_t@@QEAAXM@Z 0000000180030ca0 f   fms_fp.obj
 0001:0002fe00       ?save@fms_fp_t@@AEAAXXZ    0000000180030e00 f   fms_fp.obj
 0001:00030270       ?num_entries@fms_fp_t@@AEAAHXZ 0000000180031270 f   fms_fp.obj
 0001:00030290       ?load_entry@fms_fp_t@@AEAAXHPEAVfms_fp_item_t@@@Z 0000000180031290 f   fms_fp.obj
 0001:000304d0       ?load_entry_type@fms_fp_t@@AEAA?AV?$basic_string@DU?$char_traits@D@std@@V?$allocator@D@2@@std@@H@Z 00000001800314d0 f   fms_fp.obj
 0001:00030650       ?load_cache@fms_fp_t@@AEAAXPEAVfms_fp_item_t@@@Z 0000000180031650 f   fms_fp.obj
 0001:00030780       ?load_distance@fms_fp_t@@AEAAXPEAVfms_fp_item_t@@0@Z 0000000180031780 f   fms_fp.obj
 0001:000308f0       ?load_flight_status@fms_fp_t@@AEAAXPEAVfms_fp_item_t@@@Z 00000001800318f0 f   fms_fp.obj
 0001:00030ad0       ?load_time@fms_fp_t@@AEAAXPEAVfms_fp_item_t@@0@Z 0000000180031ad0 f   fms_fp.obj
 0001:00031a30       ?distance_between@fms_fp_t@@AEAAMPEAVfms_fp_item_t@@0H@Z 0000000180032a30 f   fms_fp.obj
 0001:00031b60       ?calculate_distance@fms_fp_t@@AEAANNNNNH@Z 0000000180032b60 f   fms_fp.obj
 0001:00031d20       ??0fms_fp_item_t@@QEAA@XZ  0000000180032d20 f   fms_fp.obj
 0001:00031eb0       ??$_Buynode@AEBUpiecewise_construct_t@std@@V?$tuple@AEBV?$basic_string@DU?$char_traits@D@std@@V?$allocator@D@2@@std@@@2@V?$tuple@$$$V@2@@?$_Tree_buy@U?$pair@$$CBV?$basic_string@DU?$char_traits@D@std@@V?$allocator@D@2@@std@@PEAVfms_fp_item_t@@@std@@V?$allocator@U?$pair@$$CBV?$basic_string@DU?$char_traits@D@std@@V?$allocator@D@2@@std@@PEAVfms_fp_item_t@@@std@@@2@@std@@QEAAPEAU?$_Tree_node@U?$pair@$$CBV?$basic_string@DU?$char_traits@D@std@@V?$allocator@D@2@@std@@PEAVfms_fp_item_t@@@std@@PEAX@1@AEBUpiecewise_construct_t@1@$$QEAV?$tuple@AEBV?$basic_string@DU?$char_traits@D@std@@V?$allocator@D@2@@std@@@1@$$QEAV?$tuple@$$$V@1@@Z 0000000180032eb0 f i fms_fp.obj
 0001:00031fa0       ??$_Insert_hint@AEAU?$pair@$$CBV?$basic_string@DU?$char_traits@D@std@@V?$allocator@D@2@@std@@PEAVfms_fp_item_t@@@std@@PEAU?$_Tree_node@U?$pair@$$CBV?$basic_string@DU?$char_traits@D@std@@V?$allocator@D@2@@std@@PEAVfms_fp_item_t@@@std@@PEAX@2@@?$_Tree@V?$_Tmap_traits@V?$basic_string@DU?$char_traits@D@std@@V?$allocator@D@2@@std@@PEAVfms_fp_item_t@@U?$less@V?$basic_string@DU?$char_traits@D@std@@V?$allocator@D@2@@std@@@2@V?$allocator@U?$pair@$$CBV?$basic_string@DU?$char_traits@D@std@@V?$allocator@D@2@@std@@PEAVfms_fp_item_t@@@std@@@2@$0A@@std@@@std@@IEAA?AV?$_Tree_iterator@V?$_Tree_val@U?$_Tree_simple_types@U?$pair@$$CBV?$basic_string@DU?$char_traits@D@std@@V?$allocator@D@2@@std@@PEAVfms_fp_item_t@@@std@@@std@@@std@@@1@V?$_Tree_const_iterator@V?$_Tree_val@U?$_Tree_simple_types@U?$pair@$$CBV?$basic_string@DU?$char_traits@D@std@@V?$allocator@D@2@@std@@PEAVfms_fp_item_t@@@std@@@std@@@std@@@1@AEAU?$pair@$$CBV?$basic_string@DU?$char_traits@D@std@@V?$allocator@D@2@@std@@PEAVfms_fp_item_t@@@1@PEAU?$_Tree_node@U?$pair@$$CBV?$basic_string@DU?$char_traits@D@std@@V?$allocator@D@2@@std@@PEAVfms_fp_item_t@@@std@@PEAX@1@@Z 0000000180032fa0 f i fms_fp.obj
 0001:00032d30       ??$_Insert_nohint@AEAU?$pair@$$CBV?$basic_string@DU?$char_traits@D@std@@V?$allocator@D@2@@std@@PEAVfms_fp_item_t@@@std@@PEAU?$_Tree_node@U?$pair@$$CBV?$basic_string@DU?$char_traits@D@std@@V?$allocator@D@2@@std@@PEAVfms_fp_item_t@@@std@@PEAX@2@@?$_Tree@V?$_Tmap_traits@V?$basic_string@DU?$char_traits@D@std@@V?$allocator@D@2@@std@@PEAVfms_fp_item_t@@U?$less@V?$basic_string@DU?$char_traits@D@std@@V?$allocator@D@2@@std@@@2@V?$allocator@U?$pair@$$CBV?$basic_string@DU?$char_traits@D@std@@V?$allocator@D@2@@std@@PEAVfms_fp_item_t@@@std@@@2@$0A@@std@@@std@@IEAA?AU?$pair@V?$_Tree_iterator@V?$_Tree_val@U?$_Tree_simple_types@U?$pair@$$CBV?$basic_string@DU?$char_traits@D@std@@V?$allocator@D@2@@std@@PEAVfms_fp_item_t@@@std@@@std@@@std@@@std@@_N@1@_NAEAU?$pair@$$CBV?$basic_string@DU?$char_traits@D@std@@V?$allocator@D@2@@std@@PEAVfms_fp_item_t@@@1@PEAU?$_Tree_node@U?$pair@$$CBV?$basic_string@DU?$char_traits@D@std@@V?$allocator@D@2@@std@@PEAVfms_fp_item_t@@@std@@PEAX@1@@Z 0000000180033d30 f i fms_fp.obj
 0001:00033120       ??$construct@PEADAEAPEAD@?$_Wrap_alloc@V?$allocator@D@std@@@std@@QEAAXPEAPEADAEAPEAD@Z 0000000180034120 f i main.obj
 0001:00033120       ??$construct@PEAU?$_Tree_node@U?$pair@$$CBV?$basic_string@DU?$char_traits@D@std@@V?$allocator@D@2@@std@@H@std@@PEAX@std@@AEAPEAU12@@?$_Wrap_alloc@V?$allocator@U?$_Tree_node@U?$pair@$$CBV?$basic_string@DU?$char_traits@D@std@@V?$allocator@D@2@@std@@H@std@@PEAX@std@@@std@@@std@@QEAAXPEAPEAU?$_Tree_node@U?$pair@$$CBV?$basic_string@DU?$char_traits@D@std@@V?$allocator@D@2@@std@@H@std@@PEAX@1@AEAPEAU21@@Z 0000000180034120 f i mfdpage.obj
 0001:00033120       ??$construct@PEAU?$_Tree_node@PEAVobject_t@@PEAX@std@@AEAPEAU12@@?$_Wrap_alloc@V?$allocator@U?$_Tree_node@PEAVobject_t@@PEAX@std@@@std@@@std@@QEAAXPEAPEAU?$_Tree_node@PEAVobject_t@@PEAX@1@AEAPEAU21@@Z 0000000180034120 f i data.obj
 0001:00033120       ??$construct@PEAU?$_Tree_node@U?$pair@$$CBV?$basic_string@DU?$char_traits@D@std@@V?$allocator@D@2@@std@@D@std@@PEAX@std@@AEAPEAU12@@?$_Wrap_alloc@V?$allocator@U?$_Tree_node@U?$pair@$$CBV?$basic_string@DU?$char_traits@D@std@@V?$allocator@D@2@@std@@D@std@@PEAX@std@@@std@@@std@@QEAAXPEAPEAU?$_Tree_node@U?$pair@$$CBV?$basic_string@DU?$char_traits@D@std@@V?$allocator@D@2@@std@@D@std@@PEAX@1@AEAPEAU21@@Z 0000000180034120 f i mfdpage.obj
 0001:00033120       ??$construct@PEAU?$_Tree_node@U?$pair@$$CBHM@std@@PEAX@std@@AEAPEAU12@@?$_Wrap_alloc@V?$allocator@U?$_Tree_node@U?$pair@$$CBHM@std@@PEAX@std@@@std@@@std@@QEAAXPEAPEAU?$_Tree_node@U?$pair@$$CBHM@std@@PEAX@1@AEAPEAU21@@Z 0000000180034120 f i fms_config.obj
 0001:00033120       ??$construct@PEAU?$_Tree_node@U?$pair@$$CBV?$basic_string@DU?$char_traits@D@std@@V?$allocator@D@2@@std@@M@std@@PEAX@std@@AEAPEAU12@@?$_Wrap_alloc@V?$allocator@U?$_Tree_node@U?$pair@$$CBV?$basic_string@DU?$char_traits@D@std@@V?$allocator@D@2@@std@@M@std@@PEAX@std@@@std@@@std@@QEAAXPEAPEAU?$_Tree_node@U?$pair@$$CBV?$basic_string@DU?$char_traits@D@std@@V?$allocator@D@2@@std@@M@std@@PEAX@1@AEAPEAU21@@Z 0000000180034120 f i mfdpage_fms.obj
 0001:00033120       ??$construct@PEAU?$_Tree_node@U?$pair@$$CBV?$basic_string@DU?$char_traits@D@std@@V?$allocator@D@2@@std@@PEAVfms_config_item_t@@@std@@PEAX@std@@AEAPEAU12@@?$_Wrap_alloc@V?$allocator@U?$_Tree_node@U?$pair@$$CBV?$basic_string@DU?$char_traits@D@std@@V?$allocator@D@2@@std@@PEAVfms_config_item_t@@@std@@PEAX@std@@@std@@@std@@QEAAXPEAPEAU?$_Tree_node@U?$pair@$$CBV?$basic_string@DU?$char_traits@D@std@@V?$allocator@D@2@@std@@PEAVfms_config_item_t@@@std@@PEAX@1@AEAPEAU21@@Z 0000000180034120 f i fms_config.obj
 0001:00033120       ??$construct@PEAU?$_Tree_node@U?$pair@$$CBV?$basic_string@DU?$char_traits@D@std@@V?$allocator@D@2@@std@@PEAVfms_fp_item_t@@@std@@PEAX@std@@AEAPEAU12@@?$_Wrap_alloc@V?$allocator@U?$_Tree_node@U?$pair@$$CBV?$basic_string@DU?$char_traits@D@std@@V?$allocator@D@2@@std@@PEAVfms_fp_item_t@@@std@@PEAX@std@@@std@@@std@@QEAAXPEAPEAU?$_Tree_node@U?$pair@$$CBV?$basic_string@DU?$char_traits@D@std@@V?$allocator@D@2@@std@@PEAVfms_fp_item_t@@@std@@PEAX@1@AEAPEAU21@@Z 0000000180034120 f i fms_fp.obj
 0001:00033120       ??$construct@PEAVmfdpage_t@@AEBQEAV1@@?$_Wrap_alloc@V?$allocator@U?$_Tree_node@PEAVmfdpage_t@@PEAX@std@@@std@@@std@@QEAAXPEAPEAVmfdpage_t@@AEBQEAV2@@Z 0000000180034120 f i in.obj
 0001:00033120       ??$construct@PEAU?$_Tree_node@U?$pair@$$CBHPEAVfms_fp_item_t@@@std@@PEAX@std@@AEAPEAU12@@?$_Wrap_alloc@V?$allocator@U?$_Tree_node@U?$pair@$$CBHPEAVfms_fp_item_t@@@std@@PEAX@std@@@std@@@std@@QEAAXPEAPEAU?$_Tree_node@U?$pair@$$CBHPEAVfms_fp_item_t@@@std@@PEAX@1@AEAPEAU21@@Z 0000000180034120 f i mfdpage_fms.obj
 0001:00033120       ??$construct@PEAVobject_t@@AEBQEAV1@@?$_Wrap_alloc@V?$allocator@U?$_Tree_node@PEAVobject_t@@PEAX@std@@@std@@@std@@QEAAXPEAPEAVobject_t@@AEBQEAV2@@Z 0000000180034120 f i data.obj
 0001:00033120       ??$construct@PEAU?$_Tree_node@PEAVlistener_t@@PEAX@std@@AEAPEAU12@@?$_Wrap_alloc@V?$allocator@U?$_Tree_node@PEAVlistener_t@@PEAX@std@@@std@@@std@@QEAAXPEAPEAU?$_Tree_node@PEAVlistener_t@@PEAX@1@AEAPEAU21@@Z 0000000180034120 f i data.obj
 0001:00033120       ??$construct@PEAU?$_Tree_node@U?$pair@$$CBHV?$basic_string@DU?$char_traits@D@std@@V?$allocator@D@2@@std@@@std@@PEAX@std@@AEAPEAU12@@?$_Wrap_alloc@V?$allocator@U?$_Tree_node@U?$pair@$$CBHV?$basic_string@DU?$char_traits@D@std@@V?$allocator@D@2@@std@@@std@@PEAX@std@@@std@@@std@@QEAAXPEAPEAU?$_Tree_node@U?$pair@$$CBHV?$basic_string@DU?$char_traits@D@std@@V?$allocator@D@2@@std@@@std@@PEAX@1@AEAPEAU21@@Z 0000000180034120 f i out_saitek.obj
 0001:00033120       ??$construct@PEAU?$_Tree_node@U?$pair@$$CBHPEAVobject_t@@@std@@PEAX@std@@AEAPEAU12@@?$_Wrap_alloc@V?$allocator@U?$_Tree_node@U?$pair@$$CBHPEAVobject_t@@@std@@PEAX@std@@@std@@@std@@QEAAXPEAPEAU?$_Tree_node@U?$pair@$$CBHPEAVobject_t@@@std@@PEAX@1@AEAPEAU21@@Z 0000000180034120 f i mfdpage.obj
 0001:00033120       ??$construct@PEAU?$_Tree_node@U?$pair@$$CBV?$basic_string@DU?$char_traits@D@std@@V?$allocator@D@2@@std@@V12@@std@@PEAX@std@@AEAPEAU12@@?$_Wrap_alloc@V?$allocator@U?$_Tree_node@U?$pair@$$CBV?$basic_string@DU?$char_traits@D@std@@V?$allocator@D@2@@std@@V12@@std@@PEAX@std@@@std@@@std@@QEAAXPEAPEAU?$_Tree_node@U?$pair@$$CBV?$basic_string@DU?$char_traits@D@std@@V?$allocator@D@2@@std@@V12@@std@@PEAX@1@AEAPEAU21@@Z 0000000180034120 f i tools.obj
 0001:00033120       ??$construct@PEAVlistener_t@@AEBQEAV1@@?$_Wrap_alloc@V?$allocator@U?$_Tree_node@PEAVlistener_t@@PEAX@std@@@std@@@std@@QEAAXPEAPEAVlistener_t@@AEBQEAV2@@Z 0000000180034120 f i data.obj
 0001:00033120       ??$construct@PEAU?$_Tree_node@PEAVmfdpage_t@@PEAX@std@@AEAPEAU12@@?$_Wrap_alloc@V?$allocator@U?$_Tree_node@PEAVmfdpage_t@@PEAX@std@@@std@@@std@@QEAAXPEAPEAU?$_Tree_node@PEAVmfdpage_t@@PEAX@1@AEAPEAU21@@Z 0000000180034120 f i in.obj
 0001:00033160       ??$construct@U?$pair@$$CBV?$basic_string@DU?$char_traits@D@std@@V?$allocator@D@2@@std@@PEAVfms_fp_item_t@@@std@@AEBUpiecewise_construct_t@2@V?$tuple@AEBV?$basic_string@DU?$char_traits@D@std@@V?$allocator@D@2@@std@@@2@V?$tuple@$$$V@2@@?$_Wrap_alloc@V?$allocator@U?$_Tree_node@U?$pair@$$CBV?$basic_string@DU?$char_traits@D@std@@V?$allocator@D@2@@std@@PEAVfms_fp_item_t@@@std@@PEAX@std@@@std@@@std@@QEAAXPEAU?$pair@$$CBV?$basic_string@DU?$char_traits@D@std@@V?$allocator@D@2@@std@@PEAVfms_fp_item_t@@@1@AEBUpiecewise_construct_t@1@$$QEAV?$tuple@AEBV?$basic_string@DU?$char_traits@D@std@@V?$allocator@D@2@@std@@@1@$$QEAV?$tuple@$$$V@1@@Z 0000000180034160 f i fms_fp.obj
 0001:00033160       ??$construct@U?$pair@$$CBV?$basic_string@DU?$char_traits@D@std@@V?$allocator@D@2@@std@@PEAVfms_config_item_t@@@std@@AEBUpiecewise_construct_t@2@V?$tuple@AEBV?$basic_string@DU?$char_traits@D@std@@V?$allocator@D@2@@std@@@2@V?$tuple@$$$V@2@@?$_Wrap_alloc@V?$allocator@U?$_Tree_node@U?$pair@$$CBV?$basic_string@DU?$char_traits@D@std@@V?$allocator@D@2@@std@@PEAVfms_config_item_t@@@std@@PEAX@std@@@std@@@std@@QEAAXPEAU?$pair@$$CBV?$basic_string@DU?$char_traits@D@std@@V?$allocator@D@2@@std@@PEAVfms_config_item_t@@@1@AEBUpiecewise_construct_t@1@$$QEAV?$tuple@AEBV?$basic_string@DU?$char_traits@D@std@@V?$allocator@D@2@@std@@@1@$$QEAV?$tuple@$$$V@1@@Z 0000000180034160 f i fms_config.obj
 0001:000331d0       ??$construct@U?$pair@$$CBV?$basic_string@DU?$char_traits@D@std@@V?$allocator@D@2@@std@@PEAVfms_fp_item_t@@@std@@AEBUpiecewise_construct_t@2@V?$tuple@AEBV?$basic_string@DU?$char_traits@D@std@@V?$allocator@D@2@@std@@@2@V?$tuple@$$$V@2@@?$allocator@U?$_Tree_node@U?$pair@$$CBV?$basic_string@DU?$char_traits@D@std@@V?$allocator@D@2@@std@@PEAVfms_fp_item_t@@@std@@PEAX@std@@@std@@QEAAXPEAU?$pair@$$CBV?$basic_string@DU?$char_traits@D@std@@V?$allocator@D@2@@std@@PEAVfms_fp_item_t@@@1@AEBUpiecewise_construct_t@1@$$QEAV?$tuple@AEBV?$basic_string@DU?$char_traits@D@std@@V?$allocator@D@2@@std@@@1@$$QEAV?$tuple@$$$V@1@@Z 00000001800341d0 f i fms_fp.obj
 0001:000331d0       ??$construct@U?$pair@$$CBV?$basic_string@DU?$char_traits@D@std@@V?$allocator@D@2@@std@@PEAVfms_config_item_t@@@std@@AEBUpiecewise_construct_t@2@V?$tuple@AEBV?$basic_string@DU?$char_traits@D@std@@V?$allocator@D@2@@std@@@2@V?$tuple@$$$V@2@@?$allocator@U?$_Tree_node@U?$pair@$$CBV?$basic_string@DU?$char_traits@D@std@@V?$allocator@D@2@@std@@PEAVfms_config_item_t@@@std@@PEAX@std@@@std@@QEAAXPEAU?$pair@$$CBV?$basic_string@DU?$char_traits@D@std@@V?$allocator@D@2@@std@@PEAVfms_config_item_t@@@1@AEBUpiecewise_construct_t@1@$$QEAV?$tuple@AEBV?$basic_string@DU?$char_traits@D@std@@V?$allocator@D@2@@std@@@1@$$QEAV?$tuple@$$$V@1@@Z 00000001800341d0 f i fms_config.obj
